ARM GAS  C:\Users\CHRONI~1\AppData\Local\Temp\ccyT6UQk.s 			page 1


   1              		.syntax unified
   2              		.cpu cortex-m3
   3              		.fpu softvfp
   4              		.eabi_attribute 20, 1
   5              		.eabi_attribute 21, 1
   6              		.eabi_attribute 23, 3
   7              		.eabi_attribute 24, 1
   8              		.eabi_attribute 25, 1
   9              		.eabi_attribute 26, 1
  10              		.eabi_attribute 30, 1
  11              		.eabi_attribute 34, 1
  12              		.eabi_attribute 18, 4
  13              		.thumb
  14              		.syntax unified
  15              		.file	"app.c"
  16              		.text
  17              	.Ltext0:
  18              		.cfi_sections	.debug_frame
  19              		.section	.text.App_TaskStart,"ax",%progbits
  20              		.align	2
  21              		.thumb
  22              		.thumb_func
  23              		.type	App_TaskStart, %function
  24              	App_TaskStart:
  25              	.LFB65:
  26              		.file 1 "APP\\app.c"
   1:APP/app.c     **** /*
   2:APP/app.c     **** ***************************************************************************************************
   3:APP/app.c     **** *
   4:APP/app.c     **** *                                       MES1 Embedded Software (RTOS)
   5:APP/app.c     **** *
   6:APP/app.c     **** * Filename      : app.c
   7:APP/app.c     **** * Version       : V1.00
   8:APP/app.c     **** * Programmer(s) : Beneder Roman
   9:APP/app.c     ****                   
  10:APP/app.c     **** ***************************************************************************************************
  11:APP/app.c     **** */
  12:APP/app.c     **** 
  13:APP/app.c     **** #include <project.h>
  14:APP/app.c     **** #include <includes.h>
  15:APP/app.c     **** #include "log_task.h"  /* Include the log task header */
  16:APP/app.c     **** /*
  17:APP/app.c     **** ***************************************************************************************************
  18:APP/app.c     **** *                                             LOCAL DEFINES
  19:APP/app.c     **** ***************************************************************************************************
  20:APP/app.c     **** */
  21:APP/app.c     **** 
  22:APP/app.c     **** #define  USE_BSP_TOGGLE                             1u
  23:APP/app.c     **** 
  24:APP/app.c     **** /*
  25:APP/app.c     **** ***************************************************************************************************
  26:APP/app.c     **** *                                            LOCAL VARIABLES
  27:APP/app.c     **** ***************************************************************************************************
  28:APP/app.c     **** */
  29:APP/app.c     **** static OS_TCB App_TaskStartTCB;
  30:APP/app.c     **** static CPU_STK App_TaskStartStk[APP_CFG_TASK_START_STK_SIZE];
  31:APP/app.c     **** 
ARM GAS  C:\Users\CHRONI~1\AppData\Local\Temp\ccyT6UQk.s 			page 2


  32:APP/app.c     **** /*
  33:APP/app.c     **** ***************************************************************************************************
  34:APP/app.c     **** *                                         FUNCTION PROTOTYPES
  35:APP/app.c     **** ***************************************************************************************************
  36:APP/app.c     **** */
  37:APP/app.c     **** 
  38:APP/app.c     **** static void App_TaskStart(void *p_arg);
  39:APP/app.c     **** 
  40:APP/app.c     **** /*
  41:APP/app.c     **** ***************************************************************************************************
  42:APP/app.c     **** *                                                main()
  43:APP/app.c     **** ***************************************************************************************************
  44:APP/app.c     **** */
  45:APP/app.c     **** 
  46:APP/app.c     **** int main(void)
  47:APP/app.c     **** {
  48:APP/app.c     ****     OS_ERR os_err;
  49:APP/app.c     **** 
  50:APP/app.c     ****     BSP_PreInit();
  51:APP/app.c     ****     CPU_Init();
  52:APP/app.c     ****     /* Init OS */
  53:APP/app.c     ****     OSInit(&os_err);
  54:APP/app.c     ****     CyGlobalIntEnable; // Enable global interrupts
  55:APP/app.c     ****     /* Start OS multitasking */
  56:APP/app.c     ****     OSTaskCreate((OS_TCB      *)&App_TaskStartTCB,              
  57:APP/app.c     ****                  (CPU_CHAR    *)"Start",
  58:APP/app.c     ****                  (OS_TASK_PTR  )App_TaskStart, 
  59:APP/app.c     ****                  (void        *)0,
  60:APP/app.c     ****                  (OS_PRIO      )APP_CFG_TASK_START_PRIO,
  61:APP/app.c     ****                  (CPU_STK     *)&App_TaskStartStk[0],
  62:APP/app.c     ****                  (CPU_STK_SIZE )APP_CFG_TASK_START_STK_SIZE_LIMIT,
  63:APP/app.c     ****                  (CPU_STK_SIZE )APP_CFG_TASK_START_STK_SIZE,
  64:APP/app.c     ****                  (OS_MSG_QTY   )0u,
  65:APP/app.c     ****                  (OS_TICK      )0u,
  66:APP/app.c     ****                  (void        *)0,
  67:APP/app.c     ****                  (OS_OPT       )(OS_OPT_TASK_STK_CHK | OS_OPT_TASK_STK_CLR),
  68:APP/app.c     ****                  (OS_ERR      *)&os_err);
  69:APP/app.c     **** 
  70:APP/app.c     ****     OSStart(&os_err);  /* Start multitasking */
  71:APP/app.c     **** }
  72:APP/app.c     **** 
  73:APP/app.c     **** 
  74:APP/app.c     **** /*
  75:APP/app.c     **** ***************************************************************************************************
  76:APP/app.c     **** *                                          App_TaskStart()
  77:APP/app.c     **** ***************************************************************************************************
  78:APP/app.c     **** */
  79:APP/app.c     **** static void App_TaskStart(void *p_arg) {
  27              		.loc 1 79 0
  28              		.cfi_startproc
  29              		@ args = 0, pretend = 0, frame = 8
  30              		@ frame_needed = 0, uses_anonymous_args = 0
  31              	.LVL0:
  32 0000 30B5     		push	{r4, r5, lr}
  33              		.cfi_def_cfa_offset 12
  34              		.cfi_offset 4, -12
  35              		.cfi_offset 5, -8
ARM GAS  C:\Users\CHRONI~1\AppData\Local\Temp\ccyT6UQk.s 			page 3


  36              		.cfi_offset 14, -4
  37 0002 85B0     		sub	sp, sp, #20
  38              		.cfi_def_cfa_offset 32
  80:APP/app.c     ****     OS_ERR err;
  81:APP/app.c     ****     (void)p_arg;
  82:APP/app.c     **** 
  83:APP/app.c     ****     
  84:APP/app.c     ****     BSP_PostInit();
  39              		.loc 1 84 0
  40 0004 FFF7FEFF 		bl	BSP_PostInit
  41              	.LVL1:
  85:APP/app.c     ****     BSP_CPU_TickInit();
  42              		.loc 1 85 0
  43 0008 FFF7FEFF 		bl	BSP_CPU_TickInit
  44              	.LVL2:
  86:APP/app.c     ****     
  87:APP/app.c     ****     /* Create the semaphore */
  88:APP/app.c     ****     OSSemCreate(&LogTaskSem, "Log Task Semaphore", 0, &err);
  45              		.loc 1 88 0
  46 000c 0DF10E05 		add	r5, sp, #14
  47 0010 114C     		ldr	r4, .L4
  48 0012 2B46     		mov	r3, r5
  49 0014 0022     		movs	r2, #0
  50 0016 1149     		ldr	r1, .L4+4
  51 0018 2046     		mov	r0, r4
  52 001a FFF7FEFF 		bl	OSSemCreate
  53              	.LVL3:
  89:APP/app.c     ****     
  90:APP/app.c     ****     Log_Init();    /* Initializes and creates the log task */
  54              		.loc 1 90 0
  55 001e FFF7FEFF 		bl	Log_Init
  56              	.LVL4:
  91:APP/app.c     **** 
  92:APP/app.c     ****     /* Wait for the log task to signal that it's ready */
  93:APP/app.c     ****     OSSemPend(&LogTaskSem, 0, OS_OPT_PEND_BLOCKING, NULL, &err);
  57              		.loc 1 93 0
  58 0022 0095     		str	r5, [sp]
  59 0024 0023     		movs	r3, #0
  60 0026 1A46     		mov	r2, r3
  61 0028 1946     		mov	r1, r3
  62 002a 2046     		mov	r0, r4
  63 002c FFF7FEFF 		bl	OSSemPend
  64              	.LVL5:
  94:APP/app.c     ****     
  95:APP/app.c     ****     Log_Write(LOG_LEVEL_INFO, "App_TaskStart: Log task initialized successfully");
  65              		.loc 1 95 0
  66 0030 0B49     		ldr	r1, .L4+8
  67 0032 0120     		movs	r0, #1
  68 0034 FFF7FEFF 		bl	Log_Write
  69              	.LVL6:
  96:APP/app.c     **** 
  97:APP/app.c     ****     I2C_Init();    /* Initializes and creates the I2C task */
  70              		.loc 1 97 0
  71 0038 FFF7FEFF 		bl	I2C_Init
  72              	.LVL7:
  98:APP/app.c     ****     SPI_Init();
  73              		.loc 1 98 0
ARM GAS  C:\Users\CHRONI~1\AppData\Local\Temp\ccyT6UQk.s 			page 4


  74 003c FFF7FEFF 		bl	SPI_Init
  75              	.LVL8:
  76              	.L2:
  99:APP/app.c     ****     while (DEF_TRUE) {
 100:APP/app.c     ****         /* Delay before next read */
 101:APP/app.c     ****         OSTimeDlyHMSM(0, 0, 1, 0, OS_OPT_TIME_HMSM_STRICT, &err);
  77              		.loc 1 101 0 discriminator 1
  78 0040 0DF10E03 		add	r3, sp, #14
  79 0044 0193     		str	r3, [sp, #4]
  80 0046 0020     		movs	r0, #0
  81 0048 0090     		str	r0, [sp]
  82 004a 0346     		mov	r3, r0
  83 004c 0122     		movs	r2, #1
  84 004e 0146     		mov	r1, r0
  85 0050 FFF7FEFF 		bl	OSTimeDlyHMSM
  86              	.LVL9:
  87 0054 F4E7     		b	.L2
  88              	.L5:
  89 0056 00BF     		.align	2
  90              	.L4:
  91 0058 00000000 		.word	LogTaskSem
  92 005c 00000000 		.word	.LC0
  93 0060 14000000 		.word	.LC1
  94              		.cfi_endproc
  95              	.LFE65:
  96              		.size	App_TaskStart, .-App_TaskStart
  97              		.section	.text.main,"ax",%progbits
  98              		.align	2
  99              		.global	main
 100              		.thumb
 101              		.thumb_func
 102              		.type	main, %function
 103              	main:
 104              	.LFB64:
  47:APP/app.c     ****     OS_ERR os_err;
 105              		.loc 1 47 0
 106              		.cfi_startproc
 107              		@ args = 0, pretend = 0, frame = 8
 108              		@ frame_needed = 0, uses_anonymous_args = 0
 109 0000 30B5     		push	{r4, r5, lr}
 110              		.cfi_def_cfa_offset 12
 111              		.cfi_offset 4, -12
 112              		.cfi_offset 5, -8
 113              		.cfi_offset 14, -4
 114 0002 8DB0     		sub	sp, sp, #52
 115              		.cfi_def_cfa_offset 64
  50:APP/app.c     ****     CPU_Init();
 116              		.loc 1 50 0
 117 0004 FFF7FEFF 		bl	BSP_PreInit
 118              	.LVL10:
  51:APP/app.c     ****     /* Init OS */
 119              		.loc 1 51 0
 120 0008 FFF7FEFF 		bl	CPU_Init
 121              	.LVL11:
  53:APP/app.c     ****     CyGlobalIntEnable; // Enable global interrupts
 122              		.loc 1 53 0
 123 000c 0DF12E05 		add	r5, sp, #46
ARM GAS  C:\Users\CHRONI~1\AppData\Local\Temp\ccyT6UQk.s 			page 5


 124 0010 2846     		mov	r0, r5
 125 0012 FFF7FEFF 		bl	OSInit
 126              	.LVL12:
  54:APP/app.c     ****     /* Start OS multitasking */
 127              		.loc 1 54 0
 128              		.syntax unified
 129              	@ 54 "APP\app.c" 1
 130 0016 62B6     		CPSIE   i
 131              	@ 0 "" 2
  56:APP/app.c     ****                  (CPU_CHAR    *)"Start",
 132              		.loc 1 56 0
 133              		.thumb
 134              		.syntax unified
 135 0018 0E48     		ldr	r0, .L8
 136 001a 0895     		str	r5, [sp, #32]
 137 001c 0323     		movs	r3, #3
 138 001e 0793     		str	r3, [sp, #28]
 139 0020 0024     		movs	r4, #0
 140 0022 0694     		str	r4, [sp, #24]
 141 0024 0594     		str	r4, [sp, #20]
 142 0026 0494     		str	r4, [sp, #16]
 143 0028 4FF48073 		mov	r3, #256
 144 002c 0393     		str	r3, [sp, #12]
 145 002e 1923     		movs	r3, #25
 146 0030 0293     		str	r3, [sp, #8]
 147 0032 00F1C003 		add	r3, r0, #192
 148 0036 0193     		str	r3, [sp, #4]
 149 0038 0223     		movs	r3, #2
 150 003a 0093     		str	r3, [sp]
 151 003c 2346     		mov	r3, r4
 152 003e 064A     		ldr	r2, .L8+4
 153 0040 0649     		ldr	r1, .L8+8
 154 0042 FFF7FEFF 		bl	OSTaskCreate
 155              	.LVL13:
  70:APP/app.c     **** }
 156              		.loc 1 70 0
 157 0046 2846     		mov	r0, r5
 158 0048 FFF7FEFF 		bl	OSStart
 159              	.LVL14:
  71:APP/app.c     **** 
 160              		.loc 1 71 0
 161 004c 2046     		mov	r0, r4
 162 004e 0DB0     		add	sp, sp, #52
 163              		.cfi_def_cfa_offset 12
 164              		@ sp needed
 165 0050 30BD     		pop	{r4, r5, pc}
 166              	.L9:
 167 0052 00BF     		.align	2
 168              	.L8:
 169 0054 00000000 		.word	.LANCHOR0
 170 0058 00000000 		.word	App_TaskStart
 171 005c 48000000 		.word	.LC2
 172              		.cfi_endproc
 173              	.LFE64:
 174              		.size	main, .-main
 175              		.section	.rodata.str1.4,"aMS",%progbits,1
 176              		.align	2
ARM GAS  C:\Users\CHRONI~1\AppData\Local\Temp\ccyT6UQk.s 			page 6


 177              	.LC0:
 178 0000 4C6F6720 		.ascii	"Log Task Semaphore\000"
 178      5461736B 
 178      2053656D 
 178      6170686F 
 178      726500
 179 0013 00       		.space	1
 180              	.LC1:
 181 0014 4170705F 		.ascii	"App_TaskStart: Log task initialized successfully\000"
 181      5461736B 
 181      53746172 
 181      743A204C 
 181      6F672074 
 182 0045 000000   		.space	3
 183              	.LC2:
 184 0048 53746172 		.ascii	"Start\000"
 184      7400
 185              		.bss
 186              		.align	2
 187              		.set	.LANCHOR0,. + 0
 188              		.type	App_TaskStartTCB, %object
 189              		.size	App_TaskStartTCB, 192
 190              	App_TaskStartTCB:
 191 0000 00000000 		.space	192
 191      00000000 
 191      00000000 
 191      00000000 
 191      00000000 
 192              		.type	App_TaskStartStk, %object
 193              		.size	App_TaskStartStk, 1024
 194              	App_TaskStartStk:
 195 00c0 00000000 		.space	1024
 195      00000000 
 195      00000000 
 195      00000000 
 195      00000000 
 196              		.text
 197              	.Letext0:
 198              		.file 2 "c:\\program files (x86)\\cypress\\psoc creator\\4.4\\psoc creator\\import\\gnu\\arm\\5.4.
 199              		.file 3 "c:\\program files (x86)\\cypress\\psoc creator\\4.4\\psoc creator\\import\\gnu\\arm\\5.4.
 200              		.file 4 ".\\uC-CPU\\ARM-Cortex-M3\\GNU/cpu.h"
 201              		.file 5 ".\\uC-CPU/cpu_core.h"
 202              		.file 6 ".\\uCOS-III\\Source/os_type.h"
 203              		.file 7 ".\\uCOS-III\\Source/os.h"
 204              		.file 8 "Generated_Source\\PSoC5/core_cm3.h"
 205              		.file 9 "./log_task.h"
 206              		.file 10 ".\\BSP/bsp.h"
 207              		.file 11 "./bsp_i2c.h"
 208              		.file 12 "./bsp_spi.h"