ARM GAS  C:\Users\CHRONI~1\AppData\Local\Temp\cclkxkiv.s 			page 1


   1              		.syntax unified
   2              		.cpu cortex-m3
   3              		.fpu softvfp
   4              		.eabi_attribute 20, 1
   5              		.eabi_attribute 21, 1
   6              		.eabi_attribute 23, 3
   7              		.eabi_attribute 24, 1
   8              		.eabi_attribute 25, 1
   9              		.eabi_attribute 26, 1
  10              		.eabi_attribute 30, 1
  11              		.eabi_attribute 34, 1
  12              		.eabi_attribute 18, 4
  13              		.thumb
  14              		.syntax unified
  15              		.file	"bsp_i2c.c"
  16              		.text
  17              	.Ltext0:
  18              		.cfi_sections	.debug_frame
  19              		.section	.text.Timer_ISR,"ax",%progbits
  20              		.align	2
  21              		.global	Timer_ISR
  22              		.thumb
  23              		.thumb_func
  24              		.type	Timer_ISR, %function
  25              	Timer_ISR:
  26              	.LFB64:
  27              		.file 1 "bsp_i2c.c"
   1:bsp_i2c.c     **** #include "bsp_i2c.h"
   2:bsp_i2c.c     **** 
   3:bsp_i2c.c     **** /* I2C Buffer */
   4:bsp_i2c.c     **** CPU_INT08U i2c_rx_buffer[I2C_BUFFER_SIZE];
   5:bsp_i2c.c     **** CPU_INT32S heart_rate_history[MAX_HISTORY_SIZE] = {0}; // Circular buffer for heart rate history
   6:bsp_i2c.c     **** CPU_INT32U heart_rate_count = 0; // Number of heart rates recorded
   7:bsp_i2c.c     **** CPU_INT32U adaptive_threshold = INITIAL_THRESHOLD; // Adaptive threshold for contact detection
   8:bsp_i2c.c     **** 
   9:bsp_i2c.c     **** /* Task Control Block and Stack Declaration for I2C Task */
  10:bsp_i2c.c     **** OS_TCB I2C_Task_TCB;
  11:bsp_i2c.c     **** CPU_STK I2C_TaskStk[APP_CFG_TASK_I2C_STK_SIZE];
  12:bsp_i2c.c     **** 
  13:bsp_i2c.c     **** /* Heart Rate Variables */
  14:bsp_i2c.c     **** CPU_INT32U last_peak_timestamp = INITIAL_LAST_PEAK_TIMESTAMP; // Timestamp of last detected peak
  15:bsp_i2c.c     **** CPU_INT32S IR_AC_Max = INITIAL_IR_AC_MAX; // Maximum IR AC signal
  16:bsp_i2c.c     **** CPU_INT32S IR_AC_Min = INITIAL_IR_AC_MIN; // Minimum IR AC signal
  17:bsp_i2c.c     **** CPU_INT32S IR_AC_Signal_Current = INITIAL_IR_AC_SIGNAL_CURRENT; // Current AC signal value
  18:bsp_i2c.c     **** CPU_INT32S IR_AC_Signal_Previous = INITIAL_IR_AC_SIGNAL_PREVIOUS; // Previous AC signal value
  19:bsp_i2c.c     **** CPU_INT32S ir_avg_reg = INITIAL_IR_AVG_REG; // Running average of DC component
  20:bsp_i2c.c     **** CPU_INT32S heart_rate_sum = INITIAL_HEART_RATE_SUM; // Running sum for moving average
  21:bsp_i2c.c     **** CPU_INT32U heart_rate_index = INITIAL_HEART_RATE_INDEX; // Current index for circular buffer
  22:bsp_i2c.c     **** 
  23:bsp_i2c.c     **** /* FIR Coefficients for Low Pass Filter */
  24:bsp_i2c.c     **** static const CPU_INT16U FIRCoeffs[FIR_COEFF_SIZE] = {172, 321, 579, 927, 1360, 1858, 2390, 2916, 33
  25:bsp_i2c.c     **** 
  26:bsp_i2c.c     **** /* Function Prototypes */
  27:bsp_i2c.c     **** static void I2C_Task(void *p_arg);  /* I2C Task Function */
  28:bsp_i2c.c     **** 
  29:bsp_i2c.c     **** /* Timer Variables */
  30:bsp_i2c.c     **** volatile CPU_INT32U current_timestamp = 0;  // Variable to hold the current timestamp
ARM GAS  C:\Users\CHRONI~1\AppData\Local\Temp\cclkxkiv.s 			page 2


  31:bsp_i2c.c     **** 
  32:bsp_i2c.c     **** // Timer ISR to increment timestamp
  33:bsp_i2c.c     **** CY_ISR(Timer_ISR) {
  28              		.loc 1 33 0
  29              		.cfi_startproc
  30              		@ args = 0, pretend = 0, frame = 0
  31              		@ frame_needed = 0, uses_anonymous_args = 0
  32              		@ link register save eliminated.
  34:bsp_i2c.c     ****     current_timestamp++;  // Increment the timestamp every millisecond
  33              		.loc 1 34 0
  34 0000 024A     		ldr	r2, .L2
  35 0002 1368     		ldr	r3, [r2]
  36 0004 0133     		adds	r3, r3, #1
  37 0006 1360     		str	r3, [r2]
  38 0008 7047     		bx	lr
  39              	.L3:
  40 000a 00BF     		.align	2
  41              	.L2:
  42 000c 00000000 		.word	.LANCHOR0
  43              		.cfi_endproc
  44              	.LFE64:
  45              		.size	Timer_ISR, .-Timer_ISR
  46              		.section	.text.I2C_Init,"ax",%progbits
  47              		.align	2
  48              		.global	I2C_Init
  49              		.thumb
  50              		.thumb_func
  51              		.type	I2C_Init, %function
  52              	I2C_Init:
  53              	.LFB65:
  35:bsp_i2c.c     **** }
  36:bsp_i2c.c     **** 
  37:bsp_i2c.c     **** /*
  38:bsp_i2c.c     **** ***************************************************************************************************
  39:bsp_i2c.c     **** *                                         I2C Initialization (Task Creation)
  40:bsp_i2c.c     **** ***************************************************************************************************
  41:bsp_i2c.c     **** */
  42:bsp_i2c.c     **** void I2C_Init(void) {
  54              		.loc 1 42 0
  55              		.cfi_startproc
  56              		@ args = 0, pretend = 0, frame = 8
  57              		@ frame_needed = 0, uses_anonymous_args = 0
  58 0000 00B5     		push	{lr}
  59              		.cfi_def_cfa_offset 4
  60              		.cfi_offset 14, -4
  61 0002 8DB0     		sub	sp, sp, #52
  62              		.cfi_def_cfa_offset 56
  43:bsp_i2c.c     ****     OS_ERR os_err;
  44:bsp_i2c.c     ****     Log_Write(LOG_LEVEL_I2C, "I2C Init: Creating I2C task", 0);
  63              		.loc 1 44 0
  64 0004 0022     		movs	r2, #0
  65 0006 1749     		ldr	r1, .L8
  66 0008 2020     		movs	r0, #32
  67 000a FFF7FEFF 		bl	Log_Write
  68              	.LVL0:
  45:bsp_i2c.c     **** 
  46:bsp_i2c.c     ****     /* Create the I2C task */
ARM GAS  C:\Users\CHRONI~1\AppData\Local\Temp\cclkxkiv.s 			page 3


  47:bsp_i2c.c     ****     OSTaskCreate((OS_TCB *)&I2C_Task_TCB,
  69              		.loc 1 47 0
  70 000e 0DF12E03 		add	r3, sp, #46
  71 0012 0893     		str	r3, [sp, #32]
  72 0014 0323     		movs	r3, #3
  73 0016 0793     		str	r3, [sp, #28]
  74 0018 0023     		movs	r3, #0
  75 001a 0693     		str	r3, [sp, #24]
  76 001c 0593     		str	r3, [sp, #20]
  77 001e 0493     		str	r3, [sp, #16]
  78 0020 4FF40072 		mov	r2, #512
  79 0024 0392     		str	r2, [sp, #12]
  80 0026 3322     		movs	r2, #51
  81 0028 0292     		str	r2, [sp, #8]
  82 002a 0F4A     		ldr	r2, .L8+4
  83 002c 0192     		str	r2, [sp, #4]
  84 002e 0622     		movs	r2, #6
  85 0030 0092     		str	r2, [sp]
  86 0032 0E4A     		ldr	r2, .L8+8
  87 0034 0E49     		ldr	r1, .L8+12
  88 0036 0F48     		ldr	r0, .L8+16
  89 0038 FFF7FEFF 		bl	OSTaskCreate
  90              	.LVL1:
  48:bsp_i2c.c     ****                  (CPU_CHAR *)"I2C Task",
  49:bsp_i2c.c     ****                  (OS_TASK_PTR)I2C_Task,
  50:bsp_i2c.c     ****                  (void *)0,
  51:bsp_i2c.c     ****                  (OS_PRIO)APP_CFG_TASK_I2C_PRIO,
  52:bsp_i2c.c     ****                  (CPU_STK *)&I2C_TaskStk[0],
  53:bsp_i2c.c     ****                  (CPU_STK_SIZE)APP_CFG_TASK_I2C_STK_SIZE_LIMIT,
  54:bsp_i2c.c     ****                  (CPU_STK_SIZE)APP_CFG_TASK_I2C_STK_SIZE,
  55:bsp_i2c.c     ****                  (OS_MSG_QTY)0u,
  56:bsp_i2c.c     ****                  (OS_TICK)0u,
  57:bsp_i2c.c     ****                  (void *)0,
  58:bsp_i2c.c     ****                  (OS_OPT)(OS_OPT_TASK_STK_CHK | OS_OPT_TASK_STK_CLR),
  59:bsp_i2c.c     ****                  (OS_ERR *)&os_err);
  60:bsp_i2c.c     **** 
  61:bsp_i2c.c     ****     if (os_err == OS_ERR_NONE) {
  91              		.loc 1 61 0
  92 003c BDF82E20 		ldrh	r2, [sp, #46]
  93 0040 22B9     		cbnz	r2, .L5
  62:bsp_i2c.c     ****         Log_Write(LOG_LEVEL_I2C, "I2C Task created successfully", 0);
  94              		.loc 1 62 0
  95 0042 0D49     		ldr	r1, .L8+20
  96 0044 2020     		movs	r0, #32
  97 0046 FFF7FEFF 		bl	Log_Write
  98              	.LVL2:
  99 004a 03E0     		b	.L6
 100              	.L5:
  63:bsp_i2c.c     ****     } else {
  64:bsp_i2c.c     ****         Log_Write(LOG_LEVEL_ERROR, "Error: I2C Task creation failed", os_err);
 101              		.loc 1 64 0
 102 004c 0B49     		ldr	r1, .L8+24
 103 004e 0420     		movs	r0, #4
 104 0050 FFF7FEFF 		bl	Log_Write
 105              	.LVL3:
 106              	.L6:
  65:bsp_i2c.c     ****     }
ARM GAS  C:\Users\CHRONI~1\AppData\Local\Temp\cclkxkiv.s 			page 4


  66:bsp_i2c.c     ****     
  67:bsp_i2c.c     ****     // Start the timer and enable its ISR
  68:bsp_i2c.c     ****     Timer_1_Start();
 107              		.loc 1 68 0
 108 0054 FFF7FEFF 		bl	Timer_1_Start
 109              	.LVL4:
  69:bsp_i2c.c     ****     Timer_ISR_StartEx(Timer_ISR);
 110              		.loc 1 69 0
 111 0058 0948     		ldr	r0, .L8+28
 112 005a FFF7FEFF 		bl	Timer_ISR_StartEx
 113              	.LVL5:
  70:bsp_i2c.c     **** }
 114              		.loc 1 70 0
 115 005e 0DB0     		add	sp, sp, #52
 116              		.cfi_def_cfa_offset 4
 117              		@ sp needed
 118 0060 5DF804FB 		ldr	pc, [sp], #4
 119              	.L9:
 120              		.align	2
 121              	.L8:
 122 0064 00000000 		.word	.LC0
 123 0068 00000000 		.word	I2C_TaskStk
 124 006c 00000000 		.word	I2C_Task
 125 0070 1C000000 		.word	.LC1
 126 0074 00000000 		.word	I2C_Task_TCB
 127 0078 28000000 		.word	.LC2
 128 007c 48000000 		.word	.LC3
 129 0080 00000000 		.word	Timer_ISR
 130              		.cfi_endproc
 131              	.LFE65:
 132              		.size	I2C_Init, .-I2C_Init
 133              		.section	.text.averageDCEstimator,"ax",%progbits
 134              		.align	2
 135              		.global	averageDCEstimator
 136              		.thumb
 137              		.thumb_func
 138              		.type	averageDCEstimator, %function
 139              	averageDCEstimator:
 140              	.LFB67:
  71:bsp_i2c.c     **** 
  72:bsp_i2c.c     **** /*
  73:bsp_i2c.c     **** ***************************************************************************************************
  74:bsp_i2c.c     **** *                                         I2C Task Function
  75:bsp_i2c.c     **** ***************************************************************************************************
  76:bsp_i2c.c     **** */
  77:bsp_i2c.c     **** static void I2C_Task(void *p_arg) {
  78:bsp_i2c.c     ****     OS_ERR os_err;
  79:bsp_i2c.c     ****     (void)p_arg; // Prevent unused parameter warning
  80:bsp_i2c.c     ****     max30102_handle_t max30102_handle;
  81:bsp_i2c.c     ****     CPU_INT32U raw_red = 0, raw_ir = 0; // Raw readings from the sensor
  82:bsp_i2c.c     ****     CPU_INT08U data_len = 2;  // Number of samples to read
  83:bsp_i2c.c     **** 
  84:bsp_i2c.c     ****     Log_Write(LOG_LEVEL_I2C, "I2C Task: Starting I2C hardware initialization", 0);
  85:bsp_i2c.c     **** 
  86:bsp_i2c.c     ****     // Initialize I2C hardware
  87:bsp_i2c.c     ****     I2C_1_Start();
  88:bsp_i2c.c     ****     Log_Write(LOG_LEVEL_I2C, "I2C Task: I2C hardware started", 0);
ARM GAS  C:\Users\CHRONI~1\AppData\Local\Temp\cclkxkiv.s 			page 5


  89:bsp_i2c.c     ****     
  90:bsp_i2c.c     ****     // Initialize the MAX30102 sensor
  91:bsp_i2c.c     ****     if (max30102_sensor_init(&max30102_handle) != 0) {
  92:bsp_i2c.c     ****         Log_Write(LOG_LEVEL_ERROR, "Failed to initialize MAX30102 sensor", 0);
  93:bsp_i2c.c     ****         return;  // Exit if sensor initialization fails
  94:bsp_i2c.c     ****     }
  95:bsp_i2c.c     **** 
  96:bsp_i2c.c     ****     // Main task loop
  97:bsp_i2c.c     ****     while (DEF_TRUE) {
  98:bsp_i2c.c     ****         max30102_bool_t samples_available = MAX30102_BOOL_FALSE;
  99:bsp_i2c.c     ****         max30102_get_interrupt(&max30102_handle, MAX30102_INTERRUPT_PPG_RDY_EN, &samples_available)
 100:bsp_i2c.c     ****         
 101:bsp_i2c.c     ****         // Small delay to prevent excessive polling
 102:bsp_i2c.c     ****         OSTimeDlyHMSM(0, 0, 0, POLLING_DELAY_MS, OS_OPT_TIME_HMSM_STRICT, &os_err); // Delay for a 
 103:bsp_i2c.c     **** 
 104:bsp_i2c.c     ****         if (samples_available == MAX30102_BOOL_TRUE) {
 105:bsp_i2c.c     ****             // Read data from MAX30102
 106:bsp_i2c.c     ****             CPU_INT08U res = max30102_read(&max30102_handle, &raw_red, &raw_ir, &data_len);
 107:bsp_i2c.c     ****             if (res == 0) {
 108:bsp_i2c.c     ****                 // Check for contact
 109:bsp_i2c.c     ****                 if (raw_red > adaptive_threshold && raw_ir > adaptive_threshold) {
 110:bsp_i2c.c     ****                 
 111:bsp_i2c.c     ****                     // Process the current IR value to detect heartbeat
 112:bsp_i2c.c     ****                     IR_AC_Signal_Current = raw_ir - averageDCEstimator(&ir_avg_reg, raw_ir);
 113:bsp_i2c.c     ****                     IR_AC_Signal_Current = lowPassFIRFilter(IR_AC_Signal_Current);
 114:bsp_i2c.c     **** 
 115:bsp_i2c.c     ****                     // Detect heartbeat based on changes in the signal
 116:bsp_i2c.c     ****                     if ((IR_AC_Signal_Previous < 0 && IR_AC_Signal_Current >= 0) || 
 117:bsp_i2c.c     ****                         (IR_AC_Signal_Previous > 0 && IR_AC_Signal_Current <= 0)) {
 118:bsp_i2c.c     ****                         
 119:bsp_i2c.c     ****                         // Ensure significant change in AC signal
 120:bsp_i2c.c     ****                         if ((IR_AC_Max - IR_AC_Min) > 20 && (IR_AC_Max - IR_AC_Min) < 1000) {
 121:bsp_i2c.c     ****                             CPU_INT32U elapsed_time = current_timestamp - last_peak_timestamp; // I
 122:bsp_i2c.c     ****                             if (elapsed_time > DEBOUNCE_TIME_MS) { // Debounce period
 123:bsp_i2c.c     ****                                 last_peak_timestamp = current_timestamp;
 124:bsp_i2c.c     **** 
 125:bsp_i2c.c     ****                                 // Calculate BPM
 126:bsp_i2c.c     ****                                 CPU_INT32S heart_rate_bpm = (60000 / elapsed_time); // Calculate BP
 127:bsp_i2c.c     ****                                 heart_rate_sum -= heart_rate_history[heart_rate_index]; // Remove t
 128:bsp_i2c.c     ****                                 heart_rate_history[heart_rate_index] = heart_rate_bpm; // Add new r
 129:bsp_i2c.c     ****                                 heart_rate_sum += heart_rate_bpm; // Update running sum
 130:bsp_i2c.c     ****                                 heart_rate_index = (heart_rate_index + 1) % MAX_HISTORY_SIZE; // Ci
 131:bsp_i2c.c     **** 
 132:bsp_i2c.c     ****                                 // Calculate and log average heart rate
 133:bsp_i2c.c     ****                                 CPU_INT32S average_heart_rate = heart_rate_sum / MAX_HISTORY_SIZE;
 134:bsp_i2c.c     ****                                 Log_Write(LOG_LEVEL_I2C, "Average Heart Rate: %d BPM", average_hear
 135:bsp_i2c.c     ****                                 
 136:bsp_i2c.c     ****                                 /*
 137:bsp_i2c.c     ****                                 !
 138:bsp_i2c.c     ****                                 !
 139:bsp_i2c.c     ****                                 !
 140:bsp_i2c.c     ****                                 !
 141:bsp_i2c.c     ****                                 PUT THE MESSAGE QUEUE SEND HERE (average_heart_rate)
 142:bsp_i2c.c     ****                                 !
 143:bsp_i2c.c     ****                                 !
 144:bsp_i2c.c     ****                                 !
 145:bsp_i2c.c     ****                                 !
ARM GAS  C:\Users\CHRONI~1\AppData\Local\Temp\cclkxkiv.s 			page 6


 146:bsp_i2c.c     ****                                 */
 147:bsp_i2c.c     **** 
 148:bsp_i2c.c     ****                                 // Adjust adaptive threshold based on average heart rate
 149:bsp_i2c.c     ****                                 adaptive_threshold = average_heart_rate * 100;
 150:bsp_i2c.c     ****                             }
 151:bsp_i2c.c     ****                         }
 152:bsp_i2c.c     ****                     } 
 153:bsp_i2c.c     ****                     
 154:bsp_i2c.c     ****                     // Store current readings for the next iteration
 155:bsp_i2c.c     ****                     IR_AC_Signal_Previous = IR_AC_Signal_Current; // Update previous signal
 156:bsp_i2c.c     ****                 } else {
 157:bsp_i2c.c     ****                     // No contact detected; reset previous values
 158:bsp_i2c.c     ****                     IR_AC_Signal_Previous = 0;
 159:bsp_i2c.c     ****                 }
 160:bsp_i2c.c     ****             } else {
 161:bsp_i2c.c     ****                 Log_Write(LOG_LEVEL_ERROR, "Failed to read from MAX30102", res);
 162:bsp_i2c.c     ****             }
 163:bsp_i2c.c     ****         } else {
 164:bsp_i2c.c     ****             Log_Write(LOG_LEVEL_I2C, "No new samples available to read", 0);
 165:bsp_i2c.c     ****         }
 166:bsp_i2c.c     ****     }
 167:bsp_i2c.c     **** }
 168:bsp_i2c.c     **** 
 169:bsp_i2c.c     **** /* Average DC Estimator */
 170:bsp_i2c.c     **** CPU_INT16S averageDCEstimator(CPU_INT32S *p, CPU_INT32U x) {
 141              		.loc 1 170 0
 142              		.cfi_startproc
 143              		@ args = 0, pretend = 0, frame = 0
 144              		@ frame_needed = 0, uses_anonymous_args = 0
 145              		@ link register save eliminated.
 146              	.LVL6:
 171:bsp_i2c.c     ****     *p += ((((CPU_INT32S)x << 15) - *p) >> 4); // Update the running average with new sample
 147              		.loc 1 171 0
 148 0000 0368     		ldr	r3, [r0]
 149 0002 C3EBC131 		rsb	r1, r3, r1, lsl #15
 150              	.LVL7:
 151 0006 03EB2113 		add	r3, r3, r1, asr #4
 152 000a 0360     		str	r3, [r0]
 172:bsp_i2c.c     ****     return (*p >> 15); // Return the estimated average
 173:bsp_i2c.c     **** }
 153              		.loc 1 173 0
 154 000c 43F3CF30 		sbfx	r0, r3, #15, #16
 155              	.LVL8:
 156 0010 7047     		bx	lr
 157              		.cfi_endproc
 158              	.LFE67:
 159              		.size	averageDCEstimator, .-averageDCEstimator
 160 0012 00BF     		.section	.text.mul16,"ax",%progbits
 161              		.align	2
 162              		.global	mul16
 163              		.thumb
 164              		.thumb_func
 165              		.type	mul16, %function
 166              	mul16:
 167              	.LFB69:
 174:bsp_i2c.c     **** 
 175:bsp_i2c.c     **** /* Low Pass FIR Filter */
ARM GAS  C:\Users\CHRONI~1\AppData\Local\Temp\cclkxkiv.s 			page 7


 176:bsp_i2c.c     **** CPU_INT16S lowPassFIRFilter(CPU_INT16S din) {  
 177:bsp_i2c.c     ****     static CPU_INT16S cbuf[CIRCULAR_BUFFER_SIZE]; // Circular buffer for FIR filter
 178:bsp_i2c.c     ****     static CPU_INT08U offset = 0; // Current index for the circular buffer
 179:bsp_i2c.c     ****     CPU_INT32S z = 0; // Accumulated result for FIR filtering
 180:bsp_i2c.c     **** 
 181:bsp_i2c.c     ****     // Store the current input value in the circular buffer
 182:bsp_i2c.c     ****     cbuf[offset] = din;
 183:bsp_i2c.c     **** 
 184:bsp_i2c.c     ****     // Apply the FIR filter coefficients to the circular buffer
 185:bsp_i2c.c     ****     z += mul16(FIRCoeffs[FIR_COEFF_SIZE - 1], cbuf[(offset - FIR_COEFF_SIZE + 1) & (CIRCULAR_BUFFER
 186:bsp_i2c.c     ****     
 187:bsp_i2c.c     ****     // Calculate the filtered output by summing up the products
 188:bsp_i2c.c     ****     // Calculate the filtered output by summing up the products
 189:bsp_i2c.c     ****     for (CPU_INT08U i = 0; i < FIR_COEFF_SIZE - 1; i++) {
 190:bsp_i2c.c     ****         z += mul16(FIRCoeffs[i], cbuf[(offset - i) & (CIRCULAR_BUFFER_SIZE - 1)]);
 191:bsp_i2c.c     ****     }
 192:bsp_i2c.c     **** 
 193:bsp_i2c.c     ****     // Increment the offset for the next sample and wrap around
 194:bsp_i2c.c     ****     offset++;
 195:bsp_i2c.c     ****     offset %= CIRCULAR_BUFFER_SIZE; // Wrap condition for the circular buffer
 196:bsp_i2c.c     **** 
 197:bsp_i2c.c     ****     return (z >> 15); // Return the filtered value
 198:bsp_i2c.c     **** }
 199:bsp_i2c.c     **** 
 200:bsp_i2c.c     **** // Integer multiplier function for FIR calculations
 201:bsp_i2c.c     **** CPU_INT32S mul16(CPU_INT16S x, CPU_INT16S y) {
 168              		.loc 1 201 0
 169              		.cfi_startproc
 170              		@ args = 0, pretend = 0, frame = 0
 171              		@ frame_needed = 0, uses_anonymous_args = 0
 172              		@ link register save eliminated.
 173              	.LVL9:
 202:bsp_i2c.c     ****     return ((CPU_INT32S)x * (CPU_INT32S)y); // Perform multiplication and return result
 203:bsp_i2c.c     **** }
 174              		.loc 1 203 0
 175 0000 01FB00F0 		mul	r0, r1, r0
 176              	.LVL10:
 177 0004 7047     		bx	lr
 178              		.cfi_endproc
 179              	.LFE69:
 180              		.size	mul16, .-mul16
 181 0006 00BF     		.section	.text.lowPassFIRFilter,"ax",%progbits
 182              		.align	2
 183              		.global	lowPassFIRFilter
 184              		.thumb
 185              		.thumb_func
 186              		.type	lowPassFIRFilter, %function
 187              	lowPassFIRFilter:
 188              	.LFB68:
 176:bsp_i2c.c     ****     static CPU_INT16S cbuf[CIRCULAR_BUFFER_SIZE]; // Circular buffer for FIR filter
 189              		.loc 1 176 0
 190              		.cfi_startproc
 191              		@ args = 0, pretend = 0, frame = 0
 192              		@ frame_needed = 0, uses_anonymous_args = 0
 193              	.LVL11:
 194 0000 F8B5     		push	{r3, r4, r5, r6, r7, lr}
 195              		.cfi_def_cfa_offset 24
ARM GAS  C:\Users\CHRONI~1\AppData\Local\Temp\cclkxkiv.s 			page 8


 196              		.cfi_offset 3, -24
 197              		.cfi_offset 4, -20
 198              		.cfi_offset 5, -16
 199              		.cfi_offset 6, -12
 200              		.cfi_offset 7, -8
 201              		.cfi_offset 14, -4
 202              	.LVL12:
 182:bsp_i2c.c     **** 
 203              		.loc 1 182 0
 204 0002 174B     		ldr	r3, .L16
 205 0004 1F79     		ldrb	r7, [r3, #4]	@ zero_extendqisi2
 206 0006 3E46     		mov	r6, r7
 207 0008 03EB4702 		add	r2, r3, r7, lsl #1
 208 000c 1081     		strh	r0, [r2, #8]	@ movhi
 185:bsp_i2c.c     ****     
 209              		.loc 1 185 0
 210 000e A7F10B02 		sub	r2, r7, #11
 211 0012 02F01F02 		and	r2, r2, #31
 212 0016 03EB4203 		add	r3, r3, r2, lsl #1
 213 001a B3F90810 		ldrsh	r1, [r3, #8]
 214 001e 4FF48050 		mov	r0, #4096
 215              	.LVL13:
 216 0022 FFF7FEFF 		bl	mul16
 217              	.LVL14:
 218 0026 0546     		mov	r5, r0
 219              	.LVL15:
 220              	.LBB2:
 189:bsp_i2c.c     ****         z += mul16(FIRCoeffs[i], cbuf[(offset - i) & (CIRCULAR_BUFFER_SIZE - 1)]);
 221              		.loc 1 189 0
 222 0028 0024     		movs	r4, #0
 223 002a 0FE0     		b	.L13
 224              	.LVL16:
 225              	.L14:
 190:bsp_i2c.c     ****     }
 226              		.loc 1 190 0 discriminator 3
 227 002c 331B     		subs	r3, r6, r4
 228 002e 03F01F02 		and	r2, r3, #31
 229 0032 0B4B     		ldr	r3, .L16
 230 0034 03EB4203 		add	r3, r3, r2, lsl #1
 231 0038 B3F90810 		ldrsh	r1, [r3, #8]
 232 003c 094B     		ldr	r3, .L16+4
 233 003e 33F91400 		ldrsh	r0, [r3, r4, lsl #1]
 234 0042 FFF7FEFF 		bl	mul16
 235              	.LVL17:
 236 0046 0544     		add	r5, r5, r0
 237              	.LVL18:
 189:bsp_i2c.c     ****         z += mul16(FIRCoeffs[i], cbuf[(offset - i) & (CIRCULAR_BUFFER_SIZE - 1)]);
 238              		.loc 1 189 0 discriminator 3
 239 0048 0134     		adds	r4, r4, #1
 240              	.LVL19:
 241 004a E4B2     		uxtb	r4, r4
 242              	.LVL20:
 243              	.L13:
 189:bsp_i2c.c     ****         z += mul16(FIRCoeffs[i], cbuf[(offset - i) & (CIRCULAR_BUFFER_SIZE - 1)]);
 244              		.loc 1 189 0 is_stmt 0 discriminator 1
 245 004c 0A2C     		cmp	r4, #10
 246 004e EDD9     		bls	.L14
ARM GAS  C:\Users\CHRONI~1\AppData\Local\Temp\cclkxkiv.s 			page 9


 247              	.LBE2:
 194:bsp_i2c.c     ****     offset %= CIRCULAR_BUFFER_SIZE; // Wrap condition for the circular buffer
 248              		.loc 1 194 0 is_stmt 1
 249 0050 0137     		adds	r7, r7, #1
 195:bsp_i2c.c     **** 
 250              		.loc 1 195 0
 251 0052 07F01F07 		and	r7, r7, #31
 252 0056 024B     		ldr	r3, .L16
 253 0058 1F71     		strb	r7, [r3, #4]
 198:bsp_i2c.c     **** 
 254              		.loc 1 198 0
 255 005a 45F3CF30 		sbfx	r0, r5, #15, #16
 256 005e F8BD     		pop	{r3, r4, r5, r6, r7, pc}
 257              	.LVL21:
 258              	.L17:
 259              		.align	2
 260              	.L16:
 261 0060 00000000 		.word	.LANCHOR0
 262 0064 00000000 		.word	.LANCHOR1
 263              		.cfi_endproc
 264              	.LFE68:
 265              		.size	lowPassFIRFilter, .-lowPassFIRFilter
 266              		.section	.text.I2C_Task,"ax",%progbits
 267              		.align	2
 268              		.thumb
 269              		.thumb_func
 270              		.type	I2C_Task, %function
 271              	I2C_Task:
 272              	.LFB66:
  77:bsp_i2c.c     ****     OS_ERR os_err;
 273              		.loc 1 77 0
 274              		.cfi_startproc
 275              		@ args = 0, pretend = 0, frame = 248
 276              		@ frame_needed = 0, uses_anonymous_args = 0
 277              	.LVL22:
 278 0000 30B5     		push	{r4, r5, lr}
 279              		.cfi_def_cfa_offset 12
 280              		.cfi_offset 4, -12
 281              		.cfi_offset 5, -8
 282              		.cfi_offset 14, -4
 283 0002 C1B0     		sub	sp, sp, #260
 284              		.cfi_def_cfa_offset 272
  81:bsp_i2c.c     ****     CPU_INT08U data_len = 2;  // Number of samples to read
 285              		.loc 1 81 0
 286 0004 0024     		movs	r4, #0
 287 0006 0594     		str	r4, [sp, #20]
 288 0008 0494     		str	r4, [sp, #16]
  82:bsp_i2c.c     **** 
 289              		.loc 1 82 0
 290 000a 0223     		movs	r3, #2
 291 000c 8DF80F30 		strb	r3, [sp, #15]
  84:bsp_i2c.c     **** 
 292              		.loc 1 84 0
 293 0010 2246     		mov	r2, r4
 294 0012 5149     		ldr	r1, .L29
 295 0014 2020     		movs	r0, #32
 296              	.LVL23:
ARM GAS  C:\Users\CHRONI~1\AppData\Local\Temp\cclkxkiv.s 			page 10


 297 0016 FFF7FEFF 		bl	Log_Write
 298              	.LVL24:
  87:bsp_i2c.c     ****     Log_Write(LOG_LEVEL_I2C, "I2C Task: I2C hardware started", 0);
 299              		.loc 1 87 0
 300 001a FFF7FEFF 		bl	I2C_1_Start
 301              	.LVL25:
  88:bsp_i2c.c     ****     
 302              		.loc 1 88 0
 303 001e 2246     		mov	r2, r4
 304 0020 4E49     		ldr	r1, .L29+4
 305 0022 2020     		movs	r0, #32
 306 0024 FFF7FEFF 		bl	Log_Write
 307              	.LVL26:
  91:bsp_i2c.c     ****         Log_Write(LOG_LEVEL_ERROR, "Failed to initialize MAX30102 sensor", 0);
 308              		.loc 1 91 0
 309 0028 06A8     		add	r0, sp, #24
 310 002a FFF7FEFF 		bl	max30102_sensor_init
 311              	.LVL27:
 312 002e 28B1     		cbz	r0, .L19
  92:bsp_i2c.c     ****         return;  // Exit if sensor initialization fails
 313              		.loc 1 92 0
 314 0030 2246     		mov	r2, r4
 315 0032 4B49     		ldr	r1, .L29+8
 316 0034 0420     		movs	r0, #4
 317 0036 FFF7FEFF 		bl	Log_Write
 318              	.LVL28:
  93:bsp_i2c.c     ****     }
 319              		.loc 1 93 0
 320 003a 8BE0     		b	.L27
 321              	.L19:
 322              	.LBB3:
  98:bsp_i2c.c     ****         max30102_get_interrupt(&max30102_handle, MAX30102_INTERRUPT_PPG_RDY_EN, &samples_available)
 323              		.loc 1 98 0
 324 003c 0024     		movs	r4, #0
 325 003e 40AA     		add	r2, sp, #256
 326 0040 02F8F24D 		strb	r4, [r2, #-242]!
  99:bsp_i2c.c     ****         
 327              		.loc 1 99 0
 328 0044 0621     		movs	r1, #6
 329 0046 06A8     		add	r0, sp, #24
 330 0048 FFF7FEFF 		bl	max30102_get_interrupt
 331              	.LVL29:
 102:bsp_i2c.c     **** 
 332              		.loc 1 102 0
 333 004c 0DF1FE03 		add	r3, sp, #254
 334 0050 0193     		str	r3, [sp, #4]
 335 0052 0094     		str	r4, [sp]
 336 0054 2623     		movs	r3, #38
 337 0056 2246     		mov	r2, r4
 338 0058 2146     		mov	r1, r4
 339 005a 2046     		mov	r0, r4
 340 005c FFF7FEFF 		bl	OSTimeDlyHMSM
 341              	.LVL30:
 104:bsp_i2c.c     ****             // Read data from MAX30102
 342              		.loc 1 104 0
 343 0060 9DF80E30 		ldrb	r3, [sp, #14]	@ zero_extendqisi2
 344 0064 012B     		cmp	r3, #1
ARM GAS  C:\Users\CHRONI~1\AppData\Local\Temp\cclkxkiv.s 			page 11


 345 0066 6FD1     		bne	.L20
 346              	.LBB4:
 106:bsp_i2c.c     ****             if (res == 0) {
 347              		.loc 1 106 0
 348 0068 0DF10F03 		add	r3, sp, #15
 349 006c 04AA     		add	r2, sp, #16
 350 006e 05A9     		add	r1, sp, #20
 351 0070 06A8     		add	r0, sp, #24
 352 0072 FFF7FEFF 		bl	max30102_read
 353              	.LVL31:
 107:bsp_i2c.c     ****                 // Check for contact
 354              		.loc 1 107 0
 355 0076 0246     		mov	r2, r0
 356 0078 0028     		cmp	r0, #0
 357 007a 60D1     		bne	.L21
 109:bsp_i2c.c     ****                 
 358              		.loc 1 109 0
 359 007c 394B     		ldr	r3, .L29+12
 360 007e 1B68     		ldr	r3, [r3]
 361 0080 059A     		ldr	r2, [sp, #20]
 362 0082 9A42     		cmp	r2, r3
 363 0084 57D9     		bls	.L22
 109:bsp_i2c.c     ****                 
 364              		.loc 1 109 0 is_stmt 0 discriminator 1
 365 0086 049C     		ldr	r4, [sp, #16]
 366 0088 A342     		cmp	r3, r4
 367 008a 54D2     		bcs	.L22
 112:bsp_i2c.c     ****                     IR_AC_Signal_Current = lowPassFIRFilter(IR_AC_Signal_Current);
 368              		.loc 1 112 0 is_stmt 1
 369 008c 364D     		ldr	r5, .L29+16
 370 008e 2146     		mov	r1, r4
 371 0090 05F14800 		add	r0, r5, #72
 372              	.LVL32:
 373 0094 FFF7FEFF 		bl	averageDCEstimator
 374              	.LVL33:
 375 0098 201A     		subs	r0, r4, r0
 376 009a E864     		str	r0, [r5, #76]
 113:bsp_i2c.c     **** 
 377              		.loc 1 113 0
 378 009c 00B2     		sxth	r0, r0
 379 009e FFF7FEFF 		bl	lowPassFIRFilter
 380              	.LVL34:
 381 00a2 E864     		str	r0, [r5, #76]
 116:bsp_i2c.c     ****                         (IR_AC_Signal_Previous > 0 && IR_AC_Signal_Current <= 0)) {
 382              		.loc 1 116 0
 383 00a4 2B6D     		ldr	r3, [r5, #80]
 384 00a6 002B     		cmp	r3, #0
 385 00a8 01DA     		bge	.L23
 116:bsp_i2c.c     ****                         (IR_AC_Signal_Previous > 0 && IR_AC_Signal_Current <= 0)) {
 386              		.loc 1 116 0 is_stmt 0 discriminator 1
 387 00aa 0028     		cmp	r0, #0
 388 00ac 03DA     		bge	.L24
 389              	.L23:
 116:bsp_i2c.c     ****                         (IR_AC_Signal_Previous > 0 && IR_AC_Signal_Current <= 0)) {
 390              		.loc 1 116 0 discriminator 3
 391 00ae 002B     		cmp	r3, #0
 392 00b0 3DDD     		ble	.L25
ARM GAS  C:\Users\CHRONI~1\AppData\Local\Temp\cclkxkiv.s 			page 12


 117:bsp_i2c.c     ****                         
 393              		.loc 1 117 0 is_stmt 1
 394 00b2 0028     		cmp	r0, #0
 395 00b4 3BDC     		bgt	.L25
 396              	.L24:
 120:bsp_i2c.c     ****                             CPU_INT32U elapsed_time = current_timestamp - last_peak_timestamp; // I
 397              		.loc 1 120 0
 398 00b6 2B4A     		ldr	r2, .L29+12
 399 00b8 5368     		ldr	r3, [r2, #4]
 400 00ba 9268     		ldr	r2, [r2, #8]
 401 00bc 9B1A     		subs	r3, r3, r2
 402 00be 153B     		subs	r3, r3, #21
 403 00c0 40F2D232 		movw	r2, #978
 404 00c4 9342     		cmp	r3, r2
 405 00c6 32D8     		bhi	.L25
 406              	.LBB5:
 121:bsp_i2c.c     ****                             if (elapsed_time > DEBOUNCE_TIME_MS) { // Debounce period
 407              		.loc 1 121 0
 408 00c8 274A     		ldr	r2, .L29+16
 409 00ca 1368     		ldr	r3, [r2]
 410 00cc 526D     		ldr	r2, [r2, #84]
 411 00ce 9B1A     		subs	r3, r3, r2
 412              	.LVL35:
 122:bsp_i2c.c     ****                                 last_peak_timestamp = current_timestamp;
 413              		.loc 1 122 0
 414 00d0 B3F5C87F 		cmp	r3, #400
 415 00d4 2BD9     		bls	.L25
 416              	.LBB6:
 123:bsp_i2c.c     **** 
 417              		.loc 1 123 0
 418 00d6 2449     		ldr	r1, .L29+16
 419 00d8 0A68     		ldr	r2, [r1]
 420 00da 4A65     		str	r2, [r1, #84]
 126:bsp_i2c.c     ****                                 heart_rate_sum -= heart_rate_history[heart_rate_index]; // Remove t
 421              		.loc 1 126 0
 422 00dc 4EF66022 		movw	r2, #60000
 423 00e0 B2FBF3F3 		udiv	r3, r2, r3
 424              	.LVL36:
 127:bsp_i2c.c     ****                                 heart_rate_history[heart_rate_index] = heart_rate_bpm; // Add new r
 425              		.loc 1 127 0
 426 00e4 886D     		ldr	r0, [r1, #88]
 427 00e6 01EB8004 		add	r4, r1, r0, lsl #2
 428 00ea E56D     		ldr	r5, [r4, #92]
 429 00ec D1F8AC20 		ldr	r2, [r1, #172]
 430 00f0 521B     		subs	r2, r2, r5
 128:bsp_i2c.c     ****                                 heart_rate_sum += heart_rate_bpm; // Update running sum
 431              		.loc 1 128 0
 432 00f2 E365     		str	r3, [r4, #92]
 129:bsp_i2c.c     ****                                 heart_rate_index = (heart_rate_index + 1) % MAX_HISTORY_SIZE; // Ci
 433              		.loc 1 129 0
 434 00f4 1344     		add	r3, r3, r2
 435              	.LVL37:
 436 00f6 C1F8AC30 		str	r3, [r1, #172]
 130:bsp_i2c.c     **** 
 437              		.loc 1 130 0
 438 00fa 0130     		adds	r0, r0, #1
 439 00fc 1B4A     		ldr	r2, .L29+20
ARM GAS  C:\Users\CHRONI~1\AppData\Local\Temp\cclkxkiv.s 			page 13


 440 00fe A2FB0042 		umull	r4, r2, r2, r0
 441              	.LVL38:
 442 0102 1209     		lsrs	r2, r2, #4
 443 0104 02EB8202 		add	r2, r2, r2, lsl #2
 444 0108 A0EB8202 		sub	r2, r0, r2, lsl #2
 445 010c 8A65     		str	r2, [r1, #88]
 133:bsp_i2c.c     ****                                 Log_Write(LOG_LEVEL_I2C, "Average Heart Rate: %d BPM", average_hear
 446              		.loc 1 133 0
 447 010e 184C     		ldr	r4, .L29+24
 448 0110 84FB0324 		smull	r2, r4, r4, r3
 449 0114 DB17     		asrs	r3, r3, #31
 450 0116 C3EBE404 		rsb	r4, r3, r4, asr #3
 451              	.LVL39:
 134:bsp_i2c.c     ****                                 
 452              		.loc 1 134 0
 453 011a 2246     		mov	r2, r4
 454 011c 1549     		ldr	r1, .L29+28
 455              	.LVL40:
 456 011e 2020     		movs	r0, #32
 457 0120 FFF7FEFF 		bl	Log_Write
 458              	.LVL41:
 149:bsp_i2c.c     ****                             }
 459              		.loc 1 149 0
 460 0124 6423     		movs	r3, #100
 461 0126 03FB04F4 		mul	r4, r3, r4
 462              	.LVL42:
 463 012a 0E4B     		ldr	r3, .L29+12
 464 012c 1C60     		str	r4, [r3]
 465              	.L25:
 466              	.LBE6:
 467              	.LBE5:
 155:bsp_i2c.c     ****                 } else {
 468              		.loc 1 155 0
 469 012e 0E4B     		ldr	r3, .L29+16
 470 0130 DA6C     		ldr	r2, [r3, #76]
 471 0132 1A65     		str	r2, [r3, #80]
 472 0134 82E7     		b	.L19
 473              	.LVL43:
 474              	.L22:
 158:bsp_i2c.c     ****                 }
 475              		.loc 1 158 0
 476 0136 0022     		movs	r2, #0
 477 0138 0B4B     		ldr	r3, .L29+16
 478 013a 1A65     		str	r2, [r3, #80]
 479 013c 7EE7     		b	.L19
 480              	.L21:
 161:bsp_i2c.c     ****             }
 481              		.loc 1 161 0
 482 013e 0E49     		ldr	r1, .L29+32
 483 0140 0420     		movs	r0, #4
 484              	.LVL44:
 485 0142 FFF7FEFF 		bl	Log_Write
 486              	.LVL45:
 487 0146 79E7     		b	.L19
 488              	.L20:
 489              	.LBE4:
 164:bsp_i2c.c     ****         }
ARM GAS  C:\Users\CHRONI~1\AppData\Local\Temp\cclkxkiv.s 			page 14


 490              		.loc 1 164 0
 491 0148 0022     		movs	r2, #0
 492 014a 0C49     		ldr	r1, .L29+36
 493 014c 2020     		movs	r0, #32
 494 014e FFF7FEFF 		bl	Log_Write
 495              	.LVL46:
 496              	.LBE3:
 166:bsp_i2c.c     **** }
 497              		.loc 1 166 0
 498 0152 73E7     		b	.L19
 499              	.L27:
 167:bsp_i2c.c     **** 
 500              		.loc 1 167 0
 501 0154 41B0     		add	sp, sp, #260
 502              		.cfi_def_cfa_offset 12
 503              		@ sp needed
 504 0156 30BD     		pop	{r4, r5, pc}
 505              	.L30:
 506              		.align	2
 507              	.L29:
 508 0158 68000000 		.word	.LC4
 509 015c 98000000 		.word	.LC5
 510 0160 B8000000 		.word	.LC6
 511 0164 00000000 		.word	.LANCHOR2
 512 0168 00000000 		.word	.LANCHOR0
 513 016c CDCCCCCC 		.word	-858993459
 514 0170 67666666 		.word	1717986919
 515 0174 E0000000 		.word	.LC7
 516 0178 FC000000 		.word	.LC8
 517 017c 1C010000 		.word	.LC9
 518              		.cfi_endproc
 519              	.LFE66:
 520              		.size	I2C_Task, .-I2C_Task
 521              		.section	.text.bsp_i2c_read,"ax",%progbits
 522              		.align	2
 523              		.global	bsp_i2c_read
 524              		.thumb
 525              		.thumb_func
 526              		.type	bsp_i2c_read, %function
 527              	bsp_i2c_read:
 528              	.LFB70:
 204:bsp_i2c.c     **** 
 205:bsp_i2c.c     **** /* I2C Read Function */
 206:bsp_i2c.c     **** CPU_INT08U bsp_i2c_read(CPU_INT08U addr, CPU_INT08U reg, CPU_INT08U *buf, CPU_INT16U len) {
 529              		.loc 1 206 0
 530              		.cfi_startproc
 531              		@ args = 0, pretend = 0, frame = 0
 532              		@ frame_needed = 0, uses_anonymous_args = 0
 533              	.LVL47:
 534 0000 F8B5     		push	{r3, r4, r5, r6, r7, lr}
 535              		.cfi_def_cfa_offset 24
 536              		.cfi_offset 3, -24
 537              		.cfi_offset 4, -20
 538              		.cfi_offset 5, -16
 539              		.cfi_offset 6, -12
 540              		.cfi_offset 7, -8
 541              		.cfi_offset 14, -4
ARM GAS  C:\Users\CHRONI~1\AppData\Local\Temp\cclkxkiv.s 			page 15


 542 0002 0446     		mov	r4, r0
 543 0004 0F46     		mov	r7, r1
 544 0006 1646     		mov	r6, r2
 545 0008 1D46     		mov	r5, r3
 207:bsp_i2c.c     ****     CPU_INT08U status;
 208:bsp_i2c.c     ****     status = I2C_1_MasterSendStart(addr, I2C_1_WRITE_XFER_MODE); // Initiate I2C start condition
 546              		.loc 1 208 0
 547 000a 0021     		movs	r1, #0
 548              	.LVL48:
 549 000c FFF7FEFF 		bl	I2C_1_MasterSendStart
 550              	.LVL49:
 209:bsp_i2c.c     ****     if (status != I2C_1_MSTR_NO_ERROR) {
 551              		.loc 1 209 0
 552 0010 30B1     		cbz	r0, .L32
 553 0012 0246     		mov	r2, r0
 210:bsp_i2c.c     ****         Log_Write(LOG_LEVEL_ERROR, "I2C Read Start Error", status);
 554              		.loc 1 210 0
 555 0014 1249     		ldr	r1, .L38
 556 0016 0420     		movs	r0, #4
 557              	.LVL50:
 558 0018 FFF7FEFF 		bl	Log_Write
 559              	.LVL51:
 211:bsp_i2c.c     ****         return 1; // Return error code if starting failed
 560              		.loc 1 211 0
 561 001c 0120     		movs	r0, #1
 562 001e F8BD     		pop	{r3, r4, r5, r6, r7, pc}
 563              	.LVL52:
 564              	.L32:
 212:bsp_i2c.c     ****     }
 213:bsp_i2c.c     **** 
 214:bsp_i2c.c     ****     I2C_1_MasterWriteByte(reg); // Send the register address to read from
 565              		.loc 1 214 0
 566 0020 3846     		mov	r0, r7
 567              	.LVL53:
 568 0022 FFF7FEFF 		bl	I2C_1_MasterWriteByte
 569              	.LVL54:
 215:bsp_i2c.c     **** 
 216:bsp_i2c.c     ****     status = I2C_1_MasterSendRestart(addr, I2C_1_READ_XFER_MODE); // Restart for reading
 570              		.loc 1 216 0
 571 0026 0121     		movs	r1, #1
 572 0028 2046     		mov	r0, r4
 573 002a FFF7FEFF 		bl	I2C_1_MasterSendRestart
 574              	.LVL55:
 217:bsp_i2c.c     ****     if (status != I2C_1_MSTR_NO_ERROR) {
 575              		.loc 1 217 0
 576 002e 0246     		mov	r2, r0
 577 0030 78B1     		cbz	r0, .L36
 218:bsp_i2c.c     ****         Log_Write(LOG_LEVEL_ERROR, "I2C Read Restart Error", status);
 578              		.loc 1 218 0
 579 0032 0C49     		ldr	r1, .L38+4
 580 0034 0420     		movs	r0, #4
 581              	.LVL56:
 582 0036 FFF7FEFF 		bl	Log_Write
 583              	.LVL57:
 219:bsp_i2c.c     ****         return 1; // Return error code if restarting failed
 584              		.loc 1 219 0
 585 003a 0120     		movs	r0, #1
ARM GAS  C:\Users\CHRONI~1\AppData\Local\Temp\cclkxkiv.s 			page 16


 586 003c F8BD     		pop	{r3, r4, r5, r6, r7, pc}
 587              	.LVL58:
 588              	.L35:
 589              	.LBB7:
 220:bsp_i2c.c     ****     }
 221:bsp_i2c.c     **** 
 222:bsp_i2c.c     ****     // Read bytes from the I2C device
 223:bsp_i2c.c     ****     for (CPU_INT16U i = 0; i < len; i++) {
 224:bsp_i2c.c     ****         buf[i] = I2C_1_MasterReadByte((i == (len - 1)) ? I2C_1_NAK_DATA : I2C_1_ACK_DATA); // Read 
 590              		.loc 1 224 0 discriminator 3
 591 003e 681E     		subs	r0, r5, #1
 592 0040 201A     		subs	r0, r4, r0
 593 0042 18BF     		it	ne
 594 0044 0120     		movne	r0, #1
 595 0046 FFF7FEFF 		bl	I2C_1_MasterReadByte
 596              	.LVL59:
 597 004a 3055     		strb	r0, [r6, r4]
 223:bsp_i2c.c     ****         buf[i] = I2C_1_MasterReadByte((i == (len - 1)) ? I2C_1_NAK_DATA : I2C_1_ACK_DATA); // Read 
 598              		.loc 1 223 0 discriminator 3
 599 004c 0134     		adds	r4, r4, #1
 600              	.LVL60:
 601 004e A4B2     		uxth	r4, r4
 602              	.LVL61:
 603 0050 00E0     		b	.L34
 604              	.LVL62:
 605              	.L36:
 606              	.LBE7:
 607 0052 0024     		movs	r4, #0
 608              	.LVL63:
 609              	.L34:
 610              	.LBB8:
 223:bsp_i2c.c     ****         buf[i] = I2C_1_MasterReadByte((i == (len - 1)) ? I2C_1_NAK_DATA : I2C_1_ACK_DATA); // Read 
 611              		.loc 1 223 0 is_stmt 0 discriminator 1
 612 0054 AC42     		cmp	r4, r5
 613 0056 F2D3     		bcc	.L35
 614              	.LBE8:
 225:bsp_i2c.c     ****     }
 226:bsp_i2c.c     **** 
 227:bsp_i2c.c     ****     I2C_1_MasterSendStop(); // End the I2C transaction
 615              		.loc 1 227 0 is_stmt 1
 616 0058 FFF7FEFF 		bl	I2C_1_MasterSendStop
 617              	.LVL64:
 228:bsp_i2c.c     ****     return 0; // Success
 618              		.loc 1 228 0
 619 005c 0020     		movs	r0, #0
 229:bsp_i2c.c     **** }
 620              		.loc 1 229 0
 621 005e F8BD     		pop	{r3, r4, r5, r6, r7, pc}
 622              	.LVL65:
 623              	.L39:
 624              		.align	2
 625              	.L38:
 626 0060 40010000 		.word	.LC10
 627 0064 58010000 		.word	.LC11
 628              		.cfi_endproc
 629              	.LFE70:
 630              		.size	bsp_i2c_read, .-bsp_i2c_read
ARM GAS  C:\Users\CHRONI~1\AppData\Local\Temp\cclkxkiv.s 			page 17


 631              		.section	.text.bsp_i2c_write,"ax",%progbits
 632              		.align	2
 633              		.global	bsp_i2c_write
 634              		.thumb
 635              		.thumb_func
 636              		.type	bsp_i2c_write, %function
 637              	bsp_i2c_write:
 638              	.LFB71:
 230:bsp_i2c.c     **** 
 231:bsp_i2c.c     **** /* I2C Write Function */
 232:bsp_i2c.c     **** CPU_INT08U bsp_i2c_write(CPU_INT08U addr, CPU_INT08U reg, CPU_INT08U *data, CPU_INT16U len) {
 639              		.loc 1 232 0
 640              		.cfi_startproc
 641              		@ args = 0, pretend = 0, frame = 0
 642              		@ frame_needed = 0, uses_anonymous_args = 0
 643              	.LVL66:
 644 0000 70B5     		push	{r4, r5, r6, lr}
 645              		.cfi_def_cfa_offset 16
 646              		.cfi_offset 4, -16
 647              		.cfi_offset 5, -12
 648              		.cfi_offset 6, -8
 649              		.cfi_offset 14, -4
 650 0002 0C46     		mov	r4, r1
 651 0004 1646     		mov	r6, r2
 652 0006 1D46     		mov	r5, r3
 233:bsp_i2c.c     ****     CPU_INT08U status;
 234:bsp_i2c.c     ****     status = I2C_1_MasterSendStart(addr, I2C_1_WRITE_XFER_MODE); // Initiate I2C start condition
 653              		.loc 1 234 0
 654 0008 0021     		movs	r1, #0
 655              	.LVL67:
 656 000a FFF7FEFF 		bl	I2C_1_MasterSendStart
 657              	.LVL68:
 235:bsp_i2c.c     ****     if (status != I2C_1_MSTR_NO_ERROR) {
 658              		.loc 1 235 0
 659 000e 30B1     		cbz	r0, .L41
 660 0010 0246     		mov	r2, r0
 236:bsp_i2c.c     ****         Log_Write(LOG_LEVEL_ERROR, "I2C Write Start Error", status);
 661              		.loc 1 236 0
 662 0012 0B49     		ldr	r1, .L46
 663 0014 0420     		movs	r0, #4
 664              	.LVL69:
 665 0016 FFF7FEFF 		bl	Log_Write
 666              	.LVL70:
 237:bsp_i2c.c     ****         return 1; // Return error code if starting failed
 667              		.loc 1 237 0
 668 001a 0120     		movs	r0, #1
 669 001c 70BD     		pop	{r4, r5, r6, pc}
 670              	.LVL71:
 671              	.L41:
 238:bsp_i2c.c     ****     }
 239:bsp_i2c.c     **** 
 240:bsp_i2c.c     ****     I2C_1_MasterWriteByte(reg); // Send the register address to write to
 672              		.loc 1 240 0
 673 001e 2046     		mov	r0, r4
 674              	.LVL72:
 675 0020 FFF7FEFF 		bl	I2C_1_MasterWriteByte
 676              	.LVL73:
ARM GAS  C:\Users\CHRONI~1\AppData\Local\Temp\cclkxkiv.s 			page 18


 677              	.LBB9:
 241:bsp_i2c.c     **** 
 242:bsp_i2c.c     ****     // Write bytes to the I2C device
 243:bsp_i2c.c     ****     for (CPU_INT16U i = 0; i < len; i++) {
 678              		.loc 1 243 0
 679 0024 0024     		movs	r4, #0
 680 0026 04E0     		b	.L43
 681              	.LVL74:
 682              	.L44:
 244:bsp_i2c.c     ****         I2C_1_MasterWriteByte(data[i]); // Write each byte
 683              		.loc 1 244 0 discriminator 3
 684 0028 305D     		ldrb	r0, [r6, r4]	@ zero_extendqisi2
 685 002a FFF7FEFF 		bl	I2C_1_MasterWriteByte
 686              	.LVL75:
 243:bsp_i2c.c     ****         I2C_1_MasterWriteByte(data[i]); // Write each byte
 687              		.loc 1 243 0 discriminator 3
 688 002e 0134     		adds	r4, r4, #1
 689              	.LVL76:
 690 0030 A4B2     		uxth	r4, r4
 691              	.LVL77:
 692              	.L43:
 243:bsp_i2c.c     ****         I2C_1_MasterWriteByte(data[i]); // Write each byte
 693              		.loc 1 243 0 is_stmt 0 discriminator 1
 694 0032 AC42     		cmp	r4, r5
 695 0034 F8D3     		bcc	.L44
 696              	.LBE9:
 245:bsp_i2c.c     ****     }
 246:bsp_i2c.c     **** 
 247:bsp_i2c.c     ****     I2C_1_MasterSendStop(); // End the I2C transaction
 697              		.loc 1 247 0 is_stmt 1
 698 0036 FFF7FEFF 		bl	I2C_1_MasterSendStop
 699              	.LVL78:
 248:bsp_i2c.c     ****     return 0; // Success
 700              		.loc 1 248 0
 701 003a 0020     		movs	r0, #0
 249:bsp_i2c.c     **** }
 702              		.loc 1 249 0
 703 003c 70BD     		pop	{r4, r5, r6, pc}
 704              	.LVL79:
 705              	.L47:
 706 003e 00BF     		.align	2
 707              	.L46:
 708 0040 70010000 		.word	.LC12
 709              		.cfi_endproc
 710              	.LFE71:
 711              		.size	bsp_i2c_write, .-bsp_i2c_write
 712              		.global	current_timestamp
 713              		.global	heart_rate_index
 714              		.global	heart_rate_sum
 715              		.global	ir_avg_reg
 716              		.global	IR_AC_Signal_Previous
 717              		.global	IR_AC_Signal_Current
 718              		.global	IR_AC_Min
 719              		.global	IR_AC_Max
 720              		.global	last_peak_timestamp
 721              		.comm	I2C_TaskStk,2048,4
 722              		.comm	I2C_Task_TCB,192,4
ARM GAS  C:\Users\CHRONI~1\AppData\Local\Temp\cclkxkiv.s 			page 19


 723              		.global	adaptive_threshold
 724              		.global	heart_rate_count
 725              		.global	heart_rate_history
 726              		.comm	i2c_rx_buffer,64,4
 727              		.section	.rodata
 728              		.align	2
 729              		.set	.LANCHOR1,. + 0
 730              		.type	FIRCoeffs, %object
 731              		.size	FIRCoeffs, 24
 732              	FIRCoeffs:
 733 0000 AC00     		.short	172
 734 0002 4101     		.short	321
 735 0004 4302     		.short	579
 736 0006 9F03     		.short	927
 737 0008 5005     		.short	1360
 738 000a 4207     		.short	1858
 739 000c 5609     		.short	2390
 740 000e 640B     		.short	2916
 741 0010 3F0D     		.short	3391
 742 0012 B80E     		.short	3768
 743 0014 AC0F     		.short	4012
 744 0016 0010     		.short	4096
 745              		.data
 746              		.align	2
 747              		.set	.LANCHOR2,. + 0
 748              		.type	adaptive_threshold, %object
 749              		.size	adaptive_threshold, 4
 750              	adaptive_threshold:
 751 0000 60E31600 		.word	1500000
 752              		.type	IR_AC_Max, %object
 753              		.size	IR_AC_Max, 4
 754              	IR_AC_Max:
 755 0004 14000000 		.word	20
 756              		.type	IR_AC_Min, %object
 757              		.size	IR_AC_Min, 4
 758              	IR_AC_Min:
 759 0008 ECFFFFFF 		.word	-20
 760              		.section	.rodata.str1.4,"aMS",%progbits,1
 761              		.align	2
 762              	.LC0:
 763 0000 49324320 		.ascii	"I2C Init: Creating I2C task\000"
 763      496E6974 
 763      3A204372 
 763      65617469 
 763      6E672049 
 764              	.LC1:
 765 001c 49324320 		.ascii	"I2C Task\000"
 765      5461736B 
 765      00
 766 0025 000000   		.space	3
 767              	.LC2:
 768 0028 49324320 		.ascii	"I2C Task created successfully\000"
 768      5461736B 
 768      20637265 
 768      61746564 
 768      20737563 
 769 0046 0000     		.space	2
ARM GAS  C:\Users\CHRONI~1\AppData\Local\Temp\cclkxkiv.s 			page 20


 770              	.LC3:
 771 0048 4572726F 		.ascii	"Error: I2C Task creation failed\000"
 771      723A2049 
 771      32432054 
 771      61736B20 
 771      63726561 
 772              	.LC4:
 773 0068 49324320 		.ascii	"I2C Task: Starting I2C hardware initialization\000"
 773      5461736B 
 773      3A205374 
 773      61727469 
 773      6E672049 
 774 0097 00       		.space	1
 775              	.LC5:
 776 0098 49324320 		.ascii	"I2C Task: I2C hardware started\000"
 776      5461736B 
 776      3A204932 
 776      43206861 
 776      72647761 
 777 00b7 00       		.space	1
 778              	.LC6:
 779 00b8 4661696C 		.ascii	"Failed to initialize MAX30102 sensor\000"
 779      65642074 
 779      6F20696E 
 779      69746961 
 779      6C697A65 
 780 00dd 000000   		.space	3
 781              	.LC7:
 782 00e0 41766572 		.ascii	"Average Heart Rate: %d BPM\000"
 782      61676520 
 782      48656172 
 782      74205261 
 782      74653A20 
 783 00fb 00       		.space	1
 784              	.LC8:
 785 00fc 4661696C 		.ascii	"Failed to read from MAX30102\000"
 785      65642074 
 785      6F207265 
 785      61642066 
 785      726F6D20 
 786 0119 000000   		.space	3
 787              	.LC9:
 788 011c 4E6F206E 		.ascii	"No new samples available to read\000"
 788      65772073 
 788      616D706C 
 788      65732061 
 788      7661696C 
 789 013d 000000   		.space	3
 790              	.LC10:
 791 0140 49324320 		.ascii	"I2C Read Start Error\000"
 791      52656164 
 791      20537461 
 791      72742045 
 791      72726F72 
 792 0155 000000   		.space	3
 793              	.LC11:
 794 0158 49324320 		.ascii	"I2C Read Restart Error\000"
ARM GAS  C:\Users\CHRONI~1\AppData\Local\Temp\cclkxkiv.s 			page 21


 794      52656164 
 794      20526573 
 794      74617274 
 794      20457272 
 795 016f 00       		.space	1
 796              	.LC12:
 797 0170 49324320 		.ascii	"I2C Write Start Error\000"
 797      57726974 
 797      65205374 
 797      61727420 
 797      4572726F 
 798              		.bss
 799              		.align	2
 800              		.set	.LANCHOR0,. + 0
 801              		.type	current_timestamp, %object
 802              		.size	current_timestamp, 4
 803              	current_timestamp:
 804 0000 00000000 		.space	4
 805              		.type	offset.9605, %object
 806              		.size	offset.9605, 1
 807              	offset.9605:
 808 0004 00       		.space	1
 809 0005 000000   		.space	3
 810              		.type	cbuf.9604, %object
 811              		.size	cbuf.9604, 64
 812              	cbuf.9604:
 813 0008 00000000 		.space	64
 813      00000000 
 813      00000000 
 813      00000000 
 813      00000000 
 814              		.type	ir_avg_reg, %object
 815              		.size	ir_avg_reg, 4
 816              	ir_avg_reg:
 817 0048 00000000 		.space	4
 818              		.type	IR_AC_Signal_Current, %object
 819              		.size	IR_AC_Signal_Current, 4
 820              	IR_AC_Signal_Current:
 821 004c 00000000 		.space	4
 822              		.type	IR_AC_Signal_Previous, %object
 823              		.size	IR_AC_Signal_Previous, 4
 824              	IR_AC_Signal_Previous:
 825 0050 00000000 		.space	4
 826              		.type	last_peak_timestamp, %object
 827              		.size	last_peak_timestamp, 4
 828              	last_peak_timestamp:
 829 0054 00000000 		.space	4
 830              		.type	heart_rate_index, %object
 831              		.size	heart_rate_index, 4
 832              	heart_rate_index:
 833 0058 00000000 		.space	4
 834              		.type	heart_rate_history, %object
 835              		.size	heart_rate_history, 80
 836              	heart_rate_history:
 837 005c 00000000 		.space	80
 837      00000000 
 837      00000000 
ARM GAS  C:\Users\CHRONI~1\AppData\Local\Temp\cclkxkiv.s 			page 22


 837      00000000 
 837      00000000 
 838              		.type	heart_rate_sum, %object
 839              		.size	heart_rate_sum, 4
 840              	heart_rate_sum:
 841 00ac 00000000 		.space	4
 842              		.type	heart_rate_count, %object
 843              		.size	heart_rate_count, 4
 844              	heart_rate_count:
 845 00b0 00000000 		.space	4
 846              		.text
 847              	.Letext0:
 848              		.file 2 ".\\uC-CPU\\ARM-Cortex-M3\\GNU/cpu.h"
 849              		.file 3 "c:\\program files (x86)\\cypress\\psoc creator\\4.4\\psoc creator\\import\\gnu\\arm\\5.4.
 850              		.file 4 "c:\\program files (x86)\\cypress\\psoc creator\\4.4\\psoc creator\\import\\gnu\\arm\\5.4.
 851              		.file 5 ".\\uC-CPU/cpu_core.h"
 852              		.file 6 ".\\uCOS-III\\Source/os_type.h"
 853              		.file 7 ".\\uCOS-III\\Source/os.h"
 854              		.file 8 ".\\SensorLib/max30102/driver_max30102.h"
 855              		.file 9 "Generated_Source\\PSoC5/core_cm3.h"
 856              		.file 10 "./log_task.h"
 857              		.file 11 "Generated_Source\\PSoC5/Timer_1.h"
 858              		.file 12 "Generated_Source\\PSoC5/Timer_ISR.h"
 859              		.file 13 "Generated_Source\\PSoC5/I2C_1.h"
 860              		.file 14 "./max30102_interface.h"