ARM GAS  C:\Users\CHRONI~1\AppData\Local\Temp\ccQwYWoe.s 			page 1


   1              		.syntax unified
   2              		.cpu cortex-m3
   3              		.fpu softvfp
   4              		.eabi_attribute 20, 1
   5              		.eabi_attribute 21, 1
   6              		.eabi_attribute 23, 3
   7              		.eabi_attribute 24, 1
   8              		.eabi_attribute 25, 1
   9              		.eabi_attribute 26, 1
  10              		.eabi_attribute 30, 1
  11              		.eabi_attribute 34, 1
  12              		.eabi_attribute 18, 4
  13              		.thumb
  14              		.syntax unified
  15              		.file	"bsp_spi.c"
  16              		.text
  17              	.Ltext0:
  18              		.cfi_sections	.debug_frame
  19              		.section	.text.SPI_DMA_Init,"ax",%progbits
  20              		.align	2
  21              		.global	SPI_DMA_Init
  22              		.thumb
  23              		.thumb_func
  24              		.type	SPI_DMA_Init, %function
  25              	SPI_DMA_Init:
  26              	.LFB66:
  27              		.file 1 "bsp_spi.c"
   1:bsp_spi.c     **** /*
   2:bsp_spi.c     **** ***************************************************************************************************
   3:bsp_spi.c     **** *
   4:bsp_spi.c     **** *                                      SPI BSP - Implementation File
   5:bsp_spi.c     **** *
   6:bsp_spi.c     **** ***************************************************************************************************
   7:bsp_spi.c     **** */
   8:bsp_spi.c     **** 
   9:bsp_spi.c     **** #include "bsp_spi.h"
  10:bsp_spi.c     **** #include "log_task.h"
  11:bsp_spi.c     **** 
  12:bsp_spi.c     **** /* DMA Channel and Transfer Descriptor for SPI */
  13:bsp_spi.c     **** CPU_INT08U SPI_DMA_Chan;
  14:bsp_spi.c     **** CPU_INT08U SPI_DMA_TD[1];
  15:bsp_spi.c     **** 
  16:bsp_spi.c     **** /* SPI Buffer */
  17:bsp_spi.c     **** CPU_INT08U spi_rx_buffer[SPI_BUFFER_SIZE];
  18:bsp_spi.c     **** 
  19:bsp_spi.c     **** /* Task Control Block and Stack Declaration for SPI Task */
  20:bsp_spi.c     **** OS_TCB SPI_Task_TCB;
  21:bsp_spi.c     **** CPU_STK SPI_TaskStk[APP_CFG_TASK_SPI_STK_SIZE];
  22:bsp_spi.c     **** 
  23:bsp_spi.c     **** /*
  24:bsp_spi.c     **** ***************************************************************************************************
  25:bsp_spi.c     **** *                                         SPI Initialization
  26:bsp_spi.c     **** ***************************************************************************************************
  27:bsp_spi.c     **** */
  28:bsp_spi.c     **** 
  29:bsp_spi.c     **** void SPI_Init(void) {
  30:bsp_spi.c     ****     OS_ERR os_err;
ARM GAS  C:\Users\CHRONI~1\AppData\Local\Temp\ccQwYWoe.s 			page 2


  31:bsp_spi.c     ****     
  32:bsp_spi.c     ****     /* Start the SPI hardware block */
  33:bsp_spi.c     ****     SPIM_1_Start();  
  34:bsp_spi.c     ****     
  35:bsp_spi.c     ****     /* Initialize DMA for SPI communication */
  36:bsp_spi.c     ****     SPI_DMA_Init();
  37:bsp_spi.c     **** 
  38:bsp_spi.c     ****     /* Create SPI Task */
  39:bsp_spi.c     ****     OSTaskCreate((OS_TCB      *)&SPI_Task_TCB,
  40:bsp_spi.c     ****                  (CPU_CHAR    *)"SPITask",
  41:bsp_spi.c     ****                  (OS_TASK_PTR  )SPI_Task,
  42:bsp_spi.c     ****                  (void        *)0,
  43:bsp_spi.c     ****                  (OS_PRIO      )APP_CFG_TASK_SPI_PRIO,
  44:bsp_spi.c     ****                  (CPU_STK     *)&SPI_TaskStk[0],
  45:bsp_spi.c     ****                  (CPU_STK_SIZE )APP_CFG_TASK_SPI_STK_SIZE_LIMIT,
  46:bsp_spi.c     ****                  (CPU_STK_SIZE )APP_CFG_TASK_SPI_STK_SIZE,
  47:bsp_spi.c     ****                  (OS_MSG_QTY   )0u,
  48:bsp_spi.c     ****                  (OS_TICK      )0u,
  49:bsp_spi.c     ****                  (void        *)0,
  50:bsp_spi.c     ****                  (OS_OPT       )(OS_OPT_TASK_STK_CHK | OS_OPT_TASK_STK_CLR),
  51:bsp_spi.c     ****                  (OS_ERR      *)&os_err);
  52:bsp_spi.c     **** 
  53:bsp_spi.c     ****     /* Log the initialization */
  54:bsp_spi.c     ****     Log_Write(LOG_LEVEL_INFO, "SPI Initialized", 0);
  55:bsp_spi.c     **** }
  56:bsp_spi.c     **** 
  57:bsp_spi.c     **** /*
  58:bsp_spi.c     **** ***************************************************************************************************
  59:bsp_spi.c     **** *                                         SPI Task Function
  60:bsp_spi.c     **** ***************************************************************************************************
  61:bsp_spi.c     **** */
  62:bsp_spi.c     **** 
  63:bsp_spi.c     **** void SPI_Task(void *p_arg) {
  64:bsp_spi.c     ****     OS_ERR os_err;
  65:bsp_spi.c     ****     (void)p_arg;
  66:bsp_spi.c     **** 
  67:bsp_spi.c     ****     while (DEF_TRUE) {
  68:bsp_spi.c     ****         /* Perform SPI operations here */
  69:bsp_spi.c     ****         SPI_Read();
  70:bsp_spi.c     **** 
  71:bsp_spi.c     ****         /* Log task cycle */
  72:bsp_spi.c     ****         Log_Write(LOG_LEVEL_INFO, "SPI Task Cycle Completed", 0);
  73:bsp_spi.c     **** 
  74:bsp_spi.c     ****         /* Delay between cycles */
  75:bsp_spi.c     ****         OSTimeDlyHMSM(0, 0, 1, 0, OS_OPT_TIME_HMSM_STRICT, &os_err);
  76:bsp_spi.c     ****     }
  77:bsp_spi.c     **** }
  78:bsp_spi.c     **** 
  79:bsp_spi.c     **** /*
  80:bsp_spi.c     **** ***************************************************************************************************
  81:bsp_spi.c     **** *                                         SPI DMA Initialization
  82:bsp_spi.c     **** ***************************************************************************************************
  83:bsp_spi.c     **** */
  84:bsp_spi.c     **** 
  85:bsp_spi.c     **** void SPI_DMA_Init(void) {
  28              		.loc 1 85 0
  29              		.cfi_startproc
ARM GAS  C:\Users\CHRONI~1\AppData\Local\Temp\ccQwYWoe.s 			page 3


  30              		@ args = 0, pretend = 0, frame = 0
  31              		@ frame_needed = 0, uses_anonymous_args = 0
  32 0000 38B5     		push	{r3, r4, r5, lr}
  33              		.cfi_def_cfa_offset 16
  34              		.cfi_offset 3, -16
  35              		.cfi_offset 4, -12
  36              		.cfi_offset 5, -8
  37              		.cfi_offset 14, -4
  86:bsp_spi.c     ****     
  87:bsp_spi.c     ****     /* Initialize the DMA channel for SPI RX */
  88:bsp_spi.c     ****     SPI_DMA_Chan = DMA_SPI_DmaInitialize(1, 1, HI16(CYDEV_PERIPH_BASE), HI16(CYDEV_SRAM_BASE));
  38              		.loc 1 88 0
  39 0002 41F6FF73 		movw	r3, #8191
  40 0006 4FF48042 		mov	r2, #16384
  41 000a 0121     		movs	r1, #1
  42 000c 0846     		mov	r0, r1
  43 000e FFF7FEFF 		bl	DMA_SPI_DmaInitialize
  44              	.LVL0:
  45 0012 154B     		ldr	r3, .L5
  46 0014 1870     		strb	r0, [r3]
  89:bsp_spi.c     ****     SPI_DMA_TD[0] = CyDmaTdAllocate();
  47              		.loc 1 89 0
  48 0016 FFF7FEFF 		bl	CyDmaTdAllocate
  49              	.LVL1:
  50 001a 144B     		ldr	r3, .L5+4
  51 001c 1870     		strb	r0, [r3]
  90:bsp_spi.c     **** 
  91:bsp_spi.c     ****     if (SPI_DMA_TD[0] == DMA_INVALID_TD) {
  52              		.loc 1 91 0
  53 001e FF28     		cmp	r0, #255
  54 0020 05D1     		bne	.L2
  92:bsp_spi.c     ****         Log_Write(LOG_LEVEL_ERROR, "SPI DMA TD Allocation Failed", 0x02);  // Error code 0x02 for f
  55              		.loc 1 92 0
  56 0022 0222     		movs	r2, #2
  57 0024 1249     		ldr	r1, .L5+8
  58 0026 0420     		movs	r0, #4
  59 0028 FFF7FEFF 		bl	Log_Write
  60              	.LVL2:
  93:bsp_spi.c     ****         return;
  61              		.loc 1 93 0
  62 002c 38BD     		pop	{r3, r4, r5, pc}
  63              	.L2:
  94:bsp_spi.c     ****     }
  95:bsp_spi.c     **** 
  96:bsp_spi.c     ****     /* Set up the DMA transfer descriptor */
  97:bsp_spi.c     ****     CyDmaTdSetConfiguration(SPI_DMA_TD[0], SPI_BUFFER_SIZE, DMA_INVALID_TD, TD_INC_SRC_ADR | TD_INC
  64              		.loc 1 97 0
  65 002e 0323     		movs	r3, #3
  66 0030 FF22     		movs	r2, #255
  67 0032 1021     		movs	r1, #16
  68 0034 FFF7FEFF 		bl	CyDmaTdSetConfiguration
  69              	.LVL3:
  98:bsp_spi.c     ****     CyDmaTdSetAddress(SPI_DMA_TD[0], LO16((uint32)SPIM_1_RXDATA_PTR), LO16((uint32)spi_rx_buffer));
  70              		.loc 1 98 0
  71 0038 0C4D     		ldr	r5, .L5+4
  72 003a 0E4A     		ldr	r2, .L5+12
  73 003c 92B2     		uxth	r2, r2
ARM GAS  C:\Users\CHRONI~1\AppData\Local\Temp\ccQwYWoe.s 			page 4


  74 003e 46F25841 		movw	r1, #25688
  75 0042 2878     		ldrb	r0, [r5]	@ zero_extendqisi2
  76 0044 FFF7FEFF 		bl	CyDmaTdSetAddress
  77              	.LVL4:
  99:bsp_spi.c     ****     
 100:bsp_spi.c     ****     /* Set the initial TD for the DMA channel */
 101:bsp_spi.c     ****     CyDmaChSetInitialTd(SPI_DMA_Chan, SPI_DMA_TD[0]);
  78              		.loc 1 101 0
  79 0048 074C     		ldr	r4, .L5
  80 004a 2978     		ldrb	r1, [r5]	@ zero_extendqisi2
  81 004c 2078     		ldrb	r0, [r4]	@ zero_extendqisi2
  82 004e FFF7FEFF 		bl	CyDmaChSetInitialTd
  83              	.LVL5:
 102:bsp_spi.c     **** 
 103:bsp_spi.c     ****     /* Enable the DMA channel */
 104:bsp_spi.c     ****     CyDmaChEnable(SPI_DMA_Chan, 1);
  84              		.loc 1 104 0
  85 0052 0121     		movs	r1, #1
  86 0054 2078     		ldrb	r0, [r4]	@ zero_extendqisi2
  87 0056 FFF7FEFF 		bl	CyDmaChEnable
  88              	.LVL6:
 105:bsp_spi.c     **** 
 106:bsp_spi.c     ****     /* Log the DMA initialization */
 107:bsp_spi.c     ****     Log_Write(LOG_LEVEL_INFO, "SPI DMA Initialized", 0);
  89              		.loc 1 107 0
  90 005a 0022     		movs	r2, #0
  91 005c 0649     		ldr	r1, .L5+16
  92 005e 0120     		movs	r0, #1
  93 0060 FFF7FEFF 		bl	Log_Write
  94              	.LVL7:
  95 0064 38BD     		pop	{r3, r4, r5, pc}
  96              	.L6:
  97 0066 00BF     		.align	2
  98              	.L5:
  99 0068 00000000 		.word	SPI_DMA_Chan
 100 006c 00000000 		.word	SPI_DMA_TD
 101 0070 00000000 		.word	.LC0
 102 0074 00000000 		.word	spi_rx_buffer
 103 0078 20000000 		.word	.LC1
 104              		.cfi_endproc
 105              	.LFE66:
 106              		.size	SPI_DMA_Init, .-SPI_DMA_Init
 107              		.section	.text.SPI_Init,"ax",%progbits
 108              		.align	2
 109              		.global	SPI_Init
 110              		.thumb
 111              		.thumb_func
 112              		.type	SPI_Init, %function
 113              	SPI_Init:
 114              	.LFB64:
  29:bsp_spi.c     ****     OS_ERR os_err;
 115              		.loc 1 29 0
 116              		.cfi_startproc
 117              		@ args = 0, pretend = 0, frame = 8
 118              		@ frame_needed = 0, uses_anonymous_args = 0
 119 0000 10B5     		push	{r4, lr}
 120              		.cfi_def_cfa_offset 8
ARM GAS  C:\Users\CHRONI~1\AppData\Local\Temp\ccQwYWoe.s 			page 5


 121              		.cfi_offset 4, -8
 122              		.cfi_offset 14, -4
 123 0002 8CB0     		sub	sp, sp, #48
 124              		.cfi_def_cfa_offset 56
  33:bsp_spi.c     ****     
 125              		.loc 1 33 0
 126 0004 FFF7FEFF 		bl	SPIM_1_Start
 127              	.LVL8:
  36:bsp_spi.c     **** 
 128              		.loc 1 36 0
 129 0008 FFF7FEFF 		bl	SPI_DMA_Init
 130              	.LVL9:
  39:bsp_spi.c     ****                  (CPU_CHAR    *)"SPITask",
 131              		.loc 1 39 0
 132 000c 0DF12E03 		add	r3, sp, #46
 133 0010 0893     		str	r3, [sp, #32]
 134 0012 0323     		movs	r3, #3
 135 0014 0793     		str	r3, [sp, #28]
 136 0016 0024     		movs	r4, #0
 137 0018 0694     		str	r4, [sp, #24]
 138 001a 0594     		str	r4, [sp, #20]
 139 001c 0494     		str	r4, [sp, #16]
 140 001e 4FF40073 		mov	r3, #512
 141 0022 0393     		str	r3, [sp, #12]
 142 0024 3323     		movs	r3, #51
 143 0026 0293     		str	r3, [sp, #8]
 144 0028 084B     		ldr	r3, .L9
 145 002a 0193     		str	r3, [sp, #4]
 146 002c 0623     		movs	r3, #6
 147 002e 0093     		str	r3, [sp]
 148 0030 2346     		mov	r3, r4
 149 0032 074A     		ldr	r2, .L9+4
 150 0034 0749     		ldr	r1, .L9+8
 151 0036 0848     		ldr	r0, .L9+12
 152 0038 FFF7FEFF 		bl	OSTaskCreate
 153              	.LVL10:
  54:bsp_spi.c     **** }
 154              		.loc 1 54 0
 155 003c 2246     		mov	r2, r4
 156 003e 0749     		ldr	r1, .L9+16
 157 0040 0120     		movs	r0, #1
 158 0042 FFF7FEFF 		bl	Log_Write
 159              	.LVL11:
  55:bsp_spi.c     **** 
 160              		.loc 1 55 0
 161 0046 0CB0     		add	sp, sp, #48
 162              		.cfi_def_cfa_offset 8
 163              		@ sp needed
 164 0048 10BD     		pop	{r4, pc}
 165              	.L10:
 166 004a 00BF     		.align	2
 167              	.L9:
 168 004c 00000000 		.word	SPI_TaskStk
 169 0050 00000000 		.word	SPI_Task
 170 0054 34000000 		.word	.LC2
 171 0058 00000000 		.word	SPI_Task_TCB
 172 005c 3C000000 		.word	.LC3
ARM GAS  C:\Users\CHRONI~1\AppData\Local\Temp\ccQwYWoe.s 			page 6


 173              		.cfi_endproc
 174              	.LFE64:
 175              		.size	SPI_Init, .-SPI_Init
 176              		.section	.text.SPI_Read,"ax",%progbits
 177              		.align	2
 178              		.global	SPI_Read
 179              		.thumb
 180              		.thumb_func
 181              		.type	SPI_Read, %function
 182              	SPI_Read:
 183              	.LFB67:
 108:bsp_spi.c     **** }
 109:bsp_spi.c     **** 
 110:bsp_spi.c     **** /*
 111:bsp_spi.c     **** ***************************************************************************************************
 112:bsp_spi.c     **** *                                         SPI Read
 113:bsp_spi.c     **** ***************************************************************************************************
 114:bsp_spi.c     **** */
 115:bsp_spi.c     **** 
 116:bsp_spi.c     **** void SPI_Read(void) {
 184              		.loc 1 116 0
 185              		.cfi_startproc
 186              		@ args = 0, pretend = 0, frame = 0
 187              		@ frame_needed = 0, uses_anonymous_args = 0
 188 0000 08B5     		push	{r3, lr}
 189              		.cfi_def_cfa_offset 8
 190              		.cfi_offset 3, -8
 191              		.cfi_offset 14, -4
 117:bsp_spi.c     ****     
 118:bsp_spi.c     ****     /* Start the DMA transfer */
 119:bsp_spi.c     ****     CyDmaChEnable(SPI_DMA_Chan, 1);
 192              		.loc 1 119 0
 193 0002 0121     		movs	r1, #1
 194 0004 044B     		ldr	r3, .L13
 195 0006 1878     		ldrb	r0, [r3]	@ zero_extendqisi2
 196 0008 FFF7FEFF 		bl	CyDmaChEnable
 197              	.LVL12:
 120:bsp_spi.c     **** 
 121:bsp_spi.c     ****     /* Log the read operation */
 122:bsp_spi.c     ****     Log_Write(LOG_LEVEL_INFO, "SPI Read Started", 0);
 198              		.loc 1 122 0
 199 000c 0022     		movs	r2, #0
 200 000e 0349     		ldr	r1, .L13+4
 201 0010 0120     		movs	r0, #1
 202 0012 FFF7FEFF 		bl	Log_Write
 203              	.LVL13:
 204 0016 08BD     		pop	{r3, pc}
 205              	.L14:
 206              		.align	2
 207              	.L13:
 208 0018 00000000 		.word	SPI_DMA_Chan
 209 001c 4C000000 		.word	.LC4
 210              		.cfi_endproc
 211              	.LFE67:
 212              		.size	SPI_Read, .-SPI_Read
 213              		.section	.text.SPI_Task,"ax",%progbits
 214              		.align	2
ARM GAS  C:\Users\CHRONI~1\AppData\Local\Temp\ccQwYWoe.s 			page 7


 215              		.global	SPI_Task
 216              		.thumb
 217              		.thumb_func
 218              		.type	SPI_Task, %function
 219              	SPI_Task:
 220              	.LFB65:
  63:bsp_spi.c     ****     OS_ERR os_err;
 221              		.loc 1 63 0
 222              		.cfi_startproc
 223              		@ args = 0, pretend = 0, frame = 8
 224              		@ frame_needed = 0, uses_anonymous_args = 0
 225              	.LVL14:
 226 0000 00B5     		push	{lr}
 227              		.cfi_def_cfa_offset 4
 228              		.cfi_offset 14, -4
 229 0002 85B0     		sub	sp, sp, #20
 230              		.cfi_def_cfa_offset 24
 231              	.LVL15:
 232              	.L16:
  69:bsp_spi.c     **** 
 233              		.loc 1 69 0 discriminator 1
 234 0004 FFF7FEFF 		bl	SPI_Read
 235              	.LVL16:
  72:bsp_spi.c     **** 
 236              		.loc 1 72 0 discriminator 1
 237 0008 0022     		movs	r2, #0
 238 000a 0749     		ldr	r1, .L18
 239 000c 0120     		movs	r0, #1
 240 000e FFF7FEFF 		bl	Log_Write
 241              	.LVL17:
  75:bsp_spi.c     ****     }
 242              		.loc 1 75 0 discriminator 1
 243 0012 0DF10E03 		add	r3, sp, #14
 244 0016 0193     		str	r3, [sp, #4]
 245 0018 0020     		movs	r0, #0
 246 001a 0090     		str	r0, [sp]
 247 001c 0346     		mov	r3, r0
 248 001e 0122     		movs	r2, #1
 249 0020 0146     		mov	r1, r0
 250 0022 FFF7FEFF 		bl	OSTimeDlyHMSM
 251              	.LVL18:
 252 0026 EDE7     		b	.L16
 253              	.L19:
 254              		.align	2
 255              	.L18:
 256 0028 60000000 		.word	.LC5
 257              		.cfi_endproc
 258              	.LFE65:
 259              		.size	SPI_Task, .-SPI_Task
 260              		.section	.text.SPI_Write,"ax",%progbits
 261              		.align	2
 262              		.global	SPI_Write
 263              		.thumb
 264              		.thumb_func
 265              		.type	SPI_Write, %function
 266              	SPI_Write:
 267              	.LFB68:
ARM GAS  C:\Users\CHRONI~1\AppData\Local\Temp\ccQwYWoe.s 			page 8


 123:bsp_spi.c     **** }
 124:bsp_spi.c     **** 
 125:bsp_spi.c     **** /*
 126:bsp_spi.c     **** ***************************************************************************************************
 127:bsp_spi.c     **** *                                         SPI Write
 128:bsp_spi.c     **** ***************************************************************************************************
 129:bsp_spi.c     **** */
 130:bsp_spi.c     **** 
 131:bsp_spi.c     **** void SPI_Write(CPU_INT08U* data, CPU_INT16U size) {
 268              		.loc 1 131 0
 269              		.cfi_startproc
 270              		@ args = 0, pretend = 0, frame = 0
 271              		@ frame_needed = 0, uses_anonymous_args = 0
 272              	.LVL19:
 273 0000 08B5     		push	{r3, lr}
 274              		.cfi_def_cfa_offset 8
 275              		.cfi_offset 3, -8
 276              		.cfi_offset 14, -4
 132:bsp_spi.c     ****     
 133:bsp_spi.c     **** 
 134:bsp_spi.c     ****     /* Log the write operation */
 135:bsp_spi.c     ****     Log_Write(LOG_LEVEL_INFO, "SPI Write Started", 0);
 277              		.loc 1 135 0
 278 0002 0022     		movs	r2, #0
 279 0004 0249     		ldr	r1, .L22
 280              	.LVL20:
 281 0006 0120     		movs	r0, #1
 282              	.LVL21:
 283 0008 FFF7FEFF 		bl	Log_Write
 284              	.LVL22:
 285 000c 08BD     		pop	{r3, pc}
 286              	.L23:
 287 000e 00BF     		.align	2
 288              	.L22:
 289 0010 7C000000 		.word	.LC6
 290              		.cfi_endproc
 291              	.LFE68:
 292              		.size	SPI_Write, .-SPI_Write
 293              		.comm	SPI_TaskStk,2048,4
 294              		.comm	SPI_Task_TCB,192,4
 295              		.comm	spi_rx_buffer,16,4
 296              		.comm	SPI_DMA_TD,1,4
 297              		.comm	SPI_DMA_Chan,1,1
 298              		.section	.rodata.str1.4,"aMS",%progbits,1
 299              		.align	2
 300              	.LC0:
 301 0000 53504920 		.ascii	"SPI DMA TD Allocation Failed\000"
 301      444D4120 
 301      54442041 
 301      6C6C6F63 
 301      6174696F 
 302 001d 000000   		.space	3
 303              	.LC1:
 304 0020 53504920 		.ascii	"SPI DMA Initialized\000"
 304      444D4120 
 304      496E6974 
 304      69616C69 
ARM GAS  C:\Users\CHRONI~1\AppData\Local\Temp\ccQwYWoe.s 			page 9


 304      7A656400 
 305              	.LC2:
 306 0034 53504954 		.ascii	"SPITask\000"
 306      61736B00 
 307              	.LC3:
 308 003c 53504920 		.ascii	"SPI Initialized\000"
 308      496E6974 
 308      69616C69 
 308      7A656400 
 309              	.LC4:
 310 004c 53504920 		.ascii	"SPI Read Started\000"
 310      52656164 
 310      20537461 
 310      72746564 
 310      00
 311 005d 000000   		.space	3
 312              	.LC5:
 313 0060 53504920 		.ascii	"SPI Task Cycle Completed\000"
 313      5461736B 
 313      20437963 
 313      6C652043 
 313      6F6D706C 
 314 0079 000000   		.space	3
 315              	.LC6:
 316 007c 53504920 		.ascii	"SPI Write Started\000"
 316      57726974 
 316      65205374 
 316      61727465 
 316      6400
 317              		.text
 318              	.Letext0:
 319              		.file 2 "c:\\program files (x86)\\cypress\\psoc creator\\4.4\\psoc creator\\import\\gnu\\arm\\5.4.
 320              		.file 3 "c:\\program files (x86)\\cypress\\psoc creator\\4.4\\psoc creator\\import\\gnu\\arm\\5.4.
 321              		.file 4 "Generated_Source\\PSoC5/cytypes.h"
 322              		.file 5 ".\\uC-CPU\\ARM-Cortex-M3\\GNU/cpu.h"
 323              		.file 6 ".\\uC-CPU/cpu_core.h"
 324              		.file 7 ".\\uCOS-III\\Source/os_type.h"
 325              		.file 8 ".\\uCOS-III\\Source/os.h"
 326              		.file 9 "Generated_Source\\PSoC5/core_cm3.h"
 327              		.file 10 "Generated_Source\\PSoC5/DMA_SPI_dma.h"
 328              		.file 11 "Generated_Source\\PSoC5/CYDMAC.H"
 329              		.file 12 "log_task.h"
 330              		.file 13 "Generated_Source\\PSoC5/SPIM_1.h"