ARM GAS  C:\Users\CHRONI~1\AppData\Local\Temp\cc7oUGua.s 			page 1


   1              		.syntax unified
   2              		.cpu cortex-m3
   3              		.fpu softvfp
   4              		.eabi_attribute 20, 1
   5              		.eabi_attribute 21, 1
   6              		.eabi_attribute 23, 3
   7              		.eabi_attribute 24, 1
   8              		.eabi_attribute 25, 1
   9              		.eabi_attribute 26, 1
  10              		.eabi_attribute 30, 1
  11              		.eabi_attribute 34, 1
  12              		.eabi_attribute 18, 4
  13              		.thumb
  14              		.syntax unified
  15              		.file	"driver_max30102.c"
  16              		.text
  17              	.Ltext0:
  18              		.cfi_sections	.debug_frame
  19              		.section	.text.max30102_init,"ax",%progbits
  20              		.align	2
  21              		.global	max30102_init
  22              		.thumb
  23              		.thumb_func
  24              		.type	max30102_init, %function
  25              	max30102_init:
  26              	.LFB1:
  27              		.file 1 "SensorLib\\max30102\\driver_max30102.c"
   1:SensorLib\max30102/driver_max30102.c **** /**
   2:SensorLib\max30102/driver_max30102.c ****  * Copyright (c) 2015 - present LibDriver All rights reserved
   3:SensorLib\max30102/driver_max30102.c ****  * 
   4:SensorLib\max30102/driver_max30102.c ****  * The MIT License (MIT)
   5:SensorLib\max30102/driver_max30102.c ****  *
   6:SensorLib\max30102/driver_max30102.c ****  * Permission is hereby granted, free of charge, to any person obtaining a copy
   7:SensorLib\max30102/driver_max30102.c ****  * of this software and associated documentation files (the "Software"), to deal
   8:SensorLib\max30102/driver_max30102.c ****  * in the Software without restriction, including without limitation the rights
   9:SensorLib\max30102/driver_max30102.c ****  * to use, copy, modify, merge, publish, distribute, sublicense, and/or sell
  10:SensorLib\max30102/driver_max30102.c ****  * copies of the Software, and to permit persons to whom the Software is
  11:SensorLib\max30102/driver_max30102.c ****  * furnished to do so, subject to the following conditions:
  12:SensorLib\max30102/driver_max30102.c ****  *
  13:SensorLib\max30102/driver_max30102.c ****  * The above copyright notice and this permission notice shall be included in all
  14:SensorLib\max30102/driver_max30102.c ****  * copies or substantial portions of the Software.
  15:SensorLib\max30102/driver_max30102.c ****  *
  16:SensorLib\max30102/driver_max30102.c ****  * THE SOFTWARE IS PROVIDED "AS IS", WITHOUT WARRANTY OF ANY KIND, EXPRESS OR
  17:SensorLib\max30102/driver_max30102.c ****  * IMPLIED, INCLUDING BUT NOT LIMITED TO THE WARRANTIES OF MERCHANTABILITY,
  18:SensorLib\max30102/driver_max30102.c ****  * FITNESS FOR A PARTICULAR PURPOSE AND NONINFRINGEMENT. IN NO EVENT SHALL THE
  19:SensorLib\max30102/driver_max30102.c ****  * AUTHORS OR COPYRIGHT HOLDERS BE LIABLE FOR ANY CLAIM, DAMAGES OR OTHER
  20:SensorLib\max30102/driver_max30102.c ****  * LIABILITY, WHETHER IN AN ACTION OF CONTRACT, TORT OR OTHERWISE, ARISING FROM,
  21:SensorLib\max30102/driver_max30102.c ****  * OUT OF OR IN CONNECTION WITH THE SOFTWARE OR THE USE OR OTHER DEALINGS IN THE
  22:SensorLib\max30102/driver_max30102.c ****  * SOFTWARE. 
  23:SensorLib\max30102/driver_max30102.c ****  *
  24:SensorLib\max30102/driver_max30102.c ****  * @file      driver_max30102.c
  25:SensorLib\max30102/driver_max30102.c ****  * @brief     driver max30102 source file
  26:SensorLib\max30102/driver_max30102.c ****  * @version   1.0.0
  27:SensorLib\max30102/driver_max30102.c ****  * @author    Shifeng Li
  28:SensorLib\max30102/driver_max30102.c ****  * @date      2021-11-13
  29:SensorLib\max30102/driver_max30102.c ****  *
  30:SensorLib\max30102/driver_max30102.c ****  * <h3>history</h3>
ARM GAS  C:\Users\CHRONI~1\AppData\Local\Temp\cc7oUGua.s 			page 2


  31:SensorLib\max30102/driver_max30102.c ****  * <table>
  32:SensorLib\max30102/driver_max30102.c ****  * <tr><th>Date        <th>Version  <th>Author      <th>Description
  33:SensorLib\max30102/driver_max30102.c ****  * <tr><td>2021/11/13  <td>1.0      <td>Shifeng Li  <td>first upload
  34:SensorLib\max30102/driver_max30102.c ****  * </table>
  35:SensorLib\max30102/driver_max30102.c ****  */
  36:SensorLib\max30102/driver_max30102.c **** 
  37:SensorLib\max30102/driver_max30102.c **** #include "driver_max30102.h"
  38:SensorLib\max30102/driver_max30102.c **** 
  39:SensorLib\max30102/driver_max30102.c **** /**
  40:SensorLib\max30102/driver_max30102.c ****  * @brief chip information definition
  41:SensorLib\max30102/driver_max30102.c ****  */
  42:SensorLib\max30102/driver_max30102.c **** #define CHIP_NAME                 "Maxim Integrated MAX30102"        /**< chip name */
  43:SensorLib\max30102/driver_max30102.c **** #define MANUFACTURER_NAME         "Maxim Integrated"                 /**< manufacturer name */
  44:SensorLib\max30102/driver_max30102.c **** #define SUPPLY_VOLTAGE_MIN        1.7f                               /**< chip min supply voltage *
  45:SensorLib\max30102/driver_max30102.c **** #define SUPPLY_VOLTAGE_MAX        2.0f                               /**< chip max supply voltage *
  46:SensorLib\max30102/driver_max30102.c **** #define MAX_CURRENT               20.0f                              /**< chip max current */
  47:SensorLib\max30102/driver_max30102.c **** #define TEMPERATURE_MIN           -40.0f                             /**< chip min operating temper
  48:SensorLib\max30102/driver_max30102.c **** #define TEMPERATURE_MAX           85.0f                              /**< chip max operating temper
  49:SensorLib\max30102/driver_max30102.c **** #define DRIVER_VERSION            1000                               /**< driver version */
  50:SensorLib\max30102/driver_max30102.c **** 
  51:SensorLib\max30102/driver_max30102.c **** /**
  52:SensorLib\max30102/driver_max30102.c ****  * @brief iic address definition
  53:SensorLib\max30102/driver_max30102.c ****  */
  54:SensorLib\max30102/driver_max30102.c **** #define MAX30102_ADDRESS        0x57        /**< iic address */
  55:SensorLib\max30102/driver_max30102.c **** 
  56:SensorLib\max30102/driver_max30102.c **** /**
  57:SensorLib\max30102/driver_max30102.c ****  * @brief chip register definition
  58:SensorLib\max30102/driver_max30102.c ****  */
  59:SensorLib\max30102/driver_max30102.c **** #define MAX30102_REG_INTERRUPT_STATUS_1          0x00        /**< interrupt status 1 register */
  60:SensorLib\max30102/driver_max30102.c **** #define MAX30102_REG_INTERRUPT_STATUS_2          0x01        /**< interrupt status 2 register */
  61:SensorLib\max30102/driver_max30102.c **** #define MAX30102_REG_INTERRUPT_ENABLE_1          0x02        /**< interrupt enable 1 register */
  62:SensorLib\max30102/driver_max30102.c **** #define MAX30102_REG_INTERRUPT_ENABLE_2          0x03        /**< interrupt enable 2 register */
  63:SensorLib\max30102/driver_max30102.c **** #define MAX30102_REG_FIFO_WRITE_POINTER          0x04        /**< fifo write pointer register */
  64:SensorLib\max30102/driver_max30102.c **** #define MAX30102_REG_OVERFLOW_COUNTER            0x05        /**< overflow counter register */
  65:SensorLib\max30102/driver_max30102.c **** #define MAX30102_REG_FIFO_READ_POINTER           0x06        /**< fifo read pointer register */
  66:SensorLib\max30102/driver_max30102.c **** #define MAX30102_REG_FIFO_DATA_REGISTER          0x07        /**< fifo data register */
  67:SensorLib\max30102/driver_max30102.c **** #define MAX30102_REG_FIFO_CONFIG                 0x08        /**< fifo config register */
  68:SensorLib\max30102/driver_max30102.c **** #define MAX30102_REG_MODE_CONFIG                 0x09        /**< mode config register */
  69:SensorLib\max30102/driver_max30102.c **** #define MAX30102_REG_SPO2_CONFIG                 0x0A        /**< spo2 config register */
  70:SensorLib\max30102/driver_max30102.c **** #define MAX30102_REG_LED_PULSE_1                 0x0C        /**< led pulse amplitude 1 register */
  71:SensorLib\max30102/driver_max30102.c **** #define MAX30102_REG_LED_PULSE_2                 0x0D        /**< led pulse amplitude 2 register */
  72:SensorLib\max30102/driver_max30102.c **** #define MAX30102_REG_MULTI_LED_MODE_CONTROL_1    0x11        /**< multi led mode control 1 register
  73:SensorLib\max30102/driver_max30102.c **** #define MAX30102_REG_MULTI_LED_MODE_CONTROL_2    0x12        /**< multi led mode control 2 register
  74:SensorLib\max30102/driver_max30102.c **** #define MAX30102_REG_DIE_TEMP_INTEGER            0x1F        /**< die temperature integer register 
  75:SensorLib\max30102/driver_max30102.c **** #define MAX30102_REG_DIE_TEMP_FRACTION           0x20        /**< die temperature fraction register
  76:SensorLib\max30102/driver_max30102.c **** #define MAX30102_REG_DIE_TEMP_CONFIG             0x21        /**< die temperature config register *
  77:SensorLib\max30102/driver_max30102.c **** #define MAX30102_REG_REVISION_ID                 0xFE        /**< revision id register */
  78:SensorLib\max30102/driver_max30102.c **** #define MAX30102_REG_PART_ID                     0xFF        /**< part id register */
  79:SensorLib\max30102/driver_max30102.c **** 
  80:SensorLib\max30102/driver_max30102.c **** /**
  81:SensorLib\max30102/driver_max30102.c ****  * @brief     initialize the chip
  82:SensorLib\max30102/driver_max30102.c ****  * @param[in] *handle points to a max30102 handle structure
  83:SensorLib\max30102/driver_max30102.c ****  * @return    status code
  84:SensorLib\max30102/driver_max30102.c ****  *            - 0 success
  85:SensorLib\max30102/driver_max30102.c ****  *            - 1 iic initialization failed
  86:SensorLib\max30102/driver_max30102.c ****  *            - 2 handle is NULL
  87:SensorLib\max30102/driver_max30102.c ****  *            - 3 linked functions is NULL
ARM GAS  C:\Users\CHRONI~1\AppData\Local\Temp\cc7oUGua.s 			page 3


  88:SensorLib\max30102/driver_max30102.c ****  *            - 4 id is invalid
  89:SensorLib\max30102/driver_max30102.c ****  *            - 5 reset failed
  90:SensorLib\max30102/driver_max30102.c ****  *            - 6 reset fifo failed
  91:SensorLib\max30102/driver_max30102.c ****  * @note      none
  92:SensorLib\max30102/driver_max30102.c ****  */
  93:SensorLib\max30102/driver_max30102.c **** 
  94:SensorLib\max30102/driver_max30102.c **** uint8_t max30102_init(max30102_handle_t *handle)
  95:SensorLib\max30102/driver_max30102.c **** {
  28              		.loc 1 95 0
  29              		.cfi_startproc
  30              		@ args = 0, pretend = 0, frame = 8
  31              		@ frame_needed = 0, uses_anonymous_args = 0
  32              	.LVL0:
  33 0000 F0B5     		push	{r4, r5, r6, r7, lr}
  34              		.cfi_def_cfa_offset 20
  35              		.cfi_offset 4, -20
  36              		.cfi_offset 5, -16
  37              		.cfi_offset 6, -12
  38              		.cfi_offset 7, -8
  39              		.cfi_offset 14, -4
  40 0002 83B0     		sub	sp, sp, #12
  41              		.cfi_def_cfa_offset 32
  96:SensorLib\max30102/driver_max30102.c ****     uint8_t res;
  97:SensorLib\max30102/driver_max30102.c ****     uint8_t prev;
  98:SensorLib\max30102/driver_max30102.c ****     uint8_t part_id;
  99:SensorLib\max30102/driver_max30102.c **** 
 100:SensorLib\max30102/driver_max30102.c ****     if (handle == NULL) {
  42              		.loc 1 100 0
  43 0004 0446     		mov	r4, r0
  44 0006 20B9     		cbnz	r0, .L2
 101:SensorLib\max30102/driver_max30102.c ****         handle->debug_print("max30102: handle is null.\n");
  45              		.loc 1 101 0
  46 0008 8369     		ldr	r3, [r0, #24]
  47 000a 8448     		ldr	r0, .L22
  48              	.LVL1:
  49 000c 9847     		blx	r3
  50              	.LVL2:
 102:SensorLib\max30102/driver_max30102.c ****         return 2;
  51              		.loc 1 102 0
  52 000e 0225     		movs	r5, #2
  53 0010 01E1     		b	.L3
  54              	.LVL3:
  55              	.L2:
 103:SensorLib\max30102/driver_max30102.c ****     }
 104:SensorLib\max30102/driver_max30102.c ****     handle->debug_print("max30102: Initializing...\n");
  56              		.loc 1 104 0
  57 0012 8369     		ldr	r3, [r0, #24]
  58 0014 8248     		ldr	r0, .L22+4
  59              	.LVL4:
  60 0016 9847     		blx	r3
  61              	.LVL5:
 105:SensorLib\max30102/driver_max30102.c **** 
 106:SensorLib\max30102/driver_max30102.c ****     if (handle->debug_print == NULL) {
  62              		.loc 1 106 0
  63 0018 A369     		ldr	r3, [r4, #24]
  64 001a 1BB9     		cbnz	r3, .L4
 107:SensorLib\max30102/driver_max30102.c ****         handle->debug_print("max30102: debug_print is null.\n");
ARM GAS  C:\Users\CHRONI~1\AppData\Local\Temp\cc7oUGua.s 			page 4


  65              		.loc 1 107 0
  66 001c 8148     		ldr	r0, .L22+8
  67 001e 9847     		blx	r3
  68              	.LVL6:
 108:SensorLib\max30102/driver_max30102.c ****         return 3;
  69              		.loc 1 108 0
  70 0020 0325     		movs	r5, #3
  71 0022 F8E0     		b	.L3
  72              	.L4:
 109:SensorLib\max30102/driver_max30102.c ****     }
 110:SensorLib\max30102/driver_max30102.c **** 
 111:SensorLib\max30102/driver_max30102.c ****     if (handle->iic_init == NULL) {
  73              		.loc 1 111 0
  74 0024 2268     		ldr	r2, [r4]
  75 0026 1AB9     		cbnz	r2, .L5
 112:SensorLib\max30102/driver_max30102.c ****         handle->debug_print("max30102: iic_init is null.\n");
  76              		.loc 1 112 0
  77 0028 7F48     		ldr	r0, .L22+12
  78 002a 9847     		blx	r3
  79              	.LVL7:
 113:SensorLib\max30102/driver_max30102.c ****         return 3;
  80              		.loc 1 113 0
  81 002c 0325     		movs	r5, #3
  82 002e F2E0     		b	.L3
  83              	.L5:
 114:SensorLib\max30102/driver_max30102.c ****     }
 115:SensorLib\max30102/driver_max30102.c **** 
 116:SensorLib\max30102/driver_max30102.c ****     if (handle->iic_deinit == NULL) {
  84              		.loc 1 116 0
  85 0030 6268     		ldr	r2, [r4, #4]
  86 0032 1AB9     		cbnz	r2, .L6
 117:SensorLib\max30102/driver_max30102.c ****         handle->debug_print("max30102: iic_deinit is null.\n");
  87              		.loc 1 117 0
  88 0034 7D48     		ldr	r0, .L22+16
  89 0036 9847     		blx	r3
  90              	.LVL8:
 118:SensorLib\max30102/driver_max30102.c ****         return 3;
  91              		.loc 1 118 0
  92 0038 0325     		movs	r5, #3
  93 003a ECE0     		b	.L3
  94              	.L6:
 119:SensorLib\max30102/driver_max30102.c ****     }
 120:SensorLib\max30102/driver_max30102.c **** 
 121:SensorLib\max30102/driver_max30102.c ****     if (handle->iic_read == NULL) {
  95              		.loc 1 121 0
  96 003c A268     		ldr	r2, [r4, #8]
  97 003e 1AB9     		cbnz	r2, .L7
 122:SensorLib\max30102/driver_max30102.c ****         handle->debug_print("max30102: iic_read is null.\n");
  98              		.loc 1 122 0
  99 0040 7B48     		ldr	r0, .L22+20
 100 0042 9847     		blx	r3
 101              	.LVL9:
 123:SensorLib\max30102/driver_max30102.c ****         return 3;
 102              		.loc 1 123 0
 103 0044 0325     		movs	r5, #3
 104 0046 E6E0     		b	.L3
 105              	.L7:
ARM GAS  C:\Users\CHRONI~1\AppData\Local\Temp\cc7oUGua.s 			page 5


 124:SensorLib\max30102/driver_max30102.c ****     }
 125:SensorLib\max30102/driver_max30102.c **** 
 126:SensorLib\max30102/driver_max30102.c ****     if (handle->iic_write == NULL) {
 106              		.loc 1 126 0
 107 0048 E268     		ldr	r2, [r4, #12]
 108 004a 1AB9     		cbnz	r2, .L8
 127:SensorLib\max30102/driver_max30102.c ****         handle->debug_print("max30102: iic_write is null.\n");
 109              		.loc 1 127 0
 110 004c 7948     		ldr	r0, .L22+24
 111 004e 9847     		blx	r3
 112              	.LVL10:
 128:SensorLib\max30102/driver_max30102.c ****         return 3;
 113              		.loc 1 128 0
 114 0050 0325     		movs	r5, #3
 115 0052 E0E0     		b	.L3
 116              	.L8:
 129:SensorLib\max30102/driver_max30102.c ****     }
 130:SensorLib\max30102/driver_max30102.c **** 
 131:SensorLib\max30102/driver_max30102.c ****     if (handle->receive_callback == NULL) {
 117              		.loc 1 131 0
 118 0054 2269     		ldr	r2, [r4, #16]
 119 0056 1AB9     		cbnz	r2, .L9
 132:SensorLib\max30102/driver_max30102.c ****         handle->debug_print("max30102: receive_callback is null.\n");
 120              		.loc 1 132 0
 121 0058 7748     		ldr	r0, .L22+28
 122 005a 9847     		blx	r3
 123              	.LVL11:
 133:SensorLib\max30102/driver_max30102.c ****         return 3;
 124              		.loc 1 133 0
 125 005c 0325     		movs	r5, #3
 126 005e DAE0     		b	.L3
 127              	.L9:
 134:SensorLib\max30102/driver_max30102.c ****     }
 135:SensorLib\max30102/driver_max30102.c **** 
 136:SensorLib\max30102/driver_max30102.c ****     if (handle->delay_ms == NULL) {
 128              		.loc 1 136 0
 129 0060 6269     		ldr	r2, [r4, #20]
 130 0062 1AB9     		cbnz	r2, .L10
 137:SensorLib\max30102/driver_max30102.c ****         handle->debug_print("max30102: delay_ms is null.\n");
 131              		.loc 1 137 0
 132 0064 7548     		ldr	r0, .L22+32
 133 0066 9847     		blx	r3
 134              	.LVL12:
 138:SensorLib\max30102/driver_max30102.c ****         return 3;
 135              		.loc 1 138 0
 136 0068 0325     		movs	r5, #3
 137 006a D4E0     		b	.L3
 138              	.L10:
 139:SensorLib\max30102/driver_max30102.c ****     }
 140:SensorLib\max30102/driver_max30102.c **** 
 141:SensorLib\max30102/driver_max30102.c ****     handle->debug_print("max30102: Initializing I2C...\n");
 139              		.loc 1 141 0
 140 006c 7448     		ldr	r0, .L22+36
 141 006e 9847     		blx	r3
 142              	.LVL13:
 142:SensorLib\max30102/driver_max30102.c ****     if (handle->iic_init() != 0) {
 143              		.loc 1 142 0
ARM GAS  C:\Users\CHRONI~1\AppData\Local\Temp\cc7oUGua.s 			page 6


 144 0070 2368     		ldr	r3, [r4]
 145 0072 9847     		blx	r3
 146              	.LVL14:
 147 0074 20B1     		cbz	r0, .L11
 143:SensorLib\max30102/driver_max30102.c ****         handle->debug_print("max30102: I2C initialization failed.\n");
 148              		.loc 1 143 0
 149 0076 A369     		ldr	r3, [r4, #24]
 150 0078 7248     		ldr	r0, .L22+40
 151 007a 9847     		blx	r3
 152              	.LVL15:
 144:SensorLib\max30102/driver_max30102.c ****         return 1;
 153              		.loc 1 144 0
 154 007c 0125     		movs	r5, #1
 155 007e CAE0     		b	.L3
 156              	.L11:
 145:SensorLib\max30102/driver_max30102.c ****     }
 146:SensorLib\max30102/driver_max30102.c ****     handle->debug_print("max30102: I2C initialization succeeded.\n");
 157              		.loc 1 146 0
 158 0080 A369     		ldr	r3, [r4, #24]
 159 0082 7148     		ldr	r0, .L22+44
 160 0084 9847     		blx	r3
 161              	.LVL16:
 147:SensorLib\max30102/driver_max30102.c ****     handle->debug_print("max30102: Reading Part ID...\n");
 162              		.loc 1 147 0
 163 0086 A369     		ldr	r3, [r4, #24]
 164 0088 7048     		ldr	r0, .L22+48
 165 008a 9847     		blx	r3
 166              	.LVL17:
 148:SensorLib\max30102/driver_max30102.c ****     res = handle->iic_read(MAX30102_ADDRESS, MAX30102_REG_PART_ID, &part_id, 1);
 167              		.loc 1 148 0
 168 008c A568     		ldr	r5, [r4, #8]
 169 008e 0123     		movs	r3, #1
 170 0090 0DF10602 		add	r2, sp, #6
 171 0094 FF21     		movs	r1, #255
 172 0096 5720     		movs	r0, #87
 173 0098 A847     		blx	r5
 174              	.LVL18:
 149:SensorLib\max30102/driver_max30102.c ****     if (res != 0) {
 175              		.loc 1 149 0
 176 009a 30B1     		cbz	r0, .L12
 150:SensorLib\max30102/driver_max30102.c ****         handle->debug_print("max30102: Failed to read Part ID.\n");
 177              		.loc 1 150 0
 178 009c A369     		ldr	r3, [r4, #24]
 179 009e 6C48     		ldr	r0, .L22+52
 180              	.LVL19:
 181 00a0 9847     		blx	r3
 182              	.LVL20:
 151:SensorLib\max30102/driver_max30102.c ****         handle->iic_deinit();
 183              		.loc 1 151 0
 184 00a2 6368     		ldr	r3, [r4, #4]
 185 00a4 9847     		blx	r3
 186              	.LVL21:
 152:SensorLib\max30102/driver_max30102.c ****         return 4;
 187              		.loc 1 152 0
 188 00a6 0425     		movs	r5, #4
 189 00a8 B5E0     		b	.L3
 190              	.LVL22:
ARM GAS  C:\Users\CHRONI~1\AppData\Local\Temp\cc7oUGua.s 			page 7


 191              	.L12:
 153:SensorLib\max30102/driver_max30102.c ****     }
 154:SensorLib\max30102/driver_max30102.c ****     handle->debug_print("max30102: Part ID read successfully. Value: 0x%X\n", part_id);
 192              		.loc 1 154 0
 193 00aa A369     		ldr	r3, [r4, #24]
 194 00ac 9DF80610 		ldrb	r1, [sp, #6]	@ zero_extendqisi2
 195 00b0 6848     		ldr	r0, .L22+56
 196              	.LVL23:
 197 00b2 9847     		blx	r3
 198              	.LVL24:
 155:SensorLib\max30102/driver_max30102.c **** 
 156:SensorLib\max30102/driver_max30102.c ****     if (part_id != 0x15) {
 199              		.loc 1 156 0
 200 00b4 9DF80610 		ldrb	r1, [sp, #6]	@ zero_extendqisi2
 201 00b8 1529     		cmp	r1, #21
 202 00ba 06D0     		beq	.L13
 157:SensorLib\max30102/driver_max30102.c ****         handle->debug_print("max30102: Incorrect Part ID. Expected 0x15 but got 0x%X.\n", part_id);
 203              		.loc 1 157 0
 204 00bc A369     		ldr	r3, [r4, #24]
 205 00be 6648     		ldr	r0, .L22+60
 206 00c0 9847     		blx	r3
 207              	.LVL25:
 158:SensorLib\max30102/driver_max30102.c ****         handle->iic_deinit();
 208              		.loc 1 158 0
 209 00c2 6368     		ldr	r3, [r4, #4]
 210 00c4 9847     		blx	r3
 211              	.LVL26:
 159:SensorLib\max30102/driver_max30102.c ****         return 4;
 212              		.loc 1 159 0
 213 00c6 0425     		movs	r5, #4
 214 00c8 A5E0     		b	.L3
 215              	.L13:
 160:SensorLib\max30102/driver_max30102.c ****     }
 161:SensorLib\max30102/driver_max30102.c ****     handle->debug_print("max30102: Correct Part ID detected.\n");
 216              		.loc 1 161 0
 217 00ca A369     		ldr	r3, [r4, #24]
 218 00cc 6348     		ldr	r0, .L22+64
 219 00ce 9847     		blx	r3
 220              	.LVL27:
 162:SensorLib\max30102/driver_max30102.c **** 
 163:SensorLib\max30102/driver_max30102.c ****     handle->debug_print("max30102: Reading Mode Config...\n");
 221              		.loc 1 163 0
 222 00d0 A369     		ldr	r3, [r4, #24]
 223 00d2 6348     		ldr	r0, .L22+68
 224 00d4 9847     		blx	r3
 225              	.LVL28:
 164:SensorLib\max30102/driver_max30102.c ****     res = handle->iic_read(MAX30102_ADDRESS, MAX30102_REG_MODE_CONFIG, &prev, 1);
 226              		.loc 1 164 0
 227 00d6 A568     		ldr	r5, [r4, #8]
 228 00d8 0123     		movs	r3, #1
 229 00da 0DF10702 		add	r2, sp, #7
 230 00de 0921     		movs	r1, #9
 231 00e0 5720     		movs	r0, #87
 232 00e2 A847     		blx	r5
 233              	.LVL29:
 165:SensorLib\max30102/driver_max30102.c ****     if (res != 0) {
 234              		.loc 1 165 0
ARM GAS  C:\Users\CHRONI~1\AppData\Local\Temp\cc7oUGua.s 			page 8


 235 00e4 30B1     		cbz	r0, .L14
 166:SensorLib\max30102/driver_max30102.c ****         handle->debug_print("max30102: Failed to read Mode Config.\n");
 236              		.loc 1 166 0
 237 00e6 A369     		ldr	r3, [r4, #24]
 238 00e8 5E48     		ldr	r0, .L22+72
 239              	.LVL30:
 240 00ea 9847     		blx	r3
 241              	.LVL31:
 167:SensorLib\max30102/driver_max30102.c ****         handle->iic_deinit();
 242              		.loc 1 167 0
 243 00ec 6368     		ldr	r3, [r4, #4]
 244 00ee 9847     		blx	r3
 245              	.LVL32:
 168:SensorLib\max30102/driver_max30102.c ****         return 5;
 246              		.loc 1 168 0
 247 00f0 0525     		movs	r5, #5
 248 00f2 90E0     		b	.L3
 249              	.LVL33:
 250              	.L14:
 169:SensorLib\max30102/driver_max30102.c ****     }
 170:SensorLib\max30102/driver_max30102.c ****     handle->debug_print("max30102: Mode Config read successfully. Value: 0x%X\n", prev);
 251              		.loc 1 170 0
 252 00f4 A369     		ldr	r3, [r4, #24]
 253 00f6 9DF80710 		ldrb	r1, [sp, #7]	@ zero_extendqisi2
 254 00fa 5B48     		ldr	r0, .L22+76
 255              	.LVL34:
 256 00fc 9847     		blx	r3
 257              	.LVL35:
 171:SensorLib\max30102/driver_max30102.c **** 
 172:SensorLib\max30102/driver_max30102.c ****     prev &= ~(1 << 6);
 258              		.loc 1 172 0
 259 00fe 9DF80730 		ldrb	r3, [sp, #7]	@ zero_extendqisi2
 260 0102 03F0BF03 		and	r3, r3, #191
 173:SensorLib\max30102/driver_max30102.c ****     prev |= 1 << 6;
 261              		.loc 1 173 0
 262 0106 43F04003 		orr	r3, r3, #64
 263 010a 02AD     		add	r5, sp, #8
 264 010c 05F8013D 		strb	r3, [r5, #-1]!
 174:SensorLib\max30102/driver_max30102.c ****     handle->debug_print("max30102: Writing Mode Config with reset (bit 6 set)...\n");
 265              		.loc 1 174 0
 266 0110 A369     		ldr	r3, [r4, #24]
 267 0112 5648     		ldr	r0, .L22+80
 268 0114 9847     		blx	r3
 269              	.LVL36:
 175:SensorLib\max30102/driver_max30102.c ****     res = handle->iic_write(MAX30102_ADDRESS, MAX30102_REG_MODE_CONFIG, &prev, 1);
 270              		.loc 1 175 0
 271 0116 E668     		ldr	r6, [r4, #12]
 272 0118 0123     		movs	r3, #1
 273 011a 2A46     		mov	r2, r5
 274 011c 0921     		movs	r1, #9
 275 011e 5720     		movs	r0, #87
 276 0120 B047     		blx	r6
 277              	.LVL37:
 176:SensorLib\max30102/driver_max30102.c ****     if (res != 0) {
 278              		.loc 1 176 0
 279 0122 30B1     		cbz	r0, .L15
 177:SensorLib\max30102/driver_max30102.c ****         handle->debug_print("max30102: Failed to write Mode Config.\n");
ARM GAS  C:\Users\CHRONI~1\AppData\Local\Temp\cc7oUGua.s 			page 9


 280              		.loc 1 177 0
 281 0124 A369     		ldr	r3, [r4, #24]
 282 0126 5248     		ldr	r0, .L22+84
 283              	.LVL38:
 284 0128 9847     		blx	r3
 285              	.LVL39:
 178:SensorLib\max30102/driver_max30102.c ****         handle->iic_deinit();
 286              		.loc 1 178 0
 287 012a 6368     		ldr	r3, [r4, #4]
 288 012c 9847     		blx	r3
 289              	.LVL40:
 179:SensorLib\max30102/driver_max30102.c ****         return 5;
 290              		.loc 1 179 0
 291 012e 0525     		movs	r5, #5
 292 0130 71E0     		b	.L3
 293              	.LVL41:
 294              	.L15:
 180:SensorLib\max30102/driver_max30102.c ****     }
 181:SensorLib\max30102/driver_max30102.c ****     handle->debug_print("max30102: Mode Config written successfully. Initiating reset...\n");
 295              		.loc 1 181 0
 296 0132 A369     		ldr	r3, [r4, #24]
 297 0134 4F48     		ldr	r0, .L22+88
 298              	.LVL42:
 299 0136 9847     		blx	r3
 300              	.LVL43:
 182:SensorLib\max30102/driver_max30102.c **** 
 183:SensorLib\max30102/driver_max30102.c ****     handle->delay_ms(10);
 301              		.loc 1 183 0
 302 0138 6369     		ldr	r3, [r4, #20]
 303 013a 0A20     		movs	r0, #10
 304 013c 9847     		blx	r3
 305              	.LVL44:
 184:SensorLib\max30102/driver_max30102.c ****     handle->debug_print("max30102: Delay of 10ms after reset command.\n");
 306              		.loc 1 184 0
 307 013e A369     		ldr	r3, [r4, #24]
 308 0140 4D48     		ldr	r0, .L22+92
 309 0142 9847     		blx	r3
 310              	.LVL45:
 185:SensorLib\max30102/driver_max30102.c **** 
 186:SensorLib\max30102/driver_max30102.c ****     handle->debug_print("max30102: Reading Mode Config again to confirm reset...\n");
 311              		.loc 1 186 0
 312 0144 A369     		ldr	r3, [r4, #24]
 313 0146 4D48     		ldr	r0, .L22+96
 314 0148 9847     		blx	r3
 315              	.LVL46:
 187:SensorLib\max30102/driver_max30102.c ****     res = handle->iic_read(MAX30102_ADDRESS, MAX30102_REG_MODE_CONFIG, &prev, 1);
 316              		.loc 1 187 0
 317 014a A568     		ldr	r5, [r4, #8]
 318 014c 0123     		movs	r3, #1
 319 014e 0DF10702 		add	r2, sp, #7
 320 0152 0921     		movs	r1, #9
 321 0154 5720     		movs	r0, #87
 322 0156 A847     		blx	r5
 323              	.LVL47:
 188:SensorLib\max30102/driver_max30102.c ****     if (res != 0) {
 324              		.loc 1 188 0
 325 0158 30B1     		cbz	r0, .L16
ARM GAS  C:\Users\CHRONI~1\AppData\Local\Temp\cc7oUGua.s 			page 10


 189:SensorLib\max30102/driver_max30102.c ****         handle->debug_print("max30102: Failed to read Mode Config after reset.\n");
 326              		.loc 1 189 0
 327 015a A369     		ldr	r3, [r4, #24]
 328 015c 4848     		ldr	r0, .L22+100
 329              	.LVL48:
 330 015e 9847     		blx	r3
 331              	.LVL49:
 190:SensorLib\max30102/driver_max30102.c ****         handle->iic_deinit();
 332              		.loc 1 190 0
 333 0160 6368     		ldr	r3, [r4, #4]
 334 0162 9847     		blx	r3
 335              	.LVL50:
 191:SensorLib\max30102/driver_max30102.c ****         return 5;
 336              		.loc 1 191 0
 337 0164 0525     		movs	r5, #5
 338 0166 56E0     		b	.L3
 339              	.LVL51:
 340              	.L16:
 192:SensorLib\max30102/driver_max30102.c ****     }
 193:SensorLib\max30102/driver_max30102.c ****     handle->debug_print("max30102: Mode Config after reset: 0x%X\n", prev);
 341              		.loc 1 193 0
 342 0168 A369     		ldr	r3, [r4, #24]
 343 016a 9DF80710 		ldrb	r1, [sp, #7]	@ zero_extendqisi2
 344 016e 4548     		ldr	r0, .L22+104
 345              	.LVL52:
 346 0170 9847     		blx	r3
 347              	.LVL53:
 194:SensorLib\max30102/driver_max30102.c **** 
 195:SensorLib\max30102/driver_max30102.c ****     if ((prev & (1 << 6)) != 0) {
 348              		.loc 1 195 0
 349 0172 9DF80730 		ldrb	r3, [sp, #7]	@ zero_extendqisi2
 350 0176 03F04003 		and	r3, r3, #64
 351 017a 03F0FF05 		and	r5, r3, #255
 352 017e 33B1     		cbz	r3, .L17
 196:SensorLib\max30102/driver_max30102.c ****         handle->debug_print("max30102: Reset failed. Bit 6 is still set.\n");
 353              		.loc 1 196 0
 354 0180 A369     		ldr	r3, [r4, #24]
 355 0182 4148     		ldr	r0, .L22+108
 356 0184 9847     		blx	r3
 357              	.LVL54:
 197:SensorLib\max30102/driver_max30102.c ****         handle->iic_deinit();
 358              		.loc 1 197 0
 359 0186 6368     		ldr	r3, [r4, #4]
 360 0188 9847     		blx	r3
 361              	.LVL55:
 198:SensorLib\max30102/driver_max30102.c ****         return 5;
 362              		.loc 1 198 0
 363 018a 0525     		movs	r5, #5
 364 018c 43E0     		b	.L3
 365              	.L17:
 199:SensorLib\max30102/driver_max30102.c ****     }
 200:SensorLib\max30102/driver_max30102.c ****     handle->debug_print("max30102: Reset successful. Bit 6 cleared.\n");
 366              		.loc 1 200 0
 367 018e A369     		ldr	r3, [r4, #24]
 368 0190 3E48     		ldr	r0, .L22+112
 369 0192 9847     		blx	r3
 370              	.LVL56:
ARM GAS  C:\Users\CHRONI~1\AppData\Local\Temp\cc7oUGua.s 			page 11


 201:SensorLib\max30102/driver_max30102.c **** 
 202:SensorLib\max30102/driver_max30102.c ****     prev = 0;
 371              		.loc 1 202 0
 372 0194 02AE     		add	r6, sp, #8
 373 0196 0023     		movs	r3, #0
 374 0198 06F8013D 		strb	r3, [r6, #-1]!
 203:SensorLib\max30102/driver_max30102.c ****     handle->debug_print("max30102: Clearing FIFO pointers...\n");
 375              		.loc 1 203 0
 376 019c A369     		ldr	r3, [r4, #24]
 377 019e 3C48     		ldr	r0, .L22+116
 378 01a0 9847     		blx	r3
 379              	.LVL57:
 204:SensorLib\max30102/driver_max30102.c ****     res = handle->iic_write(MAX30102_ADDRESS, MAX30102_REG_FIFO_READ_POINTER, &prev, 1);
 380              		.loc 1 204 0
 381 01a2 E768     		ldr	r7, [r4, #12]
 382 01a4 0123     		movs	r3, #1
 383 01a6 3246     		mov	r2, r6
 384 01a8 0621     		movs	r1, #6
 385 01aa 5720     		movs	r0, #87
 386 01ac B847     		blx	r7
 387              	.LVL58:
 205:SensorLib\max30102/driver_max30102.c ****     if (res != 0) {
 388              		.loc 1 205 0
 389 01ae 30B1     		cbz	r0, .L18
 206:SensorLib\max30102/driver_max30102.c ****         handle->debug_print("max30102: Failed to write FIFO Read Pointer.\n");
 390              		.loc 1 206 0
 391 01b0 A369     		ldr	r3, [r4, #24]
 392 01b2 3848     		ldr	r0, .L22+120
 393              	.LVL59:
 394 01b4 9847     		blx	r3
 395              	.LVL60:
 207:SensorLib\max30102/driver_max30102.c ****         handle->iic_deinit();
 396              		.loc 1 207 0
 397 01b6 6368     		ldr	r3, [r4, #4]
 398 01b8 9847     		blx	r3
 399              	.LVL61:
 208:SensorLib\max30102/driver_max30102.c ****         return 6;
 400              		.loc 1 208 0
 401 01ba 0625     		movs	r5, #6
 402 01bc 2BE0     		b	.L3
 403              	.LVL62:
 404              	.L18:
 209:SensorLib\max30102/driver_max30102.c ****     }
 210:SensorLib\max30102/driver_max30102.c ****     handle->debug_print("max30102: FIFO Read Pointer cleared.\n");
 405              		.loc 1 210 0
 406 01be A369     		ldr	r3, [r4, #24]
 407 01c0 3548     		ldr	r0, .L22+124
 408              	.LVL63:
 409 01c2 9847     		blx	r3
 410              	.LVL64:
 211:SensorLib\max30102/driver_max30102.c **** 
 212:SensorLib\max30102/driver_max30102.c ****     res = handle->iic_write(MAX30102_ADDRESS, MAX30102_REG_FIFO_WRITE_POINTER, &prev, 1);
 411              		.loc 1 212 0
 412 01c4 E668     		ldr	r6, [r4, #12]
 413 01c6 0123     		movs	r3, #1
 414 01c8 0DF10702 		add	r2, sp, #7
 415 01cc 0421     		movs	r1, #4
ARM GAS  C:\Users\CHRONI~1\AppData\Local\Temp\cc7oUGua.s 			page 12


 416 01ce 5720     		movs	r0, #87
 417 01d0 B047     		blx	r6
 418              	.LVL65:
 213:SensorLib\max30102/driver_max30102.c ****     if (res != 0) {
 419              		.loc 1 213 0
 420 01d2 30B1     		cbz	r0, .L19
 214:SensorLib\max30102/driver_max30102.c ****         handle->debug_print("max30102: Failed to write FIFO Write Pointer.\n");
 421              		.loc 1 214 0
 422 01d4 A369     		ldr	r3, [r4, #24]
 423 01d6 3148     		ldr	r0, .L22+128
 424              	.LVL66:
 425 01d8 9847     		blx	r3
 426              	.LVL67:
 215:SensorLib\max30102/driver_max30102.c ****         handle->iic_deinit();
 427              		.loc 1 215 0
 428 01da 6368     		ldr	r3, [r4, #4]
 429 01dc 9847     		blx	r3
 430              	.LVL68:
 216:SensorLib\max30102/driver_max30102.c ****         return 6;
 431              		.loc 1 216 0
 432 01de 0625     		movs	r5, #6
 433 01e0 19E0     		b	.L3
 434              	.LVL69:
 435              	.L19:
 217:SensorLib\max30102/driver_max30102.c ****     }
 218:SensorLib\max30102/driver_max30102.c ****     handle->debug_print("max30102: FIFO Write Pointer cleared.\n");
 436              		.loc 1 218 0
 437 01e2 A369     		ldr	r3, [r4, #24]
 438 01e4 2E48     		ldr	r0, .L22+132
 439              	.LVL70:
 440 01e6 9847     		blx	r3
 441              	.LVL71:
 219:SensorLib\max30102/driver_max30102.c **** 
 220:SensorLib\max30102/driver_max30102.c ****     res = handle->iic_write(MAX30102_ADDRESS, MAX30102_REG_OVERFLOW_COUNTER, &prev, 1);
 442              		.loc 1 220 0
 443 01e8 E668     		ldr	r6, [r4, #12]
 444 01ea 0123     		movs	r3, #1
 445 01ec 0DF10702 		add	r2, sp, #7
 446 01f0 0521     		movs	r1, #5
 447 01f2 5720     		movs	r0, #87
 448 01f4 B047     		blx	r6
 449              	.LVL72:
 221:SensorLib\max30102/driver_max30102.c ****     if (res != 0) {
 450              		.loc 1 221 0
 451 01f6 30B1     		cbz	r0, .L20
 222:SensorLib\max30102/driver_max30102.c ****         handle->debug_print("max30102: Failed to write Overflow Counter.\n");
 452              		.loc 1 222 0
 453 01f8 A369     		ldr	r3, [r4, #24]
 454 01fa 2A48     		ldr	r0, .L22+136
 455              	.LVL73:
 456 01fc 9847     		blx	r3
 457              	.LVL74:
 223:SensorLib\max30102/driver_max30102.c ****         handle->iic_deinit();
 458              		.loc 1 223 0
 459 01fe 6368     		ldr	r3, [r4, #4]
 460 0200 9847     		blx	r3
 461              	.LVL75:
ARM GAS  C:\Users\CHRONI~1\AppData\Local\Temp\cc7oUGua.s 			page 13


 224:SensorLib\max30102/driver_max30102.c ****         return 6;
 462              		.loc 1 224 0
 463 0202 0625     		movs	r5, #6
 464 0204 07E0     		b	.L3
 465              	.LVL76:
 466              	.L20:
 225:SensorLib\max30102/driver_max30102.c ****     }
 226:SensorLib\max30102/driver_max30102.c ****     handle->debug_print("max30102: Overflow Counter cleared.\n");
 467              		.loc 1 226 0
 468 0206 A369     		ldr	r3, [r4, #24]
 469 0208 2748     		ldr	r0, .L22+140
 470              	.LVL77:
 471 020a 9847     		blx	r3
 472              	.LVL78:
 227:SensorLib\max30102/driver_max30102.c **** 
 228:SensorLib\max30102/driver_max30102.c ****     handle->inited = 1;
 473              		.loc 1 228 0
 474 020c 0123     		movs	r3, #1
 475 020e 2377     		strb	r3, [r4, #28]
 229:SensorLib\max30102/driver_max30102.c ****     handle->debug_print("max30102: Sensor initialized successfully.\n");
 476              		.loc 1 229 0
 477 0210 A369     		ldr	r3, [r4, #24]
 478 0212 2648     		ldr	r0, .L22+144
 479 0214 9847     		blx	r3
 480              	.LVL79:
 481              	.L3:
 230:SensorLib\max30102/driver_max30102.c **** 
 231:SensorLib\max30102/driver_max30102.c ****     return 0;
 232:SensorLib\max30102/driver_max30102.c **** }
 482              		.loc 1 232 0
 483 0216 2846     		mov	r0, r5
 484 0218 03B0     		add	sp, sp, #12
 485              		.cfi_def_cfa_offset 20
 486              		@ sp needed
 487 021a F0BD     		pop	{r4, r5, r6, r7, pc}
 488              	.LVL80:
 489              	.L23:
 490              		.align	2
 491              	.L22:
 492 021c 00000000 		.word	.LC0
 493 0220 1C000000 		.word	.LC1
 494 0224 38000000 		.word	.LC2
 495 0228 58000000 		.word	.LC3
 496 022c 78000000 		.word	.LC4
 497 0230 98000000 		.word	.LC5
 498 0234 B8000000 		.word	.LC6
 499 0238 D8000000 		.word	.LC7
 500 023c 00010000 		.word	.LC8
 501 0240 20010000 		.word	.LC9
 502 0244 40010000 		.word	.LC10
 503 0248 68010000 		.word	.LC11
 504 024c 94010000 		.word	.LC12
 505 0250 B4010000 		.word	.LC13
 506 0254 D8010000 		.word	.LC14
 507 0258 0C020000 		.word	.LC15
 508 025c 48020000 		.word	.LC16
 509 0260 70020000 		.word	.LC17
ARM GAS  C:\Users\CHRONI~1\AppData\Local\Temp\cc7oUGua.s 			page 14


 510 0264 94020000 		.word	.LC18
 511 0268 BC020000 		.word	.LC19
 512 026c F4020000 		.word	.LC20
 513 0270 30030000 		.word	.LC21
 514 0274 58030000 		.word	.LC22
 515 0278 9C030000 		.word	.LC23
 516 027c CC030000 		.word	.LC24
 517 0280 08040000 		.word	.LC25
 518 0284 3C040000 		.word	.LC26
 519 0288 68040000 		.word	.LC27
 520 028c 98040000 		.word	.LC28
 521 0290 C4040000 		.word	.LC29
 522 0294 EC040000 		.word	.LC30
 523 0298 1C050000 		.word	.LC31
 524 029c 44050000 		.word	.LC32
 525 02a0 74050000 		.word	.LC33
 526 02a4 9C050000 		.word	.LC34
 527 02a8 CC050000 		.word	.LC35
 528 02ac F4050000 		.word	.LC36
 529              		.cfi_endproc
 530              	.LFE1:
 531              		.size	max30102_init, .-max30102_init
 532              		.section	.text.max30102_deinit,"ax",%progbits
 533              		.align	2
 534              		.global	max30102_deinit
 535              		.thumb
 536              		.thumb_func
 537              		.type	max30102_deinit, %function
 538              	max30102_deinit:
 539              	.LFB2:
 233:SensorLib\max30102/driver_max30102.c **** 
 234:SensorLib\max30102/driver_max30102.c **** 
 235:SensorLib\max30102/driver_max30102.c **** 
 236:SensorLib\max30102/driver_max30102.c **** /**
 237:SensorLib\max30102/driver_max30102.c ****  * @brief     close the chip
 238:SensorLib\max30102/driver_max30102.c ****  * @param[in] *handle points to a max30102 handle structure
 239:SensorLib\max30102/driver_max30102.c ****  * @return    status code
 240:SensorLib\max30102/driver_max30102.c ****  *            - 0 success
 241:SensorLib\max30102/driver_max30102.c ****  *            - 1 iic deinit failed
 242:SensorLib\max30102/driver_max30102.c ****  *            - 2 handle is NULL
 243:SensorLib\max30102/driver_max30102.c ****  *            - 3 handle is not initialized
 244:SensorLib\max30102/driver_max30102.c ****  *            - 4 power down failed
 245:SensorLib\max30102/driver_max30102.c ****  * @note      none
 246:SensorLib\max30102/driver_max30102.c ****  */
 247:SensorLib\max30102/driver_max30102.c **** uint8_t max30102_deinit(max30102_handle_t *handle)
 248:SensorLib\max30102/driver_max30102.c **** {
 540              		.loc 1 248 0
 541              		.cfi_startproc
 542              		@ args = 0, pretend = 0, frame = 8
 543              		@ frame_needed = 0, uses_anonymous_args = 0
 544              	.LVL81:
 249:SensorLib\max30102/driver_max30102.c ****     uint8_t res;
 250:SensorLib\max30102/driver_max30102.c ****     uint8_t prev;
 251:SensorLib\max30102/driver_max30102.c ****     
 252:SensorLib\max30102/driver_max30102.c ****     if (handle == NULL)                                                                            
 545              		.loc 1 252 0
 546 0000 0028     		cmp	r0, #0
ARM GAS  C:\Users\CHRONI~1\AppData\Local\Temp\cc7oUGua.s 			page 15


 547 0002 30D0     		beq	.L29
 248:SensorLib\max30102/driver_max30102.c ****     uint8_t res;
 548              		.loc 1 248 0
 549 0004 70B5     		push	{r4, r5, r6, lr}
 550              		.cfi_def_cfa_offset 16
 551              		.cfi_offset 4, -16
 552              		.cfi_offset 5, -12
 553              		.cfi_offset 6, -8
 554              		.cfi_offset 14, -4
 555 0006 82B0     		sub	sp, sp, #8
 556              		.cfi_def_cfa_offset 24
 253:SensorLib\max30102/driver_max30102.c ****     {
 254:SensorLib\max30102/driver_max30102.c ****         return 2;                                                                                  
 255:SensorLib\max30102/driver_max30102.c ****     }
 256:SensorLib\max30102/driver_max30102.c ****     if (handle->inited != 1)                                                                       
 557              		.loc 1 256 0
 558 0008 057F     		ldrb	r5, [r0, #28]	@ zero_extendqisi2
 559 000a 012D     		cmp	r5, #1
 560 000c 2ED1     		bne	.L30
 561 000e 0446     		mov	r4, r0
 257:SensorLib\max30102/driver_max30102.c ****     {
 258:SensorLib\max30102/driver_max30102.c ****         return 3;                                                                                  
 259:SensorLib\max30102/driver_max30102.c ****     }
 260:SensorLib\max30102/driver_max30102.c ****     
 261:SensorLib\max30102/driver_max30102.c ****     res = handle->iic_read(MAX30102_ADDRESS, MAX30102_REG_MODE_CONFIG, (uint8_t *)&prev, 1);       
 562              		.loc 1 261 0
 563 0010 8668     		ldr	r6, [r0, #8]
 564 0012 0123     		movs	r3, #1
 565 0014 0DF10702 		add	r2, sp, #7
 566 0018 0921     		movs	r1, #9
 567 001a 5720     		movs	r0, #87
 568              	.LVL82:
 569 001c B047     		blx	r6
 570              	.LVL83:
 262:SensorLib\max30102/driver_max30102.c ****     if (res != 0)                                                                                  
 571              		.loc 1 262 0
 572 001e 20B1     		cbz	r0, .L26
 263:SensorLib\max30102/driver_max30102.c ****     {
 264:SensorLib\max30102/driver_max30102.c ****         handle->debug_print("max30102: read mode config failed.\n");                               
 573              		.loc 1 264 0
 574 0020 A369     		ldr	r3, [r4, #24]
 575 0022 1448     		ldr	r0, .L32
 576              	.LVL84:
 577 0024 9847     		blx	r3
 578              	.LVL85:
 265:SensorLib\max30102/driver_max30102.c ****        
 266:SensorLib\max30102/driver_max30102.c ****         return 4;                                                                                  
 579              		.loc 1 266 0
 580 0026 0423     		movs	r3, #4
 581 0028 21E0     		b	.L25
 582              	.LVL86:
 583              	.L26:
 267:SensorLib\max30102/driver_max30102.c ****     }
 268:SensorLib\max30102/driver_max30102.c ****     prev &= ~(1 << 7);                                                                             
 584              		.loc 1 268 0
 585 002a 9DF80730 		ldrb	r3, [sp, #7]	@ zero_extendqisi2
 269:SensorLib\max30102/driver_max30102.c ****     prev |= 1 << 7;                                                                                
ARM GAS  C:\Users\CHRONI~1\AppData\Local\Temp\cc7oUGua.s 			page 16


 586              		.loc 1 269 0
 587 002e 63F07F03 		orn	r3, r3, #127
 588 0032 02AA     		add	r2, sp, #8
 589 0034 02F8013D 		strb	r3, [r2, #-1]!
 270:SensorLib\max30102/driver_max30102.c ****     res = handle->iic_write(MAX30102_ADDRESS, MAX30102_REG_MODE_CONFIG, (uint8_t *)&prev, 1);      
 590              		.loc 1 270 0
 591 0038 E668     		ldr	r6, [r4, #12]
 592 003a 0123     		movs	r3, #1
 593 003c 0921     		movs	r1, #9
 594 003e 5720     		movs	r0, #87
 595              	.LVL87:
 596 0040 B047     		blx	r6
 597              	.LVL88:
 271:SensorLib\max30102/driver_max30102.c ****     if (res != 0)                                                                                  
 598              		.loc 1 271 0
 599 0042 20B1     		cbz	r0, .L27
 272:SensorLib\max30102/driver_max30102.c ****     {
 273:SensorLib\max30102/driver_max30102.c ****         handle->debug_print("max30102: write mode config failed.\n");                              
 600              		.loc 1 273 0
 601 0044 A369     		ldr	r3, [r4, #24]
 602 0046 0C48     		ldr	r0, .L32+4
 603              	.LVL89:
 604 0048 9847     		blx	r3
 605              	.LVL90:
 274:SensorLib\max30102/driver_max30102.c ****        
 275:SensorLib\max30102/driver_max30102.c ****         return 4;                                                                                  
 606              		.loc 1 275 0
 607 004a 0423     		movs	r3, #4
 608 004c 0FE0     		b	.L25
 609              	.LVL91:
 610              	.L27:
 276:SensorLib\max30102/driver_max30102.c ****     }
 277:SensorLib\max30102/driver_max30102.c ****     if (handle->iic_deinit() != 0)                                                                 
 611              		.loc 1 277 0
 612 004e 6368     		ldr	r3, [r4, #4]
 613 0050 9847     		blx	r3
 614              	.LVL92:
 615 0052 0346     		mov	r3, r0
 616 0054 20B1     		cbz	r0, .L28
 278:SensorLib\max30102/driver_max30102.c ****     {
 279:SensorLib\max30102/driver_max30102.c ****         handle->debug_print("max30102: iic deinit failed.\n");                                     
 617              		.loc 1 279 0
 618 0056 A369     		ldr	r3, [r4, #24]
 619 0058 0848     		ldr	r0, .L32+8
 620 005a 9847     		blx	r3
 621              	.LVL93:
 280:SensorLib\max30102/driver_max30102.c ****         
 281:SensorLib\max30102/driver_max30102.c ****         return 1;                                                                                  
 622              		.loc 1 281 0
 623 005c 2B46     		mov	r3, r5
 624 005e 06E0     		b	.L25
 625              	.L28:
 282:SensorLib\max30102/driver_max30102.c ****     }
 283:SensorLib\max30102/driver_max30102.c ****     
 284:SensorLib\max30102/driver_max30102.c ****     handle->inited = 0;                                                                            
 626              		.loc 1 284 0
 627 0060 0022     		movs	r2, #0
ARM GAS  C:\Users\CHRONI~1\AppData\Local\Temp\cc7oUGua.s 			page 17


 628 0062 2277     		strb	r2, [r4, #28]
 285:SensorLib\max30102/driver_max30102.c ****     
 286:SensorLib\max30102/driver_max30102.c ****     return 0;                                                                                      
 629              		.loc 1 286 0
 630 0064 03E0     		b	.L25
 631              	.LVL94:
 632              	.L29:
 633              		.cfi_def_cfa_offset 0
 634              		.cfi_restore 4
 635              		.cfi_restore 5
 636              		.cfi_restore 6
 637              		.cfi_restore 14
 254:SensorLib\max30102/driver_max30102.c ****     }
 638              		.loc 1 254 0
 639 0066 0223     		movs	r3, #2
 287:SensorLib\max30102/driver_max30102.c **** }
 640              		.loc 1 287 0
 641 0068 1846     		mov	r0, r3
 642              	.LVL95:
 643 006a 7047     		bx	lr
 644              	.LVL96:
 645              	.L30:
 646              		.cfi_def_cfa_offset 24
 647              		.cfi_offset 4, -16
 648              		.cfi_offset 5, -12
 649              		.cfi_offset 6, -8
 650              		.cfi_offset 14, -4
 258:SensorLib\max30102/driver_max30102.c ****     }
 651              		.loc 1 258 0
 652 006c 0323     		movs	r3, #3
 653              	.LVL97:
 654              	.L25:
 655              		.loc 1 287 0
 656 006e 1846     		mov	r0, r3
 657 0070 02B0     		add	sp, sp, #8
 658              		.cfi_def_cfa_offset 16
 659              		@ sp needed
 660 0072 70BD     		pop	{r4, r5, r6, pc}
 661              	.L33:
 662              		.align	2
 663              	.L32:
 664 0074 20060000 		.word	.LC37
 665 0078 44060000 		.word	.LC38
 666 007c 6C060000 		.word	.LC39
 667              		.cfi_endproc
 668              	.LFE2:
 669              		.size	max30102_deinit, .-max30102_deinit
 670              		.global	__aeabi_ui2f
 671              		.global	__aeabi_fmul
 672              		.global	__aeabi_fadd
 673              		.section	.text.max30102_irq_handler,"ax",%progbits
 674              		.align	2
 675              		.global	max30102_irq_handler
 676              		.thumb
 677              		.thumb_func
 678              		.type	max30102_irq_handler, %function
 679              	max30102_irq_handler:
ARM GAS  C:\Users\CHRONI~1\AppData\Local\Temp\cc7oUGua.s 			page 18


 680              	.LFB3:
 288:SensorLib\max30102/driver_max30102.c **** 
 289:SensorLib\max30102/driver_max30102.c **** /**
 290:SensorLib\max30102/driver_max30102.c ****  * @brief     irq handler
 291:SensorLib\max30102/driver_max30102.c ****  * @param[in] *handle points to a max30102 handle structure
 292:SensorLib\max30102/driver_max30102.c ****  * @return    status code
 293:SensorLib\max30102/driver_max30102.c ****  *            - 0 success
 294:SensorLib\max30102/driver_max30102.c ****  *            - 1 run failed
 295:SensorLib\max30102/driver_max30102.c ****  *            - 2 handle is NULL
 296:SensorLib\max30102/driver_max30102.c ****  *            - 3 handle is not initialized
 297:SensorLib\max30102/driver_max30102.c ****  * @note      none
 298:SensorLib\max30102/driver_max30102.c ****  */
 299:SensorLib\max30102/driver_max30102.c **** uint8_t max30102_irq_handler(max30102_handle_t *handle)
 300:SensorLib\max30102/driver_max30102.c **** {
 681              		.loc 1 300 0
 682              		.cfi_startproc
 683              		@ args = 0, pretend = 0, frame = 8
 684              		@ frame_needed = 0, uses_anonymous_args = 0
 685              	.LVL98:
 301:SensorLib\max30102/driver_max30102.c ****     uint8_t res;
 302:SensorLib\max30102/driver_max30102.c ****     uint8_t prev;
 303:SensorLib\max30102/driver_max30102.c ****     
 304:SensorLib\max30102/driver_max30102.c ****     if (handle == NULL)                                                                            
 686              		.loc 1 304 0
 687 0000 0028     		cmp	r0, #0
 688 0002 00F08880 		beq	.L46
 300:SensorLib\max30102/driver_max30102.c ****     uint8_t res;
 689              		.loc 1 300 0
 690 0006 70B5     		push	{r4, r5, r6, lr}
 691              		.cfi_def_cfa_offset 16
 692              		.cfi_offset 4, -16
 693              		.cfi_offset 5, -12
 694              		.cfi_offset 6, -8
 695              		.cfi_offset 14, -4
 696 0008 82B0     		sub	sp, sp, #8
 697              		.cfi_def_cfa_offset 24
 305:SensorLib\max30102/driver_max30102.c ****     {
 306:SensorLib\max30102/driver_max30102.c ****         return 2;                                                                                  
 307:SensorLib\max30102/driver_max30102.c ****     }
 308:SensorLib\max30102/driver_max30102.c ****     if (handle->inited != 1)                                                                       
 698              		.loc 1 308 0
 699 000a 057F     		ldrb	r5, [r0, #28]	@ zero_extendqisi2
 700 000c 012D     		cmp	r5, #1
 701 000e 40F08480 		bne	.L47
 702 0012 0446     		mov	r4, r0
 309:SensorLib\max30102/driver_max30102.c ****     {
 310:SensorLib\max30102/driver_max30102.c ****         return 3;                                                                                  
 311:SensorLib\max30102/driver_max30102.c ****     }
 312:SensorLib\max30102/driver_max30102.c ****     
 313:SensorLib\max30102/driver_max30102.c ****     res = handle->iic_read(MAX30102_ADDRESS, MAX30102_REG_INTERRUPT_STATUS_1, (uint8_t *)&prev, 1);
 703              		.loc 1 313 0
 704 0014 8668     		ldr	r6, [r0, #8]
 705 0016 0123     		movs	r3, #1
 706 0018 0DF10702 		add	r2, sp, #7
 707 001c 0021     		movs	r1, #0
 708 001e 5720     		movs	r0, #87
 709              	.LVL99:
ARM GAS  C:\Users\CHRONI~1\AppData\Local\Temp\cc7oUGua.s 			page 19


 710 0020 B047     		blx	r6
 711              	.LVL100:
 314:SensorLib\max30102/driver_max30102.c ****     if (res != 0)                                                                                  
 712              		.loc 1 314 0
 713 0022 20B1     		cbz	r0, .L36
 315:SensorLib\max30102/driver_max30102.c ****     {
 316:SensorLib\max30102/driver_max30102.c ****         handle->debug_print("max30102: read interrupt status1 failed.\n");                         
 714              		.loc 1 316 0
 715 0024 A369     		ldr	r3, [r4, #24]
 716 0026 3E48     		ldr	r0, .L49
 717              	.LVL101:
 718 0028 9847     		blx	r3
 719              	.LVL102:
 317:SensorLib\max30102/driver_max30102.c ****        
 318:SensorLib\max30102/driver_max30102.c ****         return 1;                                                                                  
 720              		.loc 1 318 0
 721 002a 2846     		mov	r0, r5
 722 002c 76E0     		b	.L35
 723              	.LVL103:
 724              	.L36:
 319:SensorLib\max30102/driver_max30102.c ****     }
 320:SensorLib\max30102/driver_max30102.c ****     if ((prev & (1 << MAX30102_INTERRUPT_STATUS_FIFO_FULL)) != 0)                                  
 725              		.loc 1 320 0
 726 002e 9DF90730 		ldrsb	r3, [sp, #7]
 727 0032 002B     		cmp	r3, #0
 728 0034 03DA     		bge	.L37
 321:SensorLib\max30102/driver_max30102.c ****     {
 322:SensorLib\max30102/driver_max30102.c ****         if (handle->receive_callback != NULL)                                                      
 729              		.loc 1 322 0
 730 0036 2369     		ldr	r3, [r4, #16]
 731 0038 0BB1     		cbz	r3, .L37
 323:SensorLib\max30102/driver_max30102.c ****         {
 324:SensorLib\max30102/driver_max30102.c ****             handle->receive_callback(MAX30102_INTERRUPT_STATUS_FIFO_FULL);                         
 732              		.loc 1 324 0
 733 003a 0720     		movs	r0, #7
 734              	.LVL104:
 735 003c 9847     		blx	r3
 736              	.LVL105:
 737              	.L37:
 325:SensorLib\max30102/driver_max30102.c ****         }
 326:SensorLib\max30102/driver_max30102.c ****     }
 327:SensorLib\max30102/driver_max30102.c ****     if ((prev & (1 << MAX30102_INTERRUPT_STATUS_PPG_RDY)) != 0)                                    
 738              		.loc 1 327 0
 739 003e 9DF80730 		ldrb	r3, [sp, #7]	@ zero_extendqisi2
 740 0042 13F0400F 		tst	r3, #64
 741 0046 03D0     		beq	.L38
 328:SensorLib\max30102/driver_max30102.c ****     {
 329:SensorLib\max30102/driver_max30102.c ****         if (handle->receive_callback != NULL)                                                      
 742              		.loc 1 329 0
 743 0048 2369     		ldr	r3, [r4, #16]
 744 004a 0BB1     		cbz	r3, .L38
 330:SensorLib\max30102/driver_max30102.c ****         {
 331:SensorLib\max30102/driver_max30102.c ****             handle->receive_callback(MAX30102_INTERRUPT_STATUS_PPG_RDY);                           
 745              		.loc 1 331 0
 746 004c 0620     		movs	r0, #6
 747 004e 9847     		blx	r3
 748              	.LVL106:
ARM GAS  C:\Users\CHRONI~1\AppData\Local\Temp\cc7oUGua.s 			page 20


 749              	.L38:
 332:SensorLib\max30102/driver_max30102.c ****         }
 333:SensorLib\max30102/driver_max30102.c ****     }
 334:SensorLib\max30102/driver_max30102.c ****     if ((prev & (1 << MAX30102_INTERRUPT_STATUS_ALC_OVF)) != 0)                                    
 750              		.loc 1 334 0
 751 0050 9DF80730 		ldrb	r3, [sp, #7]	@ zero_extendqisi2
 752 0054 13F0200F 		tst	r3, #32
 753 0058 03D0     		beq	.L39
 335:SensorLib\max30102/driver_max30102.c ****     {
 336:SensorLib\max30102/driver_max30102.c ****         if (handle->receive_callback != NULL)                                                      
 754              		.loc 1 336 0
 755 005a 2369     		ldr	r3, [r4, #16]
 756 005c 0BB1     		cbz	r3, .L39
 337:SensorLib\max30102/driver_max30102.c ****         {
 338:SensorLib\max30102/driver_max30102.c ****             handle->receive_callback(MAX30102_INTERRUPT_STATUS_ALC_OVF);                           
 757              		.loc 1 338 0
 758 005e 0520     		movs	r0, #5
 759 0060 9847     		blx	r3
 760              	.LVL107:
 761              	.L39:
 339:SensorLib\max30102/driver_max30102.c ****         }
 340:SensorLib\max30102/driver_max30102.c ****     }
 341:SensorLib\max30102/driver_max30102.c ****     if ((prev & (1 << MAX30102_INTERRUPT_STATUS_PWR_RDY)) != 0)                                    
 762              		.loc 1 341 0
 763 0062 9DF80730 		ldrb	r3, [sp, #7]	@ zero_extendqisi2
 764 0066 13F0010F 		tst	r3, #1
 765 006a 03D0     		beq	.L40
 342:SensorLib\max30102/driver_max30102.c ****     {
 343:SensorLib\max30102/driver_max30102.c ****         if (handle->receive_callback != NULL)                                                      
 766              		.loc 1 343 0
 767 006c 2369     		ldr	r3, [r4, #16]
 768 006e 0BB1     		cbz	r3, .L40
 344:SensorLib\max30102/driver_max30102.c ****         {
 345:SensorLib\max30102/driver_max30102.c ****             handle->receive_callback(MAX30102_INTERRUPT_STATUS_PWR_RDY);                           
 769              		.loc 1 345 0
 770 0070 0020     		movs	r0, #0
 771 0072 9847     		blx	r3
 772              	.LVL108:
 773              	.L40:
 346:SensorLib\max30102/driver_max30102.c ****         }
 347:SensorLib\max30102/driver_max30102.c ****     }
 348:SensorLib\max30102/driver_max30102.c ****     res = handle->iic_read(MAX30102_ADDRESS, MAX30102_REG_INTERRUPT_STATUS_2, (uint8_t *)&prev, 1);
 774              		.loc 1 348 0
 775 0074 A668     		ldr	r6, [r4, #8]
 776 0076 0123     		movs	r3, #1
 777 0078 0DF10702 		add	r2, sp, #7
 778 007c 1946     		mov	r1, r3
 779 007e 5720     		movs	r0, #87
 780 0080 B047     		blx	r6
 781              	.LVL109:
 349:SensorLib\max30102/driver_max30102.c ****     if (res != 0)                                                                                  
 782              		.loc 1 349 0
 783 0082 20B1     		cbz	r0, .L41
 350:SensorLib\max30102/driver_max30102.c ****     {
 351:SensorLib\max30102/driver_max30102.c ****         handle->debug_print("max30102: read interrupt status2 failed.\n");                         
 784              		.loc 1 351 0
 785 0084 A369     		ldr	r3, [r4, #24]
ARM GAS  C:\Users\CHRONI~1\AppData\Local\Temp\cc7oUGua.s 			page 21


 786 0086 2748     		ldr	r0, .L49+4
 787              	.LVL110:
 788 0088 9847     		blx	r3
 789              	.LVL111:
 352:SensorLib\max30102/driver_max30102.c ****        
 353:SensorLib\max30102/driver_max30102.c ****         return 1;                                                                                  
 790              		.loc 1 353 0
 791 008a 2846     		mov	r0, r5
 792 008c 46E0     		b	.L35
 793              	.LVL112:
 794              	.L41:
 354:SensorLib\max30102/driver_max30102.c ****     }
 355:SensorLib\max30102/driver_max30102.c ****     if ((prev & (1 << MAX30102_INTERRUPT_STATUS_DIE_TEMP_RDY)) != 0)                               
 795              		.loc 1 355 0
 796 008e 9DF80730 		ldrb	r3, [sp, #7]	@ zero_extendqisi2
 797 0092 03F00203 		and	r3, r3, #2
 798 0096 03F0FF00 		and	r0, r3, #255
 799              	.LVL113:
 800 009a 002B     		cmp	r3, #0
 801 009c 3ED0     		beq	.L35
 802              	.LBB2:
 356:SensorLib\max30102/driver_max30102.c ****     {
 357:SensorLib\max30102/driver_max30102.c ****         uint8_t prev1;
 358:SensorLib\max30102/driver_max30102.c ****         
 359:SensorLib\max30102/driver_max30102.c ****         res = handle->iic_read(MAX30102_ADDRESS, MAX30102_REG_DIE_TEMP_INTEGER, (uint8_t *)&prev, 1
 803              		.loc 1 359 0
 804 009e A668     		ldr	r6, [r4, #8]
 805 00a0 0123     		movs	r3, #1
 806 00a2 0DF10702 		add	r2, sp, #7
 807 00a6 1F21     		movs	r1, #31
 808 00a8 5720     		movs	r0, #87
 809 00aa B047     		blx	r6
 810              	.LVL114:
 360:SensorLib\max30102/driver_max30102.c ****         if (res != 0)                                                                              
 811              		.loc 1 360 0
 812 00ac 18B1     		cbz	r0, .L42
 361:SensorLib\max30102/driver_max30102.c ****         {
 362:SensorLib\max30102/driver_max30102.c ****             handle->debug_print("max30102: read die temp integer failed.\n");                      
 813              		.loc 1 362 0
 814 00ae A369     		ldr	r3, [r4, #24]
 815 00b0 1D48     		ldr	r0, .L49+8
 816              	.LVL115:
 817 00b2 9847     		blx	r3
 818              	.LVL116:
 363:SensorLib\max30102/driver_max30102.c ****            
 364:SensorLib\max30102/driver_max30102.c ****             return 1;                                                                              
 819              		.loc 1 364 0
 820 00b4 2DE0     		b	.L43
 821              	.LVL117:
 822              	.L42:
 365:SensorLib\max30102/driver_max30102.c ****         }
 366:SensorLib\max30102/driver_max30102.c ****         handle->raw = (uint16_t)prev << 4;                                                         
 823              		.loc 1 366 0
 824 00b6 9DF80730 		ldrb	r3, [sp, #7]	@ zero_extendqisi2
 825 00ba 1B01     		lsls	r3, r3, #4
 826 00bc E383     		strh	r3, [r4, #30]	@ movhi
 367:SensorLib\max30102/driver_max30102.c ****         res = handle->iic_read(MAX30102_ADDRESS, MAX30102_REG_DIE_TEMP_FRACTION, (uint8_t *)&prev1,
ARM GAS  C:\Users\CHRONI~1\AppData\Local\Temp\cc7oUGua.s 			page 22


 827              		.loc 1 367 0
 828 00be A668     		ldr	r6, [r4, #8]
 829 00c0 0123     		movs	r3, #1
 830 00c2 0DF10602 		add	r2, sp, #6
 831 00c6 2021     		movs	r1, #32
 832 00c8 5720     		movs	r0, #87
 833              	.LVL118:
 834 00ca B047     		blx	r6
 835              	.LVL119:
 368:SensorLib\max30102/driver_max30102.c ****         if (res != 0)                                                                              
 836              		.loc 1 368 0
 837 00cc 18B1     		cbz	r0, .L44
 369:SensorLib\max30102/driver_max30102.c ****         {
 370:SensorLib\max30102/driver_max30102.c ****             handle->debug_print("max30102: read die temp fraction failed.\n");                     
 838              		.loc 1 370 0
 839 00ce A369     		ldr	r3, [r4, #24]
 840 00d0 1648     		ldr	r0, .L49+12
 841              	.LVL120:
 842 00d2 9847     		blx	r3
 843              	.LVL121:
 371:SensorLib\max30102/driver_max30102.c ****            
 372:SensorLib\max30102/driver_max30102.c ****             return 1;                                                                              
 844              		.loc 1 372 0
 845 00d4 1DE0     		b	.L43
 846              	.LVL122:
 847              	.L44:
 373:SensorLib\max30102/driver_max30102.c ****         }
 374:SensorLib\max30102/driver_max30102.c ****         handle->raw = handle->raw | prev1;                                                         
 848              		.loc 1 374 0
 849 00d6 E38B     		ldrh	r3, [r4, #30]
 850 00d8 9DF80650 		ldrb	r5, [sp, #6]	@ zero_extendqisi2
 851 00dc 2B43     		orrs	r3, r3, r5
 852 00de E383     		strh	r3, [r4, #30]	@ movhi
 375:SensorLib\max30102/driver_max30102.c ****         handle->temperature = (float)(prev) + (float)(prev1) * 0.0625f;                            
 853              		.loc 1 375 0
 854 00e0 9DF80700 		ldrb	r0, [sp, #7]	@ zero_extendqisi2
 855              	.LVL123:
 856 00e4 FFF7FEFF 		bl	__aeabi_ui2f
 857              	.LVL124:
 858 00e8 0646     		mov	r6, r0
 859 00ea 2846     		mov	r0, r5
 860 00ec FFF7FEFF 		bl	__aeabi_ui2f
 861              	.LVL125:
 862 00f0 4FF07651 		mov	r1, #1031798784
 863 00f4 FFF7FEFF 		bl	__aeabi_fmul
 864              	.LVL126:
 865 00f8 0146     		mov	r1, r0
 866 00fa 3046     		mov	r0, r6
 867 00fc FFF7FEFF 		bl	__aeabi_fadd
 868              	.LVL127:
 869 0100 2062     		str	r0, [r4, #32]	@ float
 376:SensorLib\max30102/driver_max30102.c ****         handle->finished_flag = 1;                                                                 
 870              		.loc 1 376 0
 871 0102 0123     		movs	r3, #1
 872 0104 6377     		strb	r3, [r4, #29]
 377:SensorLib\max30102/driver_max30102.c ****         
 378:SensorLib\max30102/driver_max30102.c ****         if (handle->receive_callback != NULL)                                                      
ARM GAS  C:\Users\CHRONI~1\AppData\Local\Temp\cc7oUGua.s 			page 23


 873              		.loc 1 378 0
 874 0106 2369     		ldr	r3, [r4, #16]
 875 0108 0BB1     		cbz	r3, .L45
 379:SensorLib\max30102/driver_max30102.c ****         {
 380:SensorLib\max30102/driver_max30102.c ****             handle->receive_callback(MAX30102_INTERRUPT_STATUS_DIE_TEMP_RDY);                      
 876              		.loc 1 380 0
 877 010a 0120     		movs	r0, #1
 878 010c 9847     		blx	r3
 879              	.LVL128:
 880              	.L45:
 881              	.LBE2:
 381:SensorLib\max30102/driver_max30102.c ****         }
 382:SensorLib\max30102/driver_max30102.c ****     }
 383:SensorLib\max30102/driver_max30102.c ****     
 384:SensorLib\max30102/driver_max30102.c ****     return 0;                                                                                      
 882              		.loc 1 384 0
 883 010e 0020     		movs	r0, #0
 884              	.LBB3:
 885 0110 04E0     		b	.L35
 886              	.L43:
 364:SensorLib\max30102/driver_max30102.c ****         }
 887              		.loc 1 364 0 discriminator 1
 888 0112 2846     		mov	r0, r5
 889 0114 02E0     		b	.L35
 890              	.LVL129:
 891              	.L46:
 892              		.cfi_def_cfa_offset 0
 893              		.cfi_restore 4
 894              		.cfi_restore 5
 895              		.cfi_restore 6
 896              		.cfi_restore 14
 897              	.LBE3:
 306:SensorLib\max30102/driver_max30102.c ****     }
 898              		.loc 1 306 0
 899 0116 0220     		movs	r0, #2
 900              	.LVL130:
 385:SensorLib\max30102/driver_max30102.c **** }
 901              		.loc 1 385 0
 902 0118 7047     		bx	lr
 903              	.LVL131:
 904              	.L47:
 905              		.cfi_def_cfa_offset 24
 906              		.cfi_offset 4, -16
 907              		.cfi_offset 5, -12
 908              		.cfi_offset 6, -8
 909              		.cfi_offset 14, -4
 310:SensorLib\max30102/driver_max30102.c ****     }
 910              		.loc 1 310 0
 911 011a 0320     		movs	r0, #3
 912              	.LVL132:
 913              	.L35:
 914              		.loc 1 385 0
 915 011c 02B0     		add	sp, sp, #8
 916              		.cfi_def_cfa_offset 16
 917              		@ sp needed
 918 011e 70BD     		pop	{r4, r5, r6, pc}
 919              	.L50:
ARM GAS  C:\Users\CHRONI~1\AppData\Local\Temp\cc7oUGua.s 			page 24


 920              		.align	2
 921              	.L49:
 922 0120 8C060000 		.word	.LC40
 923 0124 B8060000 		.word	.LC41
 924 0128 E4060000 		.word	.LC42
 925 012c 10070000 		.word	.LC43
 926              		.cfi_endproc
 927              	.LFE3:
 928              		.size	max30102_irq_handler, .-max30102_irq_handler
 929              		.section	.text.max30102_read,"ax",%progbits
 930              		.align	2
 931              		.global	max30102_read
 932              		.thumb
 933              		.thumb_func
 934              		.type	max30102_read, %function
 935              	max30102_read:
 936              	.LFB4:
 386:SensorLib\max30102/driver_max30102.c **** 
 387:SensorLib\max30102/driver_max30102.c **** /**
 388:SensorLib\max30102/driver_max30102.c ****  * @brief         read the data
 389:SensorLib\max30102/driver_max30102.c ****  * @param[in]     *handle points to a max30102 handle structure
 390:SensorLib\max30102/driver_max30102.c ****  * @param[out]    *raw_red points to a red raw data buffer
 391:SensorLib\max30102/driver_max30102.c ****  * @param[out]    *raw_ir points to an ir raw data buffer
 392:SensorLib\max30102/driver_max30102.c ****  * @param[in,out] *len points to a length buffer
 393:SensorLib\max30102/driver_max30102.c ****  * @return        status code
 394:SensorLib\max30102/driver_max30102.c ****  *                - 0 success
 395:SensorLib\max30102/driver_max30102.c ****  *                - 1 read failed
 396:SensorLib\max30102/driver_max30102.c ****  *                - 2 handle is NULL
 397:SensorLib\max30102/driver_max30102.c ****  *                - 3 handle is not initialized
 398:SensorLib\max30102/driver_max30102.c ****  *                - 4 fifo overrun
 399:SensorLib\max30102/driver_max30102.c ****  *                - 5 mode is invalid
 400:SensorLib\max30102/driver_max30102.c ****  * @note          none
 401:SensorLib\max30102/driver_max30102.c ****  */
 402:SensorLib\max30102/driver_max30102.c **** uint8_t max30102_read(max30102_handle_t *handle, uint32_t *raw_red, uint32_t *raw_ir, uint8_t *len)
 403:SensorLib\max30102/driver_max30102.c **** {
 937              		.loc 1 403 0
 938              		.cfi_startproc
 939              		@ args = 0, pretend = 0, frame = 8
 940              		@ frame_needed = 0, uses_anonymous_args = 0
 941              	.LVL133:
 942 0000 2DE9F04F 		push	{r4, r5, r6, r7, r8, r9, r10, fp, lr}
 943              		.cfi_def_cfa_offset 36
 944              		.cfi_offset 4, -36
 945              		.cfi_offset 5, -32
 946              		.cfi_offset 6, -28
 947              		.cfi_offset 7, -24
 948              		.cfi_offset 8, -20
 949              		.cfi_offset 9, -16
 950              		.cfi_offset 10, -12
 951              		.cfi_offset 11, -8
 952              		.cfi_offset 14, -4
 953 0004 83B0     		sub	sp, sp, #12
 954              		.cfi_def_cfa_offset 48
 404:SensorLib\max30102/driver_max30102.c ****     uint8_t res;
 405:SensorLib\max30102/driver_max30102.c ****     uint8_t prev;
 406:SensorLib\max30102/driver_max30102.c ****     uint8_t mode;
 407:SensorLib\max30102/driver_max30102.c ****     uint8_t k;
ARM GAS  C:\Users\CHRONI~1\AppData\Local\Temp\cc7oUGua.s 			page 25


 408:SensorLib\max30102/driver_max30102.c ****     uint8_t read_point;
 409:SensorLib\max30102/driver_max30102.c ****     uint8_t write_point;
 410:SensorLib\max30102/driver_max30102.c ****     uint8_t l;
 411:SensorLib\max30102/driver_max30102.c ****     uint8_t bit;
 412:SensorLib\max30102/driver_max30102.c ****     uint8_t i;
 413:SensorLib\max30102/driver_max30102.c ****     uint8_t r;
 414:SensorLib\max30102/driver_max30102.c ****     
 415:SensorLib\max30102/driver_max30102.c ****     if (handle == NULL)                                                                            
 955              		.loc 1 415 0
 956 0006 0028     		cmp	r0, #0
 957 0008 00F0DE80 		beq	.L68
 958 000c 0546     		mov	r5, r0
 416:SensorLib\max30102/driver_max30102.c ****     {
 417:SensorLib\max30102/driver_max30102.c ****         return 2;                                                                                  
 418:SensorLib\max30102/driver_max30102.c ****     }
 419:SensorLib\max30102/driver_max30102.c ****     if (handle->inited != 1)                                                                       
 959              		.loc 1 419 0
 960 000e 047F     		ldrb	r4, [r0, #28]	@ zero_extendqisi2
 961 0010 012C     		cmp	r4, #1
 962 0012 40F0DB80 		bne	.L69
 963 0016 1E46     		mov	r6, r3
 964 0018 9146     		mov	r9, r2
 965 001a 8846     		mov	r8, r1
 420:SensorLib\max30102/driver_max30102.c ****     {
 421:SensorLib\max30102/driver_max30102.c ****         return 3;                                                                                  
 422:SensorLib\max30102/driver_max30102.c ****     }
 423:SensorLib\max30102/driver_max30102.c ****     
 424:SensorLib\max30102/driver_max30102.c ****     res = handle->iic_read(MAX30102_ADDRESS, MAX30102_REG_OVERFLOW_COUNTER, (uint8_t *)&prev, 1);  
 966              		.loc 1 424 0
 967 001c 8768     		ldr	r7, [r0, #8]
 968 001e 0123     		movs	r3, #1
 969              	.LVL134:
 970 0020 0DF10702 		add	r2, sp, #7
 971              	.LVL135:
 972 0024 0521     		movs	r1, #5
 973              	.LVL136:
 974 0026 5720     		movs	r0, #87
 975              	.LVL137:
 976 0028 B847     		blx	r7
 977              	.LVL138:
 425:SensorLib\max30102/driver_max30102.c ****     if (res != 0)                                                                                  
 978              		.loc 1 425 0
 979 002a 18B1     		cbz	r0, .L53
 426:SensorLib\max30102/driver_max30102.c ****     {
 427:SensorLib\max30102/driver_max30102.c ****         handle->debug_print("max30102: read overflow counter failed.\n");                          
 980              		.loc 1 427 0
 981 002c AB69     		ldr	r3, [r5, #24]
 982 002e 6A48     		ldr	r0, .L78
 983              	.LVL139:
 984 0030 9847     		blx	r3
 985              	.LVL140:
 428:SensorLib\max30102/driver_max30102.c ****        
 429:SensorLib\max30102/driver_max30102.c ****         return 1;                                                                                  
 986              		.loc 1 429 0
 987 0032 CCE0     		b	.L52
 988              	.LVL141:
 989              	.L53:
ARM GAS  C:\Users\CHRONI~1\AppData\Local\Temp\cc7oUGua.s 			page 26


 430:SensorLib\max30102/driver_max30102.c ****     }
 431:SensorLib\max30102/driver_max30102.c ****     r = 0;                                                                                         
 432:SensorLib\max30102/driver_max30102.c ****     if (prev != 0)                                                                                 
 990              		.loc 1 432 0
 991 0034 9DF80730 		ldrb	r3, [sp, #7]	@ zero_extendqisi2
 992 0038 2BB1     		cbz	r3, .L70
 993              	.LVL142:
 433:SensorLib\max30102/driver_max30102.c ****     {
 434:SensorLib\max30102/driver_max30102.c ****         r = 4;                                                                                     
 435:SensorLib\max30102/driver_max30102.c ****         
 436:SensorLib\max30102/driver_max30102.c ****         handle->debug_print("max30102: fifo overrun.\n");                                          
 994              		.loc 1 436 0
 995 003a AB69     		ldr	r3, [r5, #24]
 996 003c 6748     		ldr	r0, .L78+4
 997              	.LVL143:
 998 003e 9847     		blx	r3
 999              	.LVL144:
 434:SensorLib\max30102/driver_max30102.c ****         
 1000              		.loc 1 434 0
 1001 0040 4FF0040B 		mov	fp, #4
 1002 0044 01E0     		b	.L54
 1003              	.LVL145:
 1004              	.L70:
 431:SensorLib\max30102/driver_max30102.c ****     if (prev != 0)                                                                                 
 1005              		.loc 1 431 0
 1006 0046 4FF0000B 		mov	fp, #0
 1007              	.LVL146:
 1008              	.L54:
 437:SensorLib\max30102/driver_max30102.c ****     }
 438:SensorLib\max30102/driver_max30102.c ****     res = handle->iic_read(MAX30102_ADDRESS, MAX30102_REG_FIFO_READ_POINTER, (uint8_t *)&read_point
 1009              		.loc 1 438 0
 1010 004a AF68     		ldr	r7, [r5, #8]
 1011 004c 0123     		movs	r3, #1
 1012 004e 0DF10602 		add	r2, sp, #6
 1013 0052 0621     		movs	r1, #6
 1014 0054 5720     		movs	r0, #87
 1015 0056 B847     		blx	r7
 1016              	.LVL147:
 439:SensorLib\max30102/driver_max30102.c ****     if (res != 0)                                                                                  
 1017              		.loc 1 439 0
 1018 0058 18B1     		cbz	r0, .L55
 440:SensorLib\max30102/driver_max30102.c ****     {
 441:SensorLib\max30102/driver_max30102.c ****         handle->debug_print("max30102: read fifo read point failed.\n");                           
 1019              		.loc 1 441 0
 1020 005a AB69     		ldr	r3, [r5, #24]
 1021 005c 6048     		ldr	r0, .L78+8
 1022              	.LVL148:
 1023 005e 9847     		blx	r3
 1024              	.LVL149:
 442:SensorLib\max30102/driver_max30102.c ****        
 443:SensorLib\max30102/driver_max30102.c ****         return 1;                                                                                  
 1025              		.loc 1 443 0
 1026 0060 B5E0     		b	.L52
 1027              	.LVL150:
 1028              	.L55:
 444:SensorLib\max30102/driver_max30102.c ****     }
 445:SensorLib\max30102/driver_max30102.c ****     res = handle->iic_read(MAX30102_ADDRESS, MAX30102_REG_FIFO_WRITE_POINTER, (uint8_t *)&write_poi
ARM GAS  C:\Users\CHRONI~1\AppData\Local\Temp\cc7oUGua.s 			page 27


 1029              		.loc 1 445 0
 1030 0062 AF68     		ldr	r7, [r5, #8]
 1031 0064 0123     		movs	r3, #1
 1032 0066 0DF10502 		add	r2, sp, #5
 1033 006a 0421     		movs	r1, #4
 1034 006c 5720     		movs	r0, #87
 1035              	.LVL151:
 1036 006e B847     		blx	r7
 1037              	.LVL152:
 446:SensorLib\max30102/driver_max30102.c ****     if (res != 0)                                                                                  
 1038              		.loc 1 446 0
 1039 0070 18B1     		cbz	r0, .L56
 447:SensorLib\max30102/driver_max30102.c ****     {
 448:SensorLib\max30102/driver_max30102.c ****         handle->debug_print("max30102: read fifo write point failed.\n");                          
 1040              		.loc 1 448 0
 1041 0072 AB69     		ldr	r3, [r5, #24]
 1042 0074 5B48     		ldr	r0, .L78+12
 1043              	.LVL153:
 1044 0076 9847     		blx	r3
 1045              	.LVL154:
 449:SensorLib\max30102/driver_max30102.c ****        
 450:SensorLib\max30102/driver_max30102.c ****         return 1;                                                                                  
 1046              		.loc 1 450 0
 1047 0078 A9E0     		b	.L52
 1048              	.LVL155:
 1049              	.L56:
 451:SensorLib\max30102/driver_max30102.c ****     }
 452:SensorLib\max30102/driver_max30102.c ****     
 453:SensorLib\max30102/driver_max30102.c ****     if (write_point > read_point)                                                                  
 1050              		.loc 1 453 0
 1051 007a 9DF80530 		ldrb	r3, [sp, #5]	@ zero_extendqisi2
 1052 007e 9DF80620 		ldrb	r2, [sp, #6]	@ zero_extendqisi2
 1053 0082 9342     		cmp	r3, r2
 1054 0084 02D9     		bls	.L57
 454:SensorLib\max30102/driver_max30102.c ****     {
 455:SensorLib\max30102/driver_max30102.c ****         l = write_point - read_point;                                                              
 1055              		.loc 1 455 0
 1056 0086 9B1A     		subs	r3, r3, r2
 1057 0088 DBB2     		uxtb	r3, r3
 1058              	.LVL156:
 1059 008a 02E0     		b	.L58
 1060              	.LVL157:
 1061              	.L57:
 456:SensorLib\max30102/driver_max30102.c ****     }
 457:SensorLib\max30102/driver_max30102.c ****     else
 458:SensorLib\max30102/driver_max30102.c ****     {
 459:SensorLib\max30102/driver_max30102.c ****         l = 32 + write_point - read_point;                                                         
 1062              		.loc 1 459 0
 1063 008c 9B1A     		subs	r3, r3, r2
 1064 008e 2033     		adds	r3, r3, #32
 1065 0090 DBB2     		uxtb	r3, r3
 1066              	.LVL158:
 1067              	.L58:
 460:SensorLib\max30102/driver_max30102.c ****     }
 461:SensorLib\max30102/driver_max30102.c ****     *len = ((*len) > l) ? l : (*len);                                                              
 1068              		.loc 1 461 0
 1069 0092 3278     		ldrb	r2, [r6]	@ zero_extendqisi2
ARM GAS  C:\Users\CHRONI~1\AppData\Local\Temp\cc7oUGua.s 			page 28


 1070 0094 9342     		cmp	r3, r2
 1071 0096 28BF     		it	cs
 1072 0098 1346     		movcs	r3, r2
 1073              	.LVL159:
 1074 009a 3370     		strb	r3, [r6]
 462:SensorLib\max30102/driver_max30102.c ****     res = handle->iic_read(MAX30102_ADDRESS, MAX30102_REG_MODE_CONFIG, (uint8_t *)&prev, 1);       
 1075              		.loc 1 462 0
 1076 009c AF68     		ldr	r7, [r5, #8]
 1077 009e 0123     		movs	r3, #1
 1078 00a0 0DF10702 		add	r2, sp, #7
 1079 00a4 0921     		movs	r1, #9
 1080 00a6 5720     		movs	r0, #87
 1081              	.LVL160:
 1082 00a8 B847     		blx	r7
 1083              	.LVL161:
 463:SensorLib\max30102/driver_max30102.c ****     if (res != 0)                                                                                  
 1084              		.loc 1 463 0
 1085 00aa 18B1     		cbz	r0, .L59
 464:SensorLib\max30102/driver_max30102.c ****     {
 465:SensorLib\max30102/driver_max30102.c ****         handle->debug_print("max30102: read mode config failed.\n");                               
 1086              		.loc 1 465 0
 1087 00ac AB69     		ldr	r3, [r5, #24]
 1088 00ae 4E48     		ldr	r0, .L78+16
 1089              	.LVL162:
 1090 00b0 9847     		blx	r3
 1091              	.LVL163:
 466:SensorLib\max30102/driver_max30102.c ****        
 467:SensorLib\max30102/driver_max30102.c ****         return 1;                                                                                  
 1092              		.loc 1 467 0
 1093 00b2 8CE0     		b	.L52
 1094              	.LVL164:
 1095              	.L59:
 468:SensorLib\max30102/driver_max30102.c ****     }
 469:SensorLib\max30102/driver_max30102.c ****     mode = (max30102_mode_t)(prev & 0x7);                                                          
 1096              		.loc 1 469 0
 1097 00b4 9DF807A0 		ldrb	r10, [sp, #7]	@ zero_extendqisi2
 1098 00b8 0AF0070A 		and	r10, r10, #7
 1099              	.LVL165:
 470:SensorLib\max30102/driver_max30102.c ****     if (mode == MAX30102_MODE_HEART_RATE)                                                          
 1100              		.loc 1 470 0
 1101 00bc BAF1020F 		cmp	r10, #2
 1102 00c0 0AD0     		beq	.L71
 471:SensorLib\max30102/driver_max30102.c ****     {
 472:SensorLib\max30102/driver_max30102.c ****         k = 3;                                                                                     
 473:SensorLib\max30102/driver_max30102.c ****     }
 474:SensorLib\max30102/driver_max30102.c ****     else if (mode == MAX30102_MODE_SPO2)                                                           
 1103              		.loc 1 474 0
 1104 00c2 BAF1030F 		cmp	r10, #3
 1105 00c6 09D0     		beq	.L72
 475:SensorLib\max30102/driver_max30102.c ****     {
 476:SensorLib\max30102/driver_max30102.c ****         k = 6;                                                                                     
 477:SensorLib\max30102/driver_max30102.c ****     }
 478:SensorLib\max30102/driver_max30102.c ****     else if (mode == MAX30102_MODE_MULTI_LED)                                                      
 1106              		.loc 1 478 0
 1107 00c8 BAF1070F 		cmp	r10, #7
 1108 00cc 08D0     		beq	.L73
 479:SensorLib\max30102/driver_max30102.c ****     {
ARM GAS  C:\Users\CHRONI~1\AppData\Local\Temp\cc7oUGua.s 			page 29


 480:SensorLib\max30102/driver_max30102.c ****         k = 6;                                                                                     
 481:SensorLib\max30102/driver_max30102.c ****     }
 482:SensorLib\max30102/driver_max30102.c ****     else
 483:SensorLib\max30102/driver_max30102.c ****     {
 484:SensorLib\max30102/driver_max30102.c ****         handle->debug_print("max30105: mode is invalid.\n");                                       
 1109              		.loc 1 484 0
 1110 00ce AB69     		ldr	r3, [r5, #24]
 1111 00d0 4648     		ldr	r0, .L78+20
 1112              	.LVL166:
 1113 00d2 9847     		blx	r3
 1114              	.LVL167:
 485:SensorLib\max30102/driver_max30102.c ****        
 486:SensorLib\max30102/driver_max30102.c ****         return 5;                                                                                  
 1115              		.loc 1 486 0
 1116 00d4 0524     		movs	r4, #5
 1117 00d6 7AE0     		b	.L52
 1118              	.LVL168:
 1119              	.L71:
 472:SensorLib\max30102/driver_max30102.c ****     }
 1120              		.loc 1 472 0
 1121 00d8 0322     		movs	r2, #3
 1122 00da 02E0     		b	.L60
 1123              	.L72:
 476:SensorLib\max30102/driver_max30102.c ****     }
 1124              		.loc 1 476 0
 1125 00dc 0622     		movs	r2, #6
 1126 00de 00E0     		b	.L60
 1127              	.L73:
 480:SensorLib\max30102/driver_max30102.c ****     }
 1128              		.loc 1 480 0
 1129 00e0 0622     		movs	r2, #6
 1130              	.L60:
 1131              	.LVL169:
 487:SensorLib\max30102/driver_max30102.c ****     }
 488:SensorLib\max30102/driver_max30102.c ****     
 489:SensorLib\max30102/driver_max30102.c ****     res = handle->iic_read(MAX30102_ADDRESS, MAX30102_REG_FIFO_DATA_REGISTER, handle->buf, (*len) *
 1132              		.loc 1 489 0
 1133 00e2 AF68     		ldr	r7, [r5, #8]
 1134 00e4 3378     		ldrb	r3, [r6]	@ zero_extendqisi2
 1135 00e6 03FB02F3 		mul	r3, r3, r2
 1136 00ea 05F12402 		add	r2, r5, #36
 1137              	.LVL170:
 1138 00ee 0721     		movs	r1, #7
 1139 00f0 5720     		movs	r0, #87
 1140              	.LVL171:
 1141 00f2 B847     		blx	r7
 1142              	.LVL172:
 490:SensorLib\max30102/driver_max30102.c ****     if (res != 0)                                                                                  
 1143              		.loc 1 490 0
 1144 00f4 18B1     		cbz	r0, .L61
 491:SensorLib\max30102/driver_max30102.c ****     {
 492:SensorLib\max30102/driver_max30102.c ****         handle->debug_print("max30102: read fifo data register failed.\n");                        
 1145              		.loc 1 492 0
 1146 00f6 AB69     		ldr	r3, [r5, #24]
 1147 00f8 3D48     		ldr	r0, .L78+24
 1148              	.LVL173:
 1149 00fa 9847     		blx	r3
ARM GAS  C:\Users\CHRONI~1\AppData\Local\Temp\cc7oUGua.s 			page 30


 1150              	.LVL174:
 493:SensorLib\max30102/driver_max30102.c ****        
 494:SensorLib\max30102/driver_max30102.c ****         return 1;                                                                                  
 1151              		.loc 1 494 0
 1152 00fc 67E0     		b	.L52
 1153              	.LVL175:
 1154              	.L61:
 495:SensorLib\max30102/driver_max30102.c ****     }
 496:SensorLib\max30102/driver_max30102.c ****     res = handle->iic_read(MAX30102_ADDRESS, MAX30102_REG_SPO2_CONFIG, (uint8_t *)&prev, 1);       
 1155              		.loc 1 496 0
 1156 00fe AF68     		ldr	r7, [r5, #8]
 1157 0100 0123     		movs	r3, #1
 1158 0102 0DF10702 		add	r2, sp, #7
 1159 0106 0A21     		movs	r1, #10
 1160 0108 5720     		movs	r0, #87
 1161              	.LVL176:
 1162 010a B847     		blx	r7
 1163              	.LVL177:
 497:SensorLib\max30102/driver_max30102.c ****     if (res != 0)                                                                                  
 1164              		.loc 1 497 0
 1165 010c 18B1     		cbz	r0, .L62
 498:SensorLib\max30102/driver_max30102.c ****     {
 499:SensorLib\max30102/driver_max30102.c ****         handle->debug_print("max30102: read spo2 config failed.\n");                               
 1166              		.loc 1 499 0
 1167 010e AB69     		ldr	r3, [r5, #24]
 1168 0110 3848     		ldr	r0, .L78+28
 1169              	.LVL178:
 1170 0112 9847     		blx	r3
 1171              	.LVL179:
 500:SensorLib\max30102/driver_max30102.c ****        
 501:SensorLib\max30102/driver_max30102.c ****         return 1;                                                                                  
 1172              		.loc 1 501 0
 1173 0114 5BE0     		b	.L52
 1174              	.LVL180:
 1175              	.L62:
 502:SensorLib\max30102/driver_max30102.c ****     }
 503:SensorLib\max30102/driver_max30102.c ****     prev = prev & 0x3;                                                                             
 1176              		.loc 1 503 0
 1177 0116 9DF80730 		ldrb	r3, [sp, #7]	@ zero_extendqisi2
 504:SensorLib\max30102/driver_max30102.c ****     if (prev == 0)                                                                                 
 1178              		.loc 1 504 0
 1179 011a 13F00303 		ands	r3, r3, #3
 1180 011e 05D0     		beq	.L74
 505:SensorLib\max30102/driver_max30102.c ****     {
 506:SensorLib\max30102/driver_max30102.c ****         bit = 3;                                                                                   
 507:SensorLib\max30102/driver_max30102.c ****     }
 508:SensorLib\max30102/driver_max30102.c ****     else if (prev == 1)                                                                            
 1181              		.loc 1 508 0
 1182 0120 012B     		cmp	r3, #1
 1183 0122 05D0     		beq	.L75
 509:SensorLib\max30102/driver_max30102.c ****     {
 510:SensorLib\max30102/driver_max30102.c ****         bit = 2;                                                                                   
 511:SensorLib\max30102/driver_max30102.c ****     }
 512:SensorLib\max30102/driver_max30102.c ****     else if (prev == 2)                                                                            
 1184              		.loc 1 512 0
 1185 0124 022B     		cmp	r3, #2
 1186 0126 05D1     		bne	.L76
ARM GAS  C:\Users\CHRONI~1\AppData\Local\Temp\cc7oUGua.s 			page 31


 513:SensorLib\max30102/driver_max30102.c ****     {
 514:SensorLib\max30102/driver_max30102.c ****         bit = 1;                                                                                   
 1187              		.loc 1 514 0
 1188 0128 0121     		movs	r1, #1
 1189 012a 04E0     		b	.L63
 1190              	.L74:
 506:SensorLib\max30102/driver_max30102.c ****     }
 1191              		.loc 1 506 0
 1192 012c 0321     		movs	r1, #3
 1193 012e 02E0     		b	.L63
 1194              	.L75:
 510:SensorLib\max30102/driver_max30102.c ****     }
 1195              		.loc 1 510 0
 1196 0130 0221     		movs	r1, #2
 1197 0132 00E0     		b	.L63
 1198              	.L76:
 515:SensorLib\max30102/driver_max30102.c ****     }
 516:SensorLib\max30102/driver_max30102.c ****     else                                                                                           
 517:SensorLib\max30102/driver_max30102.c ****     {
 518:SensorLib\max30102/driver_max30102.c ****         bit = 0;                                                                                   
 1199              		.loc 1 518 0
 1200 0134 0021     		movs	r1, #0
 1201              	.L63:
 1202              	.LVL181:
 519:SensorLib\max30102/driver_max30102.c ****     }
 520:SensorLib\max30102/driver_max30102.c ****     
 521:SensorLib\max30102/driver_max30102.c ****     for (i = 0; i < (*len); i++)                                                                   
 1203              		.loc 1 521 0
 1204 0136 0022     		movs	r2, #0
 1205 0138 41E0     		b	.L64
 1206              	.LVL182:
 1207              	.L67:
 522:SensorLib\max30102/driver_max30102.c ****     {
 523:SensorLib\max30102/driver_max30102.c ****         if (mode == MAX30102_MODE_HEART_RATE)                                                      
 1208              		.loc 1 523 0
 1209 013a BAF1020F 		cmp	r10, #2
 1210 013e 14D1     		bne	.L65
 524:SensorLib\max30102/driver_max30102.c ****         {
 525:SensorLib\max30102/driver_max30102.c ****             raw_red[i] = ((uint32_t)handle->buf[i * 3 + 0] << 16) |                                
 1211              		.loc 1 525 0
 1212 0140 02EB4203 		add	r3, r2, r2, lsl #1
 1213 0144 E818     		adds	r0, r5, r3
 1214 0146 90F82470 		ldrb	r7, [r0, #36]	@ zero_extendqisi2
 526:SensorLib\max30102/driver_max30102.c ****                          ((uint32_t)handle->buf[i * 3 + 1] << 8) |                                 
 1215              		.loc 1 526 0
 1216 014a 5C1C     		adds	r4, r3, #1
 1217 014c 2C44     		add	r4, r4, r5
 1218 014e 94F82400 		ldrb	r0, [r4, #36]	@ zero_extendqisi2
 1219 0152 0002     		lsls	r0, r0, #8
 525:SensorLib\max30102/driver_max30102.c ****                          ((uint32_t)handle->buf[i * 3 + 1] << 8) |                                 
 1220              		.loc 1 525 0
 1221 0154 40EA0740 		orr	r0, r0, r7, lsl #16
 527:SensorLib\max30102/driver_max30102.c ****                          ((uint32_t)handle->buf[i * 3 + 2] << 0);                                  
 1222              		.loc 1 527 0
 1223 0158 0233     		adds	r3, r3, #2
 1224 015a 2B44     		add	r3, r3, r5
 1225 015c 93F82430 		ldrb	r3, [r3, #36]	@ zero_extendqisi2
ARM GAS  C:\Users\CHRONI~1\AppData\Local\Temp\cc7oUGua.s 			page 32


 526:SensorLib\max30102/driver_max30102.c ****                          ((uint32_t)handle->buf[i * 3 + 1] << 8) |                                 
 1226              		.loc 1 526 0
 1227 0160 0343     		orrs	r3, r3, r0
 528:SensorLib\max30102/driver_max30102.c ****             raw_red[i] = raw_red[i] >> bit;                                                        
 1228              		.loc 1 528 0
 1229 0162 CB40     		lsrs	r3, r3, r1
 1230 0164 48F82230 		str	r3, [r8, r2, lsl #2]
 1231 0168 27E0     		b	.L66
 1232              	.L65:
 529:SensorLib\max30102/driver_max30102.c ****         }
 530:SensorLib\max30102/driver_max30102.c ****         else
 531:SensorLib\max30102/driver_max30102.c ****         {
 532:SensorLib\max30102/driver_max30102.c ****             raw_red[i] = ((uint32_t)handle->buf[i * 6 + 0] << 16) |                                
 1233              		.loc 1 532 0
 1234 016a 02EB4203 		add	r3, r2, r2, lsl #1
 1235 016e 5B00     		lsls	r3, r3, #1
 1236 0170 E818     		adds	r0, r5, r3
 1237 0172 90F824E0 		ldrb	lr, [r0, #36]	@ zero_extendqisi2
 533:SensorLib\max30102/driver_max30102.c ****                          ((uint32_t)handle->buf[i * 6 + 1] << 8) |                                 
 1238              		.loc 1 533 0
 1239 0176 5F1C     		adds	r7, r3, #1
 1240 0178 2F44     		add	r7, r7, r5
 1241 017a 97F82440 		ldrb	r4, [r7, #36]	@ zero_extendqisi2
 1242 017e 2002     		lsls	r0, r4, #8
 532:SensorLib\max30102/driver_max30102.c ****                          ((uint32_t)handle->buf[i * 6 + 1] << 8) |                                 
 1243              		.loc 1 532 0
 1244 0180 40EA0E44 		orr	r4, r0, lr, lsl #16
 534:SensorLib\max30102/driver_max30102.c ****                          ((uint32_t)handle->buf[i * 6 + 2] << 0);                                  
 1245              		.loc 1 534 0
 1246 0184 981C     		adds	r0, r3, #2
 1247 0186 2844     		add	r0, r0, r5
 1248 0188 90F82400 		ldrb	r0, [r0, #36]	@ zero_extendqisi2
 533:SensorLib\max30102/driver_max30102.c ****                          ((uint32_t)handle->buf[i * 6 + 1] << 8) |                                 
 1249              		.loc 1 533 0
 1250 018c 2043     		orrs	r0, r0, r4
 535:SensorLib\max30102/driver_max30102.c ****             raw_red[i] = raw_red[i] >> bit;                                                        
 1251              		.loc 1 535 0
 1252 018e C840     		lsrs	r0, r0, r1
 1253 0190 48F82200 		str	r0, [r8, r2, lsl #2]
 536:SensorLib\max30102/driver_max30102.c ****             raw_ir[i] = ((uint32_t)handle->buf[i * 6 + 3] << 16) |                                 
 1254              		.loc 1 536 0
 1255 0194 D81C     		adds	r0, r3, #3
 1256 0196 2844     		add	r0, r0, r5
 1257 0198 90F82470 		ldrb	r7, [r0, #36]	@ zero_extendqisi2
 537:SensorLib\max30102/driver_max30102.c ****                         ((uint32_t)handle->buf[i * 6 + 4] << 8) |                                  
 1258              		.loc 1 537 0
 1259 019c 1C1D     		adds	r4, r3, #4
 1260 019e 2C44     		add	r4, r4, r5
 1261 01a0 94F82400 		ldrb	r0, [r4, #36]	@ zero_extendqisi2
 1262 01a4 0002     		lsls	r0, r0, #8
 536:SensorLib\max30102/driver_max30102.c ****             raw_ir[i] = ((uint32_t)handle->buf[i * 6 + 3] << 16) |                                 
 1263              		.loc 1 536 0
 1264 01a6 40EA0740 		orr	r0, r0, r7, lsl #16
 538:SensorLib\max30102/driver_max30102.c ****                         ((uint32_t)handle->buf[i * 6 + 5] << 0);                                   
 1265              		.loc 1 538 0
 1266 01aa 0533     		adds	r3, r3, #5
 1267 01ac 2B44     		add	r3, r3, r5
ARM GAS  C:\Users\CHRONI~1\AppData\Local\Temp\cc7oUGua.s 			page 33


 1268 01ae 93F82430 		ldrb	r3, [r3, #36]	@ zero_extendqisi2
 537:SensorLib\max30102/driver_max30102.c ****                         ((uint32_t)handle->buf[i * 6 + 4] << 8) |                                  
 1269              		.loc 1 537 0
 1270 01b2 0343     		orrs	r3, r3, r0
 539:SensorLib\max30102/driver_max30102.c ****             raw_ir[i] = raw_ir[i] >> bit;                                                          
 1271              		.loc 1 539 0
 1272 01b4 CB40     		lsrs	r3, r3, r1
 1273 01b6 49F82230 		str	r3, [r9, r2, lsl #2]
 1274              	.L66:
 521:SensorLib\max30102/driver_max30102.c ****     {
 1275              		.loc 1 521 0 discriminator 2
 1276 01ba 0132     		adds	r2, r2, #1
 1277              	.LVL183:
 1278 01bc D2B2     		uxtb	r2, r2
 1279              	.LVL184:
 1280              	.L64:
 521:SensorLib\max30102/driver_max30102.c ****     {
 1281              		.loc 1 521 0 is_stmt 0 discriminator 1
 1282 01be 3378     		ldrb	r3, [r6]	@ zero_extendqisi2
 1283 01c0 9A42     		cmp	r2, r3
 1284 01c2 BAD3     		bcc	.L67
 540:SensorLib\max30102/driver_max30102.c ****         }
 541:SensorLib\max30102/driver_max30102.c ****     }
 542:SensorLib\max30102/driver_max30102.c ****     
 543:SensorLib\max30102/driver_max30102.c ****     return r;                                                                                      
 1285              		.loc 1 543 0 is_stmt 1
 1286 01c4 5C46     		mov	r4, fp
 1287 01c6 02E0     		b	.L52
 1288              	.LVL185:
 1289              	.L68:
 417:SensorLib\max30102/driver_max30102.c ****     }
 1290              		.loc 1 417 0
 1291 01c8 0224     		movs	r4, #2
 1292 01ca 00E0     		b	.L52
 1293              	.L69:
 421:SensorLib\max30102/driver_max30102.c ****     }
 1294              		.loc 1 421 0
 1295 01cc 0324     		movs	r4, #3
 1296              	.LVL186:
 1297              	.L52:
 544:SensorLib\max30102/driver_max30102.c **** }
 1298              		.loc 1 544 0
 1299 01ce 2046     		mov	r0, r4
 1300 01d0 03B0     		add	sp, sp, #12
 1301              		.cfi_def_cfa_offset 36
 1302              		@ sp needed
 1303 01d2 BDE8F08F 		pop	{r4, r5, r6, r7, r8, r9, r10, fp, pc}
 1304              	.L79:
 1305 01d6 00BF     		.align	2
 1306              	.L78:
 1307 01d8 3C070000 		.word	.LC44
 1308 01dc 68070000 		.word	.LC45
 1309 01e0 84070000 		.word	.LC46
 1310 01e4 AC070000 		.word	.LC47
 1311 01e8 20060000 		.word	.LC37
 1312 01ec D8070000 		.word	.LC48
 1313 01f0 F4070000 		.word	.LC49
ARM GAS  C:\Users\CHRONI~1\AppData\Local\Temp\cc7oUGua.s 			page 34


 1314 01f4 20080000 		.word	.LC50
 1315              		.cfi_endproc
 1316              	.LFE4:
 1317              		.size	max30102_read, .-max30102_read
 1318              		.section	.text.max30102_read_temperature,"ax",%progbits
 1319              		.align	2
 1320              		.global	max30102_read_temperature
 1321              		.thumb
 1322              		.thumb_func
 1323              		.type	max30102_read_temperature, %function
 1324              	max30102_read_temperature:
 1325              	.LFB5:
 545:SensorLib\max30102/driver_max30102.c **** 
 546:SensorLib\max30102/driver_max30102.c **** /**
 547:SensorLib\max30102/driver_max30102.c ****  * @brief      read the temperature
 548:SensorLib\max30102/driver_max30102.c ****  * @param[in]  *handle points to a max30102 handle structure
 549:SensorLib\max30102/driver_max30102.c ****  * @param[out] *raw points to a raw data buffer
 550:SensorLib\max30102/driver_max30102.c ****  * @param[out] *temp points to a converted temperature buffer
 551:SensorLib\max30102/driver_max30102.c ****  * @return     status code
 552:SensorLib\max30102/driver_max30102.c ****  *             - 0 success
 553:SensorLib\max30102/driver_max30102.c ****  *             - 1 read temperature failed
 554:SensorLib\max30102/driver_max30102.c ****  *             - 2 handle is NULL
 555:SensorLib\max30102/driver_max30102.c ****  *             - 3 handle is not initialized
 556:SensorLib\max30102/driver_max30102.c ****  * @note       none
 557:SensorLib\max30102/driver_max30102.c ****  */
 558:SensorLib\max30102/driver_max30102.c **** uint8_t max30102_read_temperature(max30102_handle_t *handle, uint16_t *raw, float *temp)
 559:SensorLib\max30102/driver_max30102.c **** {
 1326              		.loc 1 559 0
 1327              		.cfi_startproc
 1328              		@ args = 0, pretend = 0, frame = 8
 1329              		@ frame_needed = 0, uses_anonymous_args = 0
 1330              	.LVL187:
 1331 0000 2DE9F041 		push	{r4, r5, r6, r7, r8, lr}
 1332              		.cfi_def_cfa_offset 24
 1333              		.cfi_offset 4, -24
 1334              		.cfi_offset 5, -20
 1335              		.cfi_offset 6, -16
 1336              		.cfi_offset 7, -12
 1337              		.cfi_offset 8, -8
 1338              		.cfi_offset 14, -4
 1339 0004 82B0     		sub	sp, sp, #8
 1340              		.cfi_def_cfa_offset 32
 560:SensorLib\max30102/driver_max30102.c ****     uint8_t res;
 561:SensorLib\max30102/driver_max30102.c ****     uint8_t prev;
 562:SensorLib\max30102/driver_max30102.c ****     uint16_t timeout;
 563:SensorLib\max30102/driver_max30102.c ****     
 564:SensorLib\max30102/driver_max30102.c ****     if (handle == NULL)                                                                            
 1341              		.loc 1 564 0
 1342 0006 0028     		cmp	r0, #0
 1343 0008 60D0     		beq	.L90
 565:SensorLib\max30102/driver_max30102.c ****     {
 566:SensorLib\max30102/driver_max30102.c ****         return 2;                                                                                  
 567:SensorLib\max30102/driver_max30102.c ****     }
 568:SensorLib\max30102/driver_max30102.c ****     if (handle->inited != 1)                                                                       
 1344              		.loc 1 568 0
 1345 000a 047F     		ldrb	r4, [r0, #28]	@ zero_extendqisi2
 1346 000c 012C     		cmp	r4, #1
ARM GAS  C:\Users\CHRONI~1\AppData\Local\Temp\cc7oUGua.s 			page 35


 1347 000e 5FD1     		bne	.L91
 1348 0010 0546     		mov	r5, r0
 1349 0012 1646     		mov	r6, r2
 1350 0014 8846     		mov	r8, r1
 569:SensorLib\max30102/driver_max30102.c ****     {
 570:SensorLib\max30102/driver_max30102.c ****         return 3;                                                                                  
 571:SensorLib\max30102/driver_max30102.c ****     }
 572:SensorLib\max30102/driver_max30102.c **** 
 573:SensorLib\max30102/driver_max30102.c ****     res = handle->iic_read(MAX30102_ADDRESS, MAX30102_REG_INTERRUPT_ENABLE_2, (uint8_t *)&prev, 1);
 1351              		.loc 1 573 0
 1352 0016 8768     		ldr	r7, [r0, #8]
 1353 0018 0123     		movs	r3, #1
 1354 001a 0DF10702 		add	r2, sp, #7
 1355              	.LVL188:
 1356 001e 0321     		movs	r1, #3
 1357              	.LVL189:
 1358 0020 5720     		movs	r0, #87
 1359              	.LVL190:
 1360 0022 B847     		blx	r7
 1361              	.LVL191:
 574:SensorLib\max30102/driver_max30102.c ****     if (res != 0)                                                                                  
 1362              		.loc 1 574 0
 1363 0024 18B1     		cbz	r0, .L82
 575:SensorLib\max30102/driver_max30102.c ****     {
 576:SensorLib\max30102/driver_max30102.c ****         handle->debug_print("max30102: read interrupt enable2 failed.\n");                         
 1364              		.loc 1 576 0
 1365 0026 AB69     		ldr	r3, [r5, #24]
 1366 0028 2C48     		ldr	r0, .L93
 1367              	.LVL192:
 1368 002a 9847     		blx	r3
 1369              	.LVL193:
 577:SensorLib\max30102/driver_max30102.c ****        
 578:SensorLib\max30102/driver_max30102.c ****         return 1;                                                                                  
 1370              		.loc 1 578 0
 1371 002c 51E0     		b	.L81
 1372              	.LVL194:
 1373              	.L82:
 579:SensorLib\max30102/driver_max30102.c ****     }
 580:SensorLib\max30102/driver_max30102.c ****     if ((prev & (1 << 1)) == 0)                                                                    
 1374              		.loc 1 580 0
 1375 002e 9DF80730 		ldrb	r3, [sp, #7]	@ zero_extendqisi2
 1376 0032 13F0020F 		tst	r3, #2
 1377 0036 10D1     		bne	.L83
 581:SensorLib\max30102/driver_max30102.c ****     {
 582:SensorLib\max30102/driver_max30102.c ****         prev &= ~(1 << 1);                                                                         
 1378              		.loc 1 582 0
 1379 0038 03F0FD03 		and	r3, r3, #253
 583:SensorLib\max30102/driver_max30102.c ****         prev |= 1 << 1;                                                                            
 1380              		.loc 1 583 0
 1381 003c 43F00203 		orr	r3, r3, #2
 1382 0040 02AA     		add	r2, sp, #8
 1383 0042 02F8013D 		strb	r3, [r2, #-1]!
 584:SensorLib\max30102/driver_max30102.c ****         res = handle->iic_write(MAX30102_ADDRESS, MAX30102_REG_INTERRUPT_ENABLE_2, (uint8_t *)&prev
 1384              		.loc 1 584 0
 1385 0046 EF68     		ldr	r7, [r5, #12]
 1386 0048 0123     		movs	r3, #1
 1387 004a 0321     		movs	r1, #3
ARM GAS  C:\Users\CHRONI~1\AppData\Local\Temp\cc7oUGua.s 			page 36


 1388 004c 5720     		movs	r0, #87
 1389              	.LVL195:
 1390 004e B847     		blx	r7
 1391              	.LVL196:
 585:SensorLib\max30102/driver_max30102.c ****         if (res != 0)                                                                              
 1392              		.loc 1 585 0
 1393 0050 18B1     		cbz	r0, .L83
 586:SensorLib\max30102/driver_max30102.c ****         {
 587:SensorLib\max30102/driver_max30102.c ****             handle->debug_print("max30102: write interrupt enable2 failed.\n");                    
 1394              		.loc 1 587 0
 1395 0052 AB69     		ldr	r3, [r5, #24]
 1396 0054 2248     		ldr	r0, .L93+4
 1397              	.LVL197:
 1398 0056 9847     		blx	r3
 1399              	.LVL198:
 588:SensorLib\max30102/driver_max30102.c ****            
 589:SensorLib\max30102/driver_max30102.c ****             return 1;                                                                              
 1400              		.loc 1 589 0
 1401 0058 3BE0     		b	.L81
 1402              	.LVL199:
 1403              	.L83:
 590:SensorLib\max30102/driver_max30102.c ****         }
 591:SensorLib\max30102/driver_max30102.c ****     }
 592:SensorLib\max30102/driver_max30102.c ****     
 593:SensorLib\max30102/driver_max30102.c ****     res = handle->iic_read(MAX30102_ADDRESS, MAX30102_REG_DIE_TEMP_CONFIG, (uint8_t *)&prev, 1);   
 1404              		.loc 1 593 0
 1405 005a AF68     		ldr	r7, [r5, #8]
 1406 005c 0123     		movs	r3, #1
 1407 005e 0DF10702 		add	r2, sp, #7
 1408 0062 2121     		movs	r1, #33
 1409 0064 5720     		movs	r0, #87
 1410              	.LVL200:
 1411 0066 B847     		blx	r7
 1412              	.LVL201:
 594:SensorLib\max30102/driver_max30102.c ****     if (res != 0)                                                                                  
 1413              		.loc 1 594 0
 1414 0068 18B1     		cbz	r0, .L84
 595:SensorLib\max30102/driver_max30102.c ****     {
 596:SensorLib\max30102/driver_max30102.c ****         handle->debug_print("max30102: read die temp config failed.\n");                           
 1415              		.loc 1 596 0
 1416 006a AB69     		ldr	r3, [r5, #24]
 1417 006c 1D48     		ldr	r0, .L93+8
 1418              	.LVL202:
 1419 006e 9847     		blx	r3
 1420              	.LVL203:
 597:SensorLib\max30102/driver_max30102.c ****        
 598:SensorLib\max30102/driver_max30102.c ****         return 1;                                                                                  
 1421              		.loc 1 598 0
 1422 0070 2FE0     		b	.L81
 1423              	.LVL204:
 1424              	.L84:
 599:SensorLib\max30102/driver_max30102.c ****     }
 600:SensorLib\max30102/driver_max30102.c ****     prev &= ~(1 << 0);                                                                             
 1425              		.loc 1 600 0
 1426 0072 9DF80730 		ldrb	r3, [sp, #7]	@ zero_extendqisi2
 1427 0076 03F0FE03 		and	r3, r3, #254
 601:SensorLib\max30102/driver_max30102.c ****     prev |= (1 << 0);                                                                              
ARM GAS  C:\Users\CHRONI~1\AppData\Local\Temp\cc7oUGua.s 			page 37


 1428              		.loc 1 601 0
 1429 007a 43F00103 		orr	r3, r3, #1
 1430 007e 02AA     		add	r2, sp, #8
 1431 0080 02F8013D 		strb	r3, [r2, #-1]!
 602:SensorLib\max30102/driver_max30102.c ****     res = handle->iic_write(MAX30102_ADDRESS, MAX30102_REG_DIE_TEMP_CONFIG, (uint8_t *)&prev, 1);  
 1432              		.loc 1 602 0
 1433 0084 EF68     		ldr	r7, [r5, #12]
 1434 0086 0123     		movs	r3, #1
 1435 0088 2121     		movs	r1, #33
 1436 008a 5720     		movs	r0, #87
 1437              	.LVL205:
 1438 008c B847     		blx	r7
 1439              	.LVL206:
 603:SensorLib\max30102/driver_max30102.c ****     if (res != 0)                                                                                  
 1440              		.loc 1 603 0
 1441 008e 18B1     		cbz	r0, .L85
 604:SensorLib\max30102/driver_max30102.c ****     {
 605:SensorLib\max30102/driver_max30102.c ****         handle->debug_print("max30102: write die temp config failed.\n");                          
 1442              		.loc 1 605 0
 1443 0090 AB69     		ldr	r3, [r5, #24]
 1444 0092 1548     		ldr	r0, .L93+12
 1445              	.LVL207:
 1446 0094 9847     		blx	r3
 1447              	.LVL208:
 606:SensorLib\max30102/driver_max30102.c ****        
 607:SensorLib\max30102/driver_max30102.c ****         return 1;                                                                                  
 1448              		.loc 1 607 0
 1449 0096 1CE0     		b	.L81
 1450              	.LVL209:
 1451              	.L85:
 608:SensorLib\max30102/driver_max30102.c ****     }
 609:SensorLib\max30102/driver_max30102.c ****     
 610:SensorLib\max30102/driver_max30102.c ****     timeout = 5000;                                                                                
 611:SensorLib\max30102/driver_max30102.c ****     handle->finished_flag = 0;                                                                     
 1452              		.loc 1 611 0
 1453 0098 0023     		movs	r3, #0
 1454 009a 6B77     		strb	r3, [r5, #29]
 610:SensorLib\max30102/driver_max30102.c ****     handle->finished_flag = 0;                                                                     
 1455              		.loc 1 610 0
 1456 009c 41F28837 		movw	r7, #5000
 612:SensorLib\max30102/driver_max30102.c ****     while (timeout != 0)                                                                           
 1457              		.loc 1 612 0
 1458 00a0 06E0     		b	.L86
 1459              	.LVL210:
 1460              	.L88:
 613:SensorLib\max30102/driver_max30102.c ****     {
 614:SensorLib\max30102/driver_max30102.c ****         handle->delay_ms(1);                                                                       
 1461              		.loc 1 614 0
 1462 00a2 6B69     		ldr	r3, [r5, #20]
 1463 00a4 0120     		movs	r0, #1
 1464 00a6 9847     		blx	r3
 1465              	.LVL211:
 615:SensorLib\max30102/driver_max30102.c ****         timeout--;                                                                                 
 1466              		.loc 1 615 0
 1467 00a8 013F     		subs	r7, r7, #1
 1468              	.LVL212:
 1469 00aa BFB2     		uxth	r7, r7
ARM GAS  C:\Users\CHRONI~1\AppData\Local\Temp\cc7oUGua.s 			page 38


 1470              	.LVL213:
 616:SensorLib\max30102/driver_max30102.c ****         if (handle->finished_flag != 0)                                                            
 1471              		.loc 1 616 0
 1472 00ac 6B7F     		ldrb	r3, [r5, #29]	@ zero_extendqisi2
 1473 00ae 0BB9     		cbnz	r3, .L87
 1474              	.LVL214:
 1475              	.L86:
 612:SensorLib\max30102/driver_max30102.c ****     {
 1476              		.loc 1 612 0
 1477 00b0 002F     		cmp	r7, #0
 1478 00b2 F6D1     		bne	.L88
 1479              	.L87:
 617:SensorLib\max30102/driver_max30102.c ****         {
 618:SensorLib\max30102/driver_max30102.c ****             break;                                                                                 
 619:SensorLib\max30102/driver_max30102.c ****         }
 620:SensorLib\max30102/driver_max30102.c ****     }
 621:SensorLib\max30102/driver_max30102.c ****     if (timeout == 0)                                                                              
 1480              		.loc 1 621 0
 1481 00b4 1FB9     		cbnz	r7, .L89
 622:SensorLib\max30102/driver_max30102.c ****     {
 623:SensorLib\max30102/driver_max30102.c ****         handle->debug_print("max30102: read timeout.\n");                                          
 1482              		.loc 1 623 0
 1483 00b6 AB69     		ldr	r3, [r5, #24]
 1484 00b8 0C48     		ldr	r0, .L93+16
 1485 00ba 9847     		blx	r3
 1486              	.LVL215:
 624:SensorLib\max30102/driver_max30102.c ****        
 625:SensorLib\max30102/driver_max30102.c ****         return 1;                                                                                  
 1487              		.loc 1 625 0
 1488 00bc 09E0     		b	.L81
 1489              	.L89:
 626:SensorLib\max30102/driver_max30102.c ****     }
 627:SensorLib\max30102/driver_max30102.c ****     *raw = handle->raw;                                                                            
 1490              		.loc 1 627 0
 1491 00be EB8B     		ldrh	r3, [r5, #30]
 1492 00c0 A8F80030 		strh	r3, [r8]	@ movhi
 628:SensorLib\max30102/driver_max30102.c ****     *temp = handle->temperature;                                                                   
 1493              		.loc 1 628 0
 1494 00c4 2B6A     		ldr	r3, [r5, #32]	@ float
 1495 00c6 3360     		str	r3, [r6]	@ float
 629:SensorLib\max30102/driver_max30102.c ****     
 630:SensorLib\max30102/driver_max30102.c ****     return 0;                                                                                      
 1496              		.loc 1 630 0
 1497 00c8 0024     		movs	r4, #0
 1498 00ca 02E0     		b	.L81
 1499              	.LVL216:
 1500              	.L90:
 566:SensorLib\max30102/driver_max30102.c ****     }
 1501              		.loc 1 566 0
 1502 00cc 0224     		movs	r4, #2
 1503 00ce 00E0     		b	.L81
 1504              	.L91:
 570:SensorLib\max30102/driver_max30102.c ****     }
 1505              		.loc 1 570 0
 1506 00d0 0324     		movs	r4, #3
 1507              	.LVL217:
 1508              	.L81:
ARM GAS  C:\Users\CHRONI~1\AppData\Local\Temp\cc7oUGua.s 			page 39


 631:SensorLib\max30102/driver_max30102.c **** }
 1509              		.loc 1 631 0
 1510 00d2 2046     		mov	r0, r4
 1511 00d4 02B0     		add	sp, sp, #8
 1512              		.cfi_def_cfa_offset 24
 1513              		@ sp needed
 1514 00d6 BDE8F081 		pop	{r4, r5, r6, r7, r8, pc}
 1515              	.L94:
 1516 00da 00BF     		.align	2
 1517              	.L93:
 1518 00dc 44080000 		.word	.LC51
 1519 00e0 70080000 		.word	.LC52
 1520 00e4 9C080000 		.word	.LC53
 1521 00e8 C4080000 		.word	.LC54
 1522 00ec F0080000 		.word	.LC55
 1523              		.cfi_endproc
 1524              	.LFE5:
 1525              		.size	max30102_read_temperature, .-max30102_read_temperature
 1526              		.section	.text.max30102_get_interrupt_status,"ax",%progbits
 1527              		.align	2
 1528              		.global	max30102_get_interrupt_status
 1529              		.thumb
 1530              		.thumb_func
 1531              		.type	max30102_get_interrupt_status, %function
 1532              	max30102_get_interrupt_status:
 1533              	.LFB6:
 632:SensorLib\max30102/driver_max30102.c **** 
 633:SensorLib\max30102/driver_max30102.c **** /**
 634:SensorLib\max30102/driver_max30102.c ****  * @brief      get the interrupt status
 635:SensorLib\max30102/driver_max30102.c ****  * @param[in]  *handle points to a max30102 handle structure
 636:SensorLib\max30102/driver_max30102.c ****  * @param[in]  status is the interrupt status
 637:SensorLib\max30102/driver_max30102.c ****  * @param[out] *enable points to a bool value buffer
 638:SensorLib\max30102/driver_max30102.c ****  * @return     status code
 639:SensorLib\max30102/driver_max30102.c ****  *             - 0 success
 640:SensorLib\max30102/driver_max30102.c ****  *             - 1 get interrupt status failed
 641:SensorLib\max30102/driver_max30102.c ****  *             - 2 handle is NULL
 642:SensorLib\max30102/driver_max30102.c ****  *             - 3 handle is not initialized
 643:SensorLib\max30102/driver_max30102.c ****  * @note       none
 644:SensorLib\max30102/driver_max30102.c ****  */
 645:SensorLib\max30102/driver_max30102.c **** uint8_t max30102_get_interrupt_status(max30102_handle_t *handle, max30102_interrupt_status_t status
 646:SensorLib\max30102/driver_max30102.c **** {
 1534              		.loc 1 646 0
 1535              		.cfi_startproc
 1536              		@ args = 0, pretend = 0, frame = 8
 1537              		@ frame_needed = 0, uses_anonymous_args = 0
 1538              	.LVL218:
 1539 0000 2DE9F041 		push	{r4, r5, r6, r7, r8, lr}
 1540              		.cfi_def_cfa_offset 24
 1541              		.cfi_offset 4, -24
 1542              		.cfi_offset 5, -20
 1543              		.cfi_offset 6, -16
 1544              		.cfi_offset 7, -12
 1545              		.cfi_offset 8, -8
 1546              		.cfi_offset 14, -4
 1547 0004 82B0     		sub	sp, sp, #8
 1548              		.cfi_def_cfa_offset 32
 647:SensorLib\max30102/driver_max30102.c ****     uint8_t res;
ARM GAS  C:\Users\CHRONI~1\AppData\Local\Temp\cc7oUGua.s 			page 40


 648:SensorLib\max30102/driver_max30102.c ****     uint8_t prev;
 649:SensorLib\max30102/driver_max30102.c ****     
 650:SensorLib\max30102/driver_max30102.c ****     if (handle == NULL)                                                                            
 1549              		.loc 1 650 0
 1550 0006 88B3     		cbz	r0, .L100
 651:SensorLib\max30102/driver_max30102.c ****     {
 652:SensorLib\max30102/driver_max30102.c ****         return 2;                                                                                  
 653:SensorLib\max30102/driver_max30102.c ****     }
 654:SensorLib\max30102/driver_max30102.c ****     if (handle->inited != 1)                                                                       
 1551              		.loc 1 654 0
 1552 0008 047F     		ldrb	r4, [r0, #28]	@ zero_extendqisi2
 1553 000a 012C     		cmp	r4, #1
 1554 000c 30D1     		bne	.L101
 1555 000e 0546     		mov	r5, r0
 1556 0010 9046     		mov	r8, r2
 1557 0012 0E46     		mov	r6, r1
 655:SensorLib\max30102/driver_max30102.c ****     {
 656:SensorLib\max30102/driver_max30102.c ****         return 3;                                                                                  
 657:SensorLib\max30102/driver_max30102.c ****     }
 658:SensorLib\max30102/driver_max30102.c **** 
 659:SensorLib\max30102/driver_max30102.c ****     if (status == MAX30102_INTERRUPT_STATUS_DIE_TEMP_RDY)                                          
 1558              		.loc 1 659 0
 1559 0014 0129     		cmp	r1, #1
 1560 0016 14D1     		bne	.L97
 660:SensorLib\max30102/driver_max30102.c ****     {
 661:SensorLib\max30102/driver_max30102.c ****         res = handle->iic_read(MAX30102_ADDRESS, MAX30102_REG_INTERRUPT_STATUS_2, (uint8_t *)&prev,
 1561              		.loc 1 661 0
 1562 0018 8768     		ldr	r7, [r0, #8]
 1563 001a 0123     		movs	r3, #1
 1564 001c 0DF10702 		add	r2, sp, #7
 1565              	.LVL219:
 1566 0020 1946     		mov	r1, r3
 1567              	.LVL220:
 1568 0022 5720     		movs	r0, #87
 1569              	.LVL221:
 1570 0024 B847     		blx	r7
 1571              	.LVL222:
 662:SensorLib\max30102/driver_max30102.c ****         if (res != 0)                                                                              
 1572              		.loc 1 662 0
 1573 0026 18B1     		cbz	r0, .L98
 663:SensorLib\max30102/driver_max30102.c ****         {
 664:SensorLib\max30102/driver_max30102.c ****             handle->debug_print("max30102: read interrupt status2 failed.\n");                     
 1574              		.loc 1 664 0
 1575 0028 AB69     		ldr	r3, [r5, #24]
 1576 002a 1448     		ldr	r0, .L103
 1577              	.LVL223:
 1578 002c 9847     		blx	r3
 1579              	.LVL224:
 665:SensorLib\max30102/driver_max30102.c ****            
 666:SensorLib\max30102/driver_max30102.c ****             return 1;                                                                              
 1580              		.loc 1 666 0
 1581 002e 20E0     		b	.L96
 1582              	.LVL225:
 1583              	.L98:
 667:SensorLib\max30102/driver_max30102.c ****         }
 668:SensorLib\max30102/driver_max30102.c ****         *enable = (max30102_bool_t)((prev >> status) & 0x01);                                      
 1584              		.loc 1 668 0
ARM GAS  C:\Users\CHRONI~1\AppData\Local\Temp\cc7oUGua.s 			page 41


 1585 0030 9DF80710 		ldrb	r1, [sp, #7]	@ zero_extendqisi2
 1586 0034 3141     		asrs	r1, r1, r6
 1587 0036 01F00101 		and	r1, r1, #1
 1588 003a 88F80010 		strb	r1, [r8]
 669:SensorLib\max30102/driver_max30102.c ****     
 670:SensorLib\max30102/driver_max30102.c ****         return 0;                                                                                  
 1589              		.loc 1 670 0
 1590 003e 0024     		movs	r4, #0
 1591 0040 17E0     		b	.L96
 1592              	.LVL226:
 1593              	.L97:
 671:SensorLib\max30102/driver_max30102.c ****     }
 672:SensorLib\max30102/driver_max30102.c ****     else
 673:SensorLib\max30102/driver_max30102.c ****     {
 674:SensorLib\max30102/driver_max30102.c ****         res = handle->iic_read(MAX30102_ADDRESS, MAX30102_REG_INTERRUPT_STATUS_1, (uint8_t *)&prev,
 1594              		.loc 1 674 0
 1595 0042 8768     		ldr	r7, [r0, #8]
 1596 0044 0123     		movs	r3, #1
 1597 0046 0DF10702 		add	r2, sp, #7
 1598              	.LVL227:
 1599 004a 0021     		movs	r1, #0
 1600              	.LVL228:
 1601 004c 5720     		movs	r0, #87
 1602              	.LVL229:
 1603 004e B847     		blx	r7
 1604              	.LVL230:
 675:SensorLib\max30102/driver_max30102.c ****         if (res != 0)                                                                              
 1605              		.loc 1 675 0
 1606 0050 18B1     		cbz	r0, .L99
 676:SensorLib\max30102/driver_max30102.c ****         {
 677:SensorLib\max30102/driver_max30102.c ****             handle->debug_print("max30102: read interrupt status1 failed.\n");                     
 1607              		.loc 1 677 0
 1608 0052 AB69     		ldr	r3, [r5, #24]
 1609 0054 0A48     		ldr	r0, .L103+4
 1610              	.LVL231:
 1611 0056 9847     		blx	r3
 1612              	.LVL232:
 678:SensorLib\max30102/driver_max30102.c ****            
 679:SensorLib\max30102/driver_max30102.c ****             return 1;                                                                              
 1613              		.loc 1 679 0
 1614 0058 0BE0     		b	.L96
 1615              	.LVL233:
 1616              	.L99:
 680:SensorLib\max30102/driver_max30102.c ****         }
 681:SensorLib\max30102/driver_max30102.c ****         *enable = (max30102_bool_t)((prev >> status) & 0x01);                                      
 1617              		.loc 1 681 0
 1618 005a 9DF80710 		ldrb	r1, [sp, #7]	@ zero_extendqisi2
 1619 005e 3141     		asrs	r1, r1, r6
 1620 0060 01F00101 		and	r1, r1, #1
 1621 0064 88F80010 		strb	r1, [r8]
 682:SensorLib\max30102/driver_max30102.c ****     
 683:SensorLib\max30102/driver_max30102.c ****         return 0;                                                                                  
 1622              		.loc 1 683 0
 1623 0068 0024     		movs	r4, #0
 1624 006a 02E0     		b	.L96
 1625              	.LVL234:
 1626              	.L100:
ARM GAS  C:\Users\CHRONI~1\AppData\Local\Temp\cc7oUGua.s 			page 42


 652:SensorLib\max30102/driver_max30102.c ****     }
 1627              		.loc 1 652 0
 1628 006c 0224     		movs	r4, #2
 1629 006e 00E0     		b	.L96
 1630              	.L101:
 656:SensorLib\max30102/driver_max30102.c ****     }
 1631              		.loc 1 656 0
 1632 0070 0324     		movs	r4, #3
 1633              	.LVL235:
 1634              	.L96:
 684:SensorLib\max30102/driver_max30102.c ****     }
 685:SensorLib\max30102/driver_max30102.c **** }
 1635              		.loc 1 685 0
 1636 0072 2046     		mov	r0, r4
 1637 0074 02B0     		add	sp, sp, #8
 1638              		.cfi_def_cfa_offset 24
 1639              		@ sp needed
 1640 0076 BDE8F081 		pop	{r4, r5, r6, r7, r8, pc}
 1641              	.L104:
 1642 007a 00BF     		.align	2
 1643              	.L103:
 1644 007c B8060000 		.word	.LC41
 1645 0080 8C060000 		.word	.LC40
 1646              		.cfi_endproc
 1647              	.LFE6:
 1648              		.size	max30102_get_interrupt_status, .-max30102_get_interrupt_status
 1649              		.section	.text.max30102_set_interrupt,"ax",%progbits
 1650              		.align	2
 1651              		.global	max30102_set_interrupt
 1652              		.thumb
 1653              		.thumb_func
 1654              		.type	max30102_set_interrupt, %function
 1655              	max30102_set_interrupt:
 1656              	.LFB7:
 686:SensorLib\max30102/driver_max30102.c **** 
 687:SensorLib\max30102/driver_max30102.c **** /**
 688:SensorLib\max30102/driver_max30102.c ****  * @brief     set the interrupt bool
 689:SensorLib\max30102/driver_max30102.c ****  * @param[in] *handle points to a max30102 handle structure
 690:SensorLib\max30102/driver_max30102.c ****  * @param[in] type is the interrupt type
 691:SensorLib\max30102/driver_max30102.c ****  * @param[in] enable is a bool value
 692:SensorLib\max30102/driver_max30102.c ****  * @return    status code
 693:SensorLib\max30102/driver_max30102.c ****  *            - 0 success
 694:SensorLib\max30102/driver_max30102.c ****  *            - 1 set interrupt failed
 695:SensorLib\max30102/driver_max30102.c ****  *            - 2 handle is NULL
 696:SensorLib\max30102/driver_max30102.c ****  *            - 3 handle is not initialized
 697:SensorLib\max30102/driver_max30102.c ****  * @note      none
 698:SensorLib\max30102/driver_max30102.c ****  */
 699:SensorLib\max30102/driver_max30102.c **** uint8_t max30102_set_interrupt(max30102_handle_t *handle, max30102_interrupt_t type, max30102_bool_
 700:SensorLib\max30102/driver_max30102.c **** {
 1657              		.loc 1 700 0
 1658              		.cfi_startproc
 1659              		@ args = 0, pretend = 0, frame = 8
 1660              		@ frame_needed = 0, uses_anonymous_args = 0
 1661              	.LVL236:
 1662 0000 2DE9F041 		push	{r4, r5, r6, r7, r8, lr}
 1663              		.cfi_def_cfa_offset 24
 1664              		.cfi_offset 4, -24
ARM GAS  C:\Users\CHRONI~1\AppData\Local\Temp\cc7oUGua.s 			page 43


 1665              		.cfi_offset 5, -20
 1666              		.cfi_offset 6, -16
 1667              		.cfi_offset 7, -12
 1668              		.cfi_offset 8, -8
 1669              		.cfi_offset 14, -4
 1670 0004 82B0     		sub	sp, sp, #8
 1671              		.cfi_def_cfa_offset 32
 701:SensorLib\max30102/driver_max30102.c ****     uint8_t res;
 702:SensorLib\max30102/driver_max30102.c ****     uint8_t prev;
 703:SensorLib\max30102/driver_max30102.c ****     
 704:SensorLib\max30102/driver_max30102.c ****     if (handle == NULL)                                                                            
 1672              		.loc 1 704 0
 1673 0006 0028     		cmp	r0, #0
 1674 0008 4DD0     		beq	.L110
 705:SensorLib\max30102/driver_max30102.c ****     {
 706:SensorLib\max30102/driver_max30102.c ****         return 2;                                                                                  
 707:SensorLib\max30102/driver_max30102.c ****     }
 708:SensorLib\max30102/driver_max30102.c ****     if (handle->inited != 1)                                                                       
 1675              		.loc 1 708 0
 1676 000a 047F     		ldrb	r4, [r0, #28]	@ zero_extendqisi2
 1677 000c 012C     		cmp	r4, #1
 1678 000e 4CD1     		bne	.L111
 1679 0010 0546     		mov	r5, r0
 1680 0012 9046     		mov	r8, r2
 1681 0014 0E46     		mov	r6, r1
 709:SensorLib\max30102/driver_max30102.c ****     {
 710:SensorLib\max30102/driver_max30102.c ****         return 3;                                                                                  
 711:SensorLib\max30102/driver_max30102.c ****     }
 712:SensorLib\max30102/driver_max30102.c **** 
 713:SensorLib\max30102/driver_max30102.c ****     if (type == MAX30102_INTERRUPT_DIE_TEMP_RDY_EN)                                                
 1682              		.loc 1 713 0
 1683 0016 0129     		cmp	r1, #1
 1684 0018 22D1     		bne	.L107
 714:SensorLib\max30102/driver_max30102.c ****     {
 715:SensorLib\max30102/driver_max30102.c ****         res = handle->iic_read(MAX30102_ADDRESS, MAX30102_REG_INTERRUPT_ENABLE_2, (uint8_t *)&prev,
 1685              		.loc 1 715 0
 1686 001a 8768     		ldr	r7, [r0, #8]
 1687 001c 0123     		movs	r3, #1
 1688 001e 0DF10702 		add	r2, sp, #7
 1689              	.LVL237:
 1690 0022 0321     		movs	r1, #3
 1691              	.LVL238:
 1692 0024 5720     		movs	r0, #87
 1693              	.LVL239:
 1694 0026 B847     		blx	r7
 1695              	.LVL240:
 716:SensorLib\max30102/driver_max30102.c ****         if (res != 0)                                                                              
 1696              		.loc 1 716 0
 1697 0028 18B1     		cbz	r0, .L108
 717:SensorLib\max30102/driver_max30102.c ****         {
 718:SensorLib\max30102/driver_max30102.c ****             handle->debug_print("max30102: read interrupt enable2 failed.\n");                     
 1698              		.loc 1 718 0
 1699 002a AB69     		ldr	r3, [r5, #24]
 1700 002c 2348     		ldr	r0, .L115
 1701              	.LVL241:
 1702 002e 9847     		blx	r3
 1703              	.LVL242:
ARM GAS  C:\Users\CHRONI~1\AppData\Local\Temp\cc7oUGua.s 			page 44


 719:SensorLib\max30102/driver_max30102.c ****            
 720:SensorLib\max30102/driver_max30102.c ****             return 1;                                                                              
 1704              		.loc 1 720 0
 1705 0030 40E0     		b	.L106
 1706              	.LVL243:
 1707              	.L108:
 721:SensorLib\max30102/driver_max30102.c ****         }
 722:SensorLib\max30102/driver_max30102.c ****         prev &= ~(1 << type);                                                                      
 1708              		.loc 1 722 0
 1709 0032 0123     		movs	r3, #1
 1710 0034 03FA06F0 		lsl	r0, r3, r6
 1711              	.LVL244:
 1712 0038 9DF80720 		ldrb	r2, [sp, #7]	@ zero_extendqisi2
 1713 003c 22EA0000 		bic	r0, r2, r0
 1714 0040 40B2     		sxtb	r0, r0
 723:SensorLib\max30102/driver_max30102.c ****         prev |= enable << type;                                                                    
 1715              		.loc 1 723 0
 1716 0042 08FA06F6 		lsl	r6, r8, r6
 1717 0046 3043     		orrs	r0, r0, r6
 1718 0048 02AA     		add	r2, sp, #8
 1719 004a 02F8010D 		strb	r0, [r2, #-1]!
 724:SensorLib\max30102/driver_max30102.c ****         res = handle->iic_write(MAX30102_ADDRESS, MAX30102_REG_INTERRUPT_ENABLE_2, (uint8_t *)&prev
 1720              		.loc 1 724 0
 1721 004e EE68     		ldr	r6, [r5, #12]
 1722 0050 0321     		movs	r1, #3
 1723 0052 5720     		movs	r0, #87
 1724 0054 B047     		blx	r6
 1725              	.LVL245:
 725:SensorLib\max30102/driver_max30102.c ****         if (res != 0)                                                                              
 1726              		.loc 1 725 0
 1727 0056 50B3     		cbz	r0, .L112
 726:SensorLib\max30102/driver_max30102.c ****         {
 727:SensorLib\max30102/driver_max30102.c ****             handle->debug_print("max30102: write interrupt enable2 failed.\n");                    
 1728              		.loc 1 727 0
 1729 0058 AB69     		ldr	r3, [r5, #24]
 1730 005a 1948     		ldr	r0, .L115+4
 1731              	.LVL246:
 1732 005c 9847     		blx	r3
 1733              	.LVL247:
 728:SensorLib\max30102/driver_max30102.c ****            
 729:SensorLib\max30102/driver_max30102.c ****             return 1;                                                                              
 1734              		.loc 1 729 0
 1735 005e 29E0     		b	.L106
 1736              	.LVL248:
 1737              	.L107:
 730:SensorLib\max30102/driver_max30102.c ****         }
 731:SensorLib\max30102/driver_max30102.c ****         
 732:SensorLib\max30102/driver_max30102.c ****         return 0;                                                                                  
 733:SensorLib\max30102/driver_max30102.c ****     }
 734:SensorLib\max30102/driver_max30102.c ****     else
 735:SensorLib\max30102/driver_max30102.c ****     {
 736:SensorLib\max30102/driver_max30102.c ****         res = handle->iic_read(MAX30102_ADDRESS, MAX30102_REG_INTERRUPT_ENABLE_1, (uint8_t *)&prev,
 1738              		.loc 1 736 0
 1739 0060 8768     		ldr	r7, [r0, #8]
 1740 0062 0123     		movs	r3, #1
 1741 0064 0DF10702 		add	r2, sp, #7
 1742              	.LVL249:
ARM GAS  C:\Users\CHRONI~1\AppData\Local\Temp\cc7oUGua.s 			page 45


 1743 0068 0221     		movs	r1, #2
 1744              	.LVL250:
 1745 006a 5720     		movs	r0, #87
 1746              	.LVL251:
 1747 006c B847     		blx	r7
 1748              	.LVL252:
 737:SensorLib\max30102/driver_max30102.c ****         if (res != 0)                                                                              
 1749              		.loc 1 737 0
 1750 006e 18B1     		cbz	r0, .L109
 738:SensorLib\max30102/driver_max30102.c ****         {
 739:SensorLib\max30102/driver_max30102.c ****             handle->debug_print("max30102: read interrupt enable1 failed.\n");                     
 1751              		.loc 1 739 0
 1752 0070 AB69     		ldr	r3, [r5, #24]
 1753 0072 1448     		ldr	r0, .L115+8
 1754              	.LVL253:
 1755 0074 9847     		blx	r3
 1756              	.LVL254:
 740:SensorLib\max30102/driver_max30102.c ****            
 741:SensorLib\max30102/driver_max30102.c ****             return 1;                                                                              
 1757              		.loc 1 741 0
 1758 0076 1DE0     		b	.L106
 1759              	.LVL255:
 1760              	.L109:
 742:SensorLib\max30102/driver_max30102.c ****         }
 743:SensorLib\max30102/driver_max30102.c ****         prev &= ~(1 << type);                                                                      
 1761              		.loc 1 743 0
 1762 0078 0123     		movs	r3, #1
 1763 007a 03FA06F1 		lsl	r1, r3, r6
 1764 007e 9DF80720 		ldrb	r2, [sp, #7]	@ zero_extendqisi2
 1765 0082 22EA0101 		bic	r1, r2, r1
 1766 0086 49B2     		sxtb	r1, r1
 744:SensorLib\max30102/driver_max30102.c ****         prev |= enable << type;                                                                    
 1767              		.loc 1 744 0
 1768 0088 08FA06F2 		lsl	r2, r8, r6
 1769 008c 1143     		orrs	r1, r1, r2
 1770 008e 02AA     		add	r2, sp, #8
 1771 0090 02F8011D 		strb	r1, [r2, #-1]!
 745:SensorLib\max30102/driver_max30102.c ****         res = handle->iic_write(MAX30102_ADDRESS, MAX30102_REG_INTERRUPT_ENABLE_1, (uint8_t *)&prev
 1772              		.loc 1 745 0
 1773 0094 EE68     		ldr	r6, [r5, #12]
 1774 0096 0221     		movs	r1, #2
 1775 0098 5720     		movs	r0, #87
 1776              	.LVL256:
 1777 009a B047     		blx	r6
 1778              	.LVL257:
 746:SensorLib\max30102/driver_max30102.c ****         if (res != 0)                                                                              
 1779              		.loc 1 746 0
 1780 009c 48B1     		cbz	r0, .L113
 747:SensorLib\max30102/driver_max30102.c ****         {
 748:SensorLib\max30102/driver_max30102.c ****             handle->debug_print("max30102: write interrupt enable1 failed.\n");                    
 1781              		.loc 1 748 0
 1782 009e AB69     		ldr	r3, [r5, #24]
 1783 00a0 0948     		ldr	r0, .L115+12
 1784              	.LVL258:
 1785 00a2 9847     		blx	r3
 1786              	.LVL259:
 749:SensorLib\max30102/driver_max30102.c ****            
ARM GAS  C:\Users\CHRONI~1\AppData\Local\Temp\cc7oUGua.s 			page 46


 750:SensorLib\max30102/driver_max30102.c ****             return 1;                                                                              
 1787              		.loc 1 750 0
 1788 00a4 06E0     		b	.L106
 1789              	.LVL260:
 1790              	.L110:
 706:SensorLib\max30102/driver_max30102.c ****     }
 1791              		.loc 1 706 0
 1792 00a6 0224     		movs	r4, #2
 1793 00a8 04E0     		b	.L106
 1794              	.L111:
 710:SensorLib\max30102/driver_max30102.c ****     }
 1795              		.loc 1 710 0
 1796 00aa 0324     		movs	r4, #3
 1797 00ac 02E0     		b	.L106
 1798              	.LVL261:
 1799              	.L112:
 732:SensorLib\max30102/driver_max30102.c ****     }
 1800              		.loc 1 732 0
 1801 00ae 0024     		movs	r4, #0
 1802 00b0 00E0     		b	.L106
 1803              	.L113:
 751:SensorLib\max30102/driver_max30102.c ****         }
 752:SensorLib\max30102/driver_max30102.c ****     
 753:SensorLib\max30102/driver_max30102.c ****         return 0;                                                                                  
 1804              		.loc 1 753 0
 1805 00b2 0024     		movs	r4, #0
 1806              	.LVL262:
 1807              	.L106:
 754:SensorLib\max30102/driver_max30102.c ****     }
 755:SensorLib\max30102/driver_max30102.c **** }
 1808              		.loc 1 755 0
 1809 00b4 2046     		mov	r0, r4
 1810 00b6 02B0     		add	sp, sp, #8
 1811              		.cfi_def_cfa_offset 24
 1812              		@ sp needed
 1813 00b8 BDE8F081 		pop	{r4, r5, r6, r7, r8, pc}
 1814              	.L116:
 1815              		.align	2
 1816              	.L115:
 1817 00bc 44080000 		.word	.LC51
 1818 00c0 70080000 		.word	.LC52
 1819 00c4 0C090000 		.word	.LC56
 1820 00c8 38090000 		.word	.LC57
 1821              		.cfi_endproc
 1822              	.LFE7:
 1823              		.size	max30102_set_interrupt, .-max30102_set_interrupt
 1824              		.section	.text.max30102_get_interrupt,"ax",%progbits
 1825              		.align	2
 1826              		.global	max30102_get_interrupt
 1827              		.thumb
 1828              		.thumb_func
 1829              		.type	max30102_get_interrupt, %function
 1830              	max30102_get_interrupt:
 1831              	.LFB8:
 756:SensorLib\max30102/driver_max30102.c **** 
 757:SensorLib\max30102/driver_max30102.c **** /**
 758:SensorLib\max30102/driver_max30102.c ****  * @brief      get the interrupt bool
ARM GAS  C:\Users\CHRONI~1\AppData\Local\Temp\cc7oUGua.s 			page 47


 759:SensorLib\max30102/driver_max30102.c ****  * @param[in]  *handle points to a max30102 handle structure
 760:SensorLib\max30102/driver_max30102.c ****  * @param[in]  type is the interrupt type
 761:SensorLib\max30102/driver_max30102.c ****  * @param[out] *enable points to a bool value buffer
 762:SensorLib\max30102/driver_max30102.c ****  * @return     status code
 763:SensorLib\max30102/driver_max30102.c ****  *             - 0 success
 764:SensorLib\max30102/driver_max30102.c ****  *             - 1 get interrupt failed
 765:SensorLib\max30102/driver_max30102.c ****  *             - 2 handle is NULL
 766:SensorLib\max30102/driver_max30102.c ****  *             - 3 handle is not initialized
 767:SensorLib\max30102/driver_max30102.c ****  * @note       none
 768:SensorLib\max30102/driver_max30102.c ****  */
 769:SensorLib\max30102/driver_max30102.c **** uint8_t max30102_get_interrupt(max30102_handle_t *handle, max30102_interrupt_t type, max30102_bool_
 770:SensorLib\max30102/driver_max30102.c **** {
 1832              		.loc 1 770 0
 1833              		.cfi_startproc
 1834              		@ args = 0, pretend = 0, frame = 8
 1835              		@ frame_needed = 0, uses_anonymous_args = 0
 1836              	.LVL263:
 1837 0000 2DE9F041 		push	{r4, r5, r6, r7, r8, lr}
 1838              		.cfi_def_cfa_offset 24
 1839              		.cfi_offset 4, -24
 1840              		.cfi_offset 5, -20
 1841              		.cfi_offset 6, -16
 1842              		.cfi_offset 7, -12
 1843              		.cfi_offset 8, -8
 1844              		.cfi_offset 14, -4
 1845 0004 82B0     		sub	sp, sp, #8
 1846              		.cfi_def_cfa_offset 32
 771:SensorLib\max30102/driver_max30102.c ****     uint8_t res;
 772:SensorLib\max30102/driver_max30102.c ****     uint8_t prev;
 773:SensorLib\max30102/driver_max30102.c ****     
 774:SensorLib\max30102/driver_max30102.c ****     if (handle == NULL)                                                                            
 1847              		.loc 1 774 0
 1848 0006 88B3     		cbz	r0, .L122
 775:SensorLib\max30102/driver_max30102.c ****     {
 776:SensorLib\max30102/driver_max30102.c ****         return 2;                                                                                  
 777:SensorLib\max30102/driver_max30102.c ****     }
 778:SensorLib\max30102/driver_max30102.c ****     if (handle->inited != 1)                                                                       
 1849              		.loc 1 778 0
 1850 0008 047F     		ldrb	r4, [r0, #28]	@ zero_extendqisi2
 1851 000a 012C     		cmp	r4, #1
 1852 000c 30D1     		bne	.L123
 1853 000e 0546     		mov	r5, r0
 1854 0010 9046     		mov	r8, r2
 1855 0012 0E46     		mov	r6, r1
 779:SensorLib\max30102/driver_max30102.c ****     {
 780:SensorLib\max30102/driver_max30102.c ****         return 3;                                                                                  
 781:SensorLib\max30102/driver_max30102.c ****     }
 782:SensorLib\max30102/driver_max30102.c **** 
 783:SensorLib\max30102/driver_max30102.c ****     if (type == MAX30102_INTERRUPT_DIE_TEMP_RDY_EN)                                                
 1856              		.loc 1 783 0
 1857 0014 0129     		cmp	r1, #1
 1858 0016 14D1     		bne	.L119
 784:SensorLib\max30102/driver_max30102.c ****     {
 785:SensorLib\max30102/driver_max30102.c ****         res = handle->iic_read(MAX30102_ADDRESS, MAX30102_REG_INTERRUPT_ENABLE_2, (uint8_t *)&prev,
 1859              		.loc 1 785 0
 1860 0018 8768     		ldr	r7, [r0, #8]
 1861 001a 0123     		movs	r3, #1
ARM GAS  C:\Users\CHRONI~1\AppData\Local\Temp\cc7oUGua.s 			page 48


 1862 001c 0DF10702 		add	r2, sp, #7
 1863              	.LVL264:
 1864 0020 0321     		movs	r1, #3
 1865              	.LVL265:
 1866 0022 5720     		movs	r0, #87
 1867              	.LVL266:
 1868 0024 B847     		blx	r7
 1869              	.LVL267:
 786:SensorLib\max30102/driver_max30102.c ****         if (res != 0)                                                                              
 1870              		.loc 1 786 0
 1871 0026 18B1     		cbz	r0, .L120
 787:SensorLib\max30102/driver_max30102.c ****         {
 788:SensorLib\max30102/driver_max30102.c ****             handle->debug_print("max30102: read interrupt enable2 failed.\n");                     
 1872              		.loc 1 788 0
 1873 0028 AB69     		ldr	r3, [r5, #24]
 1874 002a 1448     		ldr	r0, .L125
 1875              	.LVL268:
 1876 002c 9847     		blx	r3
 1877              	.LVL269:
 789:SensorLib\max30102/driver_max30102.c ****            
 790:SensorLib\max30102/driver_max30102.c ****             return 1;                                                                              
 1878              		.loc 1 790 0
 1879 002e 20E0     		b	.L118
 1880              	.LVL270:
 1881              	.L120:
 791:SensorLib\max30102/driver_max30102.c ****         }
 792:SensorLib\max30102/driver_max30102.c ****         *enable = (max30102_bool_t)((prev >> type) & 0x01);                                        
 1882              		.loc 1 792 0
 1883 0030 9DF80710 		ldrb	r1, [sp, #7]	@ zero_extendqisi2
 1884 0034 3141     		asrs	r1, r1, r6
 1885 0036 01F00101 		and	r1, r1, #1
 1886 003a 88F80010 		strb	r1, [r8]
 793:SensorLib\max30102/driver_max30102.c ****     
 794:SensorLib\max30102/driver_max30102.c ****         return 0;                                                                                  
 1887              		.loc 1 794 0
 1888 003e 0024     		movs	r4, #0
 1889 0040 17E0     		b	.L118
 1890              	.LVL271:
 1891              	.L119:
 795:SensorLib\max30102/driver_max30102.c ****     }
 796:SensorLib\max30102/driver_max30102.c ****     else
 797:SensorLib\max30102/driver_max30102.c ****     {
 798:SensorLib\max30102/driver_max30102.c ****         res = handle->iic_read(MAX30102_ADDRESS, MAX30102_REG_INTERRUPT_ENABLE_1, (uint8_t *)&prev,
 1892              		.loc 1 798 0
 1893 0042 8768     		ldr	r7, [r0, #8]
 1894 0044 0123     		movs	r3, #1
 1895 0046 0DF10702 		add	r2, sp, #7
 1896              	.LVL272:
 1897 004a 0221     		movs	r1, #2
 1898              	.LVL273:
 1899 004c 5720     		movs	r0, #87
 1900              	.LVL274:
 1901 004e B847     		blx	r7
 1902              	.LVL275:
 799:SensorLib\max30102/driver_max30102.c ****         if (res != 0)                                                                              
 1903              		.loc 1 799 0
 1904 0050 18B1     		cbz	r0, .L121
ARM GAS  C:\Users\CHRONI~1\AppData\Local\Temp\cc7oUGua.s 			page 49


 800:SensorLib\max30102/driver_max30102.c ****         {
 801:SensorLib\max30102/driver_max30102.c ****             handle->debug_print("max30102: read interrupt enable1 failed.\n");                     
 1905              		.loc 1 801 0
 1906 0052 AB69     		ldr	r3, [r5, #24]
 1907 0054 0A48     		ldr	r0, .L125+4
 1908              	.LVL276:
 1909 0056 9847     		blx	r3
 1910              	.LVL277:
 802:SensorLib\max30102/driver_max30102.c ****            
 803:SensorLib\max30102/driver_max30102.c ****             return 1;                                                                              
 1911              		.loc 1 803 0
 1912 0058 0BE0     		b	.L118
 1913              	.LVL278:
 1914              	.L121:
 804:SensorLib\max30102/driver_max30102.c ****         }
 805:SensorLib\max30102/driver_max30102.c ****         *enable = (max30102_bool_t)((prev >> type) & 0x01);                                        
 1915              		.loc 1 805 0
 1916 005a 9DF80710 		ldrb	r1, [sp, #7]	@ zero_extendqisi2
 1917 005e 3141     		asrs	r1, r1, r6
 1918 0060 01F00101 		and	r1, r1, #1
 1919 0064 88F80010 		strb	r1, [r8]
 806:SensorLib\max30102/driver_max30102.c ****     
 807:SensorLib\max30102/driver_max30102.c ****         return 0;                                                                                  
 1920              		.loc 1 807 0
 1921 0068 0024     		movs	r4, #0
 1922 006a 02E0     		b	.L118
 1923              	.LVL279:
 1924              	.L122:
 776:SensorLib\max30102/driver_max30102.c ****     }
 1925              		.loc 1 776 0
 1926 006c 0224     		movs	r4, #2
 1927 006e 00E0     		b	.L118
 1928              	.L123:
 780:SensorLib\max30102/driver_max30102.c ****     }
 1929              		.loc 1 780 0
 1930 0070 0324     		movs	r4, #3
 1931              	.LVL280:
 1932              	.L118:
 808:SensorLib\max30102/driver_max30102.c ****     }
 809:SensorLib\max30102/driver_max30102.c **** }
 1933              		.loc 1 809 0
 1934 0072 2046     		mov	r0, r4
 1935 0074 02B0     		add	sp, sp, #8
 1936              		.cfi_def_cfa_offset 24
 1937              		@ sp needed
 1938 0076 BDE8F081 		pop	{r4, r5, r6, r7, r8, pc}
 1939              	.L126:
 1940 007a 00BF     		.align	2
 1941              	.L125:
 1942 007c 44080000 		.word	.LC51
 1943 0080 0C090000 		.word	.LC56
 1944              		.cfi_endproc
 1945              	.LFE8:
 1946              		.size	max30102_get_interrupt, .-max30102_get_interrupt
 1947              		.section	.text.max30102_set_fifo_write_pointer,"ax",%progbits
 1948              		.align	2
 1949              		.global	max30102_set_fifo_write_pointer
ARM GAS  C:\Users\CHRONI~1\AppData\Local\Temp\cc7oUGua.s 			page 50


 1950              		.thumb
 1951              		.thumb_func
 1952              		.type	max30102_set_fifo_write_pointer, %function
 1953              	max30102_set_fifo_write_pointer:
 1954              	.LFB9:
 810:SensorLib\max30102/driver_max30102.c **** 
 811:SensorLib\max30102/driver_max30102.c **** /**
 812:SensorLib\max30102/driver_max30102.c ****  * @brief     set the fifo write pointer
 813:SensorLib\max30102/driver_max30102.c ****  * @param[in] *handle points to a max30102 handle structure
 814:SensorLib\max30102/driver_max30102.c ****  * @param[in] pointer is the written pointer
 815:SensorLib\max30102/driver_max30102.c ****  * @return    status code
 816:SensorLib\max30102/driver_max30102.c ****  *            - 0 success
 817:SensorLib\max30102/driver_max30102.c ****  *            - 1 set fifo write pointer failed
 818:SensorLib\max30102/driver_max30102.c ****  *            - 2 handle is NULL
 819:SensorLib\max30102/driver_max30102.c ****  *            - 3 handle is not initialized
 820:SensorLib\max30102/driver_max30102.c ****  *            - 4 pointer can't be over 0x1F
 821:SensorLib\max30102/driver_max30102.c ****  * @note      pointer <= 0x1F
 822:SensorLib\max30102/driver_max30102.c ****  */
 823:SensorLib\max30102/driver_max30102.c **** uint8_t max30102_set_fifo_write_pointer(max30102_handle_t *handle, uint8_t pointer)
 824:SensorLib\max30102/driver_max30102.c **** {
 1955              		.loc 1 824 0
 1956              		.cfi_startproc
 1957              		@ args = 0, pretend = 0, frame = 8
 1958              		@ frame_needed = 0, uses_anonymous_args = 0
 1959              	.LVL281:
 1960 0000 70B5     		push	{r4, r5, r6, lr}
 1961              		.cfi_def_cfa_offset 16
 1962              		.cfi_offset 4, -16
 1963              		.cfi_offset 5, -12
 1964              		.cfi_offset 6, -8
 1965              		.cfi_offset 14, -4
 1966 0002 82B0     		sub	sp, sp, #8
 1967              		.cfi_def_cfa_offset 24
 825:SensorLib\max30102/driver_max30102.c ****     uint8_t res;
 826:SensorLib\max30102/driver_max30102.c ****     uint8_t prev;
 827:SensorLib\max30102/driver_max30102.c ****     
 828:SensorLib\max30102/driver_max30102.c ****     if (handle == NULL)                                                                            
 1968              		.loc 1 828 0
 1969 0004 C8B1     		cbz	r0, .L130
 829:SensorLib\max30102/driver_max30102.c ****     {
 830:SensorLib\max30102/driver_max30102.c ****         return 2;                                                                                  
 831:SensorLib\max30102/driver_max30102.c ****     }
 832:SensorLib\max30102/driver_max30102.c ****     if (handle->inited != 1)                                                                       
 1970              		.loc 1 832 0
 1971 0006 047F     		ldrb	r4, [r0, #28]	@ zero_extendqisi2
 1972 0008 012C     		cmp	r4, #1
 1973 000a 18D1     		bne	.L131
 1974 000c 0546     		mov	r5, r0
 833:SensorLib\max30102/driver_max30102.c ****     {
 834:SensorLib\max30102/driver_max30102.c ****         return 3;                                                                                  
 835:SensorLib\max30102/driver_max30102.c ****     }
 836:SensorLib\max30102/driver_max30102.c ****     if (pointer > 0x1F)                                                                            
 1975              		.loc 1 836 0
 1976 000e 1F29     		cmp	r1, #31
 1977 0010 04D9     		bls	.L129
 837:SensorLib\max30102/driver_max30102.c ****     {
 838:SensorLib\max30102/driver_max30102.c ****         handle->debug_print("max30102: pointer can't be over 0x1F.\n");                            
ARM GAS  C:\Users\CHRONI~1\AppData\Local\Temp\cc7oUGua.s 			page 51


 1978              		.loc 1 838 0
 1979 0012 8369     		ldr	r3, [r0, #24]
 1980 0014 0D48     		ldr	r0, .L134
 1981              	.LVL282:
 1982 0016 9847     		blx	r3
 1983              	.LVL283:
 839:SensorLib\max30102/driver_max30102.c ****        
 840:SensorLib\max30102/driver_max30102.c ****         return 4;                                                                                  
 1984              		.loc 1 840 0
 1985 0018 0424     		movs	r4, #4
 1986 001a 13E0     		b	.L128
 1987              	.LVL284:
 1988              	.L129:
 841:SensorLib\max30102/driver_max30102.c ****     }
 842:SensorLib\max30102/driver_max30102.c **** 
 843:SensorLib\max30102/driver_max30102.c ****     prev = pointer & 0x1F;                                                                         
 1989              		.loc 1 843 0
 1990 001c 01F01F01 		and	r1, r1, #31
 1991              	.LVL285:
 1992 0020 02AA     		add	r2, sp, #8
 1993 0022 02F8011D 		strb	r1, [r2, #-1]!
 844:SensorLib\max30102/driver_max30102.c ****     res = handle->iic_write(MAX30102_ADDRESS, MAX30102_REG_FIFO_WRITE_POINTER, (uint8_t *)&prev, 1)
 1994              		.loc 1 844 0
 1995 0026 C668     		ldr	r6, [r0, #12]
 1996 0028 0123     		movs	r3, #1
 1997 002a 0421     		movs	r1, #4
 1998 002c 5720     		movs	r0, #87
 1999              	.LVL286:
 2000 002e B047     		blx	r6
 2001              	.LVL287:
 845:SensorLib\max30102/driver_max30102.c ****     if (res != 0)                                                                                  
 2002              		.loc 1 845 0
 2003 0030 38B1     		cbz	r0, .L132
 846:SensorLib\max30102/driver_max30102.c ****     {
 847:SensorLib\max30102/driver_max30102.c ****         handle->debug_print("max30102: write fifo write pointer failed.\n");                       
 2004              		.loc 1 847 0
 2005 0032 AB69     		ldr	r3, [r5, #24]
 2006 0034 0648     		ldr	r0, .L134+4
 2007              	.LVL288:
 2008 0036 9847     		blx	r3
 2009              	.LVL289:
 848:SensorLib\max30102/driver_max30102.c ****        
 849:SensorLib\max30102/driver_max30102.c ****         return 1;                                                                                  
 2010              		.loc 1 849 0
 2011 0038 04E0     		b	.L128
 2012              	.LVL290:
 2013              	.L130:
 830:SensorLib\max30102/driver_max30102.c ****     }
 2014              		.loc 1 830 0
 2015 003a 0224     		movs	r4, #2
 2016 003c 02E0     		b	.L128
 2017              	.L131:
 834:SensorLib\max30102/driver_max30102.c ****     }
 2018              		.loc 1 834 0
 2019 003e 0324     		movs	r4, #3
 2020 0040 00E0     		b	.L128
 2021              	.LVL291:
ARM GAS  C:\Users\CHRONI~1\AppData\Local\Temp\cc7oUGua.s 			page 52


 2022              	.L132:
 850:SensorLib\max30102/driver_max30102.c ****     }
 851:SensorLib\max30102/driver_max30102.c ****     
 852:SensorLib\max30102/driver_max30102.c ****     return 0;                                                                                      
 2023              		.loc 1 852 0
 2024 0042 0024     		movs	r4, #0
 2025              	.LVL292:
 2026              	.L128:
 853:SensorLib\max30102/driver_max30102.c **** }
 2027              		.loc 1 853 0
 2028 0044 2046     		mov	r0, r4
 2029 0046 02B0     		add	sp, sp, #8
 2030              		.cfi_def_cfa_offset 16
 2031              		@ sp needed
 2032 0048 70BD     		pop	{r4, r5, r6, pc}
 2033              	.L135:
 2034 004a 00BF     		.align	2
 2035              	.L134:
 2036 004c 64090000 		.word	.LC58
 2037 0050 8C090000 		.word	.LC59
 2038              		.cfi_endproc
 2039              	.LFE9:
 2040              		.size	max30102_set_fifo_write_pointer, .-max30102_set_fifo_write_pointer
 2041              		.section	.text.max30102_get_fifo_write_pointer,"ax",%progbits
 2042              		.align	2
 2043              		.global	max30102_get_fifo_write_pointer
 2044              		.thumb
 2045              		.thumb_func
 2046              		.type	max30102_get_fifo_write_pointer, %function
 2047              	max30102_get_fifo_write_pointer:
 2048              	.LFB10:
 854:SensorLib\max30102/driver_max30102.c **** 
 855:SensorLib\max30102/driver_max30102.c **** /**
 856:SensorLib\max30102/driver_max30102.c ****  * @brief      get the fifo write pointer
 857:SensorLib\max30102/driver_max30102.c ****  * @param[in]  *handle points to a max30102 handle structure
 858:SensorLib\max30102/driver_max30102.c ****  * @param[out] *pointer points to a pointer buffer
 859:SensorLib\max30102/driver_max30102.c ****  * @return     status code
 860:SensorLib\max30102/driver_max30102.c ****  *             - 0 success
 861:SensorLib\max30102/driver_max30102.c ****  *             - 1 get fifo write pointer failed
 862:SensorLib\max30102/driver_max30102.c ****  *             - 2 handle is NULL
 863:SensorLib\max30102/driver_max30102.c ****  *             - 3 handle is not initialized
 864:SensorLib\max30102/driver_max30102.c ****  * @note       none
 865:SensorLib\max30102/driver_max30102.c ****  */
 866:SensorLib\max30102/driver_max30102.c **** uint8_t max30102_get_fifo_write_pointer(max30102_handle_t *handle, uint8_t *pointer)
 867:SensorLib\max30102/driver_max30102.c **** {
 2049              		.loc 1 867 0
 2050              		.cfi_startproc
 2051              		@ args = 0, pretend = 0, frame = 8
 2052              		@ frame_needed = 0, uses_anonymous_args = 0
 2053              	.LVL293:
 2054 0000 F0B5     		push	{r4, r5, r6, r7, lr}
 2055              		.cfi_def_cfa_offset 20
 2056              		.cfi_offset 4, -20
 2057              		.cfi_offset 5, -16
 2058              		.cfi_offset 6, -12
 2059              		.cfi_offset 7, -8
 2060              		.cfi_offset 14, -4
ARM GAS  C:\Users\CHRONI~1\AppData\Local\Temp\cc7oUGua.s 			page 53


 2061 0002 83B0     		sub	sp, sp, #12
 2062              		.cfi_def_cfa_offset 32
 868:SensorLib\max30102/driver_max30102.c ****     uint8_t res;
 869:SensorLib\max30102/driver_max30102.c ****     uint8_t prev;
 870:SensorLib\max30102/driver_max30102.c ****     
 871:SensorLib\max30102/driver_max30102.c ****     if (handle == NULL)                                                                            
 2063              		.loc 1 871 0
 2064 0004 B8B1     		cbz	r0, .L139
 872:SensorLib\max30102/driver_max30102.c ****     {
 873:SensorLib\max30102/driver_max30102.c ****         return 2;                                                                                  
 874:SensorLib\max30102/driver_max30102.c ****     }
 875:SensorLib\max30102/driver_max30102.c ****     if (handle->inited != 1)                                                                       
 2065              		.loc 1 875 0
 2066 0006 047F     		ldrb	r4, [r0, #28]	@ zero_extendqisi2
 2067 0008 012C     		cmp	r4, #1
 2068 000a 16D1     		bne	.L140
 2069 000c 0546     		mov	r5, r0
 2070 000e 0E46     		mov	r6, r1
 876:SensorLib\max30102/driver_max30102.c ****     {
 877:SensorLib\max30102/driver_max30102.c ****         return 3;                                                                                  
 878:SensorLib\max30102/driver_max30102.c ****     }
 879:SensorLib\max30102/driver_max30102.c **** 
 880:SensorLib\max30102/driver_max30102.c ****     res = handle->iic_read(MAX30102_ADDRESS, MAX30102_REG_FIFO_WRITE_POINTER, (uint8_t *)&prev, 1);
 2071              		.loc 1 880 0
 2072 0010 8768     		ldr	r7, [r0, #8]
 2073 0012 0123     		movs	r3, #1
 2074 0014 0DF10702 		add	r2, sp, #7
 2075 0018 0421     		movs	r1, #4
 2076              	.LVL294:
 2077 001a 5720     		movs	r0, #87
 2078              	.LVL295:
 2079 001c B847     		blx	r7
 2080              	.LVL296:
 881:SensorLib\max30102/driver_max30102.c ****     if (res != 0)                                                                                  
 2081              		.loc 1 881 0
 2082 001e 18B1     		cbz	r0, .L138
 882:SensorLib\max30102/driver_max30102.c ****     {
 883:SensorLib\max30102/driver_max30102.c ****         handle->debug_print("max30102: read fifo write pointer failed.\n");                        
 2083              		.loc 1 883 0
 2084 0020 AB69     		ldr	r3, [r5, #24]
 2085 0022 0848     		ldr	r0, .L142
 2086              	.LVL297:
 2087 0024 9847     		blx	r3
 2088              	.LVL298:
 884:SensorLib\max30102/driver_max30102.c ****        
 885:SensorLib\max30102/driver_max30102.c ****         return 1;                                                                                  
 2089              		.loc 1 885 0
 2090 0026 09E0     		b	.L137
 2091              	.LVL299:
 2092              	.L138:
 886:SensorLib\max30102/driver_max30102.c ****     }
 887:SensorLib\max30102/driver_max30102.c ****     *pointer = prev & 0x1F;                                                                        
 2093              		.loc 1 887 0
 2094 0028 9DF80730 		ldrb	r3, [sp, #7]	@ zero_extendqisi2
 2095 002c 03F01F03 		and	r3, r3, #31
 2096 0030 3370     		strb	r3, [r6]
 888:SensorLib\max30102/driver_max30102.c ****     
ARM GAS  C:\Users\CHRONI~1\AppData\Local\Temp\cc7oUGua.s 			page 54


 889:SensorLib\max30102/driver_max30102.c ****     return 0;                                                                                      
 2097              		.loc 1 889 0
 2098 0032 0024     		movs	r4, #0
 2099 0034 02E0     		b	.L137
 2100              	.LVL300:
 2101              	.L139:
 873:SensorLib\max30102/driver_max30102.c ****     }
 2102              		.loc 1 873 0
 2103 0036 0224     		movs	r4, #2
 2104 0038 00E0     		b	.L137
 2105              	.L140:
 877:SensorLib\max30102/driver_max30102.c ****     }
 2106              		.loc 1 877 0
 2107 003a 0324     		movs	r4, #3
 2108              	.LVL301:
 2109              	.L137:
 890:SensorLib\max30102/driver_max30102.c **** }
 2110              		.loc 1 890 0
 2111 003c 2046     		mov	r0, r4
 2112 003e 03B0     		add	sp, sp, #12
 2113              		.cfi_def_cfa_offset 20
 2114              		@ sp needed
 2115 0040 F0BD     		pop	{r4, r5, r6, r7, pc}
 2116              	.L143:
 2117 0042 00BF     		.align	2
 2118              	.L142:
 2119 0044 B8090000 		.word	.LC60
 2120              		.cfi_endproc
 2121              	.LFE10:
 2122              		.size	max30102_get_fifo_write_pointer, .-max30102_get_fifo_write_pointer
 2123              		.section	.text.max30102_set_fifo_overflow_counter,"ax",%progbits
 2124              		.align	2
 2125              		.global	max30102_set_fifo_overflow_counter
 2126              		.thumb
 2127              		.thumb_func
 2128              		.type	max30102_set_fifo_overflow_counter, %function
 2129              	max30102_set_fifo_overflow_counter:
 2130              	.LFB11:
 891:SensorLib\max30102/driver_max30102.c **** 
 892:SensorLib\max30102/driver_max30102.c **** /**
 893:SensorLib\max30102/driver_max30102.c ****  * @brief     set the fifo overflow counter
 894:SensorLib\max30102/driver_max30102.c ****  * @param[in] *handle points to a max30102 handle structure
 895:SensorLib\max30102/driver_max30102.c ****  * @param[in] counter is the overflow counter
 896:SensorLib\max30102/driver_max30102.c ****  * @return    status code
 897:SensorLib\max30102/driver_max30102.c ****  *            - 0 success
 898:SensorLib\max30102/driver_max30102.c ****  *            - 1 set fifo overflow counter failed
 899:SensorLib\max30102/driver_max30102.c ****  *            - 2 handle is NULL
 900:SensorLib\max30102/driver_max30102.c ****  *            - 3 handle is not initialized
 901:SensorLib\max30102/driver_max30102.c ****  *            - 4 counter can't be over 0x1F
 902:SensorLib\max30102/driver_max30102.c ****  * @note      counter <= 0x1F
 903:SensorLib\max30102/driver_max30102.c ****  */
 904:SensorLib\max30102/driver_max30102.c **** uint8_t max30102_set_fifo_overflow_counter(max30102_handle_t *handle, uint8_t counter)
 905:SensorLib\max30102/driver_max30102.c **** {
 2131              		.loc 1 905 0
 2132              		.cfi_startproc
 2133              		@ args = 0, pretend = 0, frame = 8
 2134              		@ frame_needed = 0, uses_anonymous_args = 0
ARM GAS  C:\Users\CHRONI~1\AppData\Local\Temp\cc7oUGua.s 			page 55


 2135              	.LVL302:
 2136 0000 70B5     		push	{r4, r5, r6, lr}
 2137              		.cfi_def_cfa_offset 16
 2138              		.cfi_offset 4, -16
 2139              		.cfi_offset 5, -12
 2140              		.cfi_offset 6, -8
 2141              		.cfi_offset 14, -4
 2142 0002 82B0     		sub	sp, sp, #8
 2143              		.cfi_def_cfa_offset 24
 906:SensorLib\max30102/driver_max30102.c ****     uint8_t res;
 907:SensorLib\max30102/driver_max30102.c ****     uint8_t prev;
 908:SensorLib\max30102/driver_max30102.c ****     
 909:SensorLib\max30102/driver_max30102.c ****     if (handle == NULL)                                                                            
 2144              		.loc 1 909 0
 2145 0004 C8B1     		cbz	r0, .L147
 910:SensorLib\max30102/driver_max30102.c ****     {
 911:SensorLib\max30102/driver_max30102.c ****         return 2;                                                                                  
 912:SensorLib\max30102/driver_max30102.c ****     }
 913:SensorLib\max30102/driver_max30102.c ****     if (handle->inited != 1)                                                                       
 2146              		.loc 1 913 0
 2147 0006 047F     		ldrb	r4, [r0, #28]	@ zero_extendqisi2
 2148 0008 012C     		cmp	r4, #1
 2149 000a 18D1     		bne	.L148
 2150 000c 0546     		mov	r5, r0
 914:SensorLib\max30102/driver_max30102.c ****     {
 915:SensorLib\max30102/driver_max30102.c ****         return 3;                                                                                  
 916:SensorLib\max30102/driver_max30102.c ****     }
 917:SensorLib\max30102/driver_max30102.c ****     if (counter > 0x1F)                                                                            
 2151              		.loc 1 917 0
 2152 000e 1F29     		cmp	r1, #31
 2153 0010 04D9     		bls	.L146
 918:SensorLib\max30102/driver_max30102.c ****     {
 919:SensorLib\max30102/driver_max30102.c ****         handle->debug_print("max30102: counter can't be over 0x1F.\n");                            
 2154              		.loc 1 919 0
 2155 0012 8369     		ldr	r3, [r0, #24]
 2156 0014 0D48     		ldr	r0, .L151
 2157              	.LVL303:
 2158 0016 9847     		blx	r3
 2159              	.LVL304:
 920:SensorLib\max30102/driver_max30102.c ****        
 921:SensorLib\max30102/driver_max30102.c ****         return 4;                                                                                  
 2160              		.loc 1 921 0
 2161 0018 0424     		movs	r4, #4
 2162 001a 13E0     		b	.L145
 2163              	.LVL305:
 2164              	.L146:
 922:SensorLib\max30102/driver_max30102.c ****     }
 923:SensorLib\max30102/driver_max30102.c **** 
 924:SensorLib\max30102/driver_max30102.c ****     prev = counter & 0x1F;                                                                         
 2165              		.loc 1 924 0
 2166 001c 01F01F01 		and	r1, r1, #31
 2167              	.LVL306:
 2168 0020 02AA     		add	r2, sp, #8
 2169 0022 02F8011D 		strb	r1, [r2, #-1]!
 925:SensorLib\max30102/driver_max30102.c ****     res = handle->iic_write(MAX30102_ADDRESS, MAX30102_REG_OVERFLOW_COUNTER, (uint8_t *)&prev, 1); 
 2170              		.loc 1 925 0
 2171 0026 C668     		ldr	r6, [r0, #12]
ARM GAS  C:\Users\CHRONI~1\AppData\Local\Temp\cc7oUGua.s 			page 56


 2172 0028 0123     		movs	r3, #1
 2173 002a 0521     		movs	r1, #5
 2174 002c 5720     		movs	r0, #87
 2175              	.LVL307:
 2176 002e B047     		blx	r6
 2177              	.LVL308:
 926:SensorLib\max30102/driver_max30102.c ****     if (res != 0)                                                                                  
 2178              		.loc 1 926 0
 2179 0030 38B1     		cbz	r0, .L149
 927:SensorLib\max30102/driver_max30102.c ****     {
 928:SensorLib\max30102/driver_max30102.c ****         handle->debug_print("max30102: set fifo overflow counter failed.\n");                      
 2180              		.loc 1 928 0
 2181 0032 AB69     		ldr	r3, [r5, #24]
 2182 0034 0648     		ldr	r0, .L151+4
 2183              	.LVL309:
 2184 0036 9847     		blx	r3
 2185              	.LVL310:
 929:SensorLib\max30102/driver_max30102.c ****        
 930:SensorLib\max30102/driver_max30102.c ****         return 1;                                                                                  
 2186              		.loc 1 930 0
 2187 0038 04E0     		b	.L145
 2188              	.LVL311:
 2189              	.L147:
 911:SensorLib\max30102/driver_max30102.c ****     }
 2190              		.loc 1 911 0
 2191 003a 0224     		movs	r4, #2
 2192 003c 02E0     		b	.L145
 2193              	.L148:
 915:SensorLib\max30102/driver_max30102.c ****     }
 2194              		.loc 1 915 0
 2195 003e 0324     		movs	r4, #3
 2196 0040 00E0     		b	.L145
 2197              	.LVL312:
 2198              	.L149:
 931:SensorLib\max30102/driver_max30102.c ****     }
 932:SensorLib\max30102/driver_max30102.c ****     
 933:SensorLib\max30102/driver_max30102.c ****     return 0;                                                                                      
 2199              		.loc 1 933 0
 2200 0042 0024     		movs	r4, #0
 2201              	.LVL313:
 2202              	.L145:
 934:SensorLib\max30102/driver_max30102.c **** }
 2203              		.loc 1 934 0
 2204 0044 2046     		mov	r0, r4
 2205 0046 02B0     		add	sp, sp, #8
 2206              		.cfi_def_cfa_offset 16
 2207              		@ sp needed
 2208 0048 70BD     		pop	{r4, r5, r6, pc}
 2209              	.L152:
 2210 004a 00BF     		.align	2
 2211              	.L151:
 2212 004c E4090000 		.word	.LC61
 2213 0050 0C0A0000 		.word	.LC62
 2214              		.cfi_endproc
 2215              	.LFE11:
 2216              		.size	max30102_set_fifo_overflow_counter, .-max30102_set_fifo_overflow_counter
 2217              		.section	.text.max30102_get_fifo_overflow_counter,"ax",%progbits
ARM GAS  C:\Users\CHRONI~1\AppData\Local\Temp\cc7oUGua.s 			page 57


 2218              		.align	2
 2219              		.global	max30102_get_fifo_overflow_counter
 2220              		.thumb
 2221              		.thumb_func
 2222              		.type	max30102_get_fifo_overflow_counter, %function
 2223              	max30102_get_fifo_overflow_counter:
 2224              	.LFB12:
 935:SensorLib\max30102/driver_max30102.c **** 
 936:SensorLib\max30102/driver_max30102.c **** /**
 937:SensorLib\max30102/driver_max30102.c ****  * @brief      get the fifo overflow counter
 938:SensorLib\max30102/driver_max30102.c ****  * @param[in]  *handle points to a max30102 handle structure
 939:SensorLib\max30102/driver_max30102.c ****  * @param[out] *counter points to a counter buffer
 940:SensorLib\max30102/driver_max30102.c ****  * @return     status code
 941:SensorLib\max30102/driver_max30102.c ****  *             - 0 success
 942:SensorLib\max30102/driver_max30102.c ****  *             - 1 get fifo overflow counter failed
 943:SensorLib\max30102/driver_max30102.c ****  *             - 2 handle is NULL
 944:SensorLib\max30102/driver_max30102.c ****  *             - 3 handle is not initialized
 945:SensorLib\max30102/driver_max30102.c ****  * @note       none
 946:SensorLib\max30102/driver_max30102.c ****  */
 947:SensorLib\max30102/driver_max30102.c **** uint8_t max30102_get_fifo_overflow_counter(max30102_handle_t *handle, uint8_t *counter)
 948:SensorLib\max30102/driver_max30102.c **** {
 2225              		.loc 1 948 0
 2226              		.cfi_startproc
 2227              		@ args = 0, pretend = 0, frame = 8
 2228              		@ frame_needed = 0, uses_anonymous_args = 0
 2229              	.LVL314:
 2230 0000 F0B5     		push	{r4, r5, r6, r7, lr}
 2231              		.cfi_def_cfa_offset 20
 2232              		.cfi_offset 4, -20
 2233              		.cfi_offset 5, -16
 2234              		.cfi_offset 6, -12
 2235              		.cfi_offset 7, -8
 2236              		.cfi_offset 14, -4
 2237 0002 83B0     		sub	sp, sp, #12
 2238              		.cfi_def_cfa_offset 32
 949:SensorLib\max30102/driver_max30102.c ****     uint8_t res;
 950:SensorLib\max30102/driver_max30102.c ****     uint8_t prev;
 951:SensorLib\max30102/driver_max30102.c ****     
 952:SensorLib\max30102/driver_max30102.c ****     if (handle == NULL)                                                                            
 2239              		.loc 1 952 0
 2240 0004 B8B1     		cbz	r0, .L156
 953:SensorLib\max30102/driver_max30102.c ****     {
 954:SensorLib\max30102/driver_max30102.c ****         return 2;                                                                                  
 955:SensorLib\max30102/driver_max30102.c ****     }
 956:SensorLib\max30102/driver_max30102.c ****     if (handle->inited != 1)                                                                       
 2241              		.loc 1 956 0
 2242 0006 047F     		ldrb	r4, [r0, #28]	@ zero_extendqisi2
 2243 0008 012C     		cmp	r4, #1
 2244 000a 16D1     		bne	.L157
 2245 000c 0546     		mov	r5, r0
 2246 000e 0E46     		mov	r6, r1
 957:SensorLib\max30102/driver_max30102.c ****     {
 958:SensorLib\max30102/driver_max30102.c ****         return 3;                                                                                  
 959:SensorLib\max30102/driver_max30102.c ****     }
 960:SensorLib\max30102/driver_max30102.c **** 
 961:SensorLib\max30102/driver_max30102.c ****     res = handle->iic_read(MAX30102_ADDRESS, MAX30102_REG_OVERFLOW_COUNTER, (uint8_t *)&prev, 1);  
 2247              		.loc 1 961 0
ARM GAS  C:\Users\CHRONI~1\AppData\Local\Temp\cc7oUGua.s 			page 58


 2248 0010 8768     		ldr	r7, [r0, #8]
 2249 0012 0123     		movs	r3, #1
 2250 0014 0DF10702 		add	r2, sp, #7
 2251 0018 0521     		movs	r1, #5
 2252              	.LVL315:
 2253 001a 5720     		movs	r0, #87
 2254              	.LVL316:
 2255 001c B847     		blx	r7
 2256              	.LVL317:
 962:SensorLib\max30102/driver_max30102.c ****     if (res != 0)                                                                                  
 2257              		.loc 1 962 0
 2258 001e 18B1     		cbz	r0, .L155
 963:SensorLib\max30102/driver_max30102.c ****     {
 964:SensorLib\max30102/driver_max30102.c ****         handle->debug_print("max30102: get fifo overflow counter failed.\n");                      
 2259              		.loc 1 964 0
 2260 0020 AB69     		ldr	r3, [r5, #24]
 2261 0022 0848     		ldr	r0, .L159
 2262              	.LVL318:
 2263 0024 9847     		blx	r3
 2264              	.LVL319:
 965:SensorLib\max30102/driver_max30102.c ****        
 966:SensorLib\max30102/driver_max30102.c ****         return 1;                                                                                  
 2265              		.loc 1 966 0
 2266 0026 09E0     		b	.L154
 2267              	.LVL320:
 2268              	.L155:
 967:SensorLib\max30102/driver_max30102.c ****     }
 968:SensorLib\max30102/driver_max30102.c ****     *counter = prev & 0x1F;                                                                        
 2269              		.loc 1 968 0
 2270 0028 9DF80730 		ldrb	r3, [sp, #7]	@ zero_extendqisi2
 2271 002c 03F01F03 		and	r3, r3, #31
 2272 0030 3370     		strb	r3, [r6]
 969:SensorLib\max30102/driver_max30102.c ****     
 970:SensorLib\max30102/driver_max30102.c ****     return 0;                                                                                      
 2273              		.loc 1 970 0
 2274 0032 0024     		movs	r4, #0
 2275 0034 02E0     		b	.L154
 2276              	.LVL321:
 2277              	.L156:
 954:SensorLib\max30102/driver_max30102.c ****     }
 2278              		.loc 1 954 0
 2279 0036 0224     		movs	r4, #2
 2280 0038 00E0     		b	.L154
 2281              	.L157:
 958:SensorLib\max30102/driver_max30102.c ****     }
 2282              		.loc 1 958 0
 2283 003a 0324     		movs	r4, #3
 2284              	.LVL322:
 2285              	.L154:
 971:SensorLib\max30102/driver_max30102.c **** }
 2286              		.loc 1 971 0
 2287 003c 2046     		mov	r0, r4
 2288 003e 03B0     		add	sp, sp, #12
 2289              		.cfi_def_cfa_offset 20
 2290              		@ sp needed
 2291 0040 F0BD     		pop	{r4, r5, r6, r7, pc}
 2292              	.L160:
ARM GAS  C:\Users\CHRONI~1\AppData\Local\Temp\cc7oUGua.s 			page 59


 2293 0042 00BF     		.align	2
 2294              	.L159:
 2295 0044 3C0A0000 		.word	.LC63
 2296              		.cfi_endproc
 2297              	.LFE12:
 2298              		.size	max30102_get_fifo_overflow_counter, .-max30102_get_fifo_overflow_counter
 2299              		.section	.text.max30102_set_fifo_read_pointer,"ax",%progbits
 2300              		.align	2
 2301              		.global	max30102_set_fifo_read_pointer
 2302              		.thumb
 2303              		.thumb_func
 2304              		.type	max30102_set_fifo_read_pointer, %function
 2305              	max30102_set_fifo_read_pointer:
 2306              	.LFB13:
 972:SensorLib\max30102/driver_max30102.c **** 
 973:SensorLib\max30102/driver_max30102.c **** /**
 974:SensorLib\max30102/driver_max30102.c ****  * @brief     set the fifo read pointer
 975:SensorLib\max30102/driver_max30102.c ****  * @param[in] *handle points to a max30102 handle structure
 976:SensorLib\max30102/driver_max30102.c ****  * @param[in] pointer is the read pointer
 977:SensorLib\max30102/driver_max30102.c ****  * @return    status code
 978:SensorLib\max30102/driver_max30102.c ****  *            - 0 success
 979:SensorLib\max30102/driver_max30102.c ****  *            - 1 set fifo read pointer failed
 980:SensorLib\max30102/driver_max30102.c ****  *            - 2 handle is NULL
 981:SensorLib\max30102/driver_max30102.c ****  *            - 3 handle is not initialized
 982:SensorLib\max30102/driver_max30102.c ****  *            - 4 pointer can't be over 0x1F
 983:SensorLib\max30102/driver_max30102.c ****  * @note      pointer <= 0x1F
 984:SensorLib\max30102/driver_max30102.c ****  */
 985:SensorLib\max30102/driver_max30102.c **** uint8_t max30102_set_fifo_read_pointer(max30102_handle_t *handle, uint8_t pointer)
 986:SensorLib\max30102/driver_max30102.c **** {
 2307              		.loc 1 986 0
 2308              		.cfi_startproc
 2309              		@ args = 0, pretend = 0, frame = 8
 2310              		@ frame_needed = 0, uses_anonymous_args = 0
 2311              	.LVL323:
 2312 0000 70B5     		push	{r4, r5, r6, lr}
 2313              		.cfi_def_cfa_offset 16
 2314              		.cfi_offset 4, -16
 2315              		.cfi_offset 5, -12
 2316              		.cfi_offset 6, -8
 2317              		.cfi_offset 14, -4
 2318 0002 82B0     		sub	sp, sp, #8
 2319              		.cfi_def_cfa_offset 24
 987:SensorLib\max30102/driver_max30102.c ****     uint8_t res;
 988:SensorLib\max30102/driver_max30102.c ****     uint8_t prev;
 989:SensorLib\max30102/driver_max30102.c ****     
 990:SensorLib\max30102/driver_max30102.c ****     if (handle == NULL)                                                                            
 2320              		.loc 1 990 0
 2321 0004 C8B1     		cbz	r0, .L164
 991:SensorLib\max30102/driver_max30102.c ****     {
 992:SensorLib\max30102/driver_max30102.c ****         return 2;                                                                                  
 993:SensorLib\max30102/driver_max30102.c ****     }
 994:SensorLib\max30102/driver_max30102.c ****     if (handle->inited != 1)                                                                       
 2322              		.loc 1 994 0
 2323 0006 047F     		ldrb	r4, [r0, #28]	@ zero_extendqisi2
 2324 0008 012C     		cmp	r4, #1
 2325 000a 18D1     		bne	.L165
 2326 000c 0546     		mov	r5, r0
ARM GAS  C:\Users\CHRONI~1\AppData\Local\Temp\cc7oUGua.s 			page 60


 995:SensorLib\max30102/driver_max30102.c ****     {
 996:SensorLib\max30102/driver_max30102.c ****         return 3;                                                                                  
 997:SensorLib\max30102/driver_max30102.c ****     }
 998:SensorLib\max30102/driver_max30102.c ****     if (pointer > 0x1F)                                                                            
 2327              		.loc 1 998 0
 2328 000e 1F29     		cmp	r1, #31
 2329 0010 04D9     		bls	.L163
 999:SensorLib\max30102/driver_max30102.c ****     {
1000:SensorLib\max30102/driver_max30102.c ****         handle->debug_print("max30102: pointer can't be over 0x1F.\n");                            
 2330              		.loc 1 1000 0
 2331 0012 8369     		ldr	r3, [r0, #24]
 2332 0014 0D48     		ldr	r0, .L168
 2333              	.LVL324:
 2334 0016 9847     		blx	r3
 2335              	.LVL325:
1001:SensorLib\max30102/driver_max30102.c ****        
1002:SensorLib\max30102/driver_max30102.c ****         return 4;                                                                                  
 2336              		.loc 1 1002 0
 2337 0018 0424     		movs	r4, #4
 2338 001a 13E0     		b	.L162
 2339              	.LVL326:
 2340              	.L163:
1003:SensorLib\max30102/driver_max30102.c ****     }
1004:SensorLib\max30102/driver_max30102.c **** 
1005:SensorLib\max30102/driver_max30102.c ****     prev = pointer & 0x1F;                                                                         
 2341              		.loc 1 1005 0
 2342 001c 01F01F01 		and	r1, r1, #31
 2343              	.LVL327:
 2344 0020 02AA     		add	r2, sp, #8
 2345 0022 02F8011D 		strb	r1, [r2, #-1]!
1006:SensorLib\max30102/driver_max30102.c ****     res = handle->iic_write(MAX30102_ADDRESS, MAX30102_REG_FIFO_READ_POINTER, (uint8_t *)&prev, 1);
 2346              		.loc 1 1006 0
 2347 0026 C668     		ldr	r6, [r0, #12]
 2348 0028 0123     		movs	r3, #1
 2349 002a 0621     		movs	r1, #6
 2350 002c 5720     		movs	r0, #87
 2351              	.LVL328:
 2352 002e B047     		blx	r6
 2353              	.LVL329:
1007:SensorLib\max30102/driver_max30102.c ****     if (res != 0)                                                                                  
 2354              		.loc 1 1007 0
 2355 0030 38B1     		cbz	r0, .L166
1008:SensorLib\max30102/driver_max30102.c ****     {
1009:SensorLib\max30102/driver_max30102.c ****         handle->debug_print("max30102: write fifo read pointer failed.\n");                        
 2356              		.loc 1 1009 0
 2357 0032 AB69     		ldr	r3, [r5, #24]
 2358 0034 0648     		ldr	r0, .L168+4
 2359              	.LVL330:
 2360 0036 9847     		blx	r3
 2361              	.LVL331:
1010:SensorLib\max30102/driver_max30102.c ****        
1011:SensorLib\max30102/driver_max30102.c ****         return 1;                                                                                  
 2362              		.loc 1 1011 0
 2363 0038 04E0     		b	.L162
 2364              	.LVL332:
 2365              	.L164:
 992:SensorLib\max30102/driver_max30102.c ****     }
ARM GAS  C:\Users\CHRONI~1\AppData\Local\Temp\cc7oUGua.s 			page 61


 2366              		.loc 1 992 0
 2367 003a 0224     		movs	r4, #2
 2368 003c 02E0     		b	.L162
 2369              	.L165:
 996:SensorLib\max30102/driver_max30102.c ****     }
 2370              		.loc 1 996 0
 2371 003e 0324     		movs	r4, #3
 2372 0040 00E0     		b	.L162
 2373              	.LVL333:
 2374              	.L166:
1012:SensorLib\max30102/driver_max30102.c ****     }
1013:SensorLib\max30102/driver_max30102.c ****     
1014:SensorLib\max30102/driver_max30102.c ****     return 0;                                                                                      
 2375              		.loc 1 1014 0
 2376 0042 0024     		movs	r4, #0
 2377              	.LVL334:
 2378              	.L162:
1015:SensorLib\max30102/driver_max30102.c **** }
 2379              		.loc 1 1015 0
 2380 0044 2046     		mov	r0, r4
 2381 0046 02B0     		add	sp, sp, #8
 2382              		.cfi_def_cfa_offset 16
 2383              		@ sp needed
 2384 0048 70BD     		pop	{r4, r5, r6, pc}
 2385              	.L169:
 2386 004a 00BF     		.align	2
 2387              	.L168:
 2388 004c 64090000 		.word	.LC58
 2389 0050 6C0A0000 		.word	.LC64
 2390              		.cfi_endproc
 2391              	.LFE13:
 2392              		.size	max30102_set_fifo_read_pointer, .-max30102_set_fifo_read_pointer
 2393              		.section	.text.max30102_get_fifo_read_pointer,"ax",%progbits
 2394              		.align	2
 2395              		.global	max30102_get_fifo_read_pointer
 2396              		.thumb
 2397              		.thumb_func
 2398              		.type	max30102_get_fifo_read_pointer, %function
 2399              	max30102_get_fifo_read_pointer:
 2400              	.LFB14:
1016:SensorLib\max30102/driver_max30102.c **** 
1017:SensorLib\max30102/driver_max30102.c **** /**
1018:SensorLib\max30102/driver_max30102.c ****  * @brief      get the fifo read pointer
1019:SensorLib\max30102/driver_max30102.c ****  * @param[in]  *handle points to a max30102 handle structure
1020:SensorLib\max30102/driver_max30102.c ****  * @param[out] *pointer points to a pointer buffer
1021:SensorLib\max30102/driver_max30102.c ****  * @return     status code
1022:SensorLib\max30102/driver_max30102.c ****  *             - 0 success
1023:SensorLib\max30102/driver_max30102.c ****  *             - 1 get fifo read pointer failed
1024:SensorLib\max30102/driver_max30102.c ****  *             - 2 handle is NULL
1025:SensorLib\max30102/driver_max30102.c ****  *             - 3 handle is not initialized
1026:SensorLib\max30102/driver_max30102.c ****  * @note       none
1027:SensorLib\max30102/driver_max30102.c ****  */
1028:SensorLib\max30102/driver_max30102.c **** uint8_t max30102_get_fifo_read_pointer(max30102_handle_t *handle, uint8_t *pointer)
1029:SensorLib\max30102/driver_max30102.c **** {
 2401              		.loc 1 1029 0
 2402              		.cfi_startproc
 2403              		@ args = 0, pretend = 0, frame = 8
ARM GAS  C:\Users\CHRONI~1\AppData\Local\Temp\cc7oUGua.s 			page 62


 2404              		@ frame_needed = 0, uses_anonymous_args = 0
 2405              	.LVL335:
 2406 0000 F0B5     		push	{r4, r5, r6, r7, lr}
 2407              		.cfi_def_cfa_offset 20
 2408              		.cfi_offset 4, -20
 2409              		.cfi_offset 5, -16
 2410              		.cfi_offset 6, -12
 2411              		.cfi_offset 7, -8
 2412              		.cfi_offset 14, -4
 2413 0002 83B0     		sub	sp, sp, #12
 2414              		.cfi_def_cfa_offset 32
1030:SensorLib\max30102/driver_max30102.c ****     uint8_t res;
1031:SensorLib\max30102/driver_max30102.c ****     uint8_t prev;
1032:SensorLib\max30102/driver_max30102.c ****     
1033:SensorLib\max30102/driver_max30102.c ****     if (handle == NULL)                                                                            
 2415              		.loc 1 1033 0
 2416 0004 B8B1     		cbz	r0, .L173
1034:SensorLib\max30102/driver_max30102.c ****     {
1035:SensorLib\max30102/driver_max30102.c ****         return 2;                                                                                  
1036:SensorLib\max30102/driver_max30102.c ****     }
1037:SensorLib\max30102/driver_max30102.c ****     if (handle->inited != 1)                                                                       
 2417              		.loc 1 1037 0
 2418 0006 047F     		ldrb	r4, [r0, #28]	@ zero_extendqisi2
 2419 0008 012C     		cmp	r4, #1
 2420 000a 16D1     		bne	.L174
 2421 000c 0546     		mov	r5, r0
 2422 000e 0E46     		mov	r6, r1
1038:SensorLib\max30102/driver_max30102.c ****     {
1039:SensorLib\max30102/driver_max30102.c ****         return 3;                                                                                  
1040:SensorLib\max30102/driver_max30102.c ****     }
1041:SensorLib\max30102/driver_max30102.c **** 
1042:SensorLib\max30102/driver_max30102.c ****     res = handle->iic_read(MAX30102_ADDRESS, MAX30102_REG_FIFO_READ_POINTER, (uint8_t *)&prev, 1); 
 2423              		.loc 1 1042 0
 2424 0010 8768     		ldr	r7, [r0, #8]
 2425 0012 0123     		movs	r3, #1
 2426 0014 0DF10702 		add	r2, sp, #7
 2427 0018 0621     		movs	r1, #6
 2428              	.LVL336:
 2429 001a 5720     		movs	r0, #87
 2430              	.LVL337:
 2431 001c B847     		blx	r7
 2432              	.LVL338:
1043:SensorLib\max30102/driver_max30102.c ****     if (res != 0)                                                                                  
 2433              		.loc 1 1043 0
 2434 001e 18B1     		cbz	r0, .L172
1044:SensorLib\max30102/driver_max30102.c ****     {
1045:SensorLib\max30102/driver_max30102.c ****         handle->debug_print("max30102: read fifo read pointer failed.\n");                         
 2435              		.loc 1 1045 0
 2436 0020 AB69     		ldr	r3, [r5, #24]
 2437 0022 0848     		ldr	r0, .L176
 2438              	.LVL339:
 2439 0024 9847     		blx	r3
 2440              	.LVL340:
1046:SensorLib\max30102/driver_max30102.c ****        
1047:SensorLib\max30102/driver_max30102.c ****         return 1;                                                                                  
 2441              		.loc 1 1047 0
 2442 0026 09E0     		b	.L171
ARM GAS  C:\Users\CHRONI~1\AppData\Local\Temp\cc7oUGua.s 			page 63


 2443              	.LVL341:
 2444              	.L172:
1048:SensorLib\max30102/driver_max30102.c ****     }
1049:SensorLib\max30102/driver_max30102.c ****     *pointer = prev & 0x1F;                                                                        
 2445              		.loc 1 1049 0
 2446 0028 9DF80730 		ldrb	r3, [sp, #7]	@ zero_extendqisi2
 2447 002c 03F01F03 		and	r3, r3, #31
 2448 0030 3370     		strb	r3, [r6]
1050:SensorLib\max30102/driver_max30102.c ****     
1051:SensorLib\max30102/driver_max30102.c ****     return 0;                                                                                      
 2449              		.loc 1 1051 0
 2450 0032 0024     		movs	r4, #0
 2451 0034 02E0     		b	.L171
 2452              	.LVL342:
 2453              	.L173:
1035:SensorLib\max30102/driver_max30102.c ****     }
 2454              		.loc 1 1035 0
 2455 0036 0224     		movs	r4, #2
 2456 0038 00E0     		b	.L171
 2457              	.L174:
1039:SensorLib\max30102/driver_max30102.c ****     }
 2458              		.loc 1 1039 0
 2459 003a 0324     		movs	r4, #3
 2460              	.LVL343:
 2461              	.L171:
1052:SensorLib\max30102/driver_max30102.c **** }
 2462              		.loc 1 1052 0
 2463 003c 2046     		mov	r0, r4
 2464 003e 03B0     		add	sp, sp, #12
 2465              		.cfi_def_cfa_offset 20
 2466              		@ sp needed
 2467 0040 F0BD     		pop	{r4, r5, r6, r7, pc}
 2468              	.L177:
 2469 0042 00BF     		.align	2
 2470              	.L176:
 2471 0044 980A0000 		.word	.LC65
 2472              		.cfi_endproc
 2473              	.LFE14:
 2474              		.size	max30102_get_fifo_read_pointer, .-max30102_get_fifo_read_pointer
 2475              		.section	.text.max30102_set_fifo_data,"ax",%progbits
 2476              		.align	2
 2477              		.global	max30102_set_fifo_data
 2478              		.thumb
 2479              		.thumb_func
 2480              		.type	max30102_set_fifo_data, %function
 2481              	max30102_set_fifo_data:
 2482              	.LFB15:
1053:SensorLib\max30102/driver_max30102.c **** 
1054:SensorLib\max30102/driver_max30102.c **** /**
1055:SensorLib\max30102/driver_max30102.c ****  * @brief     set the fifo data
1056:SensorLib\max30102/driver_max30102.c ****  * @param[in] *handle points to a max30102 handle structure
1057:SensorLib\max30102/driver_max30102.c ****  * @param[in] data is the fifo data
1058:SensorLib\max30102/driver_max30102.c ****  * @return    status code
1059:SensorLib\max30102/driver_max30102.c ****  *            - 0 success
1060:SensorLib\max30102/driver_max30102.c ****  *            - 1 set fifo data failed
1061:SensorLib\max30102/driver_max30102.c ****  *            - 2 handle is NULL
1062:SensorLib\max30102/driver_max30102.c ****  *            - 3 handle is not initialized
ARM GAS  C:\Users\CHRONI~1\AppData\Local\Temp\cc7oUGua.s 			page 64


1063:SensorLib\max30102/driver_max30102.c ****  * @note      none
1064:SensorLib\max30102/driver_max30102.c ****  */
1065:SensorLib\max30102/driver_max30102.c **** uint8_t max30102_set_fifo_data(max30102_handle_t *handle, uint8_t data)
1066:SensorLib\max30102/driver_max30102.c **** {
 2483              		.loc 1 1066 0
 2484              		.cfi_startproc
 2485              		@ args = 0, pretend = 0, frame = 8
 2486              		@ frame_needed = 0, uses_anonymous_args = 0
 2487              	.LVL344:
 2488 0000 70B5     		push	{r4, r5, r6, lr}
 2489              		.cfi_def_cfa_offset 16
 2490              		.cfi_offset 4, -16
 2491              		.cfi_offset 5, -12
 2492              		.cfi_offset 6, -8
 2493              		.cfi_offset 14, -4
 2494 0002 82B0     		sub	sp, sp, #8
 2495              		.cfi_def_cfa_offset 24
 2496 0004 8DF80710 		strb	r1, [sp, #7]
1067:SensorLib\max30102/driver_max30102.c ****     uint8_t res;
1068:SensorLib\max30102/driver_max30102.c ****     
1069:SensorLib\max30102/driver_max30102.c ****     if (handle == NULL)                                                                            
 2497              		.loc 1 1069 0
 2498 0008 78B1     		cbz	r0, .L180
1070:SensorLib\max30102/driver_max30102.c ****     {
1071:SensorLib\max30102/driver_max30102.c ****         return 2;                                                                                  
1072:SensorLib\max30102/driver_max30102.c ****     }
1073:SensorLib\max30102/driver_max30102.c ****     if (handle->inited != 1)                                                                       
 2499              		.loc 1 1073 0
 2500 000a 047F     		ldrb	r4, [r0, #28]	@ zero_extendqisi2
 2501 000c 012C     		cmp	r4, #1
 2502 000e 0ED1     		bne	.L181
 2503 0010 0546     		mov	r5, r0
1074:SensorLib\max30102/driver_max30102.c ****     {
1075:SensorLib\max30102/driver_max30102.c ****         return 3;                                                                                  
1076:SensorLib\max30102/driver_max30102.c ****     }
1077:SensorLib\max30102/driver_max30102.c ****     
1078:SensorLib\max30102/driver_max30102.c ****     res = handle->iic_write(MAX30102_ADDRESS, MAX30102_REG_FIFO_DATA_REGISTER, (uint8_t *)&data, 1)
 2504              		.loc 1 1078 0
 2505 0012 C668     		ldr	r6, [r0, #12]
 2506 0014 0123     		movs	r3, #1
 2507 0016 0DF10702 		add	r2, sp, #7
 2508 001a 0721     		movs	r1, #7
 2509              	.LVL345:
 2510 001c 5720     		movs	r0, #87
 2511              	.LVL346:
 2512 001e B047     		blx	r6
 2513              	.LVL347:
1079:SensorLib\max30102/driver_max30102.c ****     if (res != 0)                                                                                  
 2514              		.loc 1 1079 0
 2515 0020 38B1     		cbz	r0, .L182
1080:SensorLib\max30102/driver_max30102.c ****     {
1081:SensorLib\max30102/driver_max30102.c ****         handle->debug_print("max30102: write fifo data register failed.\n");                       
 2516              		.loc 1 1081 0
 2517 0022 AB69     		ldr	r3, [r5, #24]
 2518 0024 0548     		ldr	r0, .L184
 2519              	.LVL348:
 2520 0026 9847     		blx	r3
ARM GAS  C:\Users\CHRONI~1\AppData\Local\Temp\cc7oUGua.s 			page 65


 2521              	.LVL349:
1082:SensorLib\max30102/driver_max30102.c ****        
1083:SensorLib\max30102/driver_max30102.c ****         return 1;                                                                                  
 2522              		.loc 1 1083 0
 2523 0028 04E0     		b	.L179
 2524              	.LVL350:
 2525              	.L180:
1071:SensorLib\max30102/driver_max30102.c ****     }
 2526              		.loc 1 1071 0
 2527 002a 0224     		movs	r4, #2
 2528 002c 02E0     		b	.L179
 2529              	.L181:
1075:SensorLib\max30102/driver_max30102.c ****     }
 2530              		.loc 1 1075 0
 2531 002e 0324     		movs	r4, #3
 2532 0030 00E0     		b	.L179
 2533              	.LVL351:
 2534              	.L182:
1084:SensorLib\max30102/driver_max30102.c ****     }
1085:SensorLib\max30102/driver_max30102.c ****     
1086:SensorLib\max30102/driver_max30102.c ****     return 0;                                                                                      
 2535              		.loc 1 1086 0
 2536 0032 0024     		movs	r4, #0
 2537              	.LVL352:
 2538              	.L179:
1087:SensorLib\max30102/driver_max30102.c **** }
 2539              		.loc 1 1087 0
 2540 0034 2046     		mov	r0, r4
 2541 0036 02B0     		add	sp, sp, #8
 2542              		.cfi_def_cfa_offset 16
 2543              		@ sp needed
 2544 0038 70BD     		pop	{r4, r5, r6, pc}
 2545              	.LVL353:
 2546              	.L185:
 2547 003a 00BF     		.align	2
 2548              	.L184:
 2549 003c C40A0000 		.word	.LC66
 2550              		.cfi_endproc
 2551              	.LFE15:
 2552              		.size	max30102_set_fifo_data, .-max30102_set_fifo_data
 2553              		.section	.text.max30102_get_fifo_data,"ax",%progbits
 2554              		.align	2
 2555              		.global	max30102_get_fifo_data
 2556              		.thumb
 2557              		.thumb_func
 2558              		.type	max30102_get_fifo_data, %function
 2559              	max30102_get_fifo_data:
 2560              	.LFB16:
1088:SensorLib\max30102/driver_max30102.c **** 
1089:SensorLib\max30102/driver_max30102.c **** /**
1090:SensorLib\max30102/driver_max30102.c ****  * @brief      get the fifo data
1091:SensorLib\max30102/driver_max30102.c ****  * @param[in]  *handle points to a max30102 handle structure
1092:SensorLib\max30102/driver_max30102.c ****  * @param[out] *data points to a fifo data buffer
1093:SensorLib\max30102/driver_max30102.c ****  * @return     status code
1094:SensorLib\max30102/driver_max30102.c ****  *             - 0 success
1095:SensorLib\max30102/driver_max30102.c ****  *             - 1 get fifo data failed
1096:SensorLib\max30102/driver_max30102.c ****  *             - 2 handle is NULL
ARM GAS  C:\Users\CHRONI~1\AppData\Local\Temp\cc7oUGua.s 			page 66


1097:SensorLib\max30102/driver_max30102.c ****  *             - 3 handle is not initialized
1098:SensorLib\max30102/driver_max30102.c ****  * @note       none
1099:SensorLib\max30102/driver_max30102.c ****  */
1100:SensorLib\max30102/driver_max30102.c **** uint8_t max30102_get_fifo_data(max30102_handle_t *handle, uint8_t *data)
1101:SensorLib\max30102/driver_max30102.c **** {
 2561              		.loc 1 1101 0
 2562              		.cfi_startproc
 2563              		@ args = 0, pretend = 0, frame = 0
 2564              		@ frame_needed = 0, uses_anonymous_args = 0
 2565              	.LVL354:
 2566 0000 70B5     		push	{r4, r5, r6, lr}
 2567              		.cfi_def_cfa_offset 16
 2568              		.cfi_offset 4, -16
 2569              		.cfi_offset 5, -12
 2570              		.cfi_offset 6, -8
 2571              		.cfi_offset 14, -4
1102:SensorLib\max30102/driver_max30102.c ****     uint8_t res;
1103:SensorLib\max30102/driver_max30102.c ****     
1104:SensorLib\max30102/driver_max30102.c ****     if (handle == NULL)                                                                            
 2572              		.loc 1 1104 0
 2573 0002 70B1     		cbz	r0, .L188
1105:SensorLib\max30102/driver_max30102.c ****     {
1106:SensorLib\max30102/driver_max30102.c ****         return 2;                                                                                  
1107:SensorLib\max30102/driver_max30102.c ****     }
1108:SensorLib\max30102/driver_max30102.c ****     if (handle->inited != 1)                                                                       
 2574              		.loc 1 1108 0
 2575 0004 047F     		ldrb	r4, [r0, #28]	@ zero_extendqisi2
 2576 0006 012C     		cmp	r4, #1
 2577 0008 0DD1     		bne	.L189
 2578 000a 0546     		mov	r5, r0
 2579 000c 0A46     		mov	r2, r1
1109:SensorLib\max30102/driver_max30102.c ****     {
1110:SensorLib\max30102/driver_max30102.c ****         return 3;                                                                                  
1111:SensorLib\max30102/driver_max30102.c ****     }
1112:SensorLib\max30102/driver_max30102.c ****     
1113:SensorLib\max30102/driver_max30102.c ****     res = handle->iic_read(MAX30102_ADDRESS, MAX30102_REG_FIFO_DATA_REGISTER, (uint8_t *)data, 1); 
 2580              		.loc 1 1113 0
 2581 000e 8668     		ldr	r6, [r0, #8]
 2582 0010 0123     		movs	r3, #1
 2583 0012 0721     		movs	r1, #7
 2584              	.LVL355:
 2585 0014 5720     		movs	r0, #87
 2586              	.LVL356:
 2587 0016 B047     		blx	r6
 2588              	.LVL357:
1114:SensorLib\max30102/driver_max30102.c ****     if (res != 0)                                                                                  
 2589              		.loc 1 1114 0
 2590 0018 38B1     		cbz	r0, .L190
1115:SensorLib\max30102/driver_max30102.c ****     {
1116:SensorLib\max30102/driver_max30102.c ****         handle->debug_print("max30102: read fifo data register failed.\n");                        
 2591              		.loc 1 1116 0
 2592 001a AB69     		ldr	r3, [r5, #24]
 2593 001c 0448     		ldr	r0, .L192
 2594              	.LVL358:
 2595 001e 9847     		blx	r3
 2596              	.LVL359:
1117:SensorLib\max30102/driver_max30102.c ****        
ARM GAS  C:\Users\CHRONI~1\AppData\Local\Temp\cc7oUGua.s 			page 67


1118:SensorLib\max30102/driver_max30102.c ****         return 1;                                                                                  
 2597              		.loc 1 1118 0
 2598 0020 04E0     		b	.L187
 2599              	.LVL360:
 2600              	.L188:
1106:SensorLib\max30102/driver_max30102.c ****     }
 2601              		.loc 1 1106 0
 2602 0022 0224     		movs	r4, #2
 2603 0024 02E0     		b	.L187
 2604              	.L189:
1110:SensorLib\max30102/driver_max30102.c ****     }
 2605              		.loc 1 1110 0
 2606 0026 0324     		movs	r4, #3
 2607 0028 00E0     		b	.L187
 2608              	.LVL361:
 2609              	.L190:
1119:SensorLib\max30102/driver_max30102.c ****     }
1120:SensorLib\max30102/driver_max30102.c ****     
1121:SensorLib\max30102/driver_max30102.c ****     return 0;                                                                                      
 2610              		.loc 1 1121 0
 2611 002a 0024     		movs	r4, #0
 2612              	.LVL362:
 2613              	.L187:
1122:SensorLib\max30102/driver_max30102.c **** }
 2614              		.loc 1 1122 0
 2615 002c 2046     		mov	r0, r4
 2616 002e 70BD     		pop	{r4, r5, r6, pc}
 2617              	.L193:
 2618              		.align	2
 2619              	.L192:
 2620 0030 F4070000 		.word	.LC49
 2621              		.cfi_endproc
 2622              	.LFE16:
 2623              		.size	max30102_get_fifo_data, .-max30102_get_fifo_data
 2624              		.section	.text.max30102_set_fifo_sample_averaging,"ax",%progbits
 2625              		.align	2
 2626              		.global	max30102_set_fifo_sample_averaging
 2627              		.thumb
 2628              		.thumb_func
 2629              		.type	max30102_set_fifo_sample_averaging, %function
 2630              	max30102_set_fifo_sample_averaging:
 2631              	.LFB17:
1123:SensorLib\max30102/driver_max30102.c **** 
1124:SensorLib\max30102/driver_max30102.c **** /**
1125:SensorLib\max30102/driver_max30102.c ****  * @brief     set the fifo sample averaging
1126:SensorLib\max30102/driver_max30102.c ****  * @param[in] *handle points to a max30102 handle structure
1127:SensorLib\max30102/driver_max30102.c ****  * @param[in] sample is the fifo sample averaging
1128:SensorLib\max30102/driver_max30102.c ****  * @return    status code
1129:SensorLib\max30102/driver_max30102.c ****  *            - 0 success
1130:SensorLib\max30102/driver_max30102.c ****  *            - 1 set fifo sample averaging failed
1131:SensorLib\max30102/driver_max30102.c ****  *            - 2 handle is NULL
1132:SensorLib\max30102/driver_max30102.c ****  *            - 3 handle is not initialized
1133:SensorLib\max30102/driver_max30102.c ****  * @note      none
1134:SensorLib\max30102/driver_max30102.c ****  */
1135:SensorLib\max30102/driver_max30102.c **** uint8_t max30102_set_fifo_sample_averaging(max30102_handle_t *handle, max30102_sample_averaging_t s
1136:SensorLib\max30102/driver_max30102.c **** {
 2632              		.loc 1 1136 0
ARM GAS  C:\Users\CHRONI~1\AppData\Local\Temp\cc7oUGua.s 			page 68


 2633              		.cfi_startproc
 2634              		@ args = 0, pretend = 0, frame = 8
 2635              		@ frame_needed = 0, uses_anonymous_args = 0
 2636              	.LVL363:
 2637 0000 F0B5     		push	{r4, r5, r6, r7, lr}
 2638              		.cfi_def_cfa_offset 20
 2639              		.cfi_offset 4, -20
 2640              		.cfi_offset 5, -16
 2641              		.cfi_offset 6, -12
 2642              		.cfi_offset 7, -8
 2643              		.cfi_offset 14, -4
 2644 0002 83B0     		sub	sp, sp, #12
 2645              		.cfi_def_cfa_offset 32
1137:SensorLib\max30102/driver_max30102.c ****     uint8_t res;
1138:SensorLib\max30102/driver_max30102.c ****     uint8_t prev;
1139:SensorLib\max30102/driver_max30102.c ****     
1140:SensorLib\max30102/driver_max30102.c ****     if (handle == NULL)                                                                            
 2646              		.loc 1 1140 0
 2647 0004 18B3     		cbz	r0, .L197
1141:SensorLib\max30102/driver_max30102.c ****     {
1142:SensorLib\max30102/driver_max30102.c ****         return 2;                                                                                  
1143:SensorLib\max30102/driver_max30102.c ****     }
1144:SensorLib\max30102/driver_max30102.c ****     if (handle->inited != 1)                                                                       
 2648              		.loc 1 1144 0
 2649 0006 047F     		ldrb	r4, [r0, #28]	@ zero_extendqisi2
 2650 0008 012C     		cmp	r4, #1
 2651 000a 22D1     		bne	.L198
 2652 000c 0546     		mov	r5, r0
 2653 000e 0E46     		mov	r6, r1
1145:SensorLib\max30102/driver_max30102.c ****     {
1146:SensorLib\max30102/driver_max30102.c ****         return 3;                                                                                  
1147:SensorLib\max30102/driver_max30102.c ****     }
1148:SensorLib\max30102/driver_max30102.c ****     
1149:SensorLib\max30102/driver_max30102.c ****     res = handle->iic_read(MAX30102_ADDRESS, MAX30102_REG_FIFO_CONFIG, (uint8_t *)&prev, 1);       
 2654              		.loc 1 1149 0
 2655 0010 8768     		ldr	r7, [r0, #8]
 2656 0012 0123     		movs	r3, #1
 2657 0014 0DF10702 		add	r2, sp, #7
 2658 0018 0821     		movs	r1, #8
 2659              	.LVL364:
 2660 001a 5720     		movs	r0, #87
 2661              	.LVL365:
 2662 001c B847     		blx	r7
 2663              	.LVL366:
1150:SensorLib\max30102/driver_max30102.c ****     if (res != 0)                                                                                  
 2664              		.loc 1 1150 0
 2665 001e 18B1     		cbz	r0, .L196
1151:SensorLib\max30102/driver_max30102.c ****     {
1152:SensorLib\max30102/driver_max30102.c ****         handle->debug_print("max30102: read fifo config failed.\n");                               
 2666              		.loc 1 1152 0
 2667 0020 AB69     		ldr	r3, [r5, #24]
 2668 0022 0F48     		ldr	r0, .L201
 2669              	.LVL367:
 2670 0024 9847     		blx	r3
 2671              	.LVL368:
1153:SensorLib\max30102/driver_max30102.c ****        
1154:SensorLib\max30102/driver_max30102.c ****         return 1;                                                                                  
ARM GAS  C:\Users\CHRONI~1\AppData\Local\Temp\cc7oUGua.s 			page 69


 2672              		.loc 1 1154 0
 2673 0026 17E0     		b	.L195
 2674              	.LVL369:
 2675              	.L196:
1155:SensorLib\max30102/driver_max30102.c ****     }
1156:SensorLib\max30102/driver_max30102.c ****     prev &= ~(0x7 << 5);                                                                           
 2676              		.loc 1 1156 0
 2677 0028 9DF80710 		ldrb	r1, [sp, #7]	@ zero_extendqisi2
 2678 002c 01F01F01 		and	r1, r1, #31
1157:SensorLib\max30102/driver_max30102.c ****     prev |= sample << 5;                                                                           
 2679              		.loc 1 1157 0
 2680 0030 41EA4611 		orr	r1, r1, r6, lsl #5
 2681 0034 02AA     		add	r2, sp, #8
 2682 0036 02F8011D 		strb	r1, [r2, #-1]!
1158:SensorLib\max30102/driver_max30102.c ****     res = handle->iic_write(MAX30102_ADDRESS, MAX30102_REG_FIFO_CONFIG, (uint8_t *)&prev, 1);      
 2683              		.loc 1 1158 0
 2684 003a EE68     		ldr	r6, [r5, #12]
 2685 003c 0123     		movs	r3, #1
 2686 003e 0821     		movs	r1, #8
 2687 0040 5720     		movs	r0, #87
 2688              	.LVL370:
 2689 0042 B047     		blx	r6
 2690              	.LVL371:
1159:SensorLib\max30102/driver_max30102.c ****     if (res != 0)                                                                                  
 2691              		.loc 1 1159 0
 2692 0044 38B1     		cbz	r0, .L199
1160:SensorLib\max30102/driver_max30102.c ****     {
1161:SensorLib\max30102/driver_max30102.c ****         handle->debug_print("max30102: write fifo config failed.\n");                              
 2693              		.loc 1 1161 0
 2694 0046 AB69     		ldr	r3, [r5, #24]
 2695 0048 0648     		ldr	r0, .L201+4
 2696              	.LVL372:
 2697 004a 9847     		blx	r3
 2698              	.LVL373:
1162:SensorLib\max30102/driver_max30102.c ****        
1163:SensorLib\max30102/driver_max30102.c ****         return 1;                                                                                  
 2699              		.loc 1 1163 0
 2700 004c 04E0     		b	.L195
 2701              	.LVL374:
 2702              	.L197:
1142:SensorLib\max30102/driver_max30102.c ****     }
 2703              		.loc 1 1142 0
 2704 004e 0224     		movs	r4, #2
 2705 0050 02E0     		b	.L195
 2706              	.L198:
1146:SensorLib\max30102/driver_max30102.c ****     }
 2707              		.loc 1 1146 0
 2708 0052 0324     		movs	r4, #3
 2709 0054 00E0     		b	.L195
 2710              	.LVL375:
 2711              	.L199:
1164:SensorLib\max30102/driver_max30102.c ****     }
1165:SensorLib\max30102/driver_max30102.c ****     
1166:SensorLib\max30102/driver_max30102.c ****     return 0;                                                                                      
 2712              		.loc 1 1166 0
 2713 0056 0024     		movs	r4, #0
 2714              	.LVL376:
ARM GAS  C:\Users\CHRONI~1\AppData\Local\Temp\cc7oUGua.s 			page 70


 2715              	.L195:
1167:SensorLib\max30102/driver_max30102.c **** }
 2716              		.loc 1 1167 0
 2717 0058 2046     		mov	r0, r4
 2718 005a 03B0     		add	sp, sp, #12
 2719              		.cfi_def_cfa_offset 20
 2720              		@ sp needed
 2721 005c F0BD     		pop	{r4, r5, r6, r7, pc}
 2722              	.L202:
 2723 005e 00BF     		.align	2
 2724              	.L201:
 2725 0060 F00A0000 		.word	.LC67
 2726 0064 140B0000 		.word	.LC68
 2727              		.cfi_endproc
 2728              	.LFE17:
 2729              		.size	max30102_set_fifo_sample_averaging, .-max30102_set_fifo_sample_averaging
 2730              		.section	.text.max30102_get_fifo_sample_averaging,"ax",%progbits
 2731              		.align	2
 2732              		.global	max30102_get_fifo_sample_averaging
 2733              		.thumb
 2734              		.thumb_func
 2735              		.type	max30102_get_fifo_sample_averaging, %function
 2736              	max30102_get_fifo_sample_averaging:
 2737              	.LFB18:
1168:SensorLib\max30102/driver_max30102.c **** 
1169:SensorLib\max30102/driver_max30102.c **** /**
1170:SensorLib\max30102/driver_max30102.c ****  * @brief      get the fifo sample averaging
1171:SensorLib\max30102/driver_max30102.c ****  * @param[in]  *handle points to a max30102 handle structure
1172:SensorLib\max30102/driver_max30102.c ****  * @param[out] *sample points to a fifo sample averaging buffer
1173:SensorLib\max30102/driver_max30102.c ****  * @return     status code
1174:SensorLib\max30102/driver_max30102.c ****  *             - 0 success
1175:SensorLib\max30102/driver_max30102.c ****  *             - 1 get fifo sample averaging failed
1176:SensorLib\max30102/driver_max30102.c ****  *             - 2 handle is NULL
1177:SensorLib\max30102/driver_max30102.c ****  *             - 3 handle is not initialized
1178:SensorLib\max30102/driver_max30102.c ****  * @note       none
1179:SensorLib\max30102/driver_max30102.c ****  */
1180:SensorLib\max30102/driver_max30102.c **** uint8_t max30102_get_fifo_sample_averaging(max30102_handle_t *handle, max30102_sample_averaging_t *
1181:SensorLib\max30102/driver_max30102.c **** {
 2738              		.loc 1 1181 0
 2739              		.cfi_startproc
 2740              		@ args = 0, pretend = 0, frame = 8
 2741              		@ frame_needed = 0, uses_anonymous_args = 0
 2742              	.LVL377:
 2743 0000 F0B5     		push	{r4, r5, r6, r7, lr}
 2744              		.cfi_def_cfa_offset 20
 2745              		.cfi_offset 4, -20
 2746              		.cfi_offset 5, -16
 2747              		.cfi_offset 6, -12
 2748              		.cfi_offset 7, -8
 2749              		.cfi_offset 14, -4
 2750 0002 83B0     		sub	sp, sp, #12
 2751              		.cfi_def_cfa_offset 32
1182:SensorLib\max30102/driver_max30102.c ****     uint8_t res;
1183:SensorLib\max30102/driver_max30102.c ****     uint8_t prev;
1184:SensorLib\max30102/driver_max30102.c ****     
1185:SensorLib\max30102/driver_max30102.c ****     if (handle == NULL)                                                                            
 2752              		.loc 1 1185 0
ARM GAS  C:\Users\CHRONI~1\AppData\Local\Temp\cc7oUGua.s 			page 71


 2753 0004 B0B1     		cbz	r0, .L206
1186:SensorLib\max30102/driver_max30102.c ****     {
1187:SensorLib\max30102/driver_max30102.c ****         return 2;                                                                                  
1188:SensorLib\max30102/driver_max30102.c ****     }
1189:SensorLib\max30102/driver_max30102.c ****     if (handle->inited != 1)                                                                       
 2754              		.loc 1 1189 0
 2755 0006 047F     		ldrb	r4, [r0, #28]	@ zero_extendqisi2
 2756 0008 012C     		cmp	r4, #1
 2757 000a 15D1     		bne	.L207
 2758 000c 0546     		mov	r5, r0
 2759 000e 0E46     		mov	r6, r1
1190:SensorLib\max30102/driver_max30102.c ****     {
1191:SensorLib\max30102/driver_max30102.c ****         return 3;                                                                                  
1192:SensorLib\max30102/driver_max30102.c ****     }
1193:SensorLib\max30102/driver_max30102.c ****     
1194:SensorLib\max30102/driver_max30102.c ****     res = handle->iic_read(MAX30102_ADDRESS, MAX30102_REG_FIFO_CONFIG, (uint8_t *)&prev, 1);       
 2760              		.loc 1 1194 0
 2761 0010 8768     		ldr	r7, [r0, #8]
 2762 0012 0123     		movs	r3, #1
 2763 0014 0DF10702 		add	r2, sp, #7
 2764 0018 0821     		movs	r1, #8
 2765              	.LVL378:
 2766 001a 5720     		movs	r0, #87
 2767              	.LVL379:
 2768 001c B847     		blx	r7
 2769              	.LVL380:
1195:SensorLib\max30102/driver_max30102.c ****     if (res != 0)                                                                                  
 2770              		.loc 1 1195 0
 2771 001e 18B1     		cbz	r0, .L205
1196:SensorLib\max30102/driver_max30102.c ****     {
1197:SensorLib\max30102/driver_max30102.c ****         handle->debug_print("max30102: read fifo config failed.\n");                               
 2772              		.loc 1 1197 0
 2773 0020 AB69     		ldr	r3, [r5, #24]
 2774 0022 0748     		ldr	r0, .L209
 2775              	.LVL381:
 2776 0024 9847     		blx	r3
 2777              	.LVL382:
1198:SensorLib\max30102/driver_max30102.c ****        
1199:SensorLib\max30102/driver_max30102.c ****         return 1;                                                                                  
 2778              		.loc 1 1199 0
 2779 0026 08E0     		b	.L204
 2780              	.LVL383:
 2781              	.L205:
1200:SensorLib\max30102/driver_max30102.c ****     }
1201:SensorLib\max30102/driver_max30102.c ****     *sample = (max30102_sample_averaging_t)(0x7 & (prev >> 5));                                    
 2782              		.loc 1 1201 0
 2783 0028 9DF80730 		ldrb	r3, [sp, #7]	@ zero_extendqisi2
 2784 002c 5B09     		lsrs	r3, r3, #5
 2785 002e 3370     		strb	r3, [r6]
1202:SensorLib\max30102/driver_max30102.c ****     
1203:SensorLib\max30102/driver_max30102.c ****     return 0;                                                                                      
 2786              		.loc 1 1203 0
 2787 0030 0024     		movs	r4, #0
 2788 0032 02E0     		b	.L204
 2789              	.LVL384:
 2790              	.L206:
1187:SensorLib\max30102/driver_max30102.c ****     }
ARM GAS  C:\Users\CHRONI~1\AppData\Local\Temp\cc7oUGua.s 			page 72


 2791              		.loc 1 1187 0
 2792 0034 0224     		movs	r4, #2
 2793 0036 00E0     		b	.L204
 2794              	.L207:
1191:SensorLib\max30102/driver_max30102.c ****     }
 2795              		.loc 1 1191 0
 2796 0038 0324     		movs	r4, #3
 2797              	.LVL385:
 2798              	.L204:
1204:SensorLib\max30102/driver_max30102.c **** }
 2799              		.loc 1 1204 0
 2800 003a 2046     		mov	r0, r4
 2801 003c 03B0     		add	sp, sp, #12
 2802              		.cfi_def_cfa_offset 20
 2803              		@ sp needed
 2804 003e F0BD     		pop	{r4, r5, r6, r7, pc}
 2805              	.L210:
 2806              		.align	2
 2807              	.L209:
 2808 0040 F00A0000 		.word	.LC67
 2809              		.cfi_endproc
 2810              	.LFE18:
 2811              		.size	max30102_get_fifo_sample_averaging, .-max30102_get_fifo_sample_averaging
 2812              		.section	.text.max30102_set_fifo_roll,"ax",%progbits
 2813              		.align	2
 2814              		.global	max30102_set_fifo_roll
 2815              		.thumb
 2816              		.thumb_func
 2817              		.type	max30102_set_fifo_roll, %function
 2818              	max30102_set_fifo_roll:
 2819              	.LFB19:
1205:SensorLib\max30102/driver_max30102.c **** 
1206:SensorLib\max30102/driver_max30102.c **** /**
1207:SensorLib\max30102/driver_max30102.c ****  * @brief     enable or disable the fifo roll 
1208:SensorLib\max30102/driver_max30102.c ****  * @param[in] *handle points to a max30102 handle structure
1209:SensorLib\max30102/driver_max30102.c ****  * @param[in] enable is a bool value
1210:SensorLib\max30102/driver_max30102.c ****  * @return    status code
1211:SensorLib\max30102/driver_max30102.c ****  *            - 0 success
1212:SensorLib\max30102/driver_max30102.c ****  *            - 1 set fifo roll failed
1213:SensorLib\max30102/driver_max30102.c ****  *            - 2 handle is NULL
1214:SensorLib\max30102/driver_max30102.c ****  *            - 3 handle is not initialized
1215:SensorLib\max30102/driver_max30102.c ****  * @note      none
1216:SensorLib\max30102/driver_max30102.c ****  */
1217:SensorLib\max30102/driver_max30102.c **** uint8_t max30102_set_fifo_roll(max30102_handle_t *handle, max30102_bool_t enable)
1218:SensorLib\max30102/driver_max30102.c **** {
 2820              		.loc 1 1218 0
 2821              		.cfi_startproc
 2822              		@ args = 0, pretend = 0, frame = 8
 2823              		@ frame_needed = 0, uses_anonymous_args = 0
 2824              	.LVL386:
 2825 0000 F0B5     		push	{r4, r5, r6, r7, lr}
 2826              		.cfi_def_cfa_offset 20
 2827              		.cfi_offset 4, -20
 2828              		.cfi_offset 5, -16
 2829              		.cfi_offset 6, -12
 2830              		.cfi_offset 7, -8
 2831              		.cfi_offset 14, -4
ARM GAS  C:\Users\CHRONI~1\AppData\Local\Temp\cc7oUGua.s 			page 73


 2832 0002 83B0     		sub	sp, sp, #12
 2833              		.cfi_def_cfa_offset 32
1219:SensorLib\max30102/driver_max30102.c ****     uint8_t res;
1220:SensorLib\max30102/driver_max30102.c ****     uint8_t prev;
1221:SensorLib\max30102/driver_max30102.c ****     
1222:SensorLib\max30102/driver_max30102.c ****     if (handle == NULL)                                                                            
 2834              		.loc 1 1222 0
 2835 0004 18B3     		cbz	r0, .L214
1223:SensorLib\max30102/driver_max30102.c ****     {
1224:SensorLib\max30102/driver_max30102.c ****         return 2;                                                                                  
1225:SensorLib\max30102/driver_max30102.c ****     }
1226:SensorLib\max30102/driver_max30102.c ****     if (handle->inited != 1)                                                                       
 2836              		.loc 1 1226 0
 2837 0006 047F     		ldrb	r4, [r0, #28]	@ zero_extendqisi2
 2838 0008 012C     		cmp	r4, #1
 2839 000a 22D1     		bne	.L215
 2840 000c 0546     		mov	r5, r0
 2841 000e 0E46     		mov	r6, r1
1227:SensorLib\max30102/driver_max30102.c ****     {
1228:SensorLib\max30102/driver_max30102.c ****         return 3;                                                                                  
1229:SensorLib\max30102/driver_max30102.c ****     }
1230:SensorLib\max30102/driver_max30102.c ****     
1231:SensorLib\max30102/driver_max30102.c ****     res = handle->iic_read(MAX30102_ADDRESS, MAX30102_REG_FIFO_CONFIG, (uint8_t *)&prev, 1);       
 2842              		.loc 1 1231 0
 2843 0010 8768     		ldr	r7, [r0, #8]
 2844 0012 0123     		movs	r3, #1
 2845 0014 0DF10702 		add	r2, sp, #7
 2846 0018 0821     		movs	r1, #8
 2847              	.LVL387:
 2848 001a 5720     		movs	r0, #87
 2849              	.LVL388:
 2850 001c B847     		blx	r7
 2851              	.LVL389:
1232:SensorLib\max30102/driver_max30102.c ****     if (res != 0)                                                                                  
 2852              		.loc 1 1232 0
 2853 001e 18B1     		cbz	r0, .L213
1233:SensorLib\max30102/driver_max30102.c ****     {
1234:SensorLib\max30102/driver_max30102.c ****         handle->debug_print("max30102: read fifo config failed.\n");                               
 2854              		.loc 1 1234 0
 2855 0020 AB69     		ldr	r3, [r5, #24]
 2856 0022 0F48     		ldr	r0, .L218
 2857              	.LVL390:
 2858 0024 9847     		blx	r3
 2859              	.LVL391:
1235:SensorLib\max30102/driver_max30102.c ****        
1236:SensorLib\max30102/driver_max30102.c ****         return 1;                                                                                  
 2860              		.loc 1 1236 0
 2861 0026 17E0     		b	.L212
 2862              	.LVL392:
 2863              	.L213:
1237:SensorLib\max30102/driver_max30102.c ****     }
1238:SensorLib\max30102/driver_max30102.c ****     prev &= ~(0x1 << 4);                                                                           
 2864              		.loc 1 1238 0
 2865 0028 9DF80710 		ldrb	r1, [sp, #7]	@ zero_extendqisi2
 2866 002c 01F0EF01 		and	r1, r1, #239
1239:SensorLib\max30102/driver_max30102.c ****     prev |= enable << 4;                                                                           
 2867              		.loc 1 1239 0
ARM GAS  C:\Users\CHRONI~1\AppData\Local\Temp\cc7oUGua.s 			page 74


 2868 0030 41EA0611 		orr	r1, r1, r6, lsl #4
 2869 0034 02AA     		add	r2, sp, #8
 2870 0036 02F8011D 		strb	r1, [r2, #-1]!
1240:SensorLib\max30102/driver_max30102.c ****     res = handle->iic_write(MAX30102_ADDRESS, MAX30102_REG_FIFO_CONFIG, (uint8_t *)&prev, 1);      
 2871              		.loc 1 1240 0
 2872 003a EE68     		ldr	r6, [r5, #12]
 2873 003c 0123     		movs	r3, #1
 2874 003e 0821     		movs	r1, #8
 2875 0040 5720     		movs	r0, #87
 2876              	.LVL393:
 2877 0042 B047     		blx	r6
 2878              	.LVL394:
1241:SensorLib\max30102/driver_max30102.c ****     if (res != 0)                                                                                  
 2879              		.loc 1 1241 0
 2880 0044 38B1     		cbz	r0, .L216
1242:SensorLib\max30102/driver_max30102.c ****     {
1243:SensorLib\max30102/driver_max30102.c ****         handle->debug_print("max30102: write fifo config failed.\n");                              
 2881              		.loc 1 1243 0
 2882 0046 AB69     		ldr	r3, [r5, #24]
 2883 0048 0648     		ldr	r0, .L218+4
 2884              	.LVL395:
 2885 004a 9847     		blx	r3
 2886              	.LVL396:
1244:SensorLib\max30102/driver_max30102.c ****        
1245:SensorLib\max30102/driver_max30102.c ****         return 1;                                                                                  
 2887              		.loc 1 1245 0
 2888 004c 04E0     		b	.L212
 2889              	.LVL397:
 2890              	.L214:
1224:SensorLib\max30102/driver_max30102.c ****     }
 2891              		.loc 1 1224 0
 2892 004e 0224     		movs	r4, #2
 2893 0050 02E0     		b	.L212
 2894              	.L215:
1228:SensorLib\max30102/driver_max30102.c ****     }
 2895              		.loc 1 1228 0
 2896 0052 0324     		movs	r4, #3
 2897 0054 00E0     		b	.L212
 2898              	.LVL398:
 2899              	.L216:
1246:SensorLib\max30102/driver_max30102.c ****     }
1247:SensorLib\max30102/driver_max30102.c ****     
1248:SensorLib\max30102/driver_max30102.c ****     return 0;                                                                                      
 2900              		.loc 1 1248 0
 2901 0056 0024     		movs	r4, #0
 2902              	.LVL399:
 2903              	.L212:
1249:SensorLib\max30102/driver_max30102.c **** }
 2904              		.loc 1 1249 0
 2905 0058 2046     		mov	r0, r4
 2906 005a 03B0     		add	sp, sp, #12
 2907              		.cfi_def_cfa_offset 20
 2908              		@ sp needed
 2909 005c F0BD     		pop	{r4, r5, r6, r7, pc}
 2910              	.L219:
 2911 005e 00BF     		.align	2
 2912              	.L218:
ARM GAS  C:\Users\CHRONI~1\AppData\Local\Temp\cc7oUGua.s 			page 75


 2913 0060 F00A0000 		.word	.LC67
 2914 0064 140B0000 		.word	.LC68
 2915              		.cfi_endproc
 2916              	.LFE19:
 2917              		.size	max30102_set_fifo_roll, .-max30102_set_fifo_roll
 2918              		.section	.text.max30102_get_fifo_roll,"ax",%progbits
 2919              		.align	2
 2920              		.global	max30102_get_fifo_roll
 2921              		.thumb
 2922              		.thumb_func
 2923              		.type	max30102_get_fifo_roll, %function
 2924              	max30102_get_fifo_roll:
 2925              	.LFB20:
1250:SensorLib\max30102/driver_max30102.c **** 
1251:SensorLib\max30102/driver_max30102.c **** /**
1252:SensorLib\max30102/driver_max30102.c ****  * @brief      get the fifo roll status
1253:SensorLib\max30102/driver_max30102.c ****  * @param[in]  *handle points to a max30102 handle structure
1254:SensorLib\max30102/driver_max30102.c ****  * @param[out] *enable points to a bool value buffer
1255:SensorLib\max30102/driver_max30102.c ****  * @return     status code
1256:SensorLib\max30102/driver_max30102.c ****  *             - 0 success
1257:SensorLib\max30102/driver_max30102.c ****  *             - 1 get fifo roll failed
1258:SensorLib\max30102/driver_max30102.c ****  *             - 2 handle is NULL
1259:SensorLib\max30102/driver_max30102.c ****  *             - 3 handle is not initialized
1260:SensorLib\max30102/driver_max30102.c ****  * @note       none
1261:SensorLib\max30102/driver_max30102.c ****  */
1262:SensorLib\max30102/driver_max30102.c **** uint8_t max30102_get_fifo_roll(max30102_handle_t *handle, max30102_bool_t *enable)
1263:SensorLib\max30102/driver_max30102.c **** {
 2926              		.loc 1 1263 0
 2927              		.cfi_startproc
 2928              		@ args = 0, pretend = 0, frame = 8
 2929              		@ frame_needed = 0, uses_anonymous_args = 0
 2930              	.LVL400:
 2931 0000 F0B5     		push	{r4, r5, r6, r7, lr}
 2932              		.cfi_def_cfa_offset 20
 2933              		.cfi_offset 4, -20
 2934              		.cfi_offset 5, -16
 2935              		.cfi_offset 6, -12
 2936              		.cfi_offset 7, -8
 2937              		.cfi_offset 14, -4
 2938 0002 83B0     		sub	sp, sp, #12
 2939              		.cfi_def_cfa_offset 32
1264:SensorLib\max30102/driver_max30102.c ****     uint8_t res;
1265:SensorLib\max30102/driver_max30102.c ****     uint8_t prev;
1266:SensorLib\max30102/driver_max30102.c ****     
1267:SensorLib\max30102/driver_max30102.c ****     if (handle == NULL)                                                                            
 2940              		.loc 1 1267 0
 2941 0004 B8B1     		cbz	r0, .L223
1268:SensorLib\max30102/driver_max30102.c ****     {
1269:SensorLib\max30102/driver_max30102.c ****         return 2;                                                                                  
1270:SensorLib\max30102/driver_max30102.c ****     }
1271:SensorLib\max30102/driver_max30102.c ****     if (handle->inited != 1)                                                                       
 2942              		.loc 1 1271 0
 2943 0006 047F     		ldrb	r4, [r0, #28]	@ zero_extendqisi2
 2944 0008 012C     		cmp	r4, #1
 2945 000a 16D1     		bne	.L224
 2946 000c 0546     		mov	r5, r0
 2947 000e 0E46     		mov	r6, r1
ARM GAS  C:\Users\CHRONI~1\AppData\Local\Temp\cc7oUGua.s 			page 76


1272:SensorLib\max30102/driver_max30102.c ****     {
1273:SensorLib\max30102/driver_max30102.c ****         return 3;                                                                                  
1274:SensorLib\max30102/driver_max30102.c ****     }
1275:SensorLib\max30102/driver_max30102.c ****     
1276:SensorLib\max30102/driver_max30102.c ****     res = handle->iic_read(MAX30102_ADDRESS, MAX30102_REG_FIFO_CONFIG, (uint8_t *)&prev, 1);       
 2948              		.loc 1 1276 0
 2949 0010 8768     		ldr	r7, [r0, #8]
 2950 0012 0123     		movs	r3, #1
 2951 0014 0DF10702 		add	r2, sp, #7
 2952 0018 0821     		movs	r1, #8
 2953              	.LVL401:
 2954 001a 5720     		movs	r0, #87
 2955              	.LVL402:
 2956 001c B847     		blx	r7
 2957              	.LVL403:
1277:SensorLib\max30102/driver_max30102.c ****     if (res != 0)                                                                                  
 2958              		.loc 1 1277 0
 2959 001e 18B1     		cbz	r0, .L222
1278:SensorLib\max30102/driver_max30102.c ****     {
1279:SensorLib\max30102/driver_max30102.c ****         handle->debug_print("max30102: read fifo config failed.\n");                               
 2960              		.loc 1 1279 0
 2961 0020 AB69     		ldr	r3, [r5, #24]
 2962 0022 0848     		ldr	r0, .L226
 2963              	.LVL404:
 2964 0024 9847     		blx	r3
 2965              	.LVL405:
1280:SensorLib\max30102/driver_max30102.c ****        
1281:SensorLib\max30102/driver_max30102.c ****         return 1;                                                                                  
 2966              		.loc 1 1281 0
 2967 0026 09E0     		b	.L221
 2968              	.LVL406:
 2969              	.L222:
1282:SensorLib\max30102/driver_max30102.c ****     }
1283:SensorLib\max30102/driver_max30102.c ****     *enable = (max30102_bool_t)(0x1 & (prev >> 4));                                                
 2970              		.loc 1 1283 0
 2971 0028 9DF80730 		ldrb	r3, [sp, #7]	@ zero_extendqisi2
 2972 002c C3F30013 		ubfx	r3, r3, #4, #1
 2973 0030 3370     		strb	r3, [r6]
1284:SensorLib\max30102/driver_max30102.c ****     
1285:SensorLib\max30102/driver_max30102.c ****     return 0;                                                                                      
 2974              		.loc 1 1285 0
 2975 0032 0024     		movs	r4, #0
 2976 0034 02E0     		b	.L221
 2977              	.LVL407:
 2978              	.L223:
1269:SensorLib\max30102/driver_max30102.c ****     }
 2979              		.loc 1 1269 0
 2980 0036 0224     		movs	r4, #2
 2981 0038 00E0     		b	.L221
 2982              	.L224:
1273:SensorLib\max30102/driver_max30102.c ****     }
 2983              		.loc 1 1273 0
 2984 003a 0324     		movs	r4, #3
 2985              	.LVL408:
 2986              	.L221:
1286:SensorLib\max30102/driver_max30102.c **** }
 2987              		.loc 1 1286 0
ARM GAS  C:\Users\CHRONI~1\AppData\Local\Temp\cc7oUGua.s 			page 77


 2988 003c 2046     		mov	r0, r4
 2989 003e 03B0     		add	sp, sp, #12
 2990              		.cfi_def_cfa_offset 20
 2991              		@ sp needed
 2992 0040 F0BD     		pop	{r4, r5, r6, r7, pc}
 2993              	.L227:
 2994 0042 00BF     		.align	2
 2995              	.L226:
 2996 0044 F00A0000 		.word	.LC67
 2997              		.cfi_endproc
 2998              	.LFE20:
 2999              		.size	max30102_get_fifo_roll, .-max30102_get_fifo_roll
 3000              		.section	.text.max30102_set_fifo_almost_full,"ax",%progbits
 3001              		.align	2
 3002              		.global	max30102_set_fifo_almost_full
 3003              		.thumb
 3004              		.thumb_func
 3005              		.type	max30102_set_fifo_almost_full, %function
 3006              	max30102_set_fifo_almost_full:
 3007              	.LFB21:
1287:SensorLib\max30102/driver_max30102.c **** 
1288:SensorLib\max30102/driver_max30102.c **** /**
1289:SensorLib\max30102/driver_max30102.c ****  * @brief     set the fifo almost full value
1290:SensorLib\max30102/driver_max30102.c ****  * @param[in] *handle points to a max30102 handle structure
1291:SensorLib\max30102/driver_max30102.c ****  * @param[in] value is the fifo almost full value
1292:SensorLib\max30102/driver_max30102.c ****  * @return    status code
1293:SensorLib\max30102/driver_max30102.c ****  *            - 0 success
1294:SensorLib\max30102/driver_max30102.c ****  *            - 1 set fifo almost full failed
1295:SensorLib\max30102/driver_max30102.c ****  *            - 2 handle is NULL
1296:SensorLib\max30102/driver_max30102.c ****  *            - 3 handle is not initialized
1297:SensorLib\max30102/driver_max30102.c ****  *            - 4 value can't be over 0xF
1298:SensorLib\max30102/driver_max30102.c ****  * @note      none
1299:SensorLib\max30102/driver_max30102.c ****  */
1300:SensorLib\max30102/driver_max30102.c **** uint8_t max30102_set_fifo_almost_full(max30102_handle_t *handle, uint8_t value)
1301:SensorLib\max30102/driver_max30102.c **** {
 3008              		.loc 1 1301 0
 3009              		.cfi_startproc
 3010              		@ args = 0, pretend = 0, frame = 8
 3011              		@ frame_needed = 0, uses_anonymous_args = 0
 3012              	.LVL409:
 3013 0000 F0B5     		push	{r4, r5, r6, r7, lr}
 3014              		.cfi_def_cfa_offset 20
 3015              		.cfi_offset 4, -20
 3016              		.cfi_offset 5, -16
 3017              		.cfi_offset 6, -12
 3018              		.cfi_offset 7, -8
 3019              		.cfi_offset 14, -4
 3020 0002 83B0     		sub	sp, sp, #12
 3021              		.cfi_def_cfa_offset 32
1302:SensorLib\max30102/driver_max30102.c ****     uint8_t res;
1303:SensorLib\max30102/driver_max30102.c ****     uint8_t prev;
1304:SensorLib\max30102/driver_max30102.c ****     
1305:SensorLib\max30102/driver_max30102.c ****     if (handle == NULL)                                                                            
 3022              		.loc 1 1305 0
 3023 0004 48B3     		cbz	r0, .L232
1306:SensorLib\max30102/driver_max30102.c ****     {
1307:SensorLib\max30102/driver_max30102.c ****         return 2;                                                                                  
ARM GAS  C:\Users\CHRONI~1\AppData\Local\Temp\cc7oUGua.s 			page 78


1308:SensorLib\max30102/driver_max30102.c ****     }
1309:SensorLib\max30102/driver_max30102.c ****     if (handle->inited != 1)                                                                       
 3024              		.loc 1 1309 0
 3025 0006 047F     		ldrb	r4, [r0, #28]	@ zero_extendqisi2
 3026 0008 012C     		cmp	r4, #1
 3027 000a 28D1     		bne	.L233
 3028 000c 0546     		mov	r5, r0
 3029 000e 0E46     		mov	r6, r1
1310:SensorLib\max30102/driver_max30102.c ****     {
1311:SensorLib\max30102/driver_max30102.c ****         return 3;                                                                                  
1312:SensorLib\max30102/driver_max30102.c ****     }
1313:SensorLib\max30102/driver_max30102.c ****     if (value > 0xF)                                                                               
 3030              		.loc 1 1313 0
 3031 0010 0F29     		cmp	r1, #15
 3032 0012 04D9     		bls	.L230
1314:SensorLib\max30102/driver_max30102.c ****     {
1315:SensorLib\max30102/driver_max30102.c ****         handle->debug_print("max30102: value can't be over 0xF.\n");                               
 3033              		.loc 1 1315 0
 3034 0014 8369     		ldr	r3, [r0, #24]
 3035 0016 1548     		ldr	r0, .L236
 3036              	.LVL410:
 3037 0018 9847     		blx	r3
 3038              	.LVL411:
1316:SensorLib\max30102/driver_max30102.c ****        
1317:SensorLib\max30102/driver_max30102.c ****         return 4;                                                                                  
 3039              		.loc 1 1317 0
 3040 001a 0424     		movs	r4, #4
 3041 001c 22E0     		b	.L229
 3042              	.LVL412:
 3043              	.L230:
1318:SensorLib\max30102/driver_max30102.c ****     }
1319:SensorLib\max30102/driver_max30102.c ****     
1320:SensorLib\max30102/driver_max30102.c ****     res = handle->iic_read(MAX30102_ADDRESS, MAX30102_REG_FIFO_CONFIG, (uint8_t *)&prev, 1);       
 3044              		.loc 1 1320 0
 3045 001e 8768     		ldr	r7, [r0, #8]
 3046 0020 0123     		movs	r3, #1
 3047 0022 0DF10702 		add	r2, sp, #7
 3048 0026 0821     		movs	r1, #8
 3049              	.LVL413:
 3050 0028 5720     		movs	r0, #87
 3051              	.LVL414:
 3052 002a B847     		blx	r7
 3053              	.LVL415:
1321:SensorLib\max30102/driver_max30102.c ****     if (res != 0)                                                                                  
 3054              		.loc 1 1321 0
 3055 002c 18B1     		cbz	r0, .L231
1322:SensorLib\max30102/driver_max30102.c ****     {
1323:SensorLib\max30102/driver_max30102.c ****         handle->debug_print("max30102: read fifo config failed.\n");                               
 3056              		.loc 1 1323 0
 3057 002e AB69     		ldr	r3, [r5, #24]
 3058 0030 0F48     		ldr	r0, .L236+4
 3059              	.LVL416:
 3060 0032 9847     		blx	r3
 3061              	.LVL417:
1324:SensorLib\max30102/driver_max30102.c ****        
1325:SensorLib\max30102/driver_max30102.c ****         return 1;                                                                                  
 3062              		.loc 1 1325 0
ARM GAS  C:\Users\CHRONI~1\AppData\Local\Temp\cc7oUGua.s 			page 79


 3063 0034 16E0     		b	.L229
 3064              	.LVL418:
 3065              	.L231:
1326:SensorLib\max30102/driver_max30102.c ****     }
1327:SensorLib\max30102/driver_max30102.c ****     prev &= ~(0xF << 0);                                                                           
 3066              		.loc 1 1327 0
 3067 0036 9DF80710 		ldrb	r1, [sp, #7]	@ zero_extendqisi2
 3068 003a 01F0F001 		and	r1, r1, #240
1328:SensorLib\max30102/driver_max30102.c ****     prev |= value << 0;                                                                            
 3069              		.loc 1 1328 0
 3070 003e 3143     		orrs	r1, r1, r6
 3071 0040 02AA     		add	r2, sp, #8
 3072 0042 02F8011D 		strb	r1, [r2, #-1]!
1329:SensorLib\max30102/driver_max30102.c ****     res = handle->iic_write(MAX30102_ADDRESS, MAX30102_REG_FIFO_CONFIG, (uint8_t *)&prev, 1);      
 3073              		.loc 1 1329 0
 3074 0046 EE68     		ldr	r6, [r5, #12]
 3075 0048 0123     		movs	r3, #1
 3076 004a 0821     		movs	r1, #8
 3077 004c 5720     		movs	r0, #87
 3078              	.LVL419:
 3079 004e B047     		blx	r6
 3080              	.LVL420:
1330:SensorLib\max30102/driver_max30102.c ****     if (res != 0)                                                                                  
 3081              		.loc 1 1330 0
 3082 0050 38B1     		cbz	r0, .L234
1331:SensorLib\max30102/driver_max30102.c ****     {
1332:SensorLib\max30102/driver_max30102.c ****         handle->debug_print("max30102: write fifo config failed.\n");                              
 3083              		.loc 1 1332 0
 3084 0052 AB69     		ldr	r3, [r5, #24]
 3085 0054 0748     		ldr	r0, .L236+8
 3086              	.LVL421:
 3087 0056 9847     		blx	r3
 3088              	.LVL422:
1333:SensorLib\max30102/driver_max30102.c ****        
1334:SensorLib\max30102/driver_max30102.c ****         return 1;                                                                                  
 3089              		.loc 1 1334 0
 3090 0058 04E0     		b	.L229
 3091              	.LVL423:
 3092              	.L232:
1307:SensorLib\max30102/driver_max30102.c ****     }
 3093              		.loc 1 1307 0
 3094 005a 0224     		movs	r4, #2
 3095 005c 02E0     		b	.L229
 3096              	.L233:
1311:SensorLib\max30102/driver_max30102.c ****     }
 3097              		.loc 1 1311 0
 3098 005e 0324     		movs	r4, #3
 3099 0060 00E0     		b	.L229
 3100              	.LVL424:
 3101              	.L234:
1335:SensorLib\max30102/driver_max30102.c ****     }
1336:SensorLib\max30102/driver_max30102.c ****     
1337:SensorLib\max30102/driver_max30102.c ****     return 0;                                                                                      
 3102              		.loc 1 1337 0
 3103 0062 0024     		movs	r4, #0
 3104              	.LVL425:
 3105              	.L229:
ARM GAS  C:\Users\CHRONI~1\AppData\Local\Temp\cc7oUGua.s 			page 80


1338:SensorLib\max30102/driver_max30102.c **** }
 3106              		.loc 1 1338 0
 3107 0064 2046     		mov	r0, r4
 3108 0066 03B0     		add	sp, sp, #12
 3109              		.cfi_def_cfa_offset 20
 3110              		@ sp needed
 3111 0068 F0BD     		pop	{r4, r5, r6, r7, pc}
 3112              	.L237:
 3113 006a 00BF     		.align	2
 3114              	.L236:
 3115 006c 3C0B0000 		.word	.LC69
 3116 0070 F00A0000 		.word	.LC67
 3117 0074 140B0000 		.word	.LC68
 3118              		.cfi_endproc
 3119              	.LFE21:
 3120              		.size	max30102_set_fifo_almost_full, .-max30102_set_fifo_almost_full
 3121              		.section	.text.max30102_get_fifo_almost_full,"ax",%progbits
 3122              		.align	2
 3123              		.global	max30102_get_fifo_almost_full
 3124              		.thumb
 3125              		.thumb_func
 3126              		.type	max30102_get_fifo_almost_full, %function
 3127              	max30102_get_fifo_almost_full:
 3128              	.LFB22:
1339:SensorLib\max30102/driver_max30102.c **** 
1340:SensorLib\max30102/driver_max30102.c **** /**
1341:SensorLib\max30102/driver_max30102.c ****  * @brief      get the fifo almost full value
1342:SensorLib\max30102/driver_max30102.c ****  * @param[in]  *handle points to a max30102 handle structure
1343:SensorLib\max30102/driver_max30102.c ****  * @param[out] *value points to a fifo almost full value buffer
1344:SensorLib\max30102/driver_max30102.c ****  * @return     status code
1345:SensorLib\max30102/driver_max30102.c ****  *             - 0 success
1346:SensorLib\max30102/driver_max30102.c ****  *             - 1 get fifo almost full failed
1347:SensorLib\max30102/driver_max30102.c ****  *             - 2 handle is NULL
1348:SensorLib\max30102/driver_max30102.c ****  *             - 3 handle is not initialized
1349:SensorLib\max30102/driver_max30102.c ****  * @note      none
1350:SensorLib\max30102/driver_max30102.c ****  */
1351:SensorLib\max30102/driver_max30102.c **** uint8_t max30102_get_fifo_almost_full(max30102_handle_t *handle, uint8_t *value)
1352:SensorLib\max30102/driver_max30102.c **** {
 3129              		.loc 1 1352 0
 3130              		.cfi_startproc
 3131              		@ args = 0, pretend = 0, frame = 8
 3132              		@ frame_needed = 0, uses_anonymous_args = 0
 3133              	.LVL426:
 3134 0000 F0B5     		push	{r4, r5, r6, r7, lr}
 3135              		.cfi_def_cfa_offset 20
 3136              		.cfi_offset 4, -20
 3137              		.cfi_offset 5, -16
 3138              		.cfi_offset 6, -12
 3139              		.cfi_offset 7, -8
 3140              		.cfi_offset 14, -4
 3141 0002 83B0     		sub	sp, sp, #12
 3142              		.cfi_def_cfa_offset 32
1353:SensorLib\max30102/driver_max30102.c ****     uint8_t res;
1354:SensorLib\max30102/driver_max30102.c ****     uint8_t prev;
1355:SensorLib\max30102/driver_max30102.c ****     
1356:SensorLib\max30102/driver_max30102.c ****     if (handle == NULL)                                                                            
 3143              		.loc 1 1356 0
ARM GAS  C:\Users\CHRONI~1\AppData\Local\Temp\cc7oUGua.s 			page 81


 3144 0004 B8B1     		cbz	r0, .L241
1357:SensorLib\max30102/driver_max30102.c ****     {
1358:SensorLib\max30102/driver_max30102.c ****         return 2;                                                                                  
1359:SensorLib\max30102/driver_max30102.c ****     }
1360:SensorLib\max30102/driver_max30102.c ****     if (handle->inited != 1)                                                                       
 3145              		.loc 1 1360 0
 3146 0006 047F     		ldrb	r4, [r0, #28]	@ zero_extendqisi2
 3147 0008 012C     		cmp	r4, #1
 3148 000a 16D1     		bne	.L242
 3149 000c 0546     		mov	r5, r0
 3150 000e 0E46     		mov	r6, r1
1361:SensorLib\max30102/driver_max30102.c ****     {
1362:SensorLib\max30102/driver_max30102.c ****         return 3;                                                                                  
1363:SensorLib\max30102/driver_max30102.c ****     }
1364:SensorLib\max30102/driver_max30102.c ****     
1365:SensorLib\max30102/driver_max30102.c ****     res = handle->iic_read(MAX30102_ADDRESS, MAX30102_REG_FIFO_CONFIG, (uint8_t *)&prev, 1);       
 3151              		.loc 1 1365 0
 3152 0010 8768     		ldr	r7, [r0, #8]
 3153 0012 0123     		movs	r3, #1
 3154 0014 0DF10702 		add	r2, sp, #7
 3155 0018 0821     		movs	r1, #8
 3156              	.LVL427:
 3157 001a 5720     		movs	r0, #87
 3158              	.LVL428:
 3159 001c B847     		blx	r7
 3160              	.LVL429:
1366:SensorLib\max30102/driver_max30102.c ****     if (res != 0)                                                                                  
 3161              		.loc 1 1366 0
 3162 001e 18B1     		cbz	r0, .L240
1367:SensorLib\max30102/driver_max30102.c ****     {
1368:SensorLib\max30102/driver_max30102.c ****         handle->debug_print("max30102: read fifo config failed.\n");                               
 3163              		.loc 1 1368 0
 3164 0020 AB69     		ldr	r3, [r5, #24]
 3165 0022 0848     		ldr	r0, .L244
 3166              	.LVL430:
 3167 0024 9847     		blx	r3
 3168              	.LVL431:
1369:SensorLib\max30102/driver_max30102.c ****        
1370:SensorLib\max30102/driver_max30102.c ****         return 1;                                                                                  
 3169              		.loc 1 1370 0
 3170 0026 09E0     		b	.L239
 3171              	.LVL432:
 3172              	.L240:
1371:SensorLib\max30102/driver_max30102.c ****     }
1372:SensorLib\max30102/driver_max30102.c ****     *value = prev & 0xF;                                                                           
 3173              		.loc 1 1372 0
 3174 0028 9DF80730 		ldrb	r3, [sp, #7]	@ zero_extendqisi2
 3175 002c 03F00F03 		and	r3, r3, #15
 3176 0030 3370     		strb	r3, [r6]
1373:SensorLib\max30102/driver_max30102.c ****     
1374:SensorLib\max30102/driver_max30102.c ****     return 0;                                                                                      
 3177              		.loc 1 1374 0
 3178 0032 0024     		movs	r4, #0
 3179 0034 02E0     		b	.L239
 3180              	.LVL433:
 3181              	.L241:
1358:SensorLib\max30102/driver_max30102.c ****     }
ARM GAS  C:\Users\CHRONI~1\AppData\Local\Temp\cc7oUGua.s 			page 82


 3182              		.loc 1 1358 0
 3183 0036 0224     		movs	r4, #2
 3184 0038 00E0     		b	.L239
 3185              	.L242:
1362:SensorLib\max30102/driver_max30102.c ****     }
 3186              		.loc 1 1362 0
 3187 003a 0324     		movs	r4, #3
 3188              	.LVL434:
 3189              	.L239:
1375:SensorLib\max30102/driver_max30102.c **** }
 3190              		.loc 1 1375 0
 3191 003c 2046     		mov	r0, r4
 3192 003e 03B0     		add	sp, sp, #12
 3193              		.cfi_def_cfa_offset 20
 3194              		@ sp needed
 3195 0040 F0BD     		pop	{r4, r5, r6, r7, pc}
 3196              	.L245:
 3197 0042 00BF     		.align	2
 3198              	.L244:
 3199 0044 F00A0000 		.word	.LC67
 3200              		.cfi_endproc
 3201              	.LFE22:
 3202              		.size	max30102_get_fifo_almost_full, .-max30102_get_fifo_almost_full
 3203              		.section	.text.max30102_set_shutdown,"ax",%progbits
 3204              		.align	2
 3205              		.global	max30102_set_shutdown
 3206              		.thumb
 3207              		.thumb_func
 3208              		.type	max30102_set_shutdown, %function
 3209              	max30102_set_shutdown:
 3210              	.LFB23:
1376:SensorLib\max30102/driver_max30102.c **** 
1377:SensorLib\max30102/driver_max30102.c **** /**
1378:SensorLib\max30102/driver_max30102.c ****  * @brief     set the shutdown
1379:SensorLib\max30102/driver_max30102.c ****  * @param[in] *handle points to a max30102 handle structure
1380:SensorLib\max30102/driver_max30102.c ****  * @param[in] enable is a bool value
1381:SensorLib\max30102/driver_max30102.c ****  * @return    status code
1382:SensorLib\max30102/driver_max30102.c ****  *            - 0 success
1383:SensorLib\max30102/driver_max30102.c ****  *            - 1 set shutdown failed
1384:SensorLib\max30102/driver_max30102.c ****  *            - 2 handle is NULL
1385:SensorLib\max30102/driver_max30102.c ****  *            - 3 handle is not initialized
1386:SensorLib\max30102/driver_max30102.c ****  * @note      none
1387:SensorLib\max30102/driver_max30102.c ****  */
1388:SensorLib\max30102/driver_max30102.c **** uint8_t max30102_set_shutdown(max30102_handle_t *handle, max30102_bool_t enable)
1389:SensorLib\max30102/driver_max30102.c **** {
 3211              		.loc 1 1389 0
 3212              		.cfi_startproc
 3213              		@ args = 0, pretend = 0, frame = 8
 3214              		@ frame_needed = 0, uses_anonymous_args = 0
 3215              	.LVL435:
 3216 0000 F0B5     		push	{r4, r5, r6, r7, lr}
 3217              		.cfi_def_cfa_offset 20
 3218              		.cfi_offset 4, -20
 3219              		.cfi_offset 5, -16
 3220              		.cfi_offset 6, -12
 3221              		.cfi_offset 7, -8
 3222              		.cfi_offset 14, -4
ARM GAS  C:\Users\CHRONI~1\AppData\Local\Temp\cc7oUGua.s 			page 83


 3223 0002 83B0     		sub	sp, sp, #12
 3224              		.cfi_def_cfa_offset 32
1390:SensorLib\max30102/driver_max30102.c ****     uint8_t res;
1391:SensorLib\max30102/driver_max30102.c ****     uint8_t prev;
1392:SensorLib\max30102/driver_max30102.c ****     
1393:SensorLib\max30102/driver_max30102.c ****     if (handle == NULL)                                                                            
 3225              		.loc 1 1393 0
 3226 0004 18B3     		cbz	r0, .L249
1394:SensorLib\max30102/driver_max30102.c ****     {
1395:SensorLib\max30102/driver_max30102.c ****         return 2;                                                                                  
1396:SensorLib\max30102/driver_max30102.c ****     }
1397:SensorLib\max30102/driver_max30102.c ****     if (handle->inited != 1)                                                                       
 3227              		.loc 1 1397 0
 3228 0006 047F     		ldrb	r4, [r0, #28]	@ zero_extendqisi2
 3229 0008 012C     		cmp	r4, #1
 3230 000a 22D1     		bne	.L250
 3231 000c 0546     		mov	r5, r0
 3232 000e 0E46     		mov	r6, r1
1398:SensorLib\max30102/driver_max30102.c ****     {
1399:SensorLib\max30102/driver_max30102.c ****         return 3;                                                                                  
1400:SensorLib\max30102/driver_max30102.c ****     }
1401:SensorLib\max30102/driver_max30102.c ****     
1402:SensorLib\max30102/driver_max30102.c ****     res = handle->iic_read(MAX30102_ADDRESS, MAX30102_REG_MODE_CONFIG, (uint8_t *)&prev, 1);       
 3233              		.loc 1 1402 0
 3234 0010 8768     		ldr	r7, [r0, #8]
 3235 0012 0123     		movs	r3, #1
 3236 0014 0DF10702 		add	r2, sp, #7
 3237 0018 0921     		movs	r1, #9
 3238              	.LVL436:
 3239 001a 5720     		movs	r0, #87
 3240              	.LVL437:
 3241 001c B847     		blx	r7
 3242              	.LVL438:
1403:SensorLib\max30102/driver_max30102.c ****     if (res != 0)                                                                                  
 3243              		.loc 1 1403 0
 3244 001e 18B1     		cbz	r0, .L248
1404:SensorLib\max30102/driver_max30102.c ****     {
1405:SensorLib\max30102/driver_max30102.c ****         handle->debug_print("max30102: read mode config failed.\n");                               
 3245              		.loc 1 1405 0
 3246 0020 AB69     		ldr	r3, [r5, #24]
 3247 0022 0F48     		ldr	r0, .L253
 3248              	.LVL439:
 3249 0024 9847     		blx	r3
 3250              	.LVL440:
1406:SensorLib\max30102/driver_max30102.c ****        
1407:SensorLib\max30102/driver_max30102.c ****         return 1;                                                                                  
 3251              		.loc 1 1407 0
 3252 0026 17E0     		b	.L247
 3253              	.LVL441:
 3254              	.L248:
1408:SensorLib\max30102/driver_max30102.c ****     }
1409:SensorLib\max30102/driver_max30102.c ****     prev &= ~(1 << 7);                                                                             
 3255              		.loc 1 1409 0
 3256 0028 9DF80710 		ldrb	r1, [sp, #7]	@ zero_extendqisi2
 3257 002c 01F07F01 		and	r1, r1, #127
1410:SensorLib\max30102/driver_max30102.c ****     prev |= enable << 7;                                                                           
 3258              		.loc 1 1410 0
ARM GAS  C:\Users\CHRONI~1\AppData\Local\Temp\cc7oUGua.s 			page 84


 3259 0030 41EAC611 		orr	r1, r1, r6, lsl #7
 3260 0034 02AA     		add	r2, sp, #8
 3261 0036 02F8011D 		strb	r1, [r2, #-1]!
1411:SensorLib\max30102/driver_max30102.c ****     res = handle->iic_write(MAX30102_ADDRESS, MAX30102_REG_MODE_CONFIG, (uint8_t *)&prev, 1);      
 3262              		.loc 1 1411 0
 3263 003a EE68     		ldr	r6, [r5, #12]
 3264 003c 0123     		movs	r3, #1
 3265 003e 0921     		movs	r1, #9
 3266 0040 5720     		movs	r0, #87
 3267              	.LVL442:
 3268 0042 B047     		blx	r6
 3269              	.LVL443:
1412:SensorLib\max30102/driver_max30102.c ****     if (res != 0)                                                                                  
 3270              		.loc 1 1412 0
 3271 0044 38B1     		cbz	r0, .L251
1413:SensorLib\max30102/driver_max30102.c ****     {
1414:SensorLib\max30102/driver_max30102.c ****         handle->debug_print("max30102: write mode config failed.\n");                              
 3272              		.loc 1 1414 0
 3273 0046 AB69     		ldr	r3, [r5, #24]
 3274 0048 0648     		ldr	r0, .L253+4
 3275              	.LVL444:
 3276 004a 9847     		blx	r3
 3277              	.LVL445:
1415:SensorLib\max30102/driver_max30102.c ****        
1416:SensorLib\max30102/driver_max30102.c ****         return 1;                                                                                  
 3278              		.loc 1 1416 0
 3279 004c 04E0     		b	.L247
 3280              	.LVL446:
 3281              	.L249:
1395:SensorLib\max30102/driver_max30102.c ****     }
 3282              		.loc 1 1395 0
 3283 004e 0224     		movs	r4, #2
 3284 0050 02E0     		b	.L247
 3285              	.L250:
1399:SensorLib\max30102/driver_max30102.c ****     }
 3286              		.loc 1 1399 0
 3287 0052 0324     		movs	r4, #3
 3288 0054 00E0     		b	.L247
 3289              	.LVL447:
 3290              	.L251:
1417:SensorLib\max30102/driver_max30102.c ****     }
1418:SensorLib\max30102/driver_max30102.c ****     
1419:SensorLib\max30102/driver_max30102.c ****     return 0;                                                                                      
 3291              		.loc 1 1419 0
 3292 0056 0024     		movs	r4, #0
 3293              	.LVL448:
 3294              	.L247:
1420:SensorLib\max30102/driver_max30102.c **** }
 3295              		.loc 1 1420 0
 3296 0058 2046     		mov	r0, r4
 3297 005a 03B0     		add	sp, sp, #12
 3298              		.cfi_def_cfa_offset 20
 3299              		@ sp needed
 3300 005c F0BD     		pop	{r4, r5, r6, r7, pc}
 3301              	.L254:
 3302 005e 00BF     		.align	2
 3303              	.L253:
ARM GAS  C:\Users\CHRONI~1\AppData\Local\Temp\cc7oUGua.s 			page 85


 3304 0060 20060000 		.word	.LC37
 3305 0064 44060000 		.word	.LC38
 3306              		.cfi_endproc
 3307              	.LFE23:
 3308              		.size	max30102_set_shutdown, .-max30102_set_shutdown
 3309              		.section	.text.max30102_get_shutdown,"ax",%progbits
 3310              		.align	2
 3311              		.global	max30102_get_shutdown
 3312              		.thumb
 3313              		.thumb_func
 3314              		.type	max30102_get_shutdown, %function
 3315              	max30102_get_shutdown:
 3316              	.LFB24:
1421:SensorLib\max30102/driver_max30102.c **** 
1422:SensorLib\max30102/driver_max30102.c **** /**
1423:SensorLib\max30102/driver_max30102.c ****  * @brief      get the shutdown
1424:SensorLib\max30102/driver_max30102.c ****  * @param[in]  *handle points to a max30102 handle structure
1425:SensorLib\max30102/driver_max30102.c ****  * @param[out] *enable points to a bool value buffer
1426:SensorLib\max30102/driver_max30102.c ****  * @return     status code
1427:SensorLib\max30102/driver_max30102.c ****  *             - 0 success
1428:SensorLib\max30102/driver_max30102.c ****  *             - 1 get shutdown failed
1429:SensorLib\max30102/driver_max30102.c ****  *             - 2 handle is NULL
1430:SensorLib\max30102/driver_max30102.c ****  *             - 3 handle is not initialized
1431:SensorLib\max30102/driver_max30102.c ****  * @note       none
1432:SensorLib\max30102/driver_max30102.c ****  */
1433:SensorLib\max30102/driver_max30102.c **** uint8_t max30102_get_shutdown(max30102_handle_t *handle, max30102_bool_t *enable)
1434:SensorLib\max30102/driver_max30102.c **** {
 3317              		.loc 1 1434 0
 3318              		.cfi_startproc
 3319              		@ args = 0, pretend = 0, frame = 8
 3320              		@ frame_needed = 0, uses_anonymous_args = 0
 3321              	.LVL449:
 3322 0000 F0B5     		push	{r4, r5, r6, r7, lr}
 3323              		.cfi_def_cfa_offset 20
 3324              		.cfi_offset 4, -20
 3325              		.cfi_offset 5, -16
 3326              		.cfi_offset 6, -12
 3327              		.cfi_offset 7, -8
 3328              		.cfi_offset 14, -4
 3329 0002 83B0     		sub	sp, sp, #12
 3330              		.cfi_def_cfa_offset 32
1435:SensorLib\max30102/driver_max30102.c ****     uint8_t res;
1436:SensorLib\max30102/driver_max30102.c ****     uint8_t prev;
1437:SensorLib\max30102/driver_max30102.c ****     
1438:SensorLib\max30102/driver_max30102.c ****     if (handle == NULL)                                                                            
 3331              		.loc 1 1438 0
 3332 0004 B0B1     		cbz	r0, .L258
1439:SensorLib\max30102/driver_max30102.c ****     {
1440:SensorLib\max30102/driver_max30102.c ****         return 2;                                                                                  
1441:SensorLib\max30102/driver_max30102.c ****     }
1442:SensorLib\max30102/driver_max30102.c ****     if (handle->inited != 1)                                                                       
 3333              		.loc 1 1442 0
 3334 0006 047F     		ldrb	r4, [r0, #28]	@ zero_extendqisi2
 3335 0008 012C     		cmp	r4, #1
 3336 000a 15D1     		bne	.L259
 3337 000c 0546     		mov	r5, r0
 3338 000e 0E46     		mov	r6, r1
ARM GAS  C:\Users\CHRONI~1\AppData\Local\Temp\cc7oUGua.s 			page 86


1443:SensorLib\max30102/driver_max30102.c ****     {
1444:SensorLib\max30102/driver_max30102.c ****         return 3;                                                                                  
1445:SensorLib\max30102/driver_max30102.c ****     }
1446:SensorLib\max30102/driver_max30102.c ****     
1447:SensorLib\max30102/driver_max30102.c ****     res = handle->iic_read(MAX30102_ADDRESS, MAX30102_REG_MODE_CONFIG, (uint8_t *)&prev, 1);       
 3339              		.loc 1 1447 0
 3340 0010 8768     		ldr	r7, [r0, #8]
 3341 0012 0123     		movs	r3, #1
 3342 0014 0DF10702 		add	r2, sp, #7
 3343 0018 0921     		movs	r1, #9
 3344              	.LVL450:
 3345 001a 5720     		movs	r0, #87
 3346              	.LVL451:
 3347 001c B847     		blx	r7
 3348              	.LVL452:
1448:SensorLib\max30102/driver_max30102.c ****     if (res != 0)                                                                                  
 3349              		.loc 1 1448 0
 3350 001e 18B1     		cbz	r0, .L257
1449:SensorLib\max30102/driver_max30102.c ****     {
1450:SensorLib\max30102/driver_max30102.c ****         handle->debug_print("max30102: read mode config failed.\n");                               
 3351              		.loc 1 1450 0
 3352 0020 AB69     		ldr	r3, [r5, #24]
 3353 0022 0748     		ldr	r0, .L261
 3354              	.LVL453:
 3355 0024 9847     		blx	r3
 3356              	.LVL454:
1451:SensorLib\max30102/driver_max30102.c ****        
1452:SensorLib\max30102/driver_max30102.c ****         return 1;                                                                                  
 3357              		.loc 1 1452 0
 3358 0026 08E0     		b	.L256
 3359              	.LVL455:
 3360              	.L257:
1453:SensorLib\max30102/driver_max30102.c ****     }
1454:SensorLib\max30102/driver_max30102.c ****     *enable = (max30102_bool_t)((prev >> 7) & 0x01);                                               
 3361              		.loc 1 1454 0
 3362 0028 9DF80730 		ldrb	r3, [sp, #7]	@ zero_extendqisi2
 3363 002c DB09     		lsrs	r3, r3, #7
 3364 002e 3370     		strb	r3, [r6]
1455:SensorLib\max30102/driver_max30102.c ****     
1456:SensorLib\max30102/driver_max30102.c ****     return 0;                                                                                      
 3365              		.loc 1 1456 0
 3366 0030 0024     		movs	r4, #0
 3367 0032 02E0     		b	.L256
 3368              	.LVL456:
 3369              	.L258:
1440:SensorLib\max30102/driver_max30102.c ****     }
 3370              		.loc 1 1440 0
 3371 0034 0224     		movs	r4, #2
 3372 0036 00E0     		b	.L256
 3373              	.L259:
1444:SensorLib\max30102/driver_max30102.c ****     }
 3374              		.loc 1 1444 0
 3375 0038 0324     		movs	r4, #3
 3376              	.LVL457:
 3377              	.L256:
1457:SensorLib\max30102/driver_max30102.c **** }
 3378              		.loc 1 1457 0
ARM GAS  C:\Users\CHRONI~1\AppData\Local\Temp\cc7oUGua.s 			page 87


 3379 003a 2046     		mov	r0, r4
 3380 003c 03B0     		add	sp, sp, #12
 3381              		.cfi_def_cfa_offset 20
 3382              		@ sp needed
 3383 003e F0BD     		pop	{r4, r5, r6, r7, pc}
 3384              	.L262:
 3385              		.align	2
 3386              	.L261:
 3387 0040 20060000 		.word	.LC37
 3388              		.cfi_endproc
 3389              	.LFE24:
 3390              		.size	max30102_get_shutdown, .-max30102_get_shutdown
 3391              		.section	.text.max30102_reset,"ax",%progbits
 3392              		.align	2
 3393              		.global	max30102_reset
 3394              		.thumb
 3395              		.thumb_func
 3396              		.type	max30102_reset, %function
 3397              	max30102_reset:
 3398              	.LFB25:
1458:SensorLib\max30102/driver_max30102.c **** 
1459:SensorLib\max30102/driver_max30102.c **** /**
1460:SensorLib\max30102/driver_max30102.c ****  * @brief     reset the chip
1461:SensorLib\max30102/driver_max30102.c ****  * @param[in] *handle points to a max30102 handle structure
1462:SensorLib\max30102/driver_max30102.c ****  * @return    status code
1463:SensorLib\max30102/driver_max30102.c ****  *            - 0 success
1464:SensorLib\max30102/driver_max30102.c ****  *            - 1 reset failed
1465:SensorLib\max30102/driver_max30102.c ****  *            - 2 handle is NULL
1466:SensorLib\max30102/driver_max30102.c ****  *            - 3 handle is not initialized
1467:SensorLib\max30102/driver_max30102.c ****  * @note      none
1468:SensorLib\max30102/driver_max30102.c ****  */
1469:SensorLib\max30102/driver_max30102.c **** uint8_t max30102_reset(max30102_handle_t *handle)
1470:SensorLib\max30102/driver_max30102.c **** {
 3399              		.loc 1 1470 0
 3400              		.cfi_startproc
 3401              		@ args = 0, pretend = 0, frame = 8
 3402              		@ frame_needed = 0, uses_anonymous_args = 0
 3403              	.LVL458:
 3404 0000 70B5     		push	{r4, r5, r6, lr}
 3405              		.cfi_def_cfa_offset 16
 3406              		.cfi_offset 4, -16
 3407              		.cfi_offset 5, -12
 3408              		.cfi_offset 6, -8
 3409              		.cfi_offset 14, -4
 3410 0002 82B0     		sub	sp, sp, #8
 3411              		.cfi_def_cfa_offset 24
1471:SensorLib\max30102/driver_max30102.c ****     uint8_t res;
1472:SensorLib\max30102/driver_max30102.c ****     uint8_t prev;
1473:SensorLib\max30102/driver_max30102.c ****     
1474:SensorLib\max30102/driver_max30102.c ****     if (handle == NULL)                                                                            
 3412              		.loc 1 1474 0
 3413 0004 10B3     		cbz	r0, .L266
1475:SensorLib\max30102/driver_max30102.c ****     {
1476:SensorLib\max30102/driver_max30102.c ****         return 2;                                                                                  
1477:SensorLib\max30102/driver_max30102.c ****     }
1478:SensorLib\max30102/driver_max30102.c ****     if (handle->inited != 1)                                                                       
 3414              		.loc 1 1478 0
ARM GAS  C:\Users\CHRONI~1\AppData\Local\Temp\cc7oUGua.s 			page 88


 3415 0006 047F     		ldrb	r4, [r0, #28]	@ zero_extendqisi2
 3416 0008 012C     		cmp	r4, #1
 3417 000a 21D1     		bne	.L267
 3418 000c 0546     		mov	r5, r0
1479:SensorLib\max30102/driver_max30102.c ****     {
1480:SensorLib\max30102/driver_max30102.c ****         return 3;                                                                                  
1481:SensorLib\max30102/driver_max30102.c ****     }
1482:SensorLib\max30102/driver_max30102.c ****     
1483:SensorLib\max30102/driver_max30102.c ****     res = handle->iic_read(MAX30102_ADDRESS, MAX30102_REG_MODE_CONFIG, (uint8_t *)&prev, 1);       
 3419              		.loc 1 1483 0
 3420 000e 8668     		ldr	r6, [r0, #8]
 3421 0010 0123     		movs	r3, #1
 3422 0012 0DF10702 		add	r2, sp, #7
 3423 0016 0921     		movs	r1, #9
 3424 0018 5720     		movs	r0, #87
 3425              	.LVL459:
 3426 001a B047     		blx	r6
 3427              	.LVL460:
1484:SensorLib\max30102/driver_max30102.c ****     if (res != 0)                                                                                  
 3428              		.loc 1 1484 0
 3429 001c 18B1     		cbz	r0, .L265
1485:SensorLib\max30102/driver_max30102.c ****     {
1486:SensorLib\max30102/driver_max30102.c ****         handle->debug_print("max30102: read mode config failed.\n");                               
 3430              		.loc 1 1486 0
 3431 001e AB69     		ldr	r3, [r5, #24]
 3432 0020 0E48     		ldr	r0, .L270
 3433              	.LVL461:
 3434 0022 9847     		blx	r3
 3435              	.LVL462:
1487:SensorLib\max30102/driver_max30102.c ****        
1488:SensorLib\max30102/driver_max30102.c ****         return 1;                                                                                  
 3436              		.loc 1 1488 0
 3437 0024 17E0     		b	.L264
 3438              	.LVL463:
 3439              	.L265:
1489:SensorLib\max30102/driver_max30102.c ****     }
1490:SensorLib\max30102/driver_max30102.c ****     prev &= ~(1 << 6);                                                                             
 3440              		.loc 1 1490 0
 3441 0026 9DF80730 		ldrb	r3, [sp, #7]	@ zero_extendqisi2
 3442 002a 03F0BF03 		and	r3, r3, #191
1491:SensorLib\max30102/driver_max30102.c ****     prev |= 1 << 6;                                                                                
 3443              		.loc 1 1491 0
 3444 002e 43F04003 		orr	r3, r3, #64
 3445 0032 02AA     		add	r2, sp, #8
 3446 0034 02F8013D 		strb	r3, [r2, #-1]!
1492:SensorLib\max30102/driver_max30102.c ****     res = handle->iic_write(MAX30102_ADDRESS, MAX30102_REG_MODE_CONFIG, (uint8_t *)&prev, 1);      
 3447              		.loc 1 1492 0
 3448 0038 EE68     		ldr	r6, [r5, #12]
 3449 003a 0123     		movs	r3, #1
 3450 003c 0921     		movs	r1, #9
 3451 003e 5720     		movs	r0, #87
 3452              	.LVL464:
 3453 0040 B047     		blx	r6
 3454              	.LVL465:
1493:SensorLib\max30102/driver_max30102.c ****     if (res != 0)                                                                                  
 3455              		.loc 1 1493 0
 3456 0042 38B1     		cbz	r0, .L268
ARM GAS  C:\Users\CHRONI~1\AppData\Local\Temp\cc7oUGua.s 			page 89


1494:SensorLib\max30102/driver_max30102.c ****     {
1495:SensorLib\max30102/driver_max30102.c ****         handle->debug_print("max30102: write mode config failed.\n");                              
 3457              		.loc 1 1495 0
 3458 0044 AB69     		ldr	r3, [r5, #24]
 3459 0046 0648     		ldr	r0, .L270+4
 3460              	.LVL466:
 3461 0048 9847     		blx	r3
 3462              	.LVL467:
1496:SensorLib\max30102/driver_max30102.c ****        
1497:SensorLib\max30102/driver_max30102.c ****         return 1;                                                                                  
 3463              		.loc 1 1497 0
 3464 004a 04E0     		b	.L264
 3465              	.LVL468:
 3466              	.L266:
1476:SensorLib\max30102/driver_max30102.c ****     }
 3467              		.loc 1 1476 0
 3468 004c 0224     		movs	r4, #2
 3469 004e 02E0     		b	.L264
 3470              	.L267:
1480:SensorLib\max30102/driver_max30102.c ****     }
 3471              		.loc 1 1480 0
 3472 0050 0324     		movs	r4, #3
 3473 0052 00E0     		b	.L264
 3474              	.LVL469:
 3475              	.L268:
1498:SensorLib\max30102/driver_max30102.c ****     }
1499:SensorLib\max30102/driver_max30102.c ****     
1500:SensorLib\max30102/driver_max30102.c ****     return 0;                                                                                      
 3476              		.loc 1 1500 0
 3477 0054 0024     		movs	r4, #0
 3478              	.LVL470:
 3479              	.L264:
1501:SensorLib\max30102/driver_max30102.c **** }
 3480              		.loc 1 1501 0
 3481 0056 2046     		mov	r0, r4
 3482 0058 02B0     		add	sp, sp, #8
 3483              		.cfi_def_cfa_offset 16
 3484              		@ sp needed
 3485 005a 70BD     		pop	{r4, r5, r6, pc}
 3486              	.L271:
 3487              		.align	2
 3488              	.L270:
 3489 005c 20060000 		.word	.LC37
 3490 0060 44060000 		.word	.LC38
 3491              		.cfi_endproc
 3492              	.LFE25:
 3493              		.size	max30102_reset, .-max30102_reset
 3494              		.section	.text.max30102_set_mode,"ax",%progbits
 3495              		.align	2
 3496              		.global	max30102_set_mode
 3497              		.thumb
 3498              		.thumb_func
 3499              		.type	max30102_set_mode, %function
 3500              	max30102_set_mode:
 3501              	.LFB26:
1502:SensorLib\max30102/driver_max30102.c **** 
1503:SensorLib\max30102/driver_max30102.c **** /**
ARM GAS  C:\Users\CHRONI~1\AppData\Local\Temp\cc7oUGua.s 			page 90


1504:SensorLib\max30102/driver_max30102.c ****  * @brief     set the mode
1505:SensorLib\max30102/driver_max30102.c ****  * @param[in] *handle points to a max30102 handle structure
1506:SensorLib\max30102/driver_max30102.c ****  * @param[in] mode is the chip mode
1507:SensorLib\max30102/driver_max30102.c ****  * @return    status code
1508:SensorLib\max30102/driver_max30102.c ****  *            - 0 success
1509:SensorLib\max30102/driver_max30102.c ****  *            - 1 set mode failed
1510:SensorLib\max30102/driver_max30102.c ****  *            - 2 handle is NULL
1511:SensorLib\max30102/driver_max30102.c ****  *            - 3 handle is not initialized
1512:SensorLib\max30102/driver_max30102.c ****  * @note      none
1513:SensorLib\max30102/driver_max30102.c ****  */
1514:SensorLib\max30102/driver_max30102.c **** uint8_t max30102_set_mode(max30102_handle_t *handle, max30102_mode_t mode)
1515:SensorLib\max30102/driver_max30102.c **** {
 3502              		.loc 1 1515 0
 3503              		.cfi_startproc
 3504              		@ args = 0, pretend = 0, frame = 8
 3505              		@ frame_needed = 0, uses_anonymous_args = 0
 3506              	.LVL471:
 3507 0000 F0B5     		push	{r4, r5, r6, r7, lr}
 3508              		.cfi_def_cfa_offset 20
 3509              		.cfi_offset 4, -20
 3510              		.cfi_offset 5, -16
 3511              		.cfi_offset 6, -12
 3512              		.cfi_offset 7, -8
 3513              		.cfi_offset 14, -4
 3514 0002 83B0     		sub	sp, sp, #12
 3515              		.cfi_def_cfa_offset 32
1516:SensorLib\max30102/driver_max30102.c ****     uint8_t res;
1517:SensorLib\max30102/driver_max30102.c ****     uint8_t prev;
1518:SensorLib\max30102/driver_max30102.c ****     
1519:SensorLib\max30102/driver_max30102.c ****     if (handle == NULL)                                                                            
 3516              		.loc 1 1519 0
 3517 0004 10B3     		cbz	r0, .L275
1520:SensorLib\max30102/driver_max30102.c ****     {
1521:SensorLib\max30102/driver_max30102.c ****         return 2;                                                                                  
1522:SensorLib\max30102/driver_max30102.c ****     }
1523:SensorLib\max30102/driver_max30102.c ****     if (handle->inited != 1)                                                                       
 3518              		.loc 1 1523 0
 3519 0006 047F     		ldrb	r4, [r0, #28]	@ zero_extendqisi2
 3520 0008 012C     		cmp	r4, #1
 3521 000a 21D1     		bne	.L276
 3522 000c 0546     		mov	r5, r0
 3523 000e 0E46     		mov	r6, r1
1524:SensorLib\max30102/driver_max30102.c ****     {
1525:SensorLib\max30102/driver_max30102.c ****         return 3;                                                                                  
1526:SensorLib\max30102/driver_max30102.c ****     }
1527:SensorLib\max30102/driver_max30102.c ****     
1528:SensorLib\max30102/driver_max30102.c ****     res = handle->iic_read(MAX30102_ADDRESS, MAX30102_REG_MODE_CONFIG, (uint8_t *)&prev, 1);       
 3524              		.loc 1 1528 0
 3525 0010 8768     		ldr	r7, [r0, #8]
 3526 0012 0123     		movs	r3, #1
 3527 0014 0DF10702 		add	r2, sp, #7
 3528 0018 0921     		movs	r1, #9
 3529              	.LVL472:
 3530 001a 5720     		movs	r0, #87
 3531              	.LVL473:
 3532 001c B847     		blx	r7
 3533              	.LVL474:
ARM GAS  C:\Users\CHRONI~1\AppData\Local\Temp\cc7oUGua.s 			page 91


1529:SensorLib\max30102/driver_max30102.c ****     if (res != 0)                                                                                  
 3534              		.loc 1 1529 0
 3535 001e 18B1     		cbz	r0, .L274
1530:SensorLib\max30102/driver_max30102.c ****     {
1531:SensorLib\max30102/driver_max30102.c ****         handle->debug_print("max30102: read mode config failed.\n");                               
 3536              		.loc 1 1531 0
 3537 0020 AB69     		ldr	r3, [r5, #24]
 3538 0022 0E48     		ldr	r0, .L279
 3539              	.LVL475:
 3540 0024 9847     		blx	r3
 3541              	.LVL476:
1532:SensorLib\max30102/driver_max30102.c ****        
1533:SensorLib\max30102/driver_max30102.c ****         return 1;                                                                                  
 3542              		.loc 1 1533 0
 3543 0026 16E0     		b	.L273
 3544              	.LVL477:
 3545              	.L274:
1534:SensorLib\max30102/driver_max30102.c ****     }
1535:SensorLib\max30102/driver_max30102.c ****     prev &= ~(7 << 0);                                                                             
 3546              		.loc 1 1535 0
 3547 0028 9DF80710 		ldrb	r1, [sp, #7]	@ zero_extendqisi2
 3548 002c 01F0F801 		and	r1, r1, #248
1536:SensorLib\max30102/driver_max30102.c ****     prev |= mode << 0;                                                                             
 3549              		.loc 1 1536 0
 3550 0030 3143     		orrs	r1, r1, r6
 3551 0032 02AA     		add	r2, sp, #8
 3552 0034 02F8011D 		strb	r1, [r2, #-1]!
1537:SensorLib\max30102/driver_max30102.c ****     res = handle->iic_write(MAX30102_ADDRESS, MAX30102_REG_MODE_CONFIG, (uint8_t *)&prev, 1);      
 3553              		.loc 1 1537 0
 3554 0038 EE68     		ldr	r6, [r5, #12]
 3555 003a 0123     		movs	r3, #1
 3556 003c 0921     		movs	r1, #9
 3557 003e 5720     		movs	r0, #87
 3558              	.LVL478:
 3559 0040 B047     		blx	r6
 3560              	.LVL479:
1538:SensorLib\max30102/driver_max30102.c ****     if (res != 0)                                                                                  
 3561              		.loc 1 1538 0
 3562 0042 38B1     		cbz	r0, .L277
1539:SensorLib\max30102/driver_max30102.c ****     {
1540:SensorLib\max30102/driver_max30102.c ****         handle->debug_print("max30102: write mode config failed.\n");                              
 3563              		.loc 1 1540 0
 3564 0044 AB69     		ldr	r3, [r5, #24]
 3565 0046 0648     		ldr	r0, .L279+4
 3566              	.LVL480:
 3567 0048 9847     		blx	r3
 3568              	.LVL481:
1541:SensorLib\max30102/driver_max30102.c ****        
1542:SensorLib\max30102/driver_max30102.c ****         return 1;                                                                                  
 3569              		.loc 1 1542 0
 3570 004a 04E0     		b	.L273
 3571              	.LVL482:
 3572              	.L275:
1521:SensorLib\max30102/driver_max30102.c ****     }
 3573              		.loc 1 1521 0
 3574 004c 0224     		movs	r4, #2
 3575 004e 02E0     		b	.L273
ARM GAS  C:\Users\CHRONI~1\AppData\Local\Temp\cc7oUGua.s 			page 92


 3576              	.L276:
1525:SensorLib\max30102/driver_max30102.c ****     }
 3577              		.loc 1 1525 0
 3578 0050 0324     		movs	r4, #3
 3579 0052 00E0     		b	.L273
 3580              	.LVL483:
 3581              	.L277:
1543:SensorLib\max30102/driver_max30102.c ****     }
1544:SensorLib\max30102/driver_max30102.c ****     
1545:SensorLib\max30102/driver_max30102.c ****     return 0;                                                                                      
 3582              		.loc 1 1545 0
 3583 0054 0024     		movs	r4, #0
 3584              	.LVL484:
 3585              	.L273:
1546:SensorLib\max30102/driver_max30102.c **** }
 3586              		.loc 1 1546 0
 3587 0056 2046     		mov	r0, r4
 3588 0058 03B0     		add	sp, sp, #12
 3589              		.cfi_def_cfa_offset 20
 3590              		@ sp needed
 3591 005a F0BD     		pop	{r4, r5, r6, r7, pc}
 3592              	.L280:
 3593              		.align	2
 3594              	.L279:
 3595 005c 20060000 		.word	.LC37
 3596 0060 44060000 		.word	.LC38
 3597              		.cfi_endproc
 3598              	.LFE26:
 3599              		.size	max30102_set_mode, .-max30102_set_mode
 3600              		.section	.text.max30102_get_mode,"ax",%progbits
 3601              		.align	2
 3602              		.global	max30102_get_mode
 3603              		.thumb
 3604              		.thumb_func
 3605              		.type	max30102_get_mode, %function
 3606              	max30102_get_mode:
 3607              	.LFB27:
1547:SensorLib\max30102/driver_max30102.c **** 
1548:SensorLib\max30102/driver_max30102.c **** /**
1549:SensorLib\max30102/driver_max30102.c ****  * @brief      get the mode
1550:SensorLib\max30102/driver_max30102.c ****  * @param[in]  *handle points to a max30102 handle structure
1551:SensorLib\max30102/driver_max30102.c ****  * @param[out] *mode points to a chip mode buffer
1552:SensorLib\max30102/driver_max30102.c ****  * @return     status code
1553:SensorLib\max30102/driver_max30102.c ****  *             - 0 success
1554:SensorLib\max30102/driver_max30102.c ****  *             - 1 get mode failed
1555:SensorLib\max30102/driver_max30102.c ****  *             - 2 handle is NULL
1556:SensorLib\max30102/driver_max30102.c ****  *             - 3 handle is not initialized
1557:SensorLib\max30102/driver_max30102.c ****  * @note       none
1558:SensorLib\max30102/driver_max30102.c ****  */
1559:SensorLib\max30102/driver_max30102.c **** uint8_t max30102_get_mode(max30102_handle_t *handle, max30102_mode_t *mode)
1560:SensorLib\max30102/driver_max30102.c **** {
 3608              		.loc 1 1560 0
 3609              		.cfi_startproc
 3610              		@ args = 0, pretend = 0, frame = 8
 3611              		@ frame_needed = 0, uses_anonymous_args = 0
 3612              	.LVL485:
 3613 0000 F0B5     		push	{r4, r5, r6, r7, lr}
ARM GAS  C:\Users\CHRONI~1\AppData\Local\Temp\cc7oUGua.s 			page 93


 3614              		.cfi_def_cfa_offset 20
 3615              		.cfi_offset 4, -20
 3616              		.cfi_offset 5, -16
 3617              		.cfi_offset 6, -12
 3618              		.cfi_offset 7, -8
 3619              		.cfi_offset 14, -4
 3620 0002 83B0     		sub	sp, sp, #12
 3621              		.cfi_def_cfa_offset 32
1561:SensorLib\max30102/driver_max30102.c ****     uint8_t res;
1562:SensorLib\max30102/driver_max30102.c ****     uint8_t prev;
1563:SensorLib\max30102/driver_max30102.c ****     
1564:SensorLib\max30102/driver_max30102.c ****     if (handle == NULL)                                                                            
 3622              		.loc 1 1564 0
 3623 0004 B8B1     		cbz	r0, .L284
1565:SensorLib\max30102/driver_max30102.c ****     {
1566:SensorLib\max30102/driver_max30102.c ****         return 2;                                                                                  
1567:SensorLib\max30102/driver_max30102.c ****     }
1568:SensorLib\max30102/driver_max30102.c ****     if (handle->inited != 1)                                                                       
 3624              		.loc 1 1568 0
 3625 0006 047F     		ldrb	r4, [r0, #28]	@ zero_extendqisi2
 3626 0008 012C     		cmp	r4, #1
 3627 000a 16D1     		bne	.L285
 3628 000c 0546     		mov	r5, r0
 3629 000e 0E46     		mov	r6, r1
1569:SensorLib\max30102/driver_max30102.c ****     {
1570:SensorLib\max30102/driver_max30102.c ****         return 3;                                                                                  
1571:SensorLib\max30102/driver_max30102.c ****     }
1572:SensorLib\max30102/driver_max30102.c ****     
1573:SensorLib\max30102/driver_max30102.c ****     res = handle->iic_read(MAX30102_ADDRESS, MAX30102_REG_MODE_CONFIG, (uint8_t *)&prev, 1);       
 3630              		.loc 1 1573 0
 3631 0010 8768     		ldr	r7, [r0, #8]
 3632 0012 0123     		movs	r3, #1
 3633 0014 0DF10702 		add	r2, sp, #7
 3634 0018 0921     		movs	r1, #9
 3635              	.LVL486:
 3636 001a 5720     		movs	r0, #87
 3637              	.LVL487:
 3638 001c B847     		blx	r7
 3639              	.LVL488:
1574:SensorLib\max30102/driver_max30102.c ****     if (res != 0)                                                                                  
 3640              		.loc 1 1574 0
 3641 001e 18B1     		cbz	r0, .L283
1575:SensorLib\max30102/driver_max30102.c ****     {
1576:SensorLib\max30102/driver_max30102.c ****         handle->debug_print("max30102: read mode config failed.\n");                               
 3642              		.loc 1 1576 0
 3643 0020 AB69     		ldr	r3, [r5, #24]
 3644 0022 0848     		ldr	r0, .L287
 3645              	.LVL489:
 3646 0024 9847     		blx	r3
 3647              	.LVL490:
1577:SensorLib\max30102/driver_max30102.c ****        
1578:SensorLib\max30102/driver_max30102.c ****         return 1;                                                                                  
 3648              		.loc 1 1578 0
 3649 0026 09E0     		b	.L282
 3650              	.LVL491:
 3651              	.L283:
1579:SensorLib\max30102/driver_max30102.c ****     }
ARM GAS  C:\Users\CHRONI~1\AppData\Local\Temp\cc7oUGua.s 			page 94


1580:SensorLib\max30102/driver_max30102.c ****     *mode = (max30102_mode_t)(prev & 0x7);                                                         
 3652              		.loc 1 1580 0
 3653 0028 9DF80730 		ldrb	r3, [sp, #7]	@ zero_extendqisi2
 3654 002c 03F00703 		and	r3, r3, #7
 3655 0030 3370     		strb	r3, [r6]
1581:SensorLib\max30102/driver_max30102.c ****     
1582:SensorLib\max30102/driver_max30102.c ****     return 0;                                                                                      
 3656              		.loc 1 1582 0
 3657 0032 0024     		movs	r4, #0
 3658 0034 02E0     		b	.L282
 3659              	.LVL492:
 3660              	.L284:
1566:SensorLib\max30102/driver_max30102.c ****     }
 3661              		.loc 1 1566 0
 3662 0036 0224     		movs	r4, #2
 3663 0038 00E0     		b	.L282
 3664              	.L285:
1570:SensorLib\max30102/driver_max30102.c ****     }
 3665              		.loc 1 1570 0
 3666 003a 0324     		movs	r4, #3
 3667              	.LVL493:
 3668              	.L282:
1583:SensorLib\max30102/driver_max30102.c **** }
 3669              		.loc 1 1583 0
 3670 003c 2046     		mov	r0, r4
 3671 003e 03B0     		add	sp, sp, #12
 3672              		.cfi_def_cfa_offset 20
 3673              		@ sp needed
 3674 0040 F0BD     		pop	{r4, r5, r6, r7, pc}
 3675              	.L288:
 3676 0042 00BF     		.align	2
 3677              	.L287:
 3678 0044 20060000 		.word	.LC37
 3679              		.cfi_endproc
 3680              	.LFE27:
 3681              		.size	max30102_get_mode, .-max30102_get_mode
 3682              		.section	.text.max30102_set_spo2_adc_range,"ax",%progbits
 3683              		.align	2
 3684              		.global	max30102_set_spo2_adc_range
 3685              		.thumb
 3686              		.thumb_func
 3687              		.type	max30102_set_spo2_adc_range, %function
 3688              	max30102_set_spo2_adc_range:
 3689              	.LFB28:
1584:SensorLib\max30102/driver_max30102.c **** 
1585:SensorLib\max30102/driver_max30102.c **** /**
1586:SensorLib\max30102/driver_max30102.c ****  * @brief     set the spo2 adc range
1587:SensorLib\max30102/driver_max30102.c ****  * @param[in] *handle points to a max30102 handle structure
1588:SensorLib\max30102/driver_max30102.c ****  * @param[in] range is the spo2 adc range
1589:SensorLib\max30102/driver_max30102.c ****  * @return    status code
1590:SensorLib\max30102/driver_max30102.c ****  *            - 0 success
1591:SensorLib\max30102/driver_max30102.c ****  *            - 1 set spo2 adc range failed
1592:SensorLib\max30102/driver_max30102.c ****  *            - 2 handle is NULL
1593:SensorLib\max30102/driver_max30102.c ****  *            - 3 handle is not initialized
1594:SensorLib\max30102/driver_max30102.c ****  * @note      none
1595:SensorLib\max30102/driver_max30102.c ****  */
1596:SensorLib\max30102/driver_max30102.c **** uint8_t max30102_set_spo2_adc_range(max30102_handle_t *handle, max30102_spo2_adc_range_t range)
ARM GAS  C:\Users\CHRONI~1\AppData\Local\Temp\cc7oUGua.s 			page 95


1597:SensorLib\max30102/driver_max30102.c **** {
 3690              		.loc 1 1597 0
 3691              		.cfi_startproc
 3692              		@ args = 0, pretend = 0, frame = 8
 3693              		@ frame_needed = 0, uses_anonymous_args = 0
 3694              	.LVL494:
 3695 0000 F0B5     		push	{r4, r5, r6, r7, lr}
 3696              		.cfi_def_cfa_offset 20
 3697              		.cfi_offset 4, -20
 3698              		.cfi_offset 5, -16
 3699              		.cfi_offset 6, -12
 3700              		.cfi_offset 7, -8
 3701              		.cfi_offset 14, -4
 3702 0002 83B0     		sub	sp, sp, #12
 3703              		.cfi_def_cfa_offset 32
1598:SensorLib\max30102/driver_max30102.c ****     uint8_t res;
1599:SensorLib\max30102/driver_max30102.c ****     uint8_t prev;
1600:SensorLib\max30102/driver_max30102.c ****     
1601:SensorLib\max30102/driver_max30102.c ****     if (handle == NULL)                                                                            
 3704              		.loc 1 1601 0
 3705 0004 18B3     		cbz	r0, .L292
1602:SensorLib\max30102/driver_max30102.c ****     {
1603:SensorLib\max30102/driver_max30102.c ****         return 2;                                                                                  
1604:SensorLib\max30102/driver_max30102.c ****     }
1605:SensorLib\max30102/driver_max30102.c ****     if (handle->inited != 1)                                                                       
 3706              		.loc 1 1605 0
 3707 0006 047F     		ldrb	r4, [r0, #28]	@ zero_extendqisi2
 3708 0008 012C     		cmp	r4, #1
 3709 000a 22D1     		bne	.L293
 3710 000c 0546     		mov	r5, r0
 3711 000e 0E46     		mov	r6, r1
1606:SensorLib\max30102/driver_max30102.c ****     {
1607:SensorLib\max30102/driver_max30102.c ****         return 3;                                                                                  
1608:SensorLib\max30102/driver_max30102.c ****     }
1609:SensorLib\max30102/driver_max30102.c ****     
1610:SensorLib\max30102/driver_max30102.c ****     res = handle->iic_read(MAX30102_ADDRESS, MAX30102_REG_SPO2_CONFIG, (uint8_t *)&prev, 1);       
 3712              		.loc 1 1610 0
 3713 0010 8768     		ldr	r7, [r0, #8]
 3714 0012 0123     		movs	r3, #1
 3715 0014 0DF10702 		add	r2, sp, #7
 3716 0018 0A21     		movs	r1, #10
 3717              	.LVL495:
 3718 001a 5720     		movs	r0, #87
 3719              	.LVL496:
 3720 001c B847     		blx	r7
 3721              	.LVL497:
1611:SensorLib\max30102/driver_max30102.c ****     if (res != 0)                                                                                  
 3722              		.loc 1 1611 0
 3723 001e 18B1     		cbz	r0, .L291
1612:SensorLib\max30102/driver_max30102.c ****     {
1613:SensorLib\max30102/driver_max30102.c ****         handle->debug_print("max30102: read spo2 config failed.\n");                               
 3724              		.loc 1 1613 0
 3725 0020 AB69     		ldr	r3, [r5, #24]
 3726 0022 0F48     		ldr	r0, .L296
 3727              	.LVL498:
 3728 0024 9847     		blx	r3
 3729              	.LVL499:
ARM GAS  C:\Users\CHRONI~1\AppData\Local\Temp\cc7oUGua.s 			page 96


1614:SensorLib\max30102/driver_max30102.c ****        
1615:SensorLib\max30102/driver_max30102.c ****         return 1;                                                                                  
 3730              		.loc 1 1615 0
 3731 0026 17E0     		b	.L290
 3732              	.LVL500:
 3733              	.L291:
1616:SensorLib\max30102/driver_max30102.c ****     }
1617:SensorLib\max30102/driver_max30102.c ****     prev &= ~(3 << 5);                                                                             
 3734              		.loc 1 1617 0
 3735 0028 9DF80710 		ldrb	r1, [sp, #7]	@ zero_extendqisi2
 3736 002c 01F09F01 		and	r1, r1, #159
1618:SensorLib\max30102/driver_max30102.c ****     prev |= range << 5;                                                                            
 3737              		.loc 1 1618 0
 3738 0030 41EA4611 		orr	r1, r1, r6, lsl #5
 3739 0034 02AA     		add	r2, sp, #8
 3740 0036 02F8011D 		strb	r1, [r2, #-1]!
1619:SensorLib\max30102/driver_max30102.c ****     res = handle->iic_write(MAX30102_ADDRESS, MAX30102_REG_SPO2_CONFIG, (uint8_t *)&prev, 1);      
 3741              		.loc 1 1619 0
 3742 003a EE68     		ldr	r6, [r5, #12]
 3743 003c 0123     		movs	r3, #1
 3744 003e 0A21     		movs	r1, #10
 3745 0040 5720     		movs	r0, #87
 3746              	.LVL501:
 3747 0042 B047     		blx	r6
 3748              	.LVL502:
1620:SensorLib\max30102/driver_max30102.c ****     if (res != 0)                                                                                  
 3749              		.loc 1 1620 0
 3750 0044 38B1     		cbz	r0, .L294
1621:SensorLib\max30102/driver_max30102.c ****     {
1622:SensorLib\max30102/driver_max30102.c ****         handle->debug_print("max30102: write spo2 config failed.\n");                              
 3751              		.loc 1 1622 0
 3752 0046 AB69     		ldr	r3, [r5, #24]
 3753 0048 0648     		ldr	r0, .L296+4
 3754              	.LVL503:
 3755 004a 9847     		blx	r3
 3756              	.LVL504:
1623:SensorLib\max30102/driver_max30102.c ****        
1624:SensorLib\max30102/driver_max30102.c ****         return 1;                                                                                  
 3757              		.loc 1 1624 0
 3758 004c 04E0     		b	.L290
 3759              	.LVL505:
 3760              	.L292:
1603:SensorLib\max30102/driver_max30102.c ****     }
 3761              		.loc 1 1603 0
 3762 004e 0224     		movs	r4, #2
 3763 0050 02E0     		b	.L290
 3764              	.L293:
1607:SensorLib\max30102/driver_max30102.c ****     }
 3765              		.loc 1 1607 0
 3766 0052 0324     		movs	r4, #3
 3767 0054 00E0     		b	.L290
 3768              	.LVL506:
 3769              	.L294:
1625:SensorLib\max30102/driver_max30102.c ****     }
1626:SensorLib\max30102/driver_max30102.c ****     
1627:SensorLib\max30102/driver_max30102.c ****     return 0;                                                                                      
 3770              		.loc 1 1627 0
ARM GAS  C:\Users\CHRONI~1\AppData\Local\Temp\cc7oUGua.s 			page 97


 3771 0056 0024     		movs	r4, #0
 3772              	.LVL507:
 3773              	.L290:
1628:SensorLib\max30102/driver_max30102.c **** }
 3774              		.loc 1 1628 0
 3775 0058 2046     		mov	r0, r4
 3776 005a 03B0     		add	sp, sp, #12
 3777              		.cfi_def_cfa_offset 20
 3778              		@ sp needed
 3779 005c F0BD     		pop	{r4, r5, r6, r7, pc}
 3780              	.L297:
 3781 005e 00BF     		.align	2
 3782              	.L296:
 3783 0060 20080000 		.word	.LC50
 3784 0064 600B0000 		.word	.LC70
 3785              		.cfi_endproc
 3786              	.LFE28:
 3787              		.size	max30102_set_spo2_adc_range, .-max30102_set_spo2_adc_range
 3788              		.section	.text.max30102_get_spo2_adc_range,"ax",%progbits
 3789              		.align	2
 3790              		.global	max30102_get_spo2_adc_range
 3791              		.thumb
 3792              		.thumb_func
 3793              		.type	max30102_get_spo2_adc_range, %function
 3794              	max30102_get_spo2_adc_range:
 3795              	.LFB29:
1629:SensorLib\max30102/driver_max30102.c **** 
1630:SensorLib\max30102/driver_max30102.c **** /**
1631:SensorLib\max30102/driver_max30102.c ****  * @brief      get the spo2 adc range
1632:SensorLib\max30102/driver_max30102.c ****  * @param[in]  *handle points to a max30102 handle structure
1633:SensorLib\max30102/driver_max30102.c ****  * @param[out] *range points to an spo2 adc range buffer
1634:SensorLib\max30102/driver_max30102.c ****  * @return     status code
1635:SensorLib\max30102/driver_max30102.c ****  *             - 0 success
1636:SensorLib\max30102/driver_max30102.c ****  *             - 1 get spo2 adc range failed
1637:SensorLib\max30102/driver_max30102.c ****  *             - 2 handle is NULL
1638:SensorLib\max30102/driver_max30102.c ****  *             - 3 handle is not initialized
1639:SensorLib\max30102/driver_max30102.c ****  * @note       none
1640:SensorLib\max30102/driver_max30102.c ****  */
1641:SensorLib\max30102/driver_max30102.c **** uint8_t max30102_get_spo2_adc_range(max30102_handle_t *handle, max30102_spo2_adc_range_t *range)
1642:SensorLib\max30102/driver_max30102.c **** {
 3796              		.loc 1 1642 0
 3797              		.cfi_startproc
 3798              		@ args = 0, pretend = 0, frame = 8
 3799              		@ frame_needed = 0, uses_anonymous_args = 0
 3800              	.LVL508:
 3801 0000 F0B5     		push	{r4, r5, r6, r7, lr}
 3802              		.cfi_def_cfa_offset 20
 3803              		.cfi_offset 4, -20
 3804              		.cfi_offset 5, -16
 3805              		.cfi_offset 6, -12
 3806              		.cfi_offset 7, -8
 3807              		.cfi_offset 14, -4
 3808 0002 83B0     		sub	sp, sp, #12
 3809              		.cfi_def_cfa_offset 32
1643:SensorLib\max30102/driver_max30102.c ****     uint8_t res;
1644:SensorLib\max30102/driver_max30102.c ****     uint8_t prev;
1645:SensorLib\max30102/driver_max30102.c ****     
ARM GAS  C:\Users\CHRONI~1\AppData\Local\Temp\cc7oUGua.s 			page 98


1646:SensorLib\max30102/driver_max30102.c ****     if (handle == NULL)                                                                            
 3810              		.loc 1 1646 0
 3811 0004 B8B1     		cbz	r0, .L301
1647:SensorLib\max30102/driver_max30102.c ****     {
1648:SensorLib\max30102/driver_max30102.c ****         return 2;                                                                                  
1649:SensorLib\max30102/driver_max30102.c ****     }
1650:SensorLib\max30102/driver_max30102.c ****     if (handle->inited != 1)                                                                       
 3812              		.loc 1 1650 0
 3813 0006 047F     		ldrb	r4, [r0, #28]	@ zero_extendqisi2
 3814 0008 012C     		cmp	r4, #1
 3815 000a 16D1     		bne	.L302
 3816 000c 0546     		mov	r5, r0
 3817 000e 0E46     		mov	r6, r1
1651:SensorLib\max30102/driver_max30102.c ****     {
1652:SensorLib\max30102/driver_max30102.c ****         return 3;                                                                                  
1653:SensorLib\max30102/driver_max30102.c ****     }
1654:SensorLib\max30102/driver_max30102.c ****     
1655:SensorLib\max30102/driver_max30102.c ****     res = handle->iic_read(MAX30102_ADDRESS, MAX30102_REG_SPO2_CONFIG, (uint8_t *)&prev, 1);       
 3818              		.loc 1 1655 0
 3819 0010 8768     		ldr	r7, [r0, #8]
 3820 0012 0123     		movs	r3, #1
 3821 0014 0DF10702 		add	r2, sp, #7
 3822 0018 0A21     		movs	r1, #10
 3823              	.LVL509:
 3824 001a 5720     		movs	r0, #87
 3825              	.LVL510:
 3826 001c B847     		blx	r7
 3827              	.LVL511:
1656:SensorLib\max30102/driver_max30102.c ****     if (res != 0)                                                                                  
 3828              		.loc 1 1656 0
 3829 001e 18B1     		cbz	r0, .L300
1657:SensorLib\max30102/driver_max30102.c ****     {
1658:SensorLib\max30102/driver_max30102.c ****         handle->debug_print("max30102: read spo2 config failed.\n");                               
 3830              		.loc 1 1658 0
 3831 0020 AB69     		ldr	r3, [r5, #24]
 3832 0022 0848     		ldr	r0, .L304
 3833              	.LVL512:
 3834 0024 9847     		blx	r3
 3835              	.LVL513:
1659:SensorLib\max30102/driver_max30102.c ****        
1660:SensorLib\max30102/driver_max30102.c ****         return 1;                                                                                  
 3836              		.loc 1 1660 0
 3837 0026 09E0     		b	.L299
 3838              	.LVL514:
 3839              	.L300:
1661:SensorLib\max30102/driver_max30102.c ****     }
1662:SensorLib\max30102/driver_max30102.c ****     *range = (max30102_spo2_adc_range_t)((prev >> 5) & 0x3);                                       
 3840              		.loc 1 1662 0
 3841 0028 9DF80730 		ldrb	r3, [sp, #7]	@ zero_extendqisi2
 3842 002c C3F34113 		ubfx	r3, r3, #5, #2
 3843 0030 3370     		strb	r3, [r6]
1663:SensorLib\max30102/driver_max30102.c ****     
1664:SensorLib\max30102/driver_max30102.c ****     return 0;                                                                                      
 3844              		.loc 1 1664 0
 3845 0032 0024     		movs	r4, #0
 3846 0034 02E0     		b	.L299
 3847              	.LVL515:
ARM GAS  C:\Users\CHRONI~1\AppData\Local\Temp\cc7oUGua.s 			page 99


 3848              	.L301:
1648:SensorLib\max30102/driver_max30102.c ****     }
 3849              		.loc 1 1648 0
 3850 0036 0224     		movs	r4, #2
 3851 0038 00E0     		b	.L299
 3852              	.L302:
1652:SensorLib\max30102/driver_max30102.c ****     }
 3853              		.loc 1 1652 0
 3854 003a 0324     		movs	r4, #3
 3855              	.LVL516:
 3856              	.L299:
1665:SensorLib\max30102/driver_max30102.c **** }
 3857              		.loc 1 1665 0
 3858 003c 2046     		mov	r0, r4
 3859 003e 03B0     		add	sp, sp, #12
 3860              		.cfi_def_cfa_offset 20
 3861              		@ sp needed
 3862 0040 F0BD     		pop	{r4, r5, r6, r7, pc}
 3863              	.L305:
 3864 0042 00BF     		.align	2
 3865              	.L304:
 3866 0044 20080000 		.word	.LC50
 3867              		.cfi_endproc
 3868              	.LFE29:
 3869              		.size	max30102_get_spo2_adc_range, .-max30102_get_spo2_adc_range
 3870              		.section	.text.max30102_set_spo2_sample_rate,"ax",%progbits
 3871              		.align	2
 3872              		.global	max30102_set_spo2_sample_rate
 3873              		.thumb
 3874              		.thumb_func
 3875              		.type	max30102_set_spo2_sample_rate, %function
 3876              	max30102_set_spo2_sample_rate:
 3877              	.LFB30:
1666:SensorLib\max30102/driver_max30102.c **** 
1667:SensorLib\max30102/driver_max30102.c **** /**
1668:SensorLib\max30102/driver_max30102.c ****  * @brief     set the spo2 sample rate
1669:SensorLib\max30102/driver_max30102.c ****  * @param[in] *handle points to a max30102 handle structure
1670:SensorLib\max30102/driver_max30102.c ****  * @param[in] rate is the spo2 sample rate
1671:SensorLib\max30102/driver_max30102.c ****  * @return    status code
1672:SensorLib\max30102/driver_max30102.c ****  *            - 0 success
1673:SensorLib\max30102/driver_max30102.c ****  *            - 1 set spo2 sample rate failed
1674:SensorLib\max30102/driver_max30102.c ****  *            - 2 handle is NULL
1675:SensorLib\max30102/driver_max30102.c ****  *            - 3 handle is not initialized
1676:SensorLib\max30102/driver_max30102.c ****  * @note      none
1677:SensorLib\max30102/driver_max30102.c ****  */
1678:SensorLib\max30102/driver_max30102.c **** uint8_t max30102_set_spo2_sample_rate(max30102_handle_t *handle, max30102_spo2_sample_rate_t rate)
1679:SensorLib\max30102/driver_max30102.c **** {
 3878              		.loc 1 1679 0
 3879              		.cfi_startproc
 3880              		@ args = 0, pretend = 0, frame = 8
 3881              		@ frame_needed = 0, uses_anonymous_args = 0
 3882              	.LVL517:
 3883 0000 F0B5     		push	{r4, r5, r6, r7, lr}
 3884              		.cfi_def_cfa_offset 20
 3885              		.cfi_offset 4, -20
 3886              		.cfi_offset 5, -16
 3887              		.cfi_offset 6, -12
ARM GAS  C:\Users\CHRONI~1\AppData\Local\Temp\cc7oUGua.s 			page 100


 3888              		.cfi_offset 7, -8
 3889              		.cfi_offset 14, -4
 3890 0002 83B0     		sub	sp, sp, #12
 3891              		.cfi_def_cfa_offset 32
1680:SensorLib\max30102/driver_max30102.c ****     uint8_t res;
1681:SensorLib\max30102/driver_max30102.c ****     uint8_t prev;
1682:SensorLib\max30102/driver_max30102.c ****     
1683:SensorLib\max30102/driver_max30102.c ****     if (handle == NULL)                                                                            
 3892              		.loc 1 1683 0
 3893 0004 18B3     		cbz	r0, .L309
1684:SensorLib\max30102/driver_max30102.c ****     {
1685:SensorLib\max30102/driver_max30102.c ****         return 2;                                                                                  
1686:SensorLib\max30102/driver_max30102.c ****     }
1687:SensorLib\max30102/driver_max30102.c ****     if (handle->inited != 1)                                                                       
 3894              		.loc 1 1687 0
 3895 0006 047F     		ldrb	r4, [r0, #28]	@ zero_extendqisi2
 3896 0008 012C     		cmp	r4, #1
 3897 000a 22D1     		bne	.L310
 3898 000c 0546     		mov	r5, r0
 3899 000e 0E46     		mov	r6, r1
1688:SensorLib\max30102/driver_max30102.c ****     {
1689:SensorLib\max30102/driver_max30102.c ****         return 3;                                                                                  
1690:SensorLib\max30102/driver_max30102.c ****     }
1691:SensorLib\max30102/driver_max30102.c ****     
1692:SensorLib\max30102/driver_max30102.c ****     res = handle->iic_read(MAX30102_ADDRESS, MAX30102_REG_SPO2_CONFIG, (uint8_t *)&prev, 1);       
 3900              		.loc 1 1692 0
 3901 0010 8768     		ldr	r7, [r0, #8]
 3902 0012 0123     		movs	r3, #1
 3903 0014 0DF10702 		add	r2, sp, #7
 3904 0018 0A21     		movs	r1, #10
 3905              	.LVL518:
 3906 001a 5720     		movs	r0, #87
 3907              	.LVL519:
 3908 001c B847     		blx	r7
 3909              	.LVL520:
1693:SensorLib\max30102/driver_max30102.c ****     if (res != 0)                                                                                  
 3910              		.loc 1 1693 0
 3911 001e 18B1     		cbz	r0, .L308
1694:SensorLib\max30102/driver_max30102.c ****     {
1695:SensorLib\max30102/driver_max30102.c ****         handle->debug_print("max30102: read spo2 config failed.\n");                               
 3912              		.loc 1 1695 0
 3913 0020 AB69     		ldr	r3, [r5, #24]
 3914 0022 0F48     		ldr	r0, .L313
 3915              	.LVL521:
 3916 0024 9847     		blx	r3
 3917              	.LVL522:
1696:SensorLib\max30102/driver_max30102.c ****        
1697:SensorLib\max30102/driver_max30102.c ****         return 1;                                                                                  
 3918              		.loc 1 1697 0
 3919 0026 17E0     		b	.L307
 3920              	.LVL523:
 3921              	.L308:
1698:SensorLib\max30102/driver_max30102.c ****     }
1699:SensorLib\max30102/driver_max30102.c ****     prev &= ~(7 << 2);                                                                             
 3922              		.loc 1 1699 0
 3923 0028 9DF80710 		ldrb	r1, [sp, #7]	@ zero_extendqisi2
 3924 002c 01F0E301 		and	r1, r1, #227
ARM GAS  C:\Users\CHRONI~1\AppData\Local\Temp\cc7oUGua.s 			page 101


1700:SensorLib\max30102/driver_max30102.c ****     prev |= rate << 2;                                                                             
 3925              		.loc 1 1700 0
 3926 0030 41EA8601 		orr	r1, r1, r6, lsl #2
 3927 0034 02AA     		add	r2, sp, #8
 3928 0036 02F8011D 		strb	r1, [r2, #-1]!
1701:SensorLib\max30102/driver_max30102.c ****     res = handle->iic_write(MAX30102_ADDRESS, MAX30102_REG_SPO2_CONFIG, (uint8_t *)&prev, 1);      
 3929              		.loc 1 1701 0
 3930 003a EE68     		ldr	r6, [r5, #12]
 3931 003c 0123     		movs	r3, #1
 3932 003e 0A21     		movs	r1, #10
 3933 0040 5720     		movs	r0, #87
 3934              	.LVL524:
 3935 0042 B047     		blx	r6
 3936              	.LVL525:
1702:SensorLib\max30102/driver_max30102.c ****     if (res != 0)                                                                                  
 3937              		.loc 1 1702 0
 3938 0044 38B1     		cbz	r0, .L311
1703:SensorLib\max30102/driver_max30102.c ****     {
1704:SensorLib\max30102/driver_max30102.c ****         handle->debug_print("max30102: write spo2 config failed.\n");                              
 3939              		.loc 1 1704 0
 3940 0046 AB69     		ldr	r3, [r5, #24]
 3941 0048 0648     		ldr	r0, .L313+4
 3942              	.LVL526:
 3943 004a 9847     		blx	r3
 3944              	.LVL527:
1705:SensorLib\max30102/driver_max30102.c ****        
1706:SensorLib\max30102/driver_max30102.c ****         return 1;                                                                                  
 3945              		.loc 1 1706 0
 3946 004c 04E0     		b	.L307
 3947              	.LVL528:
 3948              	.L309:
1685:SensorLib\max30102/driver_max30102.c ****     }
 3949              		.loc 1 1685 0
 3950 004e 0224     		movs	r4, #2
 3951 0050 02E0     		b	.L307
 3952              	.L310:
1689:SensorLib\max30102/driver_max30102.c ****     }
 3953              		.loc 1 1689 0
 3954 0052 0324     		movs	r4, #3
 3955 0054 00E0     		b	.L307
 3956              	.LVL529:
 3957              	.L311:
1707:SensorLib\max30102/driver_max30102.c ****     }
1708:SensorLib\max30102/driver_max30102.c ****     
1709:SensorLib\max30102/driver_max30102.c ****     return 0;                                                                                      
 3958              		.loc 1 1709 0
 3959 0056 0024     		movs	r4, #0
 3960              	.LVL530:
 3961              	.L307:
1710:SensorLib\max30102/driver_max30102.c **** }
 3962              		.loc 1 1710 0
 3963 0058 2046     		mov	r0, r4
 3964 005a 03B0     		add	sp, sp, #12
 3965              		.cfi_def_cfa_offset 20
 3966              		@ sp needed
 3967 005c F0BD     		pop	{r4, r5, r6, r7, pc}
 3968              	.L314:
ARM GAS  C:\Users\CHRONI~1\AppData\Local\Temp\cc7oUGua.s 			page 102


 3969 005e 00BF     		.align	2
 3970              	.L313:
 3971 0060 20080000 		.word	.LC50
 3972 0064 600B0000 		.word	.LC70
 3973              		.cfi_endproc
 3974              	.LFE30:
 3975              		.size	max30102_set_spo2_sample_rate, .-max30102_set_spo2_sample_rate
 3976              		.section	.text.max30102_get_spo2_sample_rate,"ax",%progbits
 3977              		.align	2
 3978              		.global	max30102_get_spo2_sample_rate
 3979              		.thumb
 3980              		.thumb_func
 3981              		.type	max30102_get_spo2_sample_rate, %function
 3982              	max30102_get_spo2_sample_rate:
 3983              	.LFB31:
1711:SensorLib\max30102/driver_max30102.c **** 
1712:SensorLib\max30102/driver_max30102.c **** /**
1713:SensorLib\max30102/driver_max30102.c ****  * @brief      get the spo2 sample rate
1714:SensorLib\max30102/driver_max30102.c ****  * @param[in]  *handle points to a max30102 handle structure
1715:SensorLib\max30102/driver_max30102.c ****  * @param[out] *rate points to an spo2 sample rate buffer
1716:SensorLib\max30102/driver_max30102.c ****  * @return     status code
1717:SensorLib\max30102/driver_max30102.c ****  *             - 0 success
1718:SensorLib\max30102/driver_max30102.c ****  *             - 1 get spo2 sample rate failed
1719:SensorLib\max30102/driver_max30102.c ****  *             - 2 handle is NULL
1720:SensorLib\max30102/driver_max30102.c ****  *             - 3 handle is not initialized
1721:SensorLib\max30102/driver_max30102.c ****  * @note       none
1722:SensorLib\max30102/driver_max30102.c ****  */
1723:SensorLib\max30102/driver_max30102.c **** uint8_t max30102_get_spo2_sample_rate(max30102_handle_t *handle, max30102_spo2_sample_rate_t *rate)
1724:SensorLib\max30102/driver_max30102.c **** {
 3984              		.loc 1 1724 0
 3985              		.cfi_startproc
 3986              		@ args = 0, pretend = 0, frame = 8
 3987              		@ frame_needed = 0, uses_anonymous_args = 0
 3988              	.LVL531:
 3989 0000 F0B5     		push	{r4, r5, r6, r7, lr}
 3990              		.cfi_def_cfa_offset 20
 3991              		.cfi_offset 4, -20
 3992              		.cfi_offset 5, -16
 3993              		.cfi_offset 6, -12
 3994              		.cfi_offset 7, -8
 3995              		.cfi_offset 14, -4
 3996 0002 83B0     		sub	sp, sp, #12
 3997              		.cfi_def_cfa_offset 32
1725:SensorLib\max30102/driver_max30102.c ****     uint8_t res;
1726:SensorLib\max30102/driver_max30102.c ****     uint8_t prev;
1727:SensorLib\max30102/driver_max30102.c ****     
1728:SensorLib\max30102/driver_max30102.c ****     if (handle == NULL)                                                                            
 3998              		.loc 1 1728 0
 3999 0004 B8B1     		cbz	r0, .L318
1729:SensorLib\max30102/driver_max30102.c ****     {
1730:SensorLib\max30102/driver_max30102.c ****         return 2;                                                                                  
1731:SensorLib\max30102/driver_max30102.c ****     }
1732:SensorLib\max30102/driver_max30102.c ****     if (handle->inited != 1)                                                                       
 4000              		.loc 1 1732 0
 4001 0006 047F     		ldrb	r4, [r0, #28]	@ zero_extendqisi2
 4002 0008 012C     		cmp	r4, #1
 4003 000a 16D1     		bne	.L319
ARM GAS  C:\Users\CHRONI~1\AppData\Local\Temp\cc7oUGua.s 			page 103


 4004 000c 0546     		mov	r5, r0
 4005 000e 0E46     		mov	r6, r1
1733:SensorLib\max30102/driver_max30102.c ****     {
1734:SensorLib\max30102/driver_max30102.c ****         return 3;                                                                                  
1735:SensorLib\max30102/driver_max30102.c ****     }
1736:SensorLib\max30102/driver_max30102.c ****     
1737:SensorLib\max30102/driver_max30102.c ****     res = handle->iic_read(MAX30102_ADDRESS, MAX30102_REG_SPO2_CONFIG, (uint8_t *)&prev, 1);       
 4006              		.loc 1 1737 0
 4007 0010 8768     		ldr	r7, [r0, #8]
 4008 0012 0123     		movs	r3, #1
 4009 0014 0DF10702 		add	r2, sp, #7
 4010 0018 0A21     		movs	r1, #10
 4011              	.LVL532:
 4012 001a 5720     		movs	r0, #87
 4013              	.LVL533:
 4014 001c B847     		blx	r7
 4015              	.LVL534:
1738:SensorLib\max30102/driver_max30102.c ****     if (res != 0)                                                                                  
 4016              		.loc 1 1738 0
 4017 001e 18B1     		cbz	r0, .L317
1739:SensorLib\max30102/driver_max30102.c ****     {
1740:SensorLib\max30102/driver_max30102.c ****         handle->debug_print("max30102: read spo2 config failed.\n");                               
 4018              		.loc 1 1740 0
 4019 0020 AB69     		ldr	r3, [r5, #24]
 4020 0022 0848     		ldr	r0, .L321
 4021              	.LVL535:
 4022 0024 9847     		blx	r3
 4023              	.LVL536:
1741:SensorLib\max30102/driver_max30102.c ****        
1742:SensorLib\max30102/driver_max30102.c ****         return 1;                                                                                  
 4024              		.loc 1 1742 0
 4025 0026 09E0     		b	.L316
 4026              	.LVL537:
 4027              	.L317:
1743:SensorLib\max30102/driver_max30102.c ****     }
1744:SensorLib\max30102/driver_max30102.c ****     *rate = (max30102_spo2_sample_rate_t)((prev >> 2) & 0x7);                                      
 4028              		.loc 1 1744 0
 4029 0028 9DF80730 		ldrb	r3, [sp, #7]	@ zero_extendqisi2
 4030 002c C3F38203 		ubfx	r3, r3, #2, #3
 4031 0030 3370     		strb	r3, [r6]
1745:SensorLib\max30102/driver_max30102.c ****     
1746:SensorLib\max30102/driver_max30102.c ****     return 0;                                                                                      
 4032              		.loc 1 1746 0
 4033 0032 0024     		movs	r4, #0
 4034 0034 02E0     		b	.L316
 4035              	.LVL538:
 4036              	.L318:
1730:SensorLib\max30102/driver_max30102.c ****     }
 4037              		.loc 1 1730 0
 4038 0036 0224     		movs	r4, #2
 4039 0038 00E0     		b	.L316
 4040              	.L319:
1734:SensorLib\max30102/driver_max30102.c ****     }
 4041              		.loc 1 1734 0
 4042 003a 0324     		movs	r4, #3
 4043              	.LVL539:
 4044              	.L316:
ARM GAS  C:\Users\CHRONI~1\AppData\Local\Temp\cc7oUGua.s 			page 104


1747:SensorLib\max30102/driver_max30102.c **** }
 4045              		.loc 1 1747 0
 4046 003c 2046     		mov	r0, r4
 4047 003e 03B0     		add	sp, sp, #12
 4048              		.cfi_def_cfa_offset 20
 4049              		@ sp needed
 4050 0040 F0BD     		pop	{r4, r5, r6, r7, pc}
 4051              	.L322:
 4052 0042 00BF     		.align	2
 4053              	.L321:
 4054 0044 20080000 		.word	.LC50
 4055              		.cfi_endproc
 4056              	.LFE31:
 4057              		.size	max30102_get_spo2_sample_rate, .-max30102_get_spo2_sample_rate
 4058              		.section	.text.max30102_set_adc_resolution,"ax",%progbits
 4059              		.align	2
 4060              		.global	max30102_set_adc_resolution
 4061              		.thumb
 4062              		.thumb_func
 4063              		.type	max30102_set_adc_resolution, %function
 4064              	max30102_set_adc_resolution:
 4065              	.LFB32:
1748:SensorLib\max30102/driver_max30102.c **** 
1749:SensorLib\max30102/driver_max30102.c **** /**
1750:SensorLib\max30102/driver_max30102.c ****  * @brief     set the adc resolution
1751:SensorLib\max30102/driver_max30102.c ****  * @param[in] *handle points to a max30102 handle structure
1752:SensorLib\max30102/driver_max30102.c ****  * @param[in] resolution is the adc resolution
1753:SensorLib\max30102/driver_max30102.c ****  * @return    status code
1754:SensorLib\max30102/driver_max30102.c ****  *            - 0 success
1755:SensorLib\max30102/driver_max30102.c ****  *            - 1 set adc resolution failed
1756:SensorLib\max30102/driver_max30102.c ****  *            - 2 handle is NULL
1757:SensorLib\max30102/driver_max30102.c ****  *            - 3 handle is not initialized
1758:SensorLib\max30102/driver_max30102.c ****  * @note      none
1759:SensorLib\max30102/driver_max30102.c ****  */
1760:SensorLib\max30102/driver_max30102.c **** uint8_t max30102_set_adc_resolution(max30102_handle_t *handle, max30102_adc_resolution_t resolution
1761:SensorLib\max30102/driver_max30102.c **** {
 4066              		.loc 1 1761 0
 4067              		.cfi_startproc
 4068              		@ args = 0, pretend = 0, frame = 8
 4069              		@ frame_needed = 0, uses_anonymous_args = 0
 4070              	.LVL540:
 4071 0000 F0B5     		push	{r4, r5, r6, r7, lr}
 4072              		.cfi_def_cfa_offset 20
 4073              		.cfi_offset 4, -20
 4074              		.cfi_offset 5, -16
 4075              		.cfi_offset 6, -12
 4076              		.cfi_offset 7, -8
 4077              		.cfi_offset 14, -4
 4078 0002 83B0     		sub	sp, sp, #12
 4079              		.cfi_def_cfa_offset 32
1762:SensorLib\max30102/driver_max30102.c ****     uint8_t res;
1763:SensorLib\max30102/driver_max30102.c ****     uint8_t prev;
1764:SensorLib\max30102/driver_max30102.c ****     
1765:SensorLib\max30102/driver_max30102.c ****     if (handle == NULL)                                                                            
 4080              		.loc 1 1765 0
 4081 0004 10B3     		cbz	r0, .L326
1766:SensorLib\max30102/driver_max30102.c ****     {
ARM GAS  C:\Users\CHRONI~1\AppData\Local\Temp\cc7oUGua.s 			page 105


1767:SensorLib\max30102/driver_max30102.c ****         return 2;                                                                                  
1768:SensorLib\max30102/driver_max30102.c ****     }
1769:SensorLib\max30102/driver_max30102.c ****     if (handle->inited != 1)                                                                       
 4082              		.loc 1 1769 0
 4083 0006 047F     		ldrb	r4, [r0, #28]	@ zero_extendqisi2
 4084 0008 012C     		cmp	r4, #1
 4085 000a 21D1     		bne	.L327
 4086 000c 0546     		mov	r5, r0
 4087 000e 0E46     		mov	r6, r1
1770:SensorLib\max30102/driver_max30102.c ****     {
1771:SensorLib\max30102/driver_max30102.c ****         return 3;                                                                                  
1772:SensorLib\max30102/driver_max30102.c ****     }
1773:SensorLib\max30102/driver_max30102.c ****     
1774:SensorLib\max30102/driver_max30102.c ****     res = handle->iic_read(MAX30102_ADDRESS, MAX30102_REG_SPO2_CONFIG, (uint8_t *)&prev, 1);       
 4088              		.loc 1 1774 0
 4089 0010 8768     		ldr	r7, [r0, #8]
 4090 0012 0123     		movs	r3, #1
 4091 0014 0DF10702 		add	r2, sp, #7
 4092 0018 0A21     		movs	r1, #10
 4093              	.LVL541:
 4094 001a 5720     		movs	r0, #87
 4095              	.LVL542:
 4096 001c B847     		blx	r7
 4097              	.LVL543:
1775:SensorLib\max30102/driver_max30102.c ****     if (res != 0)                                                                                  
 4098              		.loc 1 1775 0
 4099 001e 18B1     		cbz	r0, .L325
1776:SensorLib\max30102/driver_max30102.c ****     {
1777:SensorLib\max30102/driver_max30102.c ****         handle->debug_print("max30102: read spo2 config failed.\n");                               
 4100              		.loc 1 1777 0
 4101 0020 AB69     		ldr	r3, [r5, #24]
 4102 0022 0E48     		ldr	r0, .L330
 4103              	.LVL544:
 4104 0024 9847     		blx	r3
 4105              	.LVL545:
1778:SensorLib\max30102/driver_max30102.c ****        
1779:SensorLib\max30102/driver_max30102.c ****         return 1;                                                                                  
 4106              		.loc 1 1779 0
 4107 0026 16E0     		b	.L324
 4108              	.LVL546:
 4109              	.L325:
1780:SensorLib\max30102/driver_max30102.c ****     }
1781:SensorLib\max30102/driver_max30102.c ****     prev &= ~(3 << 0);                                                                             
 4110              		.loc 1 1781 0
 4111 0028 9DF80710 		ldrb	r1, [sp, #7]	@ zero_extendqisi2
 4112 002c 01F0FC01 		and	r1, r1, #252
1782:SensorLib\max30102/driver_max30102.c ****     prev |= resolution << 0;                                                                       
 4113              		.loc 1 1782 0
 4114 0030 3143     		orrs	r1, r1, r6
 4115 0032 02AA     		add	r2, sp, #8
 4116 0034 02F8011D 		strb	r1, [r2, #-1]!
1783:SensorLib\max30102/driver_max30102.c ****     res = handle->iic_write(MAX30102_ADDRESS, MAX30102_REG_SPO2_CONFIG, (uint8_t *)&prev, 1);      
 4117              		.loc 1 1783 0
 4118 0038 EE68     		ldr	r6, [r5, #12]
 4119 003a 0123     		movs	r3, #1
 4120 003c 0A21     		movs	r1, #10
 4121 003e 5720     		movs	r0, #87
ARM GAS  C:\Users\CHRONI~1\AppData\Local\Temp\cc7oUGua.s 			page 106


 4122              	.LVL547:
 4123 0040 B047     		blx	r6
 4124              	.LVL548:
1784:SensorLib\max30102/driver_max30102.c ****     if (res != 0)                                                                                  
 4125              		.loc 1 1784 0
 4126 0042 38B1     		cbz	r0, .L328
1785:SensorLib\max30102/driver_max30102.c ****     {
1786:SensorLib\max30102/driver_max30102.c ****         handle->debug_print("max30102: write spo2 config failed.\n");                              
 4127              		.loc 1 1786 0
 4128 0044 AB69     		ldr	r3, [r5, #24]
 4129 0046 0648     		ldr	r0, .L330+4
 4130              	.LVL549:
 4131 0048 9847     		blx	r3
 4132              	.LVL550:
1787:SensorLib\max30102/driver_max30102.c ****        
1788:SensorLib\max30102/driver_max30102.c ****         return 1;                                                                                  
 4133              		.loc 1 1788 0
 4134 004a 04E0     		b	.L324
 4135              	.LVL551:
 4136              	.L326:
1767:SensorLib\max30102/driver_max30102.c ****     }
 4137              		.loc 1 1767 0
 4138 004c 0224     		movs	r4, #2
 4139 004e 02E0     		b	.L324
 4140              	.L327:
1771:SensorLib\max30102/driver_max30102.c ****     }
 4141              		.loc 1 1771 0
 4142 0050 0324     		movs	r4, #3
 4143 0052 00E0     		b	.L324
 4144              	.LVL552:
 4145              	.L328:
1789:SensorLib\max30102/driver_max30102.c ****     }
1790:SensorLib\max30102/driver_max30102.c ****     
1791:SensorLib\max30102/driver_max30102.c ****     return 0;                                                                                      
 4146              		.loc 1 1791 0
 4147 0054 0024     		movs	r4, #0
 4148              	.LVL553:
 4149              	.L324:
1792:SensorLib\max30102/driver_max30102.c **** }
 4150              		.loc 1 1792 0
 4151 0056 2046     		mov	r0, r4
 4152 0058 03B0     		add	sp, sp, #12
 4153              		.cfi_def_cfa_offset 20
 4154              		@ sp needed
 4155 005a F0BD     		pop	{r4, r5, r6, r7, pc}
 4156              	.L331:
 4157              		.align	2
 4158              	.L330:
 4159 005c 20080000 		.word	.LC50
 4160 0060 600B0000 		.word	.LC70
 4161              		.cfi_endproc
 4162              	.LFE32:
 4163              		.size	max30102_set_adc_resolution, .-max30102_set_adc_resolution
 4164              		.section	.text.max30102_get_adc_resolution,"ax",%progbits
 4165              		.align	2
 4166              		.global	max30102_get_adc_resolution
 4167              		.thumb
ARM GAS  C:\Users\CHRONI~1\AppData\Local\Temp\cc7oUGua.s 			page 107


 4168              		.thumb_func
 4169              		.type	max30102_get_adc_resolution, %function
 4170              	max30102_get_adc_resolution:
 4171              	.LFB33:
1793:SensorLib\max30102/driver_max30102.c **** 
1794:SensorLib\max30102/driver_max30102.c **** /**
1795:SensorLib\max30102/driver_max30102.c ****  * @brief      get the adc resolution
1796:SensorLib\max30102/driver_max30102.c ****  * @param[in]  *handle points to a max30102 handle structure
1797:SensorLib\max30102/driver_max30102.c ****  * @param[out] *resolution points to an adc resolution buffer
1798:SensorLib\max30102/driver_max30102.c ****  * @return     status code
1799:SensorLib\max30102/driver_max30102.c ****  *             - 0 success
1800:SensorLib\max30102/driver_max30102.c ****  *             - 1 get adc resolution failed
1801:SensorLib\max30102/driver_max30102.c ****  *             - 2 handle is NULL
1802:SensorLib\max30102/driver_max30102.c ****  *             - 3 handle is not initialized
1803:SensorLib\max30102/driver_max30102.c ****  * @note       none
1804:SensorLib\max30102/driver_max30102.c ****  */
1805:SensorLib\max30102/driver_max30102.c **** uint8_t max30102_get_adc_resolution(max30102_handle_t *handle, max30102_adc_resolution_t *resolutio
1806:SensorLib\max30102/driver_max30102.c **** {
 4172              		.loc 1 1806 0
 4173              		.cfi_startproc
 4174              		@ args = 0, pretend = 0, frame = 8
 4175              		@ frame_needed = 0, uses_anonymous_args = 0
 4176              	.LVL554:
 4177 0000 F0B5     		push	{r4, r5, r6, r7, lr}
 4178              		.cfi_def_cfa_offset 20
 4179              		.cfi_offset 4, -20
 4180              		.cfi_offset 5, -16
 4181              		.cfi_offset 6, -12
 4182              		.cfi_offset 7, -8
 4183              		.cfi_offset 14, -4
 4184 0002 83B0     		sub	sp, sp, #12
 4185              		.cfi_def_cfa_offset 32
1807:SensorLib\max30102/driver_max30102.c ****     uint8_t res;
1808:SensorLib\max30102/driver_max30102.c ****     uint8_t prev;
1809:SensorLib\max30102/driver_max30102.c ****     
1810:SensorLib\max30102/driver_max30102.c ****     if (handle == NULL)                                                                            
 4186              		.loc 1 1810 0
 4187 0004 B8B1     		cbz	r0, .L335
1811:SensorLib\max30102/driver_max30102.c ****     {
1812:SensorLib\max30102/driver_max30102.c ****         return 2;                                                                                  
1813:SensorLib\max30102/driver_max30102.c ****     }
1814:SensorLib\max30102/driver_max30102.c ****     if (handle->inited != 1)                                                                       
 4188              		.loc 1 1814 0
 4189 0006 047F     		ldrb	r4, [r0, #28]	@ zero_extendqisi2
 4190 0008 012C     		cmp	r4, #1
 4191 000a 16D1     		bne	.L336
 4192 000c 0546     		mov	r5, r0
 4193 000e 0E46     		mov	r6, r1
1815:SensorLib\max30102/driver_max30102.c ****     {
1816:SensorLib\max30102/driver_max30102.c ****         return 3;                                                                                  
1817:SensorLib\max30102/driver_max30102.c ****     }
1818:SensorLib\max30102/driver_max30102.c ****     
1819:SensorLib\max30102/driver_max30102.c ****     res = handle->iic_read(MAX30102_ADDRESS, MAX30102_REG_SPO2_CONFIG, (uint8_t *)&prev, 1);       
 4194              		.loc 1 1819 0
 4195 0010 8768     		ldr	r7, [r0, #8]
 4196 0012 0123     		movs	r3, #1
 4197 0014 0DF10702 		add	r2, sp, #7
ARM GAS  C:\Users\CHRONI~1\AppData\Local\Temp\cc7oUGua.s 			page 108


 4198 0018 0A21     		movs	r1, #10
 4199              	.LVL555:
 4200 001a 5720     		movs	r0, #87
 4201              	.LVL556:
 4202 001c B847     		blx	r7
 4203              	.LVL557:
1820:SensorLib\max30102/driver_max30102.c ****     if (res != 0)                                                                                  
 4204              		.loc 1 1820 0
 4205 001e 18B1     		cbz	r0, .L334
1821:SensorLib\max30102/driver_max30102.c ****     {
1822:SensorLib\max30102/driver_max30102.c ****         handle->debug_print("max30102: read spo2 config failed.\n");                               
 4206              		.loc 1 1822 0
 4207 0020 AB69     		ldr	r3, [r5, #24]
 4208 0022 0848     		ldr	r0, .L338
 4209              	.LVL558:
 4210 0024 9847     		blx	r3
 4211              	.LVL559:
1823:SensorLib\max30102/driver_max30102.c ****        
1824:SensorLib\max30102/driver_max30102.c ****         return 1;                                                                                  
 4212              		.loc 1 1824 0
 4213 0026 09E0     		b	.L333
 4214              	.LVL560:
 4215              	.L334:
1825:SensorLib\max30102/driver_max30102.c ****     }
1826:SensorLib\max30102/driver_max30102.c ****     *resolution = (max30102_adc_resolution_t)((prev >> 0) & 0x3);                                  
 4216              		.loc 1 1826 0
 4217 0028 9DF80730 		ldrb	r3, [sp, #7]	@ zero_extendqisi2
 4218 002c 03F00303 		and	r3, r3, #3
 4219 0030 3370     		strb	r3, [r6]
1827:SensorLib\max30102/driver_max30102.c ****     
1828:SensorLib\max30102/driver_max30102.c ****     return 0;                                                                                      
 4220              		.loc 1 1828 0
 4221 0032 0024     		movs	r4, #0
 4222 0034 02E0     		b	.L333
 4223              	.LVL561:
 4224              	.L335:
1812:SensorLib\max30102/driver_max30102.c ****     }
 4225              		.loc 1 1812 0
 4226 0036 0224     		movs	r4, #2
 4227 0038 00E0     		b	.L333
 4228              	.L336:
1816:SensorLib\max30102/driver_max30102.c ****     }
 4229              		.loc 1 1816 0
 4230 003a 0324     		movs	r4, #3
 4231              	.LVL562:
 4232              	.L333:
1829:SensorLib\max30102/driver_max30102.c **** }
 4233              		.loc 1 1829 0
 4234 003c 2046     		mov	r0, r4
 4235 003e 03B0     		add	sp, sp, #12
 4236              		.cfi_def_cfa_offset 20
 4237              		@ sp needed
 4238 0040 F0BD     		pop	{r4, r5, r6, r7, pc}
 4239              	.L339:
 4240 0042 00BF     		.align	2
 4241              	.L338:
 4242 0044 20080000 		.word	.LC50
ARM GAS  C:\Users\CHRONI~1\AppData\Local\Temp\cc7oUGua.s 			page 109


 4243              		.cfi_endproc
 4244              	.LFE33:
 4245              		.size	max30102_get_adc_resolution, .-max30102_get_adc_resolution
 4246              		.section	.text.max30102_set_led_red_pulse_amplitude,"ax",%progbits
 4247              		.align	2
 4248              		.global	max30102_set_led_red_pulse_amplitude
 4249              		.thumb
 4250              		.thumb_func
 4251              		.type	max30102_set_led_red_pulse_amplitude, %function
 4252              	max30102_set_led_red_pulse_amplitude:
 4253              	.LFB34:
1830:SensorLib\max30102/driver_max30102.c **** 
1831:SensorLib\max30102/driver_max30102.c **** /**
1832:SensorLib\max30102/driver_max30102.c ****  * @brief     set the red led pulse amplitude
1833:SensorLib\max30102/driver_max30102.c ****  * @param[in] *handle points to a max30102 handle structure
1834:SensorLib\max30102/driver_max30102.c ****  * @param[in] amp is the red led pulse amplitude
1835:SensorLib\max30102/driver_max30102.c ****  * @return    status code
1836:SensorLib\max30102/driver_max30102.c ****  *            - 0 success
1837:SensorLib\max30102/driver_max30102.c ****  *            - 1 set led red pulse amplitude failed
1838:SensorLib\max30102/driver_max30102.c ****  *            - 2 handle is NULL
1839:SensorLib\max30102/driver_max30102.c ****  *            - 3 handle is not initialized
1840:SensorLib\max30102/driver_max30102.c ****  * @note      none
1841:SensorLib\max30102/driver_max30102.c ****  */
1842:SensorLib\max30102/driver_max30102.c **** uint8_t max30102_set_led_red_pulse_amplitude(max30102_handle_t *handle, uint8_t amp)
1843:SensorLib\max30102/driver_max30102.c **** {
 4254              		.loc 1 1843 0
 4255              		.cfi_startproc
 4256              		@ args = 0, pretend = 0, frame = 8
 4257              		@ frame_needed = 0, uses_anonymous_args = 0
 4258              	.LVL563:
 4259 0000 70B5     		push	{r4, r5, r6, lr}
 4260              		.cfi_def_cfa_offset 16
 4261              		.cfi_offset 4, -16
 4262              		.cfi_offset 5, -12
 4263              		.cfi_offset 6, -8
 4264              		.cfi_offset 14, -4
 4265 0002 82B0     		sub	sp, sp, #8
 4266              		.cfi_def_cfa_offset 24
 4267 0004 8DF80710 		strb	r1, [sp, #7]
1844:SensorLib\max30102/driver_max30102.c ****     uint8_t res;
1845:SensorLib\max30102/driver_max30102.c ****     
1846:SensorLib\max30102/driver_max30102.c ****     if (handle == NULL)                                                                            
 4268              		.loc 1 1846 0
 4269 0008 78B1     		cbz	r0, .L342
1847:SensorLib\max30102/driver_max30102.c ****     {
1848:SensorLib\max30102/driver_max30102.c ****         return 2;                                                                                  
1849:SensorLib\max30102/driver_max30102.c ****     }
1850:SensorLib\max30102/driver_max30102.c ****     if (handle->inited != 1)                                                                       
 4270              		.loc 1 1850 0
 4271 000a 047F     		ldrb	r4, [r0, #28]	@ zero_extendqisi2
 4272 000c 012C     		cmp	r4, #1
 4273 000e 0ED1     		bne	.L343
 4274 0010 0546     		mov	r5, r0
1851:SensorLib\max30102/driver_max30102.c ****     {
1852:SensorLib\max30102/driver_max30102.c ****         return 3;                                                                                  
1853:SensorLib\max30102/driver_max30102.c ****     }
1854:SensorLib\max30102/driver_max30102.c ****     
ARM GAS  C:\Users\CHRONI~1\AppData\Local\Temp\cc7oUGua.s 			page 110


1855:SensorLib\max30102/driver_max30102.c ****     res = handle->iic_write(MAX30102_ADDRESS, MAX30102_REG_LED_PULSE_1, (uint8_t *)&amp, 1);       
 4275              		.loc 1 1855 0
 4276 0012 C668     		ldr	r6, [r0, #12]
 4277 0014 0123     		movs	r3, #1
 4278 0016 0DF10702 		add	r2, sp, #7
 4279 001a 0C21     		movs	r1, #12
 4280              	.LVL564:
 4281 001c 5720     		movs	r0, #87
 4282              	.LVL565:
 4283 001e B047     		blx	r6
 4284              	.LVL566:
1856:SensorLib\max30102/driver_max30102.c ****     if (res != 0)                                                                                  
 4285              		.loc 1 1856 0
 4286 0020 38B1     		cbz	r0, .L344
1857:SensorLib\max30102/driver_max30102.c ****     {
1858:SensorLib\max30102/driver_max30102.c ****         handle->debug_print("max30102: write led pulse 1 failed.\n");                              
 4287              		.loc 1 1858 0
 4288 0022 AB69     		ldr	r3, [r5, #24]
 4289 0024 0548     		ldr	r0, .L346
 4290              	.LVL567:
 4291 0026 9847     		blx	r3
 4292              	.LVL568:
1859:SensorLib\max30102/driver_max30102.c ****        
1860:SensorLib\max30102/driver_max30102.c ****         return 1;                                                                                  
 4293              		.loc 1 1860 0
 4294 0028 04E0     		b	.L341
 4295              	.LVL569:
 4296              	.L342:
1848:SensorLib\max30102/driver_max30102.c ****     }
 4297              		.loc 1 1848 0
 4298 002a 0224     		movs	r4, #2
 4299 002c 02E0     		b	.L341
 4300              	.L343:
1852:SensorLib\max30102/driver_max30102.c ****     }
 4301              		.loc 1 1852 0
 4302 002e 0324     		movs	r4, #3
 4303 0030 00E0     		b	.L341
 4304              	.LVL570:
 4305              	.L344:
1861:SensorLib\max30102/driver_max30102.c ****     }
1862:SensorLib\max30102/driver_max30102.c ****     
1863:SensorLib\max30102/driver_max30102.c ****     return 0;                                                                                      
 4306              		.loc 1 1863 0
 4307 0032 0024     		movs	r4, #0
 4308              	.LVL571:
 4309              	.L341:
1864:SensorLib\max30102/driver_max30102.c **** }
 4310              		.loc 1 1864 0
 4311 0034 2046     		mov	r0, r4
 4312 0036 02B0     		add	sp, sp, #8
 4313              		.cfi_def_cfa_offset 16
 4314              		@ sp needed
 4315 0038 70BD     		pop	{r4, r5, r6, pc}
 4316              	.LVL572:
 4317              	.L347:
 4318 003a 00BF     		.align	2
 4319              	.L346:
ARM GAS  C:\Users\CHRONI~1\AppData\Local\Temp\cc7oUGua.s 			page 111


 4320 003c 880B0000 		.word	.LC71
 4321              		.cfi_endproc
 4322              	.LFE34:
 4323              		.size	max30102_set_led_red_pulse_amplitude, .-max30102_set_led_red_pulse_amplitude
 4324              		.section	.text.max30102_get_led_red_pulse_amplitude,"ax",%progbits
 4325              		.align	2
 4326              		.global	max30102_get_led_red_pulse_amplitude
 4327              		.thumb
 4328              		.thumb_func
 4329              		.type	max30102_get_led_red_pulse_amplitude, %function
 4330              	max30102_get_led_red_pulse_amplitude:
 4331              	.LFB35:
1865:SensorLib\max30102/driver_max30102.c **** 
1866:SensorLib\max30102/driver_max30102.c **** /**
1867:SensorLib\max30102/driver_max30102.c ****  * @brief      get the red led pulse amplitude
1868:SensorLib\max30102/driver_max30102.c ****  * @param[in]  *handle points to a max30102 handle structure
1869:SensorLib\max30102/driver_max30102.c ****  * @param[out] *amp points to a red led pulse amplitude buffer
1870:SensorLib\max30102/driver_max30102.c ****  * @return     status code
1871:SensorLib\max30102/driver_max30102.c ****  *             - 0 success
1872:SensorLib\max30102/driver_max30102.c ****  *             - 1 get led red pulse amplitude failed
1873:SensorLib\max30102/driver_max30102.c ****  *             - 2 handle is NULL
1874:SensorLib\max30102/driver_max30102.c ****  *             - 3 handle is not initialized
1875:SensorLib\max30102/driver_max30102.c ****  * @note       none
1876:SensorLib\max30102/driver_max30102.c ****  */
1877:SensorLib\max30102/driver_max30102.c **** uint8_t max30102_get_led_red_pulse_amplitude(max30102_handle_t *handle, uint8_t *amp)
1878:SensorLib\max30102/driver_max30102.c **** {
 4332              		.loc 1 1878 0
 4333              		.cfi_startproc
 4334              		@ args = 0, pretend = 0, frame = 0
 4335              		@ frame_needed = 0, uses_anonymous_args = 0
 4336              	.LVL573:
 4337 0000 70B5     		push	{r4, r5, r6, lr}
 4338              		.cfi_def_cfa_offset 16
 4339              		.cfi_offset 4, -16
 4340              		.cfi_offset 5, -12
 4341              		.cfi_offset 6, -8
 4342              		.cfi_offset 14, -4
1879:SensorLib\max30102/driver_max30102.c ****     uint8_t res;
1880:SensorLib\max30102/driver_max30102.c ****     
1881:SensorLib\max30102/driver_max30102.c ****     if (handle == NULL)                                                                           /
 4343              		.loc 1 1881 0
 4344 0002 70B1     		cbz	r0, .L350
1882:SensorLib\max30102/driver_max30102.c ****     {
1883:SensorLib\max30102/driver_max30102.c ****         return 2;                                                                                 /
1884:SensorLib\max30102/driver_max30102.c ****     }
1885:SensorLib\max30102/driver_max30102.c ****     if (handle->inited != 1)                                                                      /
 4345              		.loc 1 1885 0
 4346 0004 047F     		ldrb	r4, [r0, #28]	@ zero_extendqisi2
 4347 0006 012C     		cmp	r4, #1
 4348 0008 0DD1     		bne	.L351
 4349 000a 0546     		mov	r5, r0
 4350 000c 0A46     		mov	r2, r1
1886:SensorLib\max30102/driver_max30102.c ****     {
1887:SensorLib\max30102/driver_max30102.c ****         return 3;                                                                                 /
1888:SensorLib\max30102/driver_max30102.c ****     }
1889:SensorLib\max30102/driver_max30102.c ****     
1890:SensorLib\max30102/driver_max30102.c ****     res = handle->iic_read(MAX30102_ADDRESS, MAX30102_REG_LED_PULSE_1, (uint8_t *)amp, 1);        /
ARM GAS  C:\Users\CHRONI~1\AppData\Local\Temp\cc7oUGua.s 			page 112


 4351              		.loc 1 1890 0
 4352 000e 8668     		ldr	r6, [r0, #8]
 4353 0010 0123     		movs	r3, #1
 4354 0012 0C21     		movs	r1, #12
 4355              	.LVL574:
 4356 0014 5720     		movs	r0, #87
 4357              	.LVL575:
 4358 0016 B047     		blx	r6
 4359              	.LVL576:
1891:SensorLib\max30102/driver_max30102.c ****     if (res != 0)                                                                                 /
 4360              		.loc 1 1891 0
 4361 0018 38B1     		cbz	r0, .L352
1892:SensorLib\max30102/driver_max30102.c ****     {
1893:SensorLib\max30102/driver_max30102.c ****         handle->debug_print("max30102: read led pulse 1 failed.\n");                              /
 4362              		.loc 1 1893 0
 4363 001a AB69     		ldr	r3, [r5, #24]
 4364 001c 0448     		ldr	r0, .L354
 4365              	.LVL577:
 4366 001e 9847     		blx	r3
 4367              	.LVL578:
1894:SensorLib\max30102/driver_max30102.c ****        
1895:SensorLib\max30102/driver_max30102.c ****         return 1;                                                                                 /
 4368              		.loc 1 1895 0
 4369 0020 04E0     		b	.L349
 4370              	.LVL579:
 4371              	.L350:
1883:SensorLib\max30102/driver_max30102.c ****     }
 4372              		.loc 1 1883 0
 4373 0022 0224     		movs	r4, #2
 4374 0024 02E0     		b	.L349
 4375              	.L351:
1887:SensorLib\max30102/driver_max30102.c ****     }
 4376              		.loc 1 1887 0
 4377 0026 0324     		movs	r4, #3
 4378 0028 00E0     		b	.L349
 4379              	.LVL580:
 4380              	.L352:
1896:SensorLib\max30102/driver_max30102.c ****     }
1897:SensorLib\max30102/driver_max30102.c ****     
1898:SensorLib\max30102/driver_max30102.c ****     return 0;                                                                                     /
 4381              		.loc 1 1898 0
 4382 002a 0024     		movs	r4, #0
 4383              	.LVL581:
 4384              	.L349:
1899:SensorLib\max30102/driver_max30102.c **** }
 4385              		.loc 1 1899 0
 4386 002c 2046     		mov	r0, r4
 4387 002e 70BD     		pop	{r4, r5, r6, pc}
 4388              	.L355:
 4389              		.align	2
 4390              	.L354:
 4391 0030 B00B0000 		.word	.LC72
 4392              		.cfi_endproc
 4393              	.LFE35:
 4394              		.size	max30102_get_led_red_pulse_amplitude, .-max30102_get_led_red_pulse_amplitude
 4395              		.section	.text.max30102_set_led_ir_pulse_amplitude,"ax",%progbits
 4396              		.align	2
ARM GAS  C:\Users\CHRONI~1\AppData\Local\Temp\cc7oUGua.s 			page 113


 4397              		.global	max30102_set_led_ir_pulse_amplitude
 4398              		.thumb
 4399              		.thumb_func
 4400              		.type	max30102_set_led_ir_pulse_amplitude, %function
 4401              	max30102_set_led_ir_pulse_amplitude:
 4402              	.LFB36:
1900:SensorLib\max30102/driver_max30102.c **** 
1901:SensorLib\max30102/driver_max30102.c **** /**
1902:SensorLib\max30102/driver_max30102.c ****  * @brief     set the ir led pulse amplitude
1903:SensorLib\max30102/driver_max30102.c ****  * @param[in] *handle points to a max30102 handle structure
1904:SensorLib\max30102/driver_max30102.c ****  * @param[in] amp is the ir led pulse amplitude
1905:SensorLib\max30102/driver_max30102.c ****  * @return    status code
1906:SensorLib\max30102/driver_max30102.c ****  *            - 0 success
1907:SensorLib\max30102/driver_max30102.c ****  *            - 1 set led ir pulse amplitude failed
1908:SensorLib\max30102/driver_max30102.c ****  *            - 2 handle is NULL
1909:SensorLib\max30102/driver_max30102.c ****  *            - 3 handle is not initialized
1910:SensorLib\max30102/driver_max30102.c ****  * @note      none
1911:SensorLib\max30102/driver_max30102.c ****  */
1912:SensorLib\max30102/driver_max30102.c **** uint8_t max30102_set_led_ir_pulse_amplitude(max30102_handle_t *handle, uint8_t amp)
1913:SensorLib\max30102/driver_max30102.c **** {
 4403              		.loc 1 1913 0
 4404              		.cfi_startproc
 4405              		@ args = 0, pretend = 0, frame = 8
 4406              		@ frame_needed = 0, uses_anonymous_args = 0
 4407              	.LVL582:
 4408 0000 70B5     		push	{r4, r5, r6, lr}
 4409              		.cfi_def_cfa_offset 16
 4410              		.cfi_offset 4, -16
 4411              		.cfi_offset 5, -12
 4412              		.cfi_offset 6, -8
 4413              		.cfi_offset 14, -4
 4414 0002 82B0     		sub	sp, sp, #8
 4415              		.cfi_def_cfa_offset 24
 4416 0004 8DF80710 		strb	r1, [sp, #7]
1914:SensorLib\max30102/driver_max30102.c ****     uint8_t res;
1915:SensorLib\max30102/driver_max30102.c ****     
1916:SensorLib\max30102/driver_max30102.c ****     if (handle == NULL)                                                                            
 4417              		.loc 1 1916 0
 4418 0008 78B1     		cbz	r0, .L358
1917:SensorLib\max30102/driver_max30102.c ****     {
1918:SensorLib\max30102/driver_max30102.c ****         return 2;                                                                                  
1919:SensorLib\max30102/driver_max30102.c ****     }
1920:SensorLib\max30102/driver_max30102.c ****     if (handle->inited != 1)                                                                       
 4419              		.loc 1 1920 0
 4420 000a 047F     		ldrb	r4, [r0, #28]	@ zero_extendqisi2
 4421 000c 012C     		cmp	r4, #1
 4422 000e 0ED1     		bne	.L359
 4423 0010 0546     		mov	r5, r0
1921:SensorLib\max30102/driver_max30102.c ****     {
1922:SensorLib\max30102/driver_max30102.c ****         return 3;                                                                                  
1923:SensorLib\max30102/driver_max30102.c ****     }
1924:SensorLib\max30102/driver_max30102.c ****     
1925:SensorLib\max30102/driver_max30102.c ****     res = handle->iic_write(MAX30102_ADDRESS, MAX30102_REG_LED_PULSE_2, (uint8_t *)&amp, 1);       
 4424              		.loc 1 1925 0
 4425 0012 C668     		ldr	r6, [r0, #12]
 4426 0014 0123     		movs	r3, #1
 4427 0016 0DF10702 		add	r2, sp, #7
ARM GAS  C:\Users\CHRONI~1\AppData\Local\Temp\cc7oUGua.s 			page 114


 4428 001a 0D21     		movs	r1, #13
 4429              	.LVL583:
 4430 001c 5720     		movs	r0, #87
 4431              	.LVL584:
 4432 001e B047     		blx	r6
 4433              	.LVL585:
1926:SensorLib\max30102/driver_max30102.c ****     if (res != 0)                                                                                  
 4434              		.loc 1 1926 0
 4435 0020 38B1     		cbz	r0, .L360
1927:SensorLib\max30102/driver_max30102.c ****     {
1928:SensorLib\max30102/driver_max30102.c ****         handle->debug_print("max30102: write led pulse 2 failed.\n");                              
 4436              		.loc 1 1928 0
 4437 0022 AB69     		ldr	r3, [r5, #24]
 4438 0024 0548     		ldr	r0, .L362
 4439              	.LVL586:
 4440 0026 9847     		blx	r3
 4441              	.LVL587:
1929:SensorLib\max30102/driver_max30102.c ****        
1930:SensorLib\max30102/driver_max30102.c ****         return 1;                                                                                  
 4442              		.loc 1 1930 0
 4443 0028 04E0     		b	.L357
 4444              	.LVL588:
 4445              	.L358:
1918:SensorLib\max30102/driver_max30102.c ****     }
 4446              		.loc 1 1918 0
 4447 002a 0224     		movs	r4, #2
 4448 002c 02E0     		b	.L357
 4449              	.L359:
1922:SensorLib\max30102/driver_max30102.c ****     }
 4450              		.loc 1 1922 0
 4451 002e 0324     		movs	r4, #3
 4452 0030 00E0     		b	.L357
 4453              	.LVL589:
 4454              	.L360:
1931:SensorLib\max30102/driver_max30102.c ****     }
1932:SensorLib\max30102/driver_max30102.c ****     
1933:SensorLib\max30102/driver_max30102.c ****     return 0;                                                                                      
 4455              		.loc 1 1933 0
 4456 0032 0024     		movs	r4, #0
 4457              	.LVL590:
 4458              	.L357:
1934:SensorLib\max30102/driver_max30102.c **** }
 4459              		.loc 1 1934 0
 4460 0034 2046     		mov	r0, r4
 4461 0036 02B0     		add	sp, sp, #8
 4462              		.cfi_def_cfa_offset 16
 4463              		@ sp needed
 4464 0038 70BD     		pop	{r4, r5, r6, pc}
 4465              	.LVL591:
 4466              	.L363:
 4467 003a 00BF     		.align	2
 4468              	.L362:
 4469 003c D40B0000 		.word	.LC73
 4470              		.cfi_endproc
 4471              	.LFE36:
 4472              		.size	max30102_set_led_ir_pulse_amplitude, .-max30102_set_led_ir_pulse_amplitude
 4473              		.section	.text.max30102_get_led_ir_pulse_amplitude,"ax",%progbits
ARM GAS  C:\Users\CHRONI~1\AppData\Local\Temp\cc7oUGua.s 			page 115


 4474              		.align	2
 4475              		.global	max30102_get_led_ir_pulse_amplitude
 4476              		.thumb
 4477              		.thumb_func
 4478              		.type	max30102_get_led_ir_pulse_amplitude, %function
 4479              	max30102_get_led_ir_pulse_amplitude:
 4480              	.LFB37:
1935:SensorLib\max30102/driver_max30102.c **** 
1936:SensorLib\max30102/driver_max30102.c **** /**
1937:SensorLib\max30102/driver_max30102.c ****  * @brief      get the ir led pulse amplitude
1938:SensorLib\max30102/driver_max30102.c ****  * @param[in]  *handle points to a max30102 handle structure
1939:SensorLib\max30102/driver_max30102.c ****  * @param[out] *amp points to an ir led pulse amplitude buffer
1940:SensorLib\max30102/driver_max30102.c ****  * @return     status code
1941:SensorLib\max30102/driver_max30102.c ****  *             - 0 success
1942:SensorLib\max30102/driver_max30102.c ****  *             - 1 get led ir pulse amplitude failed
1943:SensorLib\max30102/driver_max30102.c ****  *             - 2 handle is NULL
1944:SensorLib\max30102/driver_max30102.c ****  *             - 3 handle is not initialized
1945:SensorLib\max30102/driver_max30102.c ****  * @note       none
1946:SensorLib\max30102/driver_max30102.c ****  */
1947:SensorLib\max30102/driver_max30102.c **** uint8_t max30102_get_led_ir_pulse_amplitude(max30102_handle_t *handle, uint8_t *amp)
1948:SensorLib\max30102/driver_max30102.c **** {
 4481              		.loc 1 1948 0
 4482              		.cfi_startproc
 4483              		@ args = 0, pretend = 0, frame = 0
 4484              		@ frame_needed = 0, uses_anonymous_args = 0
 4485              	.LVL592:
 4486 0000 70B5     		push	{r4, r5, r6, lr}
 4487              		.cfi_def_cfa_offset 16
 4488              		.cfi_offset 4, -16
 4489              		.cfi_offset 5, -12
 4490              		.cfi_offset 6, -8
 4491              		.cfi_offset 14, -4
1949:SensorLib\max30102/driver_max30102.c ****     uint8_t res;
1950:SensorLib\max30102/driver_max30102.c ****     
1951:SensorLib\max30102/driver_max30102.c ****     if (handle == NULL)                                                                           /
 4492              		.loc 1 1951 0
 4493 0002 70B1     		cbz	r0, .L366
1952:SensorLib\max30102/driver_max30102.c ****     {
1953:SensorLib\max30102/driver_max30102.c ****         return 2;                                                                                 /
1954:SensorLib\max30102/driver_max30102.c ****     }
1955:SensorLib\max30102/driver_max30102.c ****     if (handle->inited != 1)                                                                      /
 4494              		.loc 1 1955 0
 4495 0004 047F     		ldrb	r4, [r0, #28]	@ zero_extendqisi2
 4496 0006 012C     		cmp	r4, #1
 4497 0008 0DD1     		bne	.L367
 4498 000a 0546     		mov	r5, r0
 4499 000c 0A46     		mov	r2, r1
1956:SensorLib\max30102/driver_max30102.c ****     {
1957:SensorLib\max30102/driver_max30102.c ****         return 3;                                                                                 /
1958:SensorLib\max30102/driver_max30102.c ****     }
1959:SensorLib\max30102/driver_max30102.c ****     
1960:SensorLib\max30102/driver_max30102.c ****     res = handle->iic_read(MAX30102_ADDRESS, MAX30102_REG_LED_PULSE_2, (uint8_t *)amp, 1);        /
 4500              		.loc 1 1960 0
 4501 000e 8668     		ldr	r6, [r0, #8]
 4502 0010 0123     		movs	r3, #1
 4503 0012 0D21     		movs	r1, #13
 4504              	.LVL593:
ARM GAS  C:\Users\CHRONI~1\AppData\Local\Temp\cc7oUGua.s 			page 116


 4505 0014 5720     		movs	r0, #87
 4506              	.LVL594:
 4507 0016 B047     		blx	r6
 4508              	.LVL595:
1961:SensorLib\max30102/driver_max30102.c ****     if (res != 0)                                                                                 /
 4509              		.loc 1 1961 0
 4510 0018 38B1     		cbz	r0, .L368
1962:SensorLib\max30102/driver_max30102.c ****     {
1963:SensorLib\max30102/driver_max30102.c ****         handle->debug_print("max30102: read led pulse 2 failed.\n");                              /
 4511              		.loc 1 1963 0
 4512 001a AB69     		ldr	r3, [r5, #24]
 4513 001c 0448     		ldr	r0, .L370
 4514              	.LVL596:
 4515 001e 9847     		blx	r3
 4516              	.LVL597:
1964:SensorLib\max30102/driver_max30102.c ****        
1965:SensorLib\max30102/driver_max30102.c ****         return 1;                                                                                 /
 4517              		.loc 1 1965 0
 4518 0020 04E0     		b	.L365
 4519              	.LVL598:
 4520              	.L366:
1953:SensorLib\max30102/driver_max30102.c ****     }
 4521              		.loc 1 1953 0
 4522 0022 0224     		movs	r4, #2
 4523 0024 02E0     		b	.L365
 4524              	.L367:
1957:SensorLib\max30102/driver_max30102.c ****     }
 4525              		.loc 1 1957 0
 4526 0026 0324     		movs	r4, #3
 4527 0028 00E0     		b	.L365
 4528              	.LVL599:
 4529              	.L368:
1966:SensorLib\max30102/driver_max30102.c ****     }
1967:SensorLib\max30102/driver_max30102.c ****     
1968:SensorLib\max30102/driver_max30102.c ****     return 0;                                                                                     /
 4530              		.loc 1 1968 0
 4531 002a 0024     		movs	r4, #0
 4532              	.LVL600:
 4533              	.L365:
1969:SensorLib\max30102/driver_max30102.c **** }
 4534              		.loc 1 1969 0
 4535 002c 2046     		mov	r0, r4
 4536 002e 70BD     		pop	{r4, r5, r6, pc}
 4537              	.L371:
 4538              		.align	2
 4539              	.L370:
 4540 0030 FC0B0000 		.word	.LC74
 4541              		.cfi_endproc
 4542              	.LFE37:
 4543              		.size	max30102_get_led_ir_pulse_amplitude, .-max30102_get_led_ir_pulse_amplitude
 4544              		.section	.text.max30102_set_slot,"ax",%progbits
 4545              		.align	2
 4546              		.global	max30102_set_slot
 4547              		.thumb
 4548              		.thumb_func
 4549              		.type	max30102_set_slot, %function
 4550              	max30102_set_slot:
ARM GAS  C:\Users\CHRONI~1\AppData\Local\Temp\cc7oUGua.s 			page 117


 4551              	.LFB38:
1970:SensorLib\max30102/driver_max30102.c **** 
1971:SensorLib\max30102/driver_max30102.c **** /**
1972:SensorLib\max30102/driver_max30102.c ****  * @brief     set the led slot
1973:SensorLib\max30102/driver_max30102.c ****  * @param[in] *handle points to a max30102 handle structure
1974:SensorLib\max30102/driver_max30102.c ****  * @param[in] slot is the slot number
1975:SensorLib\max30102/driver_max30102.c ****  * @param[in] led is the led mode
1976:SensorLib\max30102/driver_max30102.c ****  * @return    status code
1977:SensorLib\max30102/driver_max30102.c ****  *            - 0 success
1978:SensorLib\max30102/driver_max30102.c ****  *            - 1 set slot failed
1979:SensorLib\max30102/driver_max30102.c ****  *            - 2 handle is NULL
1980:SensorLib\max30102/driver_max30102.c ****  *            - 3 handle is not initialized
1981:SensorLib\max30102/driver_max30102.c ****  * @note      none
1982:SensorLib\max30102/driver_max30102.c ****  */
1983:SensorLib\max30102/driver_max30102.c **** uint8_t max30102_set_slot(max30102_handle_t *handle, max30102_slot_t slot, max30102_led_t led)
1984:SensorLib\max30102/driver_max30102.c **** {
 4552              		.loc 1 1984 0
 4553              		.cfi_startproc
 4554              		@ args = 0, pretend = 0, frame = 8
 4555              		@ frame_needed = 0, uses_anonymous_args = 0
 4556              	.LVL601:
 4557 0000 F0B5     		push	{r4, r5, r6, r7, lr}
 4558              		.cfi_def_cfa_offset 20
 4559              		.cfi_offset 4, -20
 4560              		.cfi_offset 5, -16
 4561              		.cfi_offset 6, -12
 4562              		.cfi_offset 7, -8
 4563              		.cfi_offset 14, -4
 4564 0002 83B0     		sub	sp, sp, #12
 4565              		.cfi_def_cfa_offset 32
1985:SensorLib\max30102/driver_max30102.c ****     uint8_t res;
1986:SensorLib\max30102/driver_max30102.c ****     uint8_t prev;
1987:SensorLib\max30102/driver_max30102.c ****     
1988:SensorLib\max30102/driver_max30102.c ****     if (handle == NULL)                                                                            
 4566              		.loc 1 1988 0
 4567 0004 0028     		cmp	r0, #0
 4568 0006 00F08E80 		beq	.L382
1989:SensorLib\max30102/driver_max30102.c ****     {
1990:SensorLib\max30102/driver_max30102.c ****         return 2;                                                                                  
1991:SensorLib\max30102/driver_max30102.c ****     }
1992:SensorLib\max30102/driver_max30102.c ****     if (handle->inited != 1)                                                                       
 4569              		.loc 1 1992 0
 4570 000a 047F     		ldrb	r4, [r0, #28]	@ zero_extendqisi2
 4571 000c 012C     		cmp	r4, #1
 4572 000e 40F08C80 		bne	.L383
 4573 0012 0546     		mov	r5, r0
 4574 0014 1646     		mov	r6, r2
1993:SensorLib\max30102/driver_max30102.c ****     {
1994:SensorLib\max30102/driver_max30102.c ****         return 3;                                                                                  
1995:SensorLib\max30102/driver_max30102.c ****     }
1996:SensorLib\max30102/driver_max30102.c ****     
1997:SensorLib\max30102/driver_max30102.c ****     if (slot == MAX30102_SLOT_1)                                                                   
 4575              		.loc 1 1997 0
 4576 0016 F1B9     		cbnz	r1, .L374
1998:SensorLib\max30102/driver_max30102.c ****     {
1999:SensorLib\max30102/driver_max30102.c ****         res = handle->iic_read(MAX30102_ADDRESS, MAX30102_REG_MULTI_LED_MODE_CONTROL_1, (uint8_t *)
 4577              		.loc 1 1999 0
ARM GAS  C:\Users\CHRONI~1\AppData\Local\Temp\cc7oUGua.s 			page 118


 4578 0018 8768     		ldr	r7, [r0, #8]
 4579 001a 0123     		movs	r3, #1
 4580 001c 0DF10702 		add	r2, sp, #7
 4581              	.LVL602:
 4582 0020 1121     		movs	r1, #17
 4583              	.LVL603:
 4584 0022 5720     		movs	r0, #87
 4585              	.LVL604:
 4586 0024 B847     		blx	r7
 4587              	.LVL605:
2000:SensorLib\max30102/driver_max30102.c ****         if (res != 0)                                                                              
 4588              		.loc 1 2000 0
 4589 0026 18B1     		cbz	r0, .L375
2001:SensorLib\max30102/driver_max30102.c ****         {
2002:SensorLib\max30102/driver_max30102.c ****             handle->debug_print("max30102: read led slot failed.\n");                              
 4590              		.loc 1 2002 0
 4591 0028 AB69     		ldr	r3, [r5, #24]
 4592 002a 4648     		ldr	r0, .L389
 4593              	.LVL606:
 4594 002c 9847     		blx	r3
 4595              	.LVL607:
2003:SensorLib\max30102/driver_max30102.c ****            
2004:SensorLib\max30102/driver_max30102.c ****             return 1;                                                                              
 4596              		.loc 1 2004 0
 4597 002e 85E0     		b	.L373
 4598              	.LVL608:
 4599              	.L375:
2005:SensorLib\max30102/driver_max30102.c ****         }
2006:SensorLib\max30102/driver_max30102.c ****         prev &= ~(0x7 << 0);                                                                       
 4600              		.loc 1 2006 0
 4601 0030 9DF80720 		ldrb	r2, [sp, #7]	@ zero_extendqisi2
 4602 0034 02F0F802 		and	r2, r2, #248
2007:SensorLib\max30102/driver_max30102.c ****         prev |= led << 0;                                                                          
 4603              		.loc 1 2007 0
 4604 0038 1643     		orrs	r6, r6, r2
 4605 003a 02AA     		add	r2, sp, #8
 4606 003c 02F8016D 		strb	r6, [r2, #-1]!
2008:SensorLib\max30102/driver_max30102.c ****         res = handle->iic_write(MAX30102_ADDRESS, MAX30102_REG_MULTI_LED_MODE_CONTROL_1, (uint8_t *
 4607              		.loc 1 2008 0
 4608 0040 EE68     		ldr	r6, [r5, #12]
 4609 0042 0123     		movs	r3, #1
 4610 0044 1121     		movs	r1, #17
 4611 0046 5720     		movs	r0, #87
 4612              	.LVL609:
 4613 0048 B047     		blx	r6
 4614              	.LVL610:
2009:SensorLib\max30102/driver_max30102.c ****         if (res != 0)                                                                              
 4615              		.loc 1 2009 0
 4616 004a 0028     		cmp	r0, #0
 4617 004c 6FD0     		beq	.L384
2010:SensorLib\max30102/driver_max30102.c ****         {
2011:SensorLib\max30102/driver_max30102.c ****             handle->debug_print("max30102: write led slot failed.\n");                             
 4618              		.loc 1 2011 0
 4619 004e AB69     		ldr	r3, [r5, #24]
 4620 0050 3D48     		ldr	r0, .L389+4
 4621              	.LVL611:
 4622 0052 9847     		blx	r3
ARM GAS  C:\Users\CHRONI~1\AppData\Local\Temp\cc7oUGua.s 			page 119


 4623              	.LVL612:
2012:SensorLib\max30102/driver_max30102.c ****            
2013:SensorLib\max30102/driver_max30102.c ****             return 1;                                                                              
 4624              		.loc 1 2013 0
 4625 0054 72E0     		b	.L373
 4626              	.LVL613:
 4627              	.L374:
2014:SensorLib\max30102/driver_max30102.c ****         }
2015:SensorLib\max30102/driver_max30102.c ****         
2016:SensorLib\max30102/driver_max30102.c ****         return 0;                                                                                  
2017:SensorLib\max30102/driver_max30102.c ****     }
2018:SensorLib\max30102/driver_max30102.c ****     else if (slot == MAX30102_SLOT_2)                                                              
 4628              		.loc 1 2018 0
 4629 0056 0129     		cmp	r1, #1
 4630 0058 1FD1     		bne	.L376
2019:SensorLib\max30102/driver_max30102.c ****     {
2020:SensorLib\max30102/driver_max30102.c ****         res = handle->iic_read(MAX30102_ADDRESS, MAX30102_REG_MULTI_LED_MODE_CONTROL_1, (uint8_t *)
 4631              		.loc 1 2020 0
 4632 005a 8768     		ldr	r7, [r0, #8]
 4633 005c 0123     		movs	r3, #1
 4634 005e 0DF10702 		add	r2, sp, #7
 4635              	.LVL614:
 4636 0062 1121     		movs	r1, #17
 4637              	.LVL615:
 4638 0064 5720     		movs	r0, #87
 4639              	.LVL616:
 4640 0066 B847     		blx	r7
 4641              	.LVL617:
2021:SensorLib\max30102/driver_max30102.c ****         if (res != 0)                                                                              
 4642              		.loc 1 2021 0
 4643 0068 18B1     		cbz	r0, .L377
2022:SensorLib\max30102/driver_max30102.c ****         {
2023:SensorLib\max30102/driver_max30102.c ****             handle->debug_print("max30102: read led slot failed.\n");                              
 4644              		.loc 1 2023 0
 4645 006a AB69     		ldr	r3, [r5, #24]
 4646 006c 3548     		ldr	r0, .L389
 4647              	.LVL618:
 4648 006e 9847     		blx	r3
 4649              	.LVL619:
2024:SensorLib\max30102/driver_max30102.c ****            
2025:SensorLib\max30102/driver_max30102.c ****             return 1;                                                                              
 4650              		.loc 1 2025 0
 4651 0070 64E0     		b	.L373
 4652              	.LVL620:
 4653              	.L377:
2026:SensorLib\max30102/driver_max30102.c ****         }
2027:SensorLib\max30102/driver_max30102.c ****         prev &= ~(0x7 << 4);                                                                       
 4654              		.loc 1 2027 0
 4655 0072 9DF80730 		ldrb	r3, [sp, #7]	@ zero_extendqisi2
 4656 0076 03F08F03 		and	r3, r3, #143
2028:SensorLib\max30102/driver_max30102.c ****         prev |= led << 4;                                                                          
 4657              		.loc 1 2028 0
 4658 007a 43EA0616 		orr	r6, r3, r6, lsl #4
 4659 007e 02AA     		add	r2, sp, #8
 4660 0080 02F8016D 		strb	r6, [r2, #-1]!
2029:SensorLib\max30102/driver_max30102.c ****         res = handle->iic_write(MAX30102_ADDRESS, MAX30102_REG_MULTI_LED_MODE_CONTROL_1, (uint8_t *
 4661              		.loc 1 2029 0
ARM GAS  C:\Users\CHRONI~1\AppData\Local\Temp\cc7oUGua.s 			page 120


 4662 0084 EE68     		ldr	r6, [r5, #12]
 4663 0086 0123     		movs	r3, #1
 4664 0088 1121     		movs	r1, #17
 4665 008a 5720     		movs	r0, #87
 4666              	.LVL621:
 4667 008c B047     		blx	r6
 4668              	.LVL622:
2030:SensorLib\max30102/driver_max30102.c ****         if (res != 0)                                                                              
 4669              		.loc 1 2030 0
 4670 008e 0028     		cmp	r0, #0
 4671 0090 4FD0     		beq	.L385
2031:SensorLib\max30102/driver_max30102.c ****         {
2032:SensorLib\max30102/driver_max30102.c ****             handle->debug_print("max30102: write led slot failed.\n");                             
 4672              		.loc 1 2032 0
 4673 0092 AB69     		ldr	r3, [r5, #24]
 4674 0094 2C48     		ldr	r0, .L389+4
 4675              	.LVL623:
 4676 0096 9847     		blx	r3
 4677              	.LVL624:
2033:SensorLib\max30102/driver_max30102.c ****            
2034:SensorLib\max30102/driver_max30102.c ****             return 1;                                                                              
 4678              		.loc 1 2034 0
 4679 0098 50E0     		b	.L373
 4680              	.LVL625:
 4681              	.L376:
2035:SensorLib\max30102/driver_max30102.c ****         }
2036:SensorLib\max30102/driver_max30102.c ****         
2037:SensorLib\max30102/driver_max30102.c ****         return 0;                                                                                  
2038:SensorLib\max30102/driver_max30102.c ****     }
2039:SensorLib\max30102/driver_max30102.c ****     else if (slot == MAX30102_SLOT_3)                                                              
 4682              		.loc 1 2039 0
 4683 009a 0229     		cmp	r1, #2
 4684 009c 1ED1     		bne	.L378
2040:SensorLib\max30102/driver_max30102.c ****     {
2041:SensorLib\max30102/driver_max30102.c ****         res = handle->iic_read(MAX30102_ADDRESS, MAX30102_REG_MULTI_LED_MODE_CONTROL_2, (uint8_t *)
 4685              		.loc 1 2041 0
 4686 009e 8768     		ldr	r7, [r0, #8]
 4687 00a0 0123     		movs	r3, #1
 4688 00a2 0DF10702 		add	r2, sp, #7
 4689              	.LVL626:
 4690 00a6 1221     		movs	r1, #18
 4691              	.LVL627:
 4692 00a8 5720     		movs	r0, #87
 4693              	.LVL628:
 4694 00aa B847     		blx	r7
 4695              	.LVL629:
2042:SensorLib\max30102/driver_max30102.c ****         if (res != 0)                                                                              
 4696              		.loc 1 2042 0
 4697 00ac 18B1     		cbz	r0, .L379
2043:SensorLib\max30102/driver_max30102.c ****         {
2044:SensorLib\max30102/driver_max30102.c ****             handle->debug_print("max30102: read led slot failed.\n");                              
 4698              		.loc 1 2044 0
 4699 00ae AB69     		ldr	r3, [r5, #24]
 4700 00b0 2448     		ldr	r0, .L389
 4701              	.LVL630:
 4702 00b2 9847     		blx	r3
 4703              	.LVL631:
ARM GAS  C:\Users\CHRONI~1\AppData\Local\Temp\cc7oUGua.s 			page 121


2045:SensorLib\max30102/driver_max30102.c ****            
2046:SensorLib\max30102/driver_max30102.c ****             return 1;                                                                              
 4704              		.loc 1 2046 0
 4705 00b4 42E0     		b	.L373
 4706              	.LVL632:
 4707              	.L379:
2047:SensorLib\max30102/driver_max30102.c ****         }
2048:SensorLib\max30102/driver_max30102.c ****         prev &= ~(0x7 << 0);                                                                       
 4708              		.loc 1 2048 0
 4709 00b6 9DF80730 		ldrb	r3, [sp, #7]	@ zero_extendqisi2
 4710 00ba 03F0F803 		and	r3, r3, #248
2049:SensorLib\max30102/driver_max30102.c ****         prev |= led << 0;                                                                          
 4711              		.loc 1 2049 0
 4712 00be 1E43     		orrs	r6, r6, r3
 4713 00c0 02AA     		add	r2, sp, #8
 4714 00c2 02F8016D 		strb	r6, [r2, #-1]!
2050:SensorLib\max30102/driver_max30102.c ****         res = handle->iic_write(MAX30102_ADDRESS, MAX30102_REG_MULTI_LED_MODE_CONTROL_2, (uint8_t *
 4715              		.loc 1 2050 0
 4716 00c6 EE68     		ldr	r6, [r5, #12]
 4717 00c8 0123     		movs	r3, #1
 4718 00ca 1221     		movs	r1, #18
 4719 00cc 5720     		movs	r0, #87
 4720              	.LVL633:
 4721 00ce B047     		blx	r6
 4722              	.LVL634:
2051:SensorLib\max30102/driver_max30102.c ****         if (res != 0)                                                                              
 4723              		.loc 1 2051 0
 4724 00d0 0028     		cmp	r0, #0
 4725 00d2 30D0     		beq	.L386
2052:SensorLib\max30102/driver_max30102.c ****         {
2053:SensorLib\max30102/driver_max30102.c ****             handle->debug_print("max30102: write led slot failed.\n");                             
 4726              		.loc 1 2053 0
 4727 00d4 AB69     		ldr	r3, [r5, #24]
 4728 00d6 1C48     		ldr	r0, .L389+4
 4729              	.LVL635:
 4730 00d8 9847     		blx	r3
 4731              	.LVL636:
2054:SensorLib\max30102/driver_max30102.c ****            
2055:SensorLib\max30102/driver_max30102.c ****             return 1;                                                                              
 4732              		.loc 1 2055 0
 4733 00da 2FE0     		b	.L373
 4734              	.LVL637:
 4735              	.L378:
2056:SensorLib\max30102/driver_max30102.c ****         }
2057:SensorLib\max30102/driver_max30102.c ****         
2058:SensorLib\max30102/driver_max30102.c ****         return 0;                                                                                  
2059:SensorLib\max30102/driver_max30102.c ****     }
2060:SensorLib\max30102/driver_max30102.c ****     else if (slot == MAX30102_SLOT_4)                                                              
 4736              		.loc 1 2060 0
 4737 00dc 0329     		cmp	r1, #3
 4738 00de 1ED1     		bne	.L380
2061:SensorLib\max30102/driver_max30102.c ****     {
2062:SensorLib\max30102/driver_max30102.c ****         res = handle->iic_read(MAX30102_ADDRESS, MAX30102_REG_MULTI_LED_MODE_CONTROL_2, (uint8_t *)
 4739              		.loc 1 2062 0
 4740 00e0 8768     		ldr	r7, [r0, #8]
 4741 00e2 0123     		movs	r3, #1
 4742 00e4 0DF10702 		add	r2, sp, #7
ARM GAS  C:\Users\CHRONI~1\AppData\Local\Temp\cc7oUGua.s 			page 122


 4743              	.LVL638:
 4744 00e8 1221     		movs	r1, #18
 4745              	.LVL639:
 4746 00ea 5720     		movs	r0, #87
 4747              	.LVL640:
 4748 00ec B847     		blx	r7
 4749              	.LVL641:
2063:SensorLib\max30102/driver_max30102.c ****         if (res != 0)                                                                              
 4750              		.loc 1 2063 0
 4751 00ee 18B1     		cbz	r0, .L381
2064:SensorLib\max30102/driver_max30102.c ****         {
2065:SensorLib\max30102/driver_max30102.c ****             handle->debug_print("max30102: read led slot failed.\n");                              
 4752              		.loc 1 2065 0
 4753 00f0 AB69     		ldr	r3, [r5, #24]
 4754 00f2 1448     		ldr	r0, .L389
 4755              	.LVL642:
 4756 00f4 9847     		blx	r3
 4757              	.LVL643:
2066:SensorLib\max30102/driver_max30102.c ****            
2067:SensorLib\max30102/driver_max30102.c ****             return 1;                                                                              
 4758              		.loc 1 2067 0
 4759 00f6 21E0     		b	.L373
 4760              	.LVL644:
 4761              	.L381:
2068:SensorLib\max30102/driver_max30102.c ****         }
2069:SensorLib\max30102/driver_max30102.c ****         prev &= ~(0x7 << 4);                                                                       
 4762              		.loc 1 2069 0
 4763 00f8 9DF80730 		ldrb	r3, [sp, #7]	@ zero_extendqisi2
 4764 00fc 03F08F03 		and	r3, r3, #143
2070:SensorLib\max30102/driver_max30102.c ****         prev |= led << 4;                                                                          
 4765              		.loc 1 2070 0
 4766 0100 43EA0616 		orr	r6, r3, r6, lsl #4
 4767 0104 02AA     		add	r2, sp, #8
 4768 0106 02F8016D 		strb	r6, [r2, #-1]!
2071:SensorLib\max30102/driver_max30102.c ****         res = handle->iic_write(MAX30102_ADDRESS, MAX30102_REG_MULTI_LED_MODE_CONTROL_2, (uint8_t *
 4769              		.loc 1 2071 0
 4770 010a EE68     		ldr	r6, [r5, #12]
 4771 010c 0123     		movs	r3, #1
 4772 010e 1221     		movs	r1, #18
 4773 0110 5720     		movs	r0, #87
 4774              	.LVL645:
 4775 0112 B047     		blx	r6
 4776              	.LVL646:
2072:SensorLib\max30102/driver_max30102.c ****         if (res != 0)                                                                              
 4777              		.loc 1 2072 0
 4778 0114 88B1     		cbz	r0, .L387
2073:SensorLib\max30102/driver_max30102.c ****         {
2074:SensorLib\max30102/driver_max30102.c ****             handle->debug_print("max30102: write led slot failed.\n");                             
 4779              		.loc 1 2074 0
 4780 0116 AB69     		ldr	r3, [r5, #24]
 4781 0118 0B48     		ldr	r0, .L389+4
 4782              	.LVL647:
 4783 011a 9847     		blx	r3
 4784              	.LVL648:
2075:SensorLib\max30102/driver_max30102.c ****            
2076:SensorLib\max30102/driver_max30102.c ****             return 1;                                                                              
 4785              		.loc 1 2076 0
ARM GAS  C:\Users\CHRONI~1\AppData\Local\Temp\cc7oUGua.s 			page 123


 4786 011c 0EE0     		b	.L373
 4787              	.LVL649:
 4788              	.L380:
2077:SensorLib\max30102/driver_max30102.c ****         }
2078:SensorLib\max30102/driver_max30102.c ****         
2079:SensorLib\max30102/driver_max30102.c ****         return 0;                                                                                  
2080:SensorLib\max30102/driver_max30102.c ****     }
2081:SensorLib\max30102/driver_max30102.c ****     else                                                                                           
2082:SensorLib\max30102/driver_max30102.c ****     {
2083:SensorLib\max30102/driver_max30102.c ****         handle->debug_print("max30102: slot is invalid.\n");                                       
 4789              		.loc 1 2083 0
 4790 011e 8369     		ldr	r3, [r0, #24]
 4791 0120 0A48     		ldr	r0, .L389+8
 4792              	.LVL650:
 4793 0122 9847     		blx	r3
 4794              	.LVL651:
2084:SensorLib\max30102/driver_max30102.c ****        
2085:SensorLib\max30102/driver_max30102.c ****         return 1;                                                                                  
 4795              		.loc 1 2085 0
 4796 0124 0AE0     		b	.L373
 4797              	.LVL652:
 4798              	.L382:
1990:SensorLib\max30102/driver_max30102.c ****     }
 4799              		.loc 1 1990 0
 4800 0126 0224     		movs	r4, #2
 4801 0128 08E0     		b	.L373
 4802              	.L383:
1994:SensorLib\max30102/driver_max30102.c ****     }
 4803              		.loc 1 1994 0
 4804 012a 0324     		movs	r4, #3
 4805 012c 06E0     		b	.L373
 4806              	.LVL653:
 4807              	.L384:
2016:SensorLib\max30102/driver_max30102.c ****     }
 4808              		.loc 1 2016 0
 4809 012e 0024     		movs	r4, #0
 4810 0130 04E0     		b	.L373
 4811              	.L385:
2037:SensorLib\max30102/driver_max30102.c ****     }
 4812              		.loc 1 2037 0
 4813 0132 0024     		movs	r4, #0
 4814 0134 02E0     		b	.L373
 4815              	.L386:
2058:SensorLib\max30102/driver_max30102.c ****     }
 4816              		.loc 1 2058 0
 4817 0136 0024     		movs	r4, #0
 4818 0138 00E0     		b	.L373
 4819              	.L387:
2079:SensorLib\max30102/driver_max30102.c ****     }
 4820              		.loc 1 2079 0
 4821 013a 0024     		movs	r4, #0
 4822              	.LVL654:
 4823              	.L373:
2086:SensorLib\max30102/driver_max30102.c ****     }
2087:SensorLib\max30102/driver_max30102.c **** }
 4824              		.loc 1 2087 0
 4825 013c 2046     		mov	r0, r4
ARM GAS  C:\Users\CHRONI~1\AppData\Local\Temp\cc7oUGua.s 			page 124


 4826 013e 03B0     		add	sp, sp, #12
 4827              		.cfi_def_cfa_offset 20
 4828              		@ sp needed
 4829 0140 F0BD     		pop	{r4, r5, r6, r7, pc}
 4830              	.L390:
 4831 0142 00BF     		.align	2
 4832              	.L389:
 4833 0144 200C0000 		.word	.LC75
 4834 0148 440C0000 		.word	.LC76
 4835 014c 680C0000 		.word	.LC77
 4836              		.cfi_endproc
 4837              	.LFE38:
 4838              		.size	max30102_set_slot, .-max30102_set_slot
 4839              		.section	.text.max30102_get_slot,"ax",%progbits
 4840              		.align	2
 4841              		.global	max30102_get_slot
 4842              		.thumb
 4843              		.thumb_func
 4844              		.type	max30102_get_slot, %function
 4845              	max30102_get_slot:
 4846              	.LFB39:
2088:SensorLib\max30102/driver_max30102.c **** 
2089:SensorLib\max30102/driver_max30102.c **** /**
2090:SensorLib\max30102/driver_max30102.c ****  * @brief      get the led slot
2091:SensorLib\max30102/driver_max30102.c ****  * @param[in]  *handle points to a max30102 handle structure
2092:SensorLib\max30102/driver_max30102.c ****  * @param[in]  slot is the slot number
2093:SensorLib\max30102/driver_max30102.c ****  * @param[out] *led points to a led mode buffer
2094:SensorLib\max30102/driver_max30102.c ****  * @return     status code
2095:SensorLib\max30102/driver_max30102.c ****  *             - 0 success
2096:SensorLib\max30102/driver_max30102.c ****  *             - 1 get slot failed
2097:SensorLib\max30102/driver_max30102.c ****  *             - 2 handle is NULL
2098:SensorLib\max30102/driver_max30102.c ****  *             - 3 handle is not initialized
2099:SensorLib\max30102/driver_max30102.c ****  * @note       none
2100:SensorLib\max30102/driver_max30102.c ****  */
2101:SensorLib\max30102/driver_max30102.c **** uint8_t max30102_get_slot(max30102_handle_t *handle, max30102_slot_t slot, max30102_led_t *led)
2102:SensorLib\max30102/driver_max30102.c **** {
 4847              		.loc 1 2102 0
 4848              		.cfi_startproc
 4849              		@ args = 0, pretend = 0, frame = 8
 4850              		@ frame_needed = 0, uses_anonymous_args = 0
 4851              	.LVL655:
 4852 0000 F0B5     		push	{r4, r5, r6, r7, lr}
 4853              		.cfi_def_cfa_offset 20
 4854              		.cfi_offset 4, -20
 4855              		.cfi_offset 5, -16
 4856              		.cfi_offset 6, -12
 4857              		.cfi_offset 7, -8
 4858              		.cfi_offset 14, -4
 4859 0002 83B0     		sub	sp, sp, #12
 4860              		.cfi_def_cfa_offset 32
2103:SensorLib\max30102/driver_max30102.c ****     uint8_t res;
2104:SensorLib\max30102/driver_max30102.c ****     uint8_t prev;
2105:SensorLib\max30102/driver_max30102.c ****     
2106:SensorLib\max30102/driver_max30102.c ****     if (handle == NULL)                                                                            
 4861              		.loc 1 2106 0
 4862 0004 0028     		cmp	r0, #0
 4863 0006 5BD0     		beq	.L401
ARM GAS  C:\Users\CHRONI~1\AppData\Local\Temp\cc7oUGua.s 			page 125


2107:SensorLib\max30102/driver_max30102.c ****     {
2108:SensorLib\max30102/driver_max30102.c ****         return 2;                                                                                  
2109:SensorLib\max30102/driver_max30102.c ****     }
2110:SensorLib\max30102/driver_max30102.c ****     if (handle->inited != 1)                                                                       
 4864              		.loc 1 2110 0
 4865 0008 047F     		ldrb	r4, [r0, #28]	@ zero_extendqisi2
 4866 000a 012C     		cmp	r4, #1
 4867 000c 5AD1     		bne	.L402
 4868 000e 0546     		mov	r5, r0
 4869 0010 1646     		mov	r6, r2
2111:SensorLib\max30102/driver_max30102.c ****     {
2112:SensorLib\max30102/driver_max30102.c ****         return 3;                                                                                  
2113:SensorLib\max30102/driver_max30102.c ****     }
2114:SensorLib\max30102/driver_max30102.c ****     
2115:SensorLib\max30102/driver_max30102.c ****     if (slot == MAX30102_SLOT_1)                                                                   
 4870              		.loc 1 2115 0
 4871 0012 91B9     		cbnz	r1, .L393
2116:SensorLib\max30102/driver_max30102.c ****     {
2117:SensorLib\max30102/driver_max30102.c ****         res = handle->iic_read(MAX30102_ADDRESS, MAX30102_REG_MULTI_LED_MODE_CONTROL_1, (uint8_t *)
 4872              		.loc 1 2117 0
 4873 0014 8768     		ldr	r7, [r0, #8]
 4874 0016 0123     		movs	r3, #1
 4875 0018 0DF10702 		add	r2, sp, #7
 4876              	.LVL656:
 4877 001c 1121     		movs	r1, #17
 4878              	.LVL657:
 4879 001e 5720     		movs	r0, #87
 4880              	.LVL658:
 4881 0020 B847     		blx	r7
 4882              	.LVL659:
2118:SensorLib\max30102/driver_max30102.c ****         if (res != 0)                                                                              
 4883              		.loc 1 2118 0
 4884 0022 18B1     		cbz	r0, .L394
2119:SensorLib\max30102/driver_max30102.c ****         {
2120:SensorLib\max30102/driver_max30102.c ****             handle->debug_print("max30102: read led slot failed.\n");                              
 4885              		.loc 1 2120 0
 4886 0024 AB69     		ldr	r3, [r5, #24]
 4887 0026 2948     		ldr	r0, .L404
 4888              	.LVL660:
 4889 0028 9847     		blx	r3
 4890              	.LVL661:
2121:SensorLib\max30102/driver_max30102.c ****            
2122:SensorLib\max30102/driver_max30102.c ****             return 1;                                                                              
 4891              		.loc 1 2122 0
 4892 002a 4CE0     		b	.L392
 4893              	.LVL662:
 4894              	.L394:
2123:SensorLib\max30102/driver_max30102.c ****         }
2124:SensorLib\max30102/driver_max30102.c ****         *led = (max30102_led_t)((prev >> 0) & 0x7);                                                
 4895              		.loc 1 2124 0
 4896 002c 9DF80730 		ldrb	r3, [sp, #7]	@ zero_extendqisi2
 4897 0030 03F00703 		and	r3, r3, #7
 4898 0034 3370     		strb	r3, [r6]
2125:SensorLib\max30102/driver_max30102.c ****         
2126:SensorLib\max30102/driver_max30102.c ****         return 0;                                                                                  
 4899              		.loc 1 2126 0
 4900 0036 0024     		movs	r4, #0
ARM GAS  C:\Users\CHRONI~1\AppData\Local\Temp\cc7oUGua.s 			page 126


 4901 0038 45E0     		b	.L392
 4902              	.LVL663:
 4903              	.L393:
2127:SensorLib\max30102/driver_max30102.c ****     }
2128:SensorLib\max30102/driver_max30102.c ****     else if (slot == MAX30102_SLOT_2)                                                              
 4904              		.loc 1 2128 0
 4905 003a 0129     		cmp	r1, #1
 4906 003c 12D1     		bne	.L395
2129:SensorLib\max30102/driver_max30102.c ****     {
2130:SensorLib\max30102/driver_max30102.c ****         res = handle->iic_read(MAX30102_ADDRESS, MAX30102_REG_MULTI_LED_MODE_CONTROL_1, (uint8_t *)
 4907              		.loc 1 2130 0
 4908 003e 8768     		ldr	r7, [r0, #8]
 4909 0040 0123     		movs	r3, #1
 4910 0042 0DF10702 		add	r2, sp, #7
 4911              	.LVL664:
 4912 0046 1121     		movs	r1, #17
 4913              	.LVL665:
 4914 0048 5720     		movs	r0, #87
 4915              	.LVL666:
 4916 004a B847     		blx	r7
 4917              	.LVL667:
2131:SensorLib\max30102/driver_max30102.c ****         if (res != 0)                                                                              
 4918              		.loc 1 2131 0
 4919 004c 18B1     		cbz	r0, .L396
2132:SensorLib\max30102/driver_max30102.c ****         {
2133:SensorLib\max30102/driver_max30102.c ****             handle->debug_print("max30102: read led slot failed.\n");                              
 4920              		.loc 1 2133 0
 4921 004e AB69     		ldr	r3, [r5, #24]
 4922 0050 1E48     		ldr	r0, .L404
 4923              	.LVL668:
 4924 0052 9847     		blx	r3
 4925              	.LVL669:
2134:SensorLib\max30102/driver_max30102.c ****            
2135:SensorLib\max30102/driver_max30102.c ****             return 1;                                                                              
 4926              		.loc 1 2135 0
 4927 0054 37E0     		b	.L392
 4928              	.LVL670:
 4929              	.L396:
2136:SensorLib\max30102/driver_max30102.c ****         }
2137:SensorLib\max30102/driver_max30102.c ****         *led = (max30102_led_t)((prev >> 4) & 0x7);                                                
 4930              		.loc 1 2137 0
 4931 0056 9DF80730 		ldrb	r3, [sp, #7]	@ zero_extendqisi2
 4932 005a C3F30213 		ubfx	r3, r3, #4, #3
 4933 005e 3370     		strb	r3, [r6]
2138:SensorLib\max30102/driver_max30102.c ****         
2139:SensorLib\max30102/driver_max30102.c ****         return 0;                                                                                  
 4934              		.loc 1 2139 0
 4935 0060 0024     		movs	r4, #0
 4936 0062 30E0     		b	.L392
 4937              	.LVL671:
 4938              	.L395:
2140:SensorLib\max30102/driver_max30102.c ****     }
2141:SensorLib\max30102/driver_max30102.c ****     else if (slot == MAX30102_SLOT_3)                                                              
 4939              		.loc 1 2141 0
 4940 0064 0229     		cmp	r1, #2
 4941 0066 12D1     		bne	.L397
2142:SensorLib\max30102/driver_max30102.c ****     {
ARM GAS  C:\Users\CHRONI~1\AppData\Local\Temp\cc7oUGua.s 			page 127


2143:SensorLib\max30102/driver_max30102.c ****         res = handle->iic_read(MAX30102_ADDRESS, MAX30102_REG_MULTI_LED_MODE_CONTROL_2, (uint8_t *)
 4942              		.loc 1 2143 0
 4943 0068 8768     		ldr	r7, [r0, #8]
 4944 006a 0123     		movs	r3, #1
 4945 006c 0DF10702 		add	r2, sp, #7
 4946              	.LVL672:
 4947 0070 1221     		movs	r1, #18
 4948              	.LVL673:
 4949 0072 5720     		movs	r0, #87
 4950              	.LVL674:
 4951 0074 B847     		blx	r7
 4952              	.LVL675:
2144:SensorLib\max30102/driver_max30102.c ****         if (res != 0)                                                                              
 4953              		.loc 1 2144 0
 4954 0076 18B1     		cbz	r0, .L398
2145:SensorLib\max30102/driver_max30102.c ****         {
2146:SensorLib\max30102/driver_max30102.c ****             handle->debug_print("max30102: read led slot failed.\n");                              
 4955              		.loc 1 2146 0
 4956 0078 AB69     		ldr	r3, [r5, #24]
 4957 007a 1448     		ldr	r0, .L404
 4958              	.LVL676:
 4959 007c 9847     		blx	r3
 4960              	.LVL677:
2147:SensorLib\max30102/driver_max30102.c ****            
2148:SensorLib\max30102/driver_max30102.c ****             return 1;                                                                              
 4961              		.loc 1 2148 0
 4962 007e 22E0     		b	.L392
 4963              	.LVL678:
 4964              	.L398:
2149:SensorLib\max30102/driver_max30102.c ****         }
2150:SensorLib\max30102/driver_max30102.c ****         *led = (max30102_led_t)((prev >> 0) & 0x7);                                                
 4965              		.loc 1 2150 0
 4966 0080 9DF80730 		ldrb	r3, [sp, #7]	@ zero_extendqisi2
 4967 0084 03F00703 		and	r3, r3, #7
 4968 0088 3370     		strb	r3, [r6]
2151:SensorLib\max30102/driver_max30102.c ****         
2152:SensorLib\max30102/driver_max30102.c ****         return 0;                                                                                  
 4969              		.loc 1 2152 0
 4970 008a 0024     		movs	r4, #0
 4971 008c 1BE0     		b	.L392
 4972              	.LVL679:
 4973              	.L397:
2153:SensorLib\max30102/driver_max30102.c ****     }
2154:SensorLib\max30102/driver_max30102.c ****     else if (slot == MAX30102_SLOT_4)                                                              
 4974              		.loc 1 2154 0
 4975 008e 0329     		cmp	r1, #3
 4976 0090 12D1     		bne	.L399
2155:SensorLib\max30102/driver_max30102.c ****     {
2156:SensorLib\max30102/driver_max30102.c ****         res = handle->iic_read(MAX30102_ADDRESS, MAX30102_REG_MULTI_LED_MODE_CONTROL_2, (uint8_t *)
 4977              		.loc 1 2156 0
 4978 0092 8768     		ldr	r7, [r0, #8]
 4979 0094 0123     		movs	r3, #1
 4980 0096 0DF10702 		add	r2, sp, #7
 4981              	.LVL680:
 4982 009a 1221     		movs	r1, #18
 4983              	.LVL681:
 4984 009c 5720     		movs	r0, #87
ARM GAS  C:\Users\CHRONI~1\AppData\Local\Temp\cc7oUGua.s 			page 128


 4985              	.LVL682:
 4986 009e B847     		blx	r7
 4987              	.LVL683:
2157:SensorLib\max30102/driver_max30102.c ****         if (res != 0)                                                                              
 4988              		.loc 1 2157 0
 4989 00a0 18B1     		cbz	r0, .L400
2158:SensorLib\max30102/driver_max30102.c ****         {
2159:SensorLib\max30102/driver_max30102.c ****             handle->debug_print("max30102: read led slot failed.\n");                              
 4990              		.loc 1 2159 0
 4991 00a2 AB69     		ldr	r3, [r5, #24]
 4992 00a4 0948     		ldr	r0, .L404
 4993              	.LVL684:
 4994 00a6 9847     		blx	r3
 4995              	.LVL685:
2160:SensorLib\max30102/driver_max30102.c ****            
2161:SensorLib\max30102/driver_max30102.c ****             return 1;                                                                              
 4996              		.loc 1 2161 0
 4997 00a8 0DE0     		b	.L392
 4998              	.LVL686:
 4999              	.L400:
2162:SensorLib\max30102/driver_max30102.c ****         }
2163:SensorLib\max30102/driver_max30102.c ****         *led = (max30102_led_t)((prev >> 4) & 0x7);                                                
 5000              		.loc 1 2163 0
 5001 00aa 9DF80730 		ldrb	r3, [sp, #7]	@ zero_extendqisi2
 5002 00ae C3F30213 		ubfx	r3, r3, #4, #3
 5003 00b2 3370     		strb	r3, [r6]
2164:SensorLib\max30102/driver_max30102.c ****         
2165:SensorLib\max30102/driver_max30102.c ****         return 0;                                                                                  
 5004              		.loc 1 2165 0
 5005 00b4 0024     		movs	r4, #0
 5006 00b6 06E0     		b	.L392
 5007              	.LVL687:
 5008              	.L399:
2166:SensorLib\max30102/driver_max30102.c ****     }
2167:SensorLib\max30102/driver_max30102.c ****     else                                                                                           
2168:SensorLib\max30102/driver_max30102.c ****     {
2169:SensorLib\max30102/driver_max30102.c ****         handle->debug_print("max30102: slot is invalid.\n");                                       
 5009              		.loc 1 2169 0
 5010 00b8 8369     		ldr	r3, [r0, #24]
 5011 00ba 0548     		ldr	r0, .L404+4
 5012              	.LVL688:
 5013 00bc 9847     		blx	r3
 5014              	.LVL689:
2170:SensorLib\max30102/driver_max30102.c ****        
2171:SensorLib\max30102/driver_max30102.c ****         return 1;                                                                                  
 5015              		.loc 1 2171 0
 5016 00be 02E0     		b	.L392
 5017              	.LVL690:
 5018              	.L401:
2108:SensorLib\max30102/driver_max30102.c ****     }
 5019              		.loc 1 2108 0
 5020 00c0 0224     		movs	r4, #2
 5021 00c2 00E0     		b	.L392
 5022              	.L402:
2112:SensorLib\max30102/driver_max30102.c ****     }
 5023              		.loc 1 2112 0
 5024 00c4 0324     		movs	r4, #3
ARM GAS  C:\Users\CHRONI~1\AppData\Local\Temp\cc7oUGua.s 			page 129


 5025              	.LVL691:
 5026              	.L392:
2172:SensorLib\max30102/driver_max30102.c ****     }
2173:SensorLib\max30102/driver_max30102.c **** }
 5027              		.loc 1 2173 0
 5028 00c6 2046     		mov	r0, r4
 5029 00c8 03B0     		add	sp, sp, #12
 5030              		.cfi_def_cfa_offset 20
 5031              		@ sp needed
 5032 00ca F0BD     		pop	{r4, r5, r6, r7, pc}
 5033              	.L405:
 5034              		.align	2
 5035              	.L404:
 5036 00cc 200C0000 		.word	.LC75
 5037 00d0 680C0000 		.word	.LC77
 5038              		.cfi_endproc
 5039              	.LFE39:
 5040              		.size	max30102_get_slot, .-max30102_get_slot
 5041              		.section	.text.max30102_set_die_temperature,"ax",%progbits
 5042              		.align	2
 5043              		.global	max30102_set_die_temperature
 5044              		.thumb
 5045              		.thumb_func
 5046              		.type	max30102_set_die_temperature, %function
 5047              	max30102_set_die_temperature:
 5048              	.LFB40:
2174:SensorLib\max30102/driver_max30102.c **** 
2175:SensorLib\max30102/driver_max30102.c **** /**
2176:SensorLib\max30102/driver_max30102.c ****  * @brief     enable or disable die temperature
2177:SensorLib\max30102/driver_max30102.c ****  * @param[in] *handle points to a max30102 handle structure
2178:SensorLib\max30102/driver_max30102.c ****  * @param[in] enable is a bool value
2179:SensorLib\max30102/driver_max30102.c ****  * @return    status code
2180:SensorLib\max30102/driver_max30102.c ****  *            - 0 success
2181:SensorLib\max30102/driver_max30102.c ****  *            - 1 set die temperature failed
2182:SensorLib\max30102/driver_max30102.c ****  *            - 2 handle is NULL
2183:SensorLib\max30102/driver_max30102.c ****  *            - 3 handle is not initialized
2184:SensorLib\max30102/driver_max30102.c ****  * @note      none
2185:SensorLib\max30102/driver_max30102.c ****  */
2186:SensorLib\max30102/driver_max30102.c **** uint8_t max30102_set_die_temperature(max30102_handle_t *handle, max30102_bool_t enable)
2187:SensorLib\max30102/driver_max30102.c **** {
 5049              		.loc 1 2187 0
 5050              		.cfi_startproc
 5051              		@ args = 0, pretend = 0, frame = 8
 5052              		@ frame_needed = 0, uses_anonymous_args = 0
 5053              	.LVL692:
 5054 0000 F0B5     		push	{r4, r5, r6, r7, lr}
 5055              		.cfi_def_cfa_offset 20
 5056              		.cfi_offset 4, -20
 5057              		.cfi_offset 5, -16
 5058              		.cfi_offset 6, -12
 5059              		.cfi_offset 7, -8
 5060              		.cfi_offset 14, -4
 5061 0002 83B0     		sub	sp, sp, #12
 5062              		.cfi_def_cfa_offset 32
2188:SensorLib\max30102/driver_max30102.c ****     uint8_t res;
2189:SensorLib\max30102/driver_max30102.c ****     uint8_t prev;
2190:SensorLib\max30102/driver_max30102.c ****     
ARM GAS  C:\Users\CHRONI~1\AppData\Local\Temp\cc7oUGua.s 			page 130


2191:SensorLib\max30102/driver_max30102.c ****     if (handle == NULL)                                                                            
 5063              		.loc 1 2191 0
 5064 0004 10B3     		cbz	r0, .L409
2192:SensorLib\max30102/driver_max30102.c ****     {
2193:SensorLib\max30102/driver_max30102.c ****         return 2;                                                                                  
2194:SensorLib\max30102/driver_max30102.c ****     }
2195:SensorLib\max30102/driver_max30102.c ****     if (handle->inited != 1)                                                                       
 5065              		.loc 1 2195 0
 5066 0006 047F     		ldrb	r4, [r0, #28]	@ zero_extendqisi2
 5067 0008 012C     		cmp	r4, #1
 5068 000a 21D1     		bne	.L410
 5069 000c 0546     		mov	r5, r0
 5070 000e 0E46     		mov	r6, r1
2196:SensorLib\max30102/driver_max30102.c ****     {
2197:SensorLib\max30102/driver_max30102.c ****         return 3;                                                                                  
2198:SensorLib\max30102/driver_max30102.c ****     }
2199:SensorLib\max30102/driver_max30102.c ****     
2200:SensorLib\max30102/driver_max30102.c ****     res = handle->iic_read(MAX30102_ADDRESS, MAX30102_REG_DIE_TEMP_CONFIG, (uint8_t *)&prev, 1);   
 5071              		.loc 1 2200 0
 5072 0010 8768     		ldr	r7, [r0, #8]
 5073 0012 0123     		movs	r3, #1
 5074 0014 0DF10702 		add	r2, sp, #7
 5075 0018 2121     		movs	r1, #33
 5076              	.LVL693:
 5077 001a 5720     		movs	r0, #87
 5078              	.LVL694:
 5079 001c B847     		blx	r7
 5080              	.LVL695:
2201:SensorLib\max30102/driver_max30102.c ****     if (res != 0)                                                                                  
 5081              		.loc 1 2201 0
 5082 001e 18B1     		cbz	r0, .L408
2202:SensorLib\max30102/driver_max30102.c ****     {
2203:SensorLib\max30102/driver_max30102.c ****         handle->debug_print("max30102: read die temp config failed.\n");                           
 5083              		.loc 1 2203 0
 5084 0020 AB69     		ldr	r3, [r5, #24]
 5085 0022 0E48     		ldr	r0, .L413
 5086              	.LVL696:
 5087 0024 9847     		blx	r3
 5088              	.LVL697:
2204:SensorLib\max30102/driver_max30102.c ****        
2205:SensorLib\max30102/driver_max30102.c ****         return 1;                                                                                  
 5089              		.loc 1 2205 0
 5090 0026 16E0     		b	.L407
 5091              	.LVL698:
 5092              	.L408:
2206:SensorLib\max30102/driver_max30102.c ****     }
2207:SensorLib\max30102/driver_max30102.c ****     prev &= ~(1 << 0);                                                                             
 5093              		.loc 1 2207 0
 5094 0028 9DF80710 		ldrb	r1, [sp, #7]	@ zero_extendqisi2
 5095 002c 01F0FE01 		and	r1, r1, #254
2208:SensorLib\max30102/driver_max30102.c ****     prev |= (enable << 0);                                                                         
 5096              		.loc 1 2208 0
 5097 0030 3143     		orrs	r1, r1, r6
 5098 0032 02AA     		add	r2, sp, #8
 5099 0034 02F8011D 		strb	r1, [r2, #-1]!
2209:SensorLib\max30102/driver_max30102.c ****     res = handle->iic_write(MAX30102_ADDRESS, MAX30102_REG_DIE_TEMP_CONFIG, (uint8_t *)&prev, 1);  
 5100              		.loc 1 2209 0
ARM GAS  C:\Users\CHRONI~1\AppData\Local\Temp\cc7oUGua.s 			page 131


 5101 0038 EE68     		ldr	r6, [r5, #12]
 5102 003a 0123     		movs	r3, #1
 5103 003c 2121     		movs	r1, #33
 5104 003e 5720     		movs	r0, #87
 5105              	.LVL699:
 5106 0040 B047     		blx	r6
 5107              	.LVL700:
2210:SensorLib\max30102/driver_max30102.c ****     if (res != 0)                                                                                  
 5108              		.loc 1 2210 0
 5109 0042 38B1     		cbz	r0, .L411
2211:SensorLib\max30102/driver_max30102.c ****     {
2212:SensorLib\max30102/driver_max30102.c ****         handle->debug_print("max30102: write die temp config failed.\n");                          
 5110              		.loc 1 2212 0
 5111 0044 AB69     		ldr	r3, [r5, #24]
 5112 0046 0648     		ldr	r0, .L413+4
 5113              	.LVL701:
 5114 0048 9847     		blx	r3
 5115              	.LVL702:
2213:SensorLib\max30102/driver_max30102.c ****        
2214:SensorLib\max30102/driver_max30102.c ****         return 1;                                                                                  
 5116              		.loc 1 2214 0
 5117 004a 04E0     		b	.L407
 5118              	.LVL703:
 5119              	.L409:
2193:SensorLib\max30102/driver_max30102.c ****     }
 5120              		.loc 1 2193 0
 5121 004c 0224     		movs	r4, #2
 5122 004e 02E0     		b	.L407
 5123              	.L410:
2197:SensorLib\max30102/driver_max30102.c ****     }
 5124              		.loc 1 2197 0
 5125 0050 0324     		movs	r4, #3
 5126 0052 00E0     		b	.L407
 5127              	.LVL704:
 5128              	.L411:
2215:SensorLib\max30102/driver_max30102.c ****     }
2216:SensorLib\max30102/driver_max30102.c ****     
2217:SensorLib\max30102/driver_max30102.c ****     return 0;                                                                                      
 5129              		.loc 1 2217 0
 5130 0054 0024     		movs	r4, #0
 5131              	.LVL705:
 5132              	.L407:
2218:SensorLib\max30102/driver_max30102.c **** }
 5133              		.loc 1 2218 0
 5134 0056 2046     		mov	r0, r4
 5135 0058 03B0     		add	sp, sp, #12
 5136              		.cfi_def_cfa_offset 20
 5137              		@ sp needed
 5138 005a F0BD     		pop	{r4, r5, r6, r7, pc}
 5139              	.L414:
 5140              		.align	2
 5141              	.L413:
 5142 005c 9C080000 		.word	.LC53
 5143 0060 C4080000 		.word	.LC54
 5144              		.cfi_endproc
 5145              	.LFE40:
 5146              		.size	max30102_set_die_temperature, .-max30102_set_die_temperature
ARM GAS  C:\Users\CHRONI~1\AppData\Local\Temp\cc7oUGua.s 			page 132


 5147              		.section	.text.max30102_get_die_temperature,"ax",%progbits
 5148              		.align	2
 5149              		.global	max30102_get_die_temperature
 5150              		.thumb
 5151              		.thumb_func
 5152              		.type	max30102_get_die_temperature, %function
 5153              	max30102_get_die_temperature:
 5154              	.LFB41:
2219:SensorLib\max30102/driver_max30102.c **** 
2220:SensorLib\max30102/driver_max30102.c **** /**
2221:SensorLib\max30102/driver_max30102.c ****  * @brief      get the die temperature status
2222:SensorLib\max30102/driver_max30102.c ****  * @param[in]  *handle points to a max30102 handle structure
2223:SensorLib\max30102/driver_max30102.c ****  * @param[out] *enable points to a bool value buffer
2224:SensorLib\max30102/driver_max30102.c ****  * @return     status code
2225:SensorLib\max30102/driver_max30102.c ****  *             - 0 success
2226:SensorLib\max30102/driver_max30102.c ****  *             - 1 get die temperature failed
2227:SensorLib\max30102/driver_max30102.c ****  *             - 2 handle is NULL
2228:SensorLib\max30102/driver_max30102.c ****  *             - 3 handle is not initialized
2229:SensorLib\max30102/driver_max30102.c ****  * @note       none
2230:SensorLib\max30102/driver_max30102.c ****  */
2231:SensorLib\max30102/driver_max30102.c **** uint8_t max30102_get_die_temperature(max30102_handle_t *handle, max30102_bool_t *enable)
2232:SensorLib\max30102/driver_max30102.c **** {
 5155              		.loc 1 2232 0
 5156              		.cfi_startproc
 5157              		@ args = 0, pretend = 0, frame = 8
 5158              		@ frame_needed = 0, uses_anonymous_args = 0
 5159              	.LVL706:
 5160 0000 F0B5     		push	{r4, r5, r6, r7, lr}
 5161              		.cfi_def_cfa_offset 20
 5162              		.cfi_offset 4, -20
 5163              		.cfi_offset 5, -16
 5164              		.cfi_offset 6, -12
 5165              		.cfi_offset 7, -8
 5166              		.cfi_offset 14, -4
 5167 0002 83B0     		sub	sp, sp, #12
 5168              		.cfi_def_cfa_offset 32
2233:SensorLib\max30102/driver_max30102.c ****     uint8_t res;
2234:SensorLib\max30102/driver_max30102.c ****     uint8_t prev;
2235:SensorLib\max30102/driver_max30102.c ****     
2236:SensorLib\max30102/driver_max30102.c ****     if (handle == NULL)                                                                            
 5169              		.loc 1 2236 0
 5170 0004 B8B1     		cbz	r0, .L418
2237:SensorLib\max30102/driver_max30102.c ****     {
2238:SensorLib\max30102/driver_max30102.c ****         return 2;                                                                                  
2239:SensorLib\max30102/driver_max30102.c ****     }
2240:SensorLib\max30102/driver_max30102.c ****     if (handle->inited != 1)                                                                       
 5171              		.loc 1 2240 0
 5172 0006 047F     		ldrb	r4, [r0, #28]	@ zero_extendqisi2
 5173 0008 012C     		cmp	r4, #1
 5174 000a 16D1     		bne	.L419
 5175 000c 0546     		mov	r5, r0
 5176 000e 0E46     		mov	r6, r1
2241:SensorLib\max30102/driver_max30102.c ****     {
2242:SensorLib\max30102/driver_max30102.c ****         return 3;                                                                                  
2243:SensorLib\max30102/driver_max30102.c ****     }
2244:SensorLib\max30102/driver_max30102.c ****     
2245:SensorLib\max30102/driver_max30102.c ****     res = handle->iic_read(MAX30102_ADDRESS, MAX30102_REG_DIE_TEMP_CONFIG, (uint8_t *)&prev, 1);   
ARM GAS  C:\Users\CHRONI~1\AppData\Local\Temp\cc7oUGua.s 			page 133


 5177              		.loc 1 2245 0
 5178 0010 8768     		ldr	r7, [r0, #8]
 5179 0012 0123     		movs	r3, #1
 5180 0014 0DF10702 		add	r2, sp, #7
 5181 0018 2121     		movs	r1, #33
 5182              	.LVL707:
 5183 001a 5720     		movs	r0, #87
 5184              	.LVL708:
 5185 001c B847     		blx	r7
 5186              	.LVL709:
2246:SensorLib\max30102/driver_max30102.c ****     if (res != 0)                                                                                  
 5187              		.loc 1 2246 0
 5188 001e 18B1     		cbz	r0, .L417
2247:SensorLib\max30102/driver_max30102.c ****     {
2248:SensorLib\max30102/driver_max30102.c ****         handle->debug_print("max30102: read die temp config failed.\n");                           
 5189              		.loc 1 2248 0
 5190 0020 AB69     		ldr	r3, [r5, #24]
 5191 0022 0848     		ldr	r0, .L421
 5192              	.LVL710:
 5193 0024 9847     		blx	r3
 5194              	.LVL711:
2249:SensorLib\max30102/driver_max30102.c ****        
2250:SensorLib\max30102/driver_max30102.c ****         return 1;                                                                                  
 5195              		.loc 1 2250 0
 5196 0026 09E0     		b	.L416
 5197              	.LVL712:
 5198              	.L417:
2251:SensorLib\max30102/driver_max30102.c ****     }
2252:SensorLib\max30102/driver_max30102.c ****     *enable = (max30102_bool_t)((prev >> 0) & 0x1);                                                
 5199              		.loc 1 2252 0
 5200 0028 9DF80730 		ldrb	r3, [sp, #7]	@ zero_extendqisi2
 5201 002c 03F00103 		and	r3, r3, #1
 5202 0030 3370     		strb	r3, [r6]
2253:SensorLib\max30102/driver_max30102.c ****     
2254:SensorLib\max30102/driver_max30102.c ****     return 0;                                                                                      
 5203              		.loc 1 2254 0
 5204 0032 0024     		movs	r4, #0
 5205 0034 02E0     		b	.L416
 5206              	.LVL713:
 5207              	.L418:
2238:SensorLib\max30102/driver_max30102.c ****     }
 5208              		.loc 1 2238 0
 5209 0036 0224     		movs	r4, #2
 5210 0038 00E0     		b	.L416
 5211              	.L419:
2242:SensorLib\max30102/driver_max30102.c ****     }
 5212              		.loc 1 2242 0
 5213 003a 0324     		movs	r4, #3
 5214              	.LVL714:
 5215              	.L416:
2255:SensorLib\max30102/driver_max30102.c **** }
 5216              		.loc 1 2255 0
 5217 003c 2046     		mov	r0, r4
 5218 003e 03B0     		add	sp, sp, #12
 5219              		.cfi_def_cfa_offset 20
 5220              		@ sp needed
 5221 0040 F0BD     		pop	{r4, r5, r6, r7, pc}
ARM GAS  C:\Users\CHRONI~1\AppData\Local\Temp\cc7oUGua.s 			page 134


 5222              	.L422:
 5223 0042 00BF     		.align	2
 5224              	.L421:
 5225 0044 9C080000 		.word	.LC53
 5226              		.cfi_endproc
 5227              	.LFE41:
 5228              		.size	max30102_get_die_temperature, .-max30102_get_die_temperature
 5229              		.section	.text.max30102_get_id,"ax",%progbits
 5230              		.align	2
 5231              		.global	max30102_get_id
 5232              		.thumb
 5233              		.thumb_func
 5234              		.type	max30102_get_id, %function
 5235              	max30102_get_id:
 5236              	.LFB42:
2256:SensorLib\max30102/driver_max30102.c **** 
2257:SensorLib\max30102/driver_max30102.c **** /**
2258:SensorLib\max30102/driver_max30102.c ****  * @brief      get the chip id
2259:SensorLib\max30102/driver_max30102.c ****  * @param[in]  *handle points to a max30102 handle structure
2260:SensorLib\max30102/driver_max30102.c ****  * @param[out] *revision_id points to a revision id buffer
2261:SensorLib\max30102/driver_max30102.c ****  * @param[out] *part_id points to a part id buffer
2262:SensorLib\max30102/driver_max30102.c ****  * @return     status code
2263:SensorLib\max30102/driver_max30102.c ****  *             - 0 success
2264:SensorLib\max30102/driver_max30102.c ****  *             - 1 get id failed
2265:SensorLib\max30102/driver_max30102.c ****  *             - 2 handle is NULL
2266:SensorLib\max30102/driver_max30102.c ****  *             - 3 handle is not initialized
2267:SensorLib\max30102/driver_max30102.c ****  * @note       none
2268:SensorLib\max30102/driver_max30102.c ****  */
2269:SensorLib\max30102/driver_max30102.c **** uint8_t max30102_get_id(max30102_handle_t *handle, uint8_t *revision_id, uint8_t *part_id)
2270:SensorLib\max30102/driver_max30102.c **** {
 5237              		.loc 1 2270 0
 5238              		.cfi_startproc
 5239              		@ args = 0, pretend = 0, frame = 0
 5240              		@ frame_needed = 0, uses_anonymous_args = 0
 5241              	.LVL715:
 5242 0000 F8B5     		push	{r3, r4, r5, r6, r7, lr}
 5243              		.cfi_def_cfa_offset 24
 5244              		.cfi_offset 3, -24
 5245              		.cfi_offset 4, -20
 5246              		.cfi_offset 5, -16
 5247              		.cfi_offset 6, -12
 5248              		.cfi_offset 7, -8
 5249              		.cfi_offset 14, -4
2271:SensorLib\max30102/driver_max30102.c ****     uint8_t res;
2272:SensorLib\max30102/driver_max30102.c ****     
2273:SensorLib\max30102/driver_max30102.c ****     if (handle == NULL)                                                                            
 5250              		.loc 1 2273 0
 5251 0002 D0B1     		cbz	r0, .L426
2274:SensorLib\max30102/driver_max30102.c ****     {
2275:SensorLib\max30102/driver_max30102.c ****         return 2;                                                                                  
2276:SensorLib\max30102/driver_max30102.c ****     }
2277:SensorLib\max30102/driver_max30102.c ****     if (handle->inited != 1)                                                                       
 5252              		.loc 1 2277 0
 5253 0004 047F     		ldrb	r4, [r0, #28]	@ zero_extendqisi2
 5254 0006 012C     		cmp	r4, #1
 5255 0008 19D1     		bne	.L427
 5256 000a 0546     		mov	r5, r0
ARM GAS  C:\Users\CHRONI~1\AppData\Local\Temp\cc7oUGua.s 			page 135


 5257 000c 1746     		mov	r7, r2
 5258 000e 0A46     		mov	r2, r1
 5259              	.LVL716:
2278:SensorLib\max30102/driver_max30102.c ****     {
2279:SensorLib\max30102/driver_max30102.c ****         return 3;                                                                                  
2280:SensorLib\max30102/driver_max30102.c ****     }
2281:SensorLib\max30102/driver_max30102.c ****     
2282:SensorLib\max30102/driver_max30102.c ****     res = handle->iic_read(MAX30102_ADDRESS, MAX30102_REG_REVISION_ID, (uint8_t *)revision_id, 1); 
 5260              		.loc 1 2282 0
 5261 0010 8668     		ldr	r6, [r0, #8]
 5262 0012 0123     		movs	r3, #1
 5263 0014 FE21     		movs	r1, #254
 5264              	.LVL717:
 5265 0016 5720     		movs	r0, #87
 5266              	.LVL718:
 5267 0018 B047     		blx	r6
 5268              	.LVL719:
2283:SensorLib\max30102/driver_max30102.c ****     if (res != 0)                                                                                  
 5269              		.loc 1 2283 0
 5270 001a 18B1     		cbz	r0, .L425
2284:SensorLib\max30102/driver_max30102.c ****     {
2285:SensorLib\max30102/driver_max30102.c ****         handle->debug_print("max30102: read revision id failed.\n");                               
 5271              		.loc 1 2285 0
 5272 001c AB69     		ldr	r3, [r5, #24]
 5273 001e 0A48     		ldr	r0, .L430
 5274              	.LVL720:
 5275 0020 9847     		blx	r3
 5276              	.LVL721:
2286:SensorLib\max30102/driver_max30102.c ****        
2287:SensorLib\max30102/driver_max30102.c ****         return 1;                                                                                  
 5277              		.loc 1 2287 0
 5278 0022 0FE0     		b	.L424
 5279              	.LVL722:
 5280              	.L425:
2288:SensorLib\max30102/driver_max30102.c ****     }
2289:SensorLib\max30102/driver_max30102.c ****     res = handle->iic_read(MAX30102_ADDRESS, MAX30102_REG_PART_ID, (uint8_t *)part_id, 1);         
 5281              		.loc 1 2289 0
 5282 0024 AE68     		ldr	r6, [r5, #8]
 5283 0026 0123     		movs	r3, #1
 5284 0028 3A46     		mov	r2, r7
 5285 002a FF21     		movs	r1, #255
 5286 002c 5720     		movs	r0, #87
 5287              	.LVL723:
 5288 002e B047     		blx	r6
 5289              	.LVL724:
2290:SensorLib\max30102/driver_max30102.c ****     if (res != 0)                                                                                  
 5290              		.loc 1 2290 0
 5291 0030 38B1     		cbz	r0, .L428
2291:SensorLib\max30102/driver_max30102.c ****     {
2292:SensorLib\max30102/driver_max30102.c ****         handle->debug_print("max30102: read part id failed.\n");                                   
 5292              		.loc 1 2292 0
 5293 0032 AB69     		ldr	r3, [r5, #24]
 5294 0034 0548     		ldr	r0, .L430+4
 5295              	.LVL725:
 5296 0036 9847     		blx	r3
 5297              	.LVL726:
2293:SensorLib\max30102/driver_max30102.c ****        
ARM GAS  C:\Users\CHRONI~1\AppData\Local\Temp\cc7oUGua.s 			page 136


2294:SensorLib\max30102/driver_max30102.c ****         return 1;                                                                                  
 5298              		.loc 1 2294 0
 5299 0038 04E0     		b	.L424
 5300              	.LVL727:
 5301              	.L426:
2275:SensorLib\max30102/driver_max30102.c ****     }
 5302              		.loc 1 2275 0
 5303 003a 0224     		movs	r4, #2
 5304 003c 02E0     		b	.L424
 5305              	.L427:
2279:SensorLib\max30102/driver_max30102.c ****     }
 5306              		.loc 1 2279 0
 5307 003e 0324     		movs	r4, #3
 5308 0040 00E0     		b	.L424
 5309              	.LVL728:
 5310              	.L428:
2295:SensorLib\max30102/driver_max30102.c ****     }
2296:SensorLib\max30102/driver_max30102.c ****     
2297:SensorLib\max30102/driver_max30102.c ****     return 0;                                                                                      
 5311              		.loc 1 2297 0
 5312 0042 0024     		movs	r4, #0
 5313              	.LVL729:
 5314              	.L424:
2298:SensorLib\max30102/driver_max30102.c **** }
 5315              		.loc 1 2298 0
 5316 0044 2046     		mov	r0, r4
 5317 0046 F8BD     		pop	{r3, r4, r5, r6, r7, pc}
 5318              	.L431:
 5319              		.align	2
 5320              	.L430:
 5321 0048 840C0000 		.word	.LC78
 5322 004c A80C0000 		.word	.LC79
 5323              		.cfi_endproc
 5324              	.LFE42:
 5325              		.size	max30102_get_id, .-max30102_get_id
 5326              		.section	.text.max30102_set_reg,"ax",%progbits
 5327              		.align	2
 5328              		.global	max30102_set_reg
 5329              		.thumb
 5330              		.thumb_func
 5331              		.type	max30102_set_reg, %function
 5332              	max30102_set_reg:
 5333              	.LFB43:
2299:SensorLib\max30102/driver_max30102.c **** 
2300:SensorLib\max30102/driver_max30102.c **** /**
2301:SensorLib\max30102/driver_max30102.c ****  * @brief     set the chip register
2302:SensorLib\max30102/driver_max30102.c ****  * @param[in] *handle points to a max30102 handle structure
2303:SensorLib\max30102/driver_max30102.c ****  * @param[in] reg is the iic register address
2304:SensorLib\max30102/driver_max30102.c ****  * @param[in] *buf points to a data buffer
2305:SensorLib\max30102/driver_max30102.c ****  * @param[in] len is the data buffer length
2306:SensorLib\max30102/driver_max30102.c ****  * @return    status code
2307:SensorLib\max30102/driver_max30102.c ****  *            - 0 success
2308:SensorLib\max30102/driver_max30102.c ****  *            - 1 write failed
2309:SensorLib\max30102/driver_max30102.c ****  *            - 2 handle is NULL
2310:SensorLib\max30102/driver_max30102.c ****  *            - 3 handle is not initialized
2311:SensorLib\max30102/driver_max30102.c ****  * @note      none
2312:SensorLib\max30102/driver_max30102.c ****  */
ARM GAS  C:\Users\CHRONI~1\AppData\Local\Temp\cc7oUGua.s 			page 137


2313:SensorLib\max30102/driver_max30102.c **** uint8_t max30102_set_reg(max30102_handle_t *handle, uint8_t reg, uint8_t *buf, uint16_t len)
2314:SensorLib\max30102/driver_max30102.c **** {
 5334              		.loc 1 2314 0
 5335              		.cfi_startproc
 5336              		@ args = 0, pretend = 0, frame = 0
 5337              		@ frame_needed = 0, uses_anonymous_args = 0
 5338              	.LVL730:
 5339 0000 38B5     		push	{r3, r4, r5, lr}
 5340              		.cfi_def_cfa_offset 16
 5341              		.cfi_offset 3, -16
 5342              		.cfi_offset 4, -12
 5343              		.cfi_offset 5, -8
 5344              		.cfi_offset 14, -4
2315:SensorLib\max30102/driver_max30102.c ****     if (handle == NULL)                                            /* check handle */
 5345              		.loc 1 2315 0
 5346 0002 48B1     		cbz	r0, .L434
2316:SensorLib\max30102/driver_max30102.c ****     {
2317:SensorLib\max30102/driver_max30102.c ****         return 2;                                                  /* return error */
2318:SensorLib\max30102/driver_max30102.c ****     }
2319:SensorLib\max30102/driver_max30102.c ****     if (handle->inited != 1)                                       /* check handle initialization *
 5347              		.loc 1 2319 0
 5348 0004 057F     		ldrb	r5, [r0, #28]	@ zero_extendqisi2
 5349 0006 012D     		cmp	r5, #1
 5350 0008 08D1     		bne	.L435
2320:SensorLib\max30102/driver_max30102.c ****     {
2321:SensorLib\max30102/driver_max30102.c ****         return 3;                                                  /* return error */
2322:SensorLib\max30102/driver_max30102.c ****     }
2323:SensorLib\max30102/driver_max30102.c ****     
2324:SensorLib\max30102/driver_max30102.c ****     if (handle->iic_write(MAX30102_ADDRESS, reg, buf, len) != 0)   /* write data */
 5351              		.loc 1 2324 0
 5352 000a C468     		ldr	r4, [r0, #12]
 5353 000c 5720     		movs	r0, #87
 5354              	.LVL731:
 5355 000e A047     		blx	r4
 5356              	.LVL732:
 5357 0010 0346     		mov	r3, r0
 5358 0012 20B1     		cbz	r0, .L433
2325:SensorLib\max30102/driver_max30102.c ****     {
2326:SensorLib\max30102/driver_max30102.c ****         return 1;                                                  /* return error */
 5359              		.loc 1 2326 0
 5360 0014 2B46     		mov	r3, r5
 5361 0016 02E0     		b	.L433
 5362              	.LVL733:
 5363              	.L434:
2317:SensorLib\max30102/driver_max30102.c ****     }
 5364              		.loc 1 2317 0
 5365 0018 0223     		movs	r3, #2
 5366              	.LVL734:
 5367 001a 00E0     		b	.L433
 5368              	.LVL735:
 5369              	.L435:
2321:SensorLib\max30102/driver_max30102.c ****     }
 5370              		.loc 1 2321 0
 5371 001c 0323     		movs	r3, #3
 5372              	.LVL736:
 5373              	.L433:
2327:SensorLib\max30102/driver_max30102.c ****     }
ARM GAS  C:\Users\CHRONI~1\AppData\Local\Temp\cc7oUGua.s 			page 138


2328:SensorLib\max30102/driver_max30102.c ****     else
2329:SensorLib\max30102/driver_max30102.c ****     {
2330:SensorLib\max30102/driver_max30102.c ****         return 0;                                                  /* success return 0 */
2331:SensorLib\max30102/driver_max30102.c ****     }
2332:SensorLib\max30102/driver_max30102.c **** }
 5374              		.loc 1 2332 0
 5375 001e 1846     		mov	r0, r3
 5376 0020 38BD     		pop	{r3, r4, r5, pc}
 5377              		.cfi_endproc
 5378              	.LFE43:
 5379              		.size	max30102_set_reg, .-max30102_set_reg
 5380 0022 00BF     		.section	.text.max30102_get_reg,"ax",%progbits
 5381              		.align	2
 5382              		.global	max30102_get_reg
 5383              		.thumb
 5384              		.thumb_func
 5385              		.type	max30102_get_reg, %function
 5386              	max30102_get_reg:
 5387              	.LFB44:
2333:SensorLib\max30102/driver_max30102.c **** 
2334:SensorLib\max30102/driver_max30102.c **** /**
2335:SensorLib\max30102/driver_max30102.c ****  * @brief      get the chip register
2336:SensorLib\max30102/driver_max30102.c ****  * @param[in]  *handle points to a max30102 handle structure
2337:SensorLib\max30102/driver_max30102.c ****  * @param[in]  reg is the iic register address
2338:SensorLib\max30102/driver_max30102.c ****  * @param[out] *buf points to a data buffer
2339:SensorLib\max30102/driver_max30102.c ****  * @param[in]  len is the data buffer length
2340:SensorLib\max30102/driver_max30102.c ****  * @return     status code
2341:SensorLib\max30102/driver_max30102.c ****  *             - 0 success
2342:SensorLib\max30102/driver_max30102.c ****  *             - 1 read failed
2343:SensorLib\max30102/driver_max30102.c ****  *             - 2 handle is NULL
2344:SensorLib\max30102/driver_max30102.c ****  *             - 3 handle is not initialized
2345:SensorLib\max30102/driver_max30102.c ****  * @note       none
2346:SensorLib\max30102/driver_max30102.c ****  */
2347:SensorLib\max30102/driver_max30102.c **** uint8_t max30102_get_reg(max30102_handle_t *handle, uint8_t reg, uint8_t *buf, uint16_t len)
2348:SensorLib\max30102/driver_max30102.c **** {
 5388              		.loc 1 2348 0
 5389              		.cfi_startproc
 5390              		@ args = 0, pretend = 0, frame = 0
 5391              		@ frame_needed = 0, uses_anonymous_args = 0
 5392              	.LVL737:
 5393 0000 38B5     		push	{r3, r4, r5, lr}
 5394              		.cfi_def_cfa_offset 16
 5395              		.cfi_offset 3, -16
 5396              		.cfi_offset 4, -12
 5397              		.cfi_offset 5, -8
 5398              		.cfi_offset 14, -4
2349:SensorLib\max30102/driver_max30102.c ****     if (handle == NULL)                                           /* check handle */
 5399              		.loc 1 2349 0
 5400 0002 48B1     		cbz	r0, .L439
2350:SensorLib\max30102/driver_max30102.c ****     {
2351:SensorLib\max30102/driver_max30102.c ****         return 2;                                                 /* return error */
2352:SensorLib\max30102/driver_max30102.c ****     }
2353:SensorLib\max30102/driver_max30102.c ****     if (handle->inited != 1)                                      /* check handle initialization */
 5401              		.loc 1 2353 0
 5402 0004 057F     		ldrb	r5, [r0, #28]	@ zero_extendqisi2
 5403 0006 012D     		cmp	r5, #1
 5404 0008 08D1     		bne	.L440
ARM GAS  C:\Users\CHRONI~1\AppData\Local\Temp\cc7oUGua.s 			page 139


2354:SensorLib\max30102/driver_max30102.c ****     {
2355:SensorLib\max30102/driver_max30102.c ****         return 3;                                                 /* return error */
2356:SensorLib\max30102/driver_max30102.c ****     }
2357:SensorLib\max30102/driver_max30102.c ****     
2358:SensorLib\max30102/driver_max30102.c ****     if (handle->iic_read(MAX30102_ADDRESS, reg, buf, len) != 0)   /* read data */
 5405              		.loc 1 2358 0
 5406 000a 8468     		ldr	r4, [r0, #8]
 5407 000c 5720     		movs	r0, #87
 5408              	.LVL738:
 5409 000e A047     		blx	r4
 5410              	.LVL739:
 5411 0010 0346     		mov	r3, r0
 5412 0012 20B1     		cbz	r0, .L438
2359:SensorLib\max30102/driver_max30102.c ****     {
2360:SensorLib\max30102/driver_max30102.c ****         return 1;                                                 /* return error */
 5413              		.loc 1 2360 0
 5414 0014 2B46     		mov	r3, r5
 5415 0016 02E0     		b	.L438
 5416              	.LVL740:
 5417              	.L439:
2351:SensorLib\max30102/driver_max30102.c ****     }
 5418              		.loc 1 2351 0
 5419 0018 0223     		movs	r3, #2
 5420              	.LVL741:
 5421 001a 00E0     		b	.L438
 5422              	.LVL742:
 5423              	.L440:
2355:SensorLib\max30102/driver_max30102.c ****     }
 5424              		.loc 1 2355 0
 5425 001c 0323     		movs	r3, #3
 5426              	.LVL743:
 5427              	.L438:
2361:SensorLib\max30102/driver_max30102.c ****     }
2362:SensorLib\max30102/driver_max30102.c ****     else
2363:SensorLib\max30102/driver_max30102.c ****     {
2364:SensorLib\max30102/driver_max30102.c ****         return 0;                                                 /* success return 0 */
2365:SensorLib\max30102/driver_max30102.c ****     }
2366:SensorLib\max30102/driver_max30102.c **** }
 5428              		.loc 1 2366 0
 5429 001e 1846     		mov	r0, r3
 5430 0020 38BD     		pop	{r3, r4, r5, pc}
 5431              		.cfi_endproc
 5432              	.LFE44:
 5433              		.size	max30102_get_reg, .-max30102_get_reg
 5434 0022 00BF     		.section	.text.max30102_info,"ax",%progbits
 5435              		.align	2
 5436              		.global	max30102_info
 5437              		.thumb
 5438              		.thumb_func
 5439              		.type	max30102_info, %function
 5440              	max30102_info:
 5441              	.LFB45:
2367:SensorLib\max30102/driver_max30102.c **** 
2368:SensorLib\max30102/driver_max30102.c **** /**
2369:SensorLib\max30102/driver_max30102.c ****  * @brief      get chip's information
2370:SensorLib\max30102/driver_max30102.c ****  * @param[out] *info points to a max30102 info structure
2371:SensorLib\max30102/driver_max30102.c ****  * @return     status code
ARM GAS  C:\Users\CHRONI~1\AppData\Local\Temp\cc7oUGua.s 			page 140


2372:SensorLib\max30102/driver_max30102.c ****  *             - 0 success
2373:SensorLib\max30102/driver_max30102.c ****  *             - 2 handle is NULL
2374:SensorLib\max30102/driver_max30102.c ****  * @note       none
2375:SensorLib\max30102/driver_max30102.c ****  */
2376:SensorLib\max30102/driver_max30102.c **** uint8_t max30102_info(max30102_info_t *info)
2377:SensorLib\max30102/driver_max30102.c **** {
 5442              		.loc 1 2377 0
 5443              		.cfi_startproc
 5444              		@ args = 0, pretend = 0, frame = 0
 5445              		@ frame_needed = 0, uses_anonymous_args = 0
 5446              	.LVL744:
2378:SensorLib\max30102/driver_max30102.c ****     if (info == NULL)                                               /* check handle */
 5447              		.loc 1 2378 0
 5448 0000 28B3     		cbz	r0, .L444
2377:SensorLib\max30102/driver_max30102.c ****     if (info == NULL)                                               /* check handle */
 5449              		.loc 1 2377 0
 5450 0002 10B5     		push	{r4, lr}
 5451              		.cfi_def_cfa_offset 8
 5452              		.cfi_offset 4, -8
 5453              		.cfi_offset 14, -4
 5454 0004 0446     		mov	r4, r0
2379:SensorLib\max30102/driver_max30102.c ****     {
2380:SensorLib\max30102/driver_max30102.c ****         return 2;                                                   /* return error */
2381:SensorLib\max30102/driver_max30102.c ****     }
2382:SensorLib\max30102/driver_max30102.c ****     
2383:SensorLib\max30102/driver_max30102.c ****     memset(info, 0, sizeof(max30102_info_t));                       /* initialize max30102 info str
 5455              		.loc 1 2383 0
 5456 0006 6022     		movs	r2, #96
 5457 0008 0021     		movs	r1, #0
 5458 000a FFF7FEFF 		bl	memset
 5459              	.LVL745:
2384:SensorLib\max30102/driver_max30102.c ****     strncpy(info->chip_name, CHIP_NAME, 32);                        /* copy chip name */
 5460              		.loc 1 2384 0
 5461 000e 2022     		movs	r2, #32
 5462 0010 1049     		ldr	r1, .L447
 5463 0012 2046     		mov	r0, r4
 5464 0014 FFF7FEFF 		bl	strncpy
 5465              	.LVL746:
2385:SensorLib\max30102/driver_max30102.c ****     strncpy(info->manufacturer_name, MANUFACTURER_NAME, 32);        /* copy manufacturer name */
 5466              		.loc 1 2385 0
 5467 0018 2022     		movs	r2, #32
 5468 001a 0F49     		ldr	r1, .L447+4
 5469 001c A018     		adds	r0, r4, r2
 5470 001e FFF7FEFF 		bl	strncpy
 5471              	.LVL747:
2386:SensorLib\max30102/driver_max30102.c ****     strncpy(info->interface, "IIC", 8);                             /* copy interface name */
 5472              		.loc 1 2386 0
 5473 0022 0822     		movs	r2, #8
 5474 0024 0D49     		ldr	r1, .L447+8
 5475 0026 04F14000 		add	r0, r4, #64
 5476 002a FFF7FEFF 		bl	strncpy
 5477              	.LVL748:
2387:SensorLib\max30102/driver_max30102.c ****     info->supply_voltage_min_v = SUPPLY_VOLTAGE_MIN;                /* set minimal supply voltage *
 5478              		.loc 1 2387 0
 5479 002e 0C4B     		ldr	r3, .L447+12
 5480 0030 A364     		str	r3, [r4, #72]	@ float
2388:SensorLib\max30102/driver_max30102.c ****     info->supply_voltage_max_v = SUPPLY_VOLTAGE_MAX;                /* set maximum supply voltage *
ARM GAS  C:\Users\CHRONI~1\AppData\Local\Temp\cc7oUGua.s 			page 141


 5481              		.loc 1 2388 0
 5482 0032 4FF08043 		mov	r3, #1073741824
 5483 0036 E364     		str	r3, [r4, #76]	@ float
2389:SensorLib\max30102/driver_max30102.c ****     info->max_current_ma = MAX_CURRENT;                             /* set maximum current */
 5484              		.loc 1 2389 0
 5485 0038 0A4B     		ldr	r3, .L447+16
 5486 003a 2365     		str	r3, [r4, #80]	@ float
2390:SensorLib\max30102/driver_max30102.c ****     info->temperature_max = TEMPERATURE_MAX;                        /* set minimal temperature */
 5487              		.loc 1 2390 0
 5488 003c 0A4B     		ldr	r3, .L447+20
 5489 003e A365     		str	r3, [r4, #88]	@ float
2391:SensorLib\max30102/driver_max30102.c ****     info->temperature_min = TEMPERATURE_MIN;                        /* set maximum temperature */
 5490              		.loc 1 2391 0
 5491 0040 0A4B     		ldr	r3, .L447+24
 5492 0042 6365     		str	r3, [r4, #84]	@ float
2392:SensorLib\max30102/driver_max30102.c ****     info->driver_version = DRIVER_VERSION;                          /* set driver version */
 5493              		.loc 1 2392 0
 5494 0044 4FF47A73 		mov	r3, #1000
 5495 0048 E365     		str	r3, [r4, #92]
2393:SensorLib\max30102/driver_max30102.c ****     
2394:SensorLib\max30102/driver_max30102.c ****     return 0;                                                       /* success return 0 */
 5496              		.loc 1 2394 0
 5497 004a 0020     		movs	r0, #0
 5498 004c 10BD     		pop	{r4, pc}
 5499              	.LVL749:
 5500              	.L444:
 5501              		.cfi_def_cfa_offset 0
 5502              		.cfi_restore 4
 5503              		.cfi_restore 14
2380:SensorLib\max30102/driver_max30102.c ****     }
 5504              		.loc 1 2380 0
 5505 004e 0220     		movs	r0, #2
 5506              	.LVL750:
 5507 0050 7047     		bx	lr
 5508              	.L448:
 5509 0052 00BF     		.align	2
 5510              	.L447:
 5511 0054 C80C0000 		.word	.LC80
 5512 0058 E40C0000 		.word	.LC81
 5513 005c F80C0000 		.word	.LC82
 5514 0060 9A99D93F 		.word	1071225242
 5515 0064 0000A041 		.word	1101004800
 5516 0068 0000AA42 		.word	1118437376
 5517 006c 000020C2 		.word	-1038090240
 5518              		.cfi_endproc
 5519              	.LFE45:
 5520              		.size	max30102_info, .-max30102_info
 5521              		.section	.rodata.str1.4,"aMS",%progbits,1
 5522              		.align	2
 5523              	.LC0:
 5524 0000 6D617833 		.ascii	"max30102: handle is null.\012\000"
 5524      30313032 
 5524      3A206861 
 5524      6E646C65 
 5524      20697320 
 5525 001b 00       		.space	1
 5526              	.LC1:
ARM GAS  C:\Users\CHRONI~1\AppData\Local\Temp\cc7oUGua.s 			page 142


 5527 001c 6D617833 		.ascii	"max30102: Initializing...\012\000"
 5527      30313032 
 5527      3A20496E 
 5527      69746961 
 5527      6C697A69 
 5528 0037 00       		.space	1
 5529              	.LC2:
 5530 0038 6D617833 		.ascii	"max30102: debug_print is null.\012\000"
 5530      30313032 
 5530      3A206465 
 5530      6275675F 
 5530      7072696E 
 5531              	.LC3:
 5532 0058 6D617833 		.ascii	"max30102: iic_init is null.\012\000"
 5532      30313032 
 5532      3A206969 
 5532      635F696E 
 5532      69742069 
 5533 0075 000000   		.space	3
 5534              	.LC4:
 5535 0078 6D617833 		.ascii	"max30102: iic_deinit is null.\012\000"
 5535      30313032 
 5535      3A206969 
 5535      635F6465 
 5535      696E6974 
 5536 0097 00       		.space	1
 5537              	.LC5:
 5538 0098 6D617833 		.ascii	"max30102: iic_read is null.\012\000"
 5538      30313032 
 5538      3A206969 
 5538      635F7265 
 5538      61642069 
 5539 00b5 000000   		.space	3
 5540              	.LC6:
 5541 00b8 6D617833 		.ascii	"max30102: iic_write is null.\012\000"
 5541      30313032 
 5541      3A206969 
 5541      635F7772 
 5541      69746520 
 5542 00d6 0000     		.space	2
 5543              	.LC7:
 5544 00d8 6D617833 		.ascii	"max30102: receive_callback is null.\012\000"
 5544      30313032 
 5544      3A207265 
 5544      63656976 
 5544      655F6361 
 5545 00fd 000000   		.space	3
 5546              	.LC8:
 5547 0100 6D617833 		.ascii	"max30102: delay_ms is null.\012\000"
 5547      30313032 
 5547      3A206465 
 5547      6C61795F 
 5547      6D732069 
 5548 011d 000000   		.space	3
 5549              	.LC9:
 5550 0120 6D617833 		.ascii	"max30102: Initializing I2C...\012\000"
 5550      30313032 
ARM GAS  C:\Users\CHRONI~1\AppData\Local\Temp\cc7oUGua.s 			page 143


 5550      3A20496E 
 5550      69746961 
 5550      6C697A69 
 5551 013f 00       		.space	1
 5552              	.LC10:
 5553 0140 6D617833 		.ascii	"max30102: I2C initialization failed.\012\000"
 5553      30313032 
 5553      3A204932 
 5553      4320696E 
 5553      69746961 
 5554 0166 0000     		.space	2
 5555              	.LC11:
 5556 0168 6D617833 		.ascii	"max30102: I2C initialization succeeded.\012\000"
 5556      30313032 
 5556      3A204932 
 5556      4320696E 
 5556      69746961 
 5557 0191 000000   		.space	3
 5558              	.LC12:
 5559 0194 6D617833 		.ascii	"max30102: Reading Part ID...\012\000"
 5559      30313032 
 5559      3A205265 
 5559      6164696E 
 5559      67205061 
 5560 01b2 0000     		.space	2
 5561              	.LC13:
 5562 01b4 6D617833 		.ascii	"max30102: Failed to read Part ID.\012\000"
 5562      30313032 
 5562      3A204661 
 5562      696C6564 
 5562      20746F20 
 5563 01d7 00       		.space	1
 5564              	.LC14:
 5565 01d8 6D617833 		.ascii	"max30102: Part ID read successfully. Value: 0x%X\012"
 5565      30313032 
 5565      3A205061 
 5565      72742049 
 5565      44207265 
 5566 0209 00       		.ascii	"\000"
 5567 020a 0000     		.space	2
 5568              	.LC15:
 5569 020c 6D617833 		.ascii	"max30102: Incorrect Part ID. Expected 0x15 but got "
 5569      30313032 
 5569      3A20496E 
 5569      636F7272 
 5569      65637420 
 5570 023f 30782558 		.ascii	"0x%X.\012\000"
 5570      2E0A00
 5571 0246 0000     		.space	2
 5572              	.LC16:
 5573 0248 6D617833 		.ascii	"max30102: Correct Part ID detected.\012\000"
 5573      30313032 
 5573      3A20436F 
 5573      72726563 
 5573      74205061 
 5574 026d 000000   		.space	3
 5575              	.LC17:
ARM GAS  C:\Users\CHRONI~1\AppData\Local\Temp\cc7oUGua.s 			page 144


 5576 0270 6D617833 		.ascii	"max30102: Reading Mode Config...\012\000"
 5576      30313032 
 5576      3A205265 
 5576      6164696E 
 5576      67204D6F 
 5577 0292 0000     		.space	2
 5578              	.LC18:
 5579 0294 6D617833 		.ascii	"max30102: Failed to read Mode Config.\012\000"
 5579      30313032 
 5579      3A204661 
 5579      696C6564 
 5579      20746F20 
 5580 02bb 00       		.space	1
 5581              	.LC19:
 5582 02bc 6D617833 		.ascii	"max30102: Mode Config read successfully. Value: 0x%"
 5582      30313032 
 5582      3A204D6F 
 5582      64652043 
 5582      6F6E6669 
 5583 02ef 580A00   		.ascii	"X\012\000"
 5584 02f2 0000     		.space	2
 5585              	.LC20:
 5586 02f4 6D617833 		.ascii	"max30102: Writing Mode Config with reset (bit 6 set"
 5586      30313032 
 5586      3A205772 
 5586      6974696E 
 5586      67204D6F 
 5587 0327 292E2E2E 		.ascii	")...\012\000"
 5587      0A00
 5588 032d 000000   		.space	3
 5589              	.LC21:
 5590 0330 6D617833 		.ascii	"max30102: Failed to write Mode Config.\012\000"
 5590      30313032 
 5590      3A204661 
 5590      696C6564 
 5590      20746F20 
 5591              	.LC22:
 5592 0358 6D617833 		.ascii	"max30102: Mode Config written successfully. Initiat"
 5592      30313032 
 5592      3A204D6F 
 5592      64652043 
 5592      6F6E6669 
 5593 038b 696E6720 		.ascii	"ing reset...\012\000"
 5593      72657365 
 5593      742E2E2E 
 5593      0A00
 5594 0399 000000   		.space	3
 5595              	.LC23:
 5596 039c 6D617833 		.ascii	"max30102: Delay of 10ms after reset command.\012\000"
 5596      30313032 
 5596      3A204465 
 5596      6C617920 
 5596      6F662031 
 5597 03ca 0000     		.space	2
 5598              	.LC24:
 5599 03cc 6D617833 		.ascii	"max30102: Reading Mode Config again to confirm rese"
 5599      30313032 
ARM GAS  C:\Users\CHRONI~1\AppData\Local\Temp\cc7oUGua.s 			page 145


 5599      3A205265 
 5599      6164696E 
 5599      67204D6F 
 5600 03ff 742E2E2E 		.ascii	"t...\012\000"
 5600      0A00
 5601 0405 000000   		.space	3
 5602              	.LC25:
 5603 0408 6D617833 		.ascii	"max30102: Failed to read Mode Config after reset.\012"
 5603      30313032 
 5603      3A204661 
 5603      696C6564 
 5603      20746F20 
 5604 043a 00       		.ascii	"\000"
 5605 043b 00       		.space	1
 5606              	.LC26:
 5607 043c 6D617833 		.ascii	"max30102: Mode Config after reset: 0x%X\012\000"
 5607      30313032 
 5607      3A204D6F 
 5607      64652043 
 5607      6F6E6669 
 5608 0465 000000   		.space	3
 5609              	.LC27:
 5610 0468 6D617833 		.ascii	"max30102: Reset failed. Bit 6 is still set.\012\000"
 5610      30313032 
 5610      3A205265 
 5610      73657420 
 5610      6661696C 
 5611 0495 000000   		.space	3
 5612              	.LC28:
 5613 0498 6D617833 		.ascii	"max30102: Reset successful. Bit 6 cleared.\012\000"
 5613      30313032 
 5613      3A205265 
 5613      73657420 
 5613      73756363 
 5614              	.LC29:
 5615 04c4 6D617833 		.ascii	"max30102: Clearing FIFO pointers...\012\000"
 5615      30313032 
 5615      3A20436C 
 5615      65617269 
 5615      6E672046 
 5616 04e9 000000   		.space	3
 5617              	.LC30:
 5618 04ec 6D617833 		.ascii	"max30102: Failed to write FIFO Read Pointer.\012\000"
 5618      30313032 
 5618      3A204661 
 5618      696C6564 
 5618      20746F20 
 5619 051a 0000     		.space	2
 5620              	.LC31:
 5621 051c 6D617833 		.ascii	"max30102: FIFO Read Pointer cleared.\012\000"
 5621      30313032 
 5621      3A204649 
 5621      464F2052 
 5621      65616420 
 5622 0542 0000     		.space	2
 5623              	.LC32:
 5624 0544 6D617833 		.ascii	"max30102: Failed to write FIFO Write Pointer.\012\000"
ARM GAS  C:\Users\CHRONI~1\AppData\Local\Temp\cc7oUGua.s 			page 146


 5624      30313032 
 5624      3A204661 
 5624      696C6564 
 5624      20746F20 
 5625 0573 00       		.space	1
 5626              	.LC33:
 5627 0574 6D617833 		.ascii	"max30102: FIFO Write Pointer cleared.\012\000"
 5627      30313032 
 5627      3A204649 
 5627      464F2057 
 5627      72697465 
 5628 059b 00       		.space	1
 5629              	.LC34:
 5630 059c 6D617833 		.ascii	"max30102: Failed to write Overflow Counter.\012\000"
 5630      30313032 
 5630      3A204661 
 5630      696C6564 
 5630      20746F20 
 5631 05c9 000000   		.space	3
 5632              	.LC35:
 5633 05cc 6D617833 		.ascii	"max30102: Overflow Counter cleared.\012\000"
 5633      30313032 
 5633      3A204F76 
 5633      6572666C 
 5633      6F772043 
 5634 05f1 000000   		.space	3
 5635              	.LC36:
 5636 05f4 6D617833 		.ascii	"max30102: Sensor initialized successfully.\012\000"
 5636      30313032 
 5636      3A205365 
 5636      6E736F72 
 5636      20696E69 
 5637              	.LC37:
 5638 0620 6D617833 		.ascii	"max30102: read mode config failed.\012\000"
 5638      30313032 
 5638      3A207265 
 5638      6164206D 
 5638      6F646520 
 5639              	.LC38:
 5640 0644 6D617833 		.ascii	"max30102: write mode config failed.\012\000"
 5640      30313032 
 5640      3A207772 
 5640      69746520 
 5640      6D6F6465 
 5641 0669 000000   		.space	3
 5642              	.LC39:
 5643 066c 6D617833 		.ascii	"max30102: iic deinit failed.\012\000"
 5643      30313032 
 5643      3A206969 
 5643      63206465 
 5643      696E6974 
 5644 068a 0000     		.space	2
 5645              	.LC40:
 5646 068c 6D617833 		.ascii	"max30102: read interrupt status1 failed.\012\000"
 5646      30313032 
 5646      3A207265 
 5646      61642069 
ARM GAS  C:\Users\CHRONI~1\AppData\Local\Temp\cc7oUGua.s 			page 147


 5646      6E746572 
 5647 06b6 0000     		.space	2
 5648              	.LC41:
 5649 06b8 6D617833 		.ascii	"max30102: read interrupt status2 failed.\012\000"
 5649      30313032 
 5649      3A207265 
 5649      61642069 
 5649      6E746572 
 5650 06e2 0000     		.space	2
 5651              	.LC42:
 5652 06e4 6D617833 		.ascii	"max30102: read die temp integer failed.\012\000"
 5652      30313032 
 5652      3A207265 
 5652      61642064 
 5652      69652074 
 5653 070d 000000   		.space	3
 5654              	.LC43:
 5655 0710 6D617833 		.ascii	"max30102: read die temp fraction failed.\012\000"
 5655      30313032 
 5655      3A207265 
 5655      61642064 
 5655      69652074 
 5656 073a 0000     		.space	2
 5657              	.LC44:
 5658 073c 6D617833 		.ascii	"max30102: read overflow counter failed.\012\000"
 5658      30313032 
 5658      3A207265 
 5658      6164206F 
 5658      76657266 
 5659 0765 000000   		.space	3
 5660              	.LC45:
 5661 0768 6D617833 		.ascii	"max30102: fifo overrun.\012\000"
 5661      30313032 
 5661      3A206669 
 5661      666F206F 
 5661      76657272 
 5662 0781 000000   		.space	3
 5663              	.LC46:
 5664 0784 6D617833 		.ascii	"max30102: read fifo read point failed.\012\000"
 5664      30313032 
 5664      3A207265 
 5664      61642066 
 5664      69666F20 
 5665              	.LC47:
 5666 07ac 6D617833 		.ascii	"max30102: read fifo write point failed.\012\000"
 5666      30313032 
 5666      3A207265 
 5666      61642066 
 5666      69666F20 
 5667 07d5 000000   		.space	3
 5668              	.LC48:
 5669 07d8 6D617833 		.ascii	"max30105: mode is invalid.\012\000"
 5669      30313035 
 5669      3A206D6F 
 5669      64652069 
 5669      7320696E 
 5670              	.LC49:
ARM GAS  C:\Users\CHRONI~1\AppData\Local\Temp\cc7oUGua.s 			page 148


 5671 07f4 6D617833 		.ascii	"max30102: read fifo data register failed.\012\000"
 5671      30313032 
 5671      3A207265 
 5671      61642066 
 5671      69666F20 
 5672 081f 00       		.space	1
 5673              	.LC50:
 5674 0820 6D617833 		.ascii	"max30102: read spo2 config failed.\012\000"
 5674      30313032 
 5674      3A207265 
 5674      61642073 
 5674      706F3220 
 5675              	.LC51:
 5676 0844 6D617833 		.ascii	"max30102: read interrupt enable2 failed.\012\000"
 5676      30313032 
 5676      3A207265 
 5676      61642069 
 5676      6E746572 
 5677 086e 0000     		.space	2
 5678              	.LC52:
 5679 0870 6D617833 		.ascii	"max30102: write interrupt enable2 failed.\012\000"
 5679      30313032 
 5679      3A207772 
 5679      69746520 
 5679      696E7465 
 5680 089b 00       		.space	1
 5681              	.LC53:
 5682 089c 6D617833 		.ascii	"max30102: read die temp config failed.\012\000"
 5682      30313032 
 5682      3A207265 
 5682      61642064 
 5682      69652074 
 5683              	.LC54:
 5684 08c4 6D617833 		.ascii	"max30102: write die temp config failed.\012\000"
 5684      30313032 
 5684      3A207772 
 5684      69746520 
 5684      64696520 
 5685 08ed 000000   		.space	3
 5686              	.LC55:
 5687 08f0 6D617833 		.ascii	"max30102: read timeout.\012\000"
 5687      30313032 
 5687      3A207265 
 5687      61642074 
 5687      696D656F 
 5688 0909 000000   		.space	3
 5689              	.LC56:
 5690 090c 6D617833 		.ascii	"max30102: read interrupt enable1 failed.\012\000"
 5690      30313032 
 5690      3A207265 
 5690      61642069 
 5690      6E746572 
 5691 0936 0000     		.space	2
 5692              	.LC57:
 5693 0938 6D617833 		.ascii	"max30102: write interrupt enable1 failed.\012\000"
 5693      30313032 
 5693      3A207772 
ARM GAS  C:\Users\CHRONI~1\AppData\Local\Temp\cc7oUGua.s 			page 149


 5693      69746520 
 5693      696E7465 
 5694 0963 00       		.space	1
 5695              	.LC58:
 5696 0964 6D617833 		.ascii	"max30102: pointer can't be over 0x1F.\012\000"
 5696      30313032 
 5696      3A20706F 
 5696      696E7465 
 5696      72206361 
 5697 098b 00       		.space	1
 5698              	.LC59:
 5699 098c 6D617833 		.ascii	"max30102: write fifo write pointer failed.\012\000"
 5699      30313032 
 5699      3A207772 
 5699      69746520 
 5699      6669666F 
 5700              	.LC60:
 5701 09b8 6D617833 		.ascii	"max30102: read fifo write pointer failed.\012\000"
 5701      30313032 
 5701      3A207265 
 5701      61642066 
 5701      69666F20 
 5702 09e3 00       		.space	1
 5703              	.LC61:
 5704 09e4 6D617833 		.ascii	"max30102: counter can't be over 0x1F.\012\000"
 5704      30313032 
 5704      3A20636F 
 5704      756E7465 
 5704      72206361 
 5705 0a0b 00       		.space	1
 5706              	.LC62:
 5707 0a0c 6D617833 		.ascii	"max30102: set fifo overflow counter failed.\012\000"
 5707      30313032 
 5707      3A207365 
 5707      74206669 
 5707      666F206F 
 5708 0a39 000000   		.space	3
 5709              	.LC63:
 5710 0a3c 6D617833 		.ascii	"max30102: get fifo overflow counter failed.\012\000"
 5710      30313032 
 5710      3A206765 
 5710      74206669 
 5710      666F206F 
 5711 0a69 000000   		.space	3
 5712              	.LC64:
 5713 0a6c 6D617833 		.ascii	"max30102: write fifo read pointer failed.\012\000"
 5713      30313032 
 5713      3A207772 
 5713      69746520 
 5713      6669666F 
 5714 0a97 00       		.space	1
 5715              	.LC65:
 5716 0a98 6D617833 		.ascii	"max30102: read fifo read pointer failed.\012\000"
 5716      30313032 
 5716      3A207265 
 5716      61642066 
 5716      69666F20 
ARM GAS  C:\Users\CHRONI~1\AppData\Local\Temp\cc7oUGua.s 			page 150


 5717 0ac2 0000     		.space	2
 5718              	.LC66:
 5719 0ac4 6D617833 		.ascii	"max30102: write fifo data register failed.\012\000"
 5719      30313032 
 5719      3A207772 
 5719      69746520 
 5719      6669666F 
 5720              	.LC67:
 5721 0af0 6D617833 		.ascii	"max30102: read fifo config failed.\012\000"
 5721      30313032 
 5721      3A207265 
 5721      61642066 
 5721      69666F20 
 5722              	.LC68:
 5723 0b14 6D617833 		.ascii	"max30102: write fifo config failed.\012\000"
 5723      30313032 
 5723      3A207772 
 5723      69746520 
 5723      6669666F 
 5724 0b39 000000   		.space	3
 5725              	.LC69:
 5726 0b3c 6D617833 		.ascii	"max30102: value can't be over 0xF.\012\000"
 5726      30313032 
 5726      3A207661 
 5726      6C756520 
 5726      63616E27 
 5727              	.LC70:
 5728 0b60 6D617833 		.ascii	"max30102: write spo2 config failed.\012\000"
 5728      30313032 
 5728      3A207772 
 5728      69746520 
 5728      73706F32 
 5729 0b85 000000   		.space	3
 5730              	.LC71:
 5731 0b88 6D617833 		.ascii	"max30102: write led pulse 1 failed.\012\000"
 5731      30313032 
 5731      3A207772 
 5731      69746520 
 5731      6C656420 
 5732 0bad 000000   		.space	3
 5733              	.LC72:
 5734 0bb0 6D617833 		.ascii	"max30102: read led pulse 1 failed.\012\000"
 5734      30313032 
 5734      3A207265 
 5734      6164206C 
 5734      65642070 
 5735              	.LC73:
 5736 0bd4 6D617833 		.ascii	"max30102: write led pulse 2 failed.\012\000"
 5736      30313032 
 5736      3A207772 
 5736      69746520 
 5736      6C656420 
 5737 0bf9 000000   		.space	3
 5738              	.LC74:
 5739 0bfc 6D617833 		.ascii	"max30102: read led pulse 2 failed.\012\000"
 5739      30313032 
 5739      3A207265 
ARM GAS  C:\Users\CHRONI~1\AppData\Local\Temp\cc7oUGua.s 			page 151


 5739      6164206C 
 5739      65642070 
 5740              	.LC75:
 5741 0c20 6D617833 		.ascii	"max30102: read led slot failed.\012\000"
 5741      30313032 
 5741      3A207265 
 5741      6164206C 
 5741      65642073 
 5742 0c41 000000   		.space	3
 5743              	.LC76:
 5744 0c44 6D617833 		.ascii	"max30102: write led slot failed.\012\000"
 5744      30313032 
 5744      3A207772 
 5744      69746520 
 5744      6C656420 
 5745 0c66 0000     		.space	2
 5746              	.LC77:
 5747 0c68 6D617833 		.ascii	"max30102: slot is invalid.\012\000"
 5747      30313032 
 5747      3A20736C 
 5747      6F742069 
 5747      7320696E 
 5748              	.LC78:
 5749 0c84 6D617833 		.ascii	"max30102: read revision id failed.\012\000"
 5749      30313032 
 5749      3A207265 
 5749      61642072 
 5749      65766973 
 5750              	.LC79:
 5751 0ca8 6D617833 		.ascii	"max30102: read part id failed.\012\000"
 5751      30313032 
 5751      3A207265 
 5751      61642070 
 5751      61727420 
 5752              	.LC80:
 5753 0cc8 4D617869 		.ascii	"Maxim Integrated MAX30102\000"
 5753      6D20496E 
 5753      74656772 
 5753      61746564 
 5753      204D4158 
 5754 0ce2 0000     		.space	2
 5755              	.LC81:
 5756 0ce4 4D617869 		.ascii	"Maxim Integrated\000"
 5756      6D20496E 
 5756      74656772 
 5756      61746564 
 5756      00
 5757 0cf5 000000   		.space	3
 5758              	.LC82:
 5759 0cf8 49494300 		.ascii	"IIC\000"
 5760              		.text
 5761              	.Letext0:
 5762              		.file 2 "c:\\program files (x86)\\cypress\\psoc creator\\4.4\\psoc creator\\import\\gnu\\arm\\5.4.
 5763              		.file 3 "c:\\program files (x86)\\cypress\\psoc creator\\4.4\\psoc creator\\import\\gnu\\arm\\5.4.
 5764              		.file 4 "SensorLib\\max30102\\driver_max30102.h"
 5765              		.file 5 "c:\\program files (x86)\\cypress\\psoc creator\\4.4\\psoc creator\\import\\gnu\\arm\\5.4.
 5766              		.section	.debug_info,"",%progbits
ARM GAS  C:\Users\CHRONI~1\AppData\Local\Temp\cc7oUGua.s 			page 152


 5767              	.Ldebug_info0:
 5768 0000 AB2A0000 		.4byte	0x2aab
 5769 0004 0400     		.2byte	0x4
 5770 0006 00000000 		.4byte	.Ldebug_abbrev0
 5771 000a 04       		.byte	0x4
 5772 000b 01       		.uleb128 0x1
 5773 000c 92040000 		.4byte	.LASF165
 5774 0010 0C       		.byte	0xc
 5775 0011 52090000 		.4byte	.LASF166
 5776 0015 3E010000 		.4byte	.LASF167
 5777 0019 18000000 		.4byte	.Ldebug_ranges0+0x18
 5778 001d 00000000 		.4byte	0
 5779 0021 00000000 		.4byte	.Ldebug_line0
 5780 0025 02       		.uleb128 0x2
 5781 0026 01       		.byte	0x1
 5782 0027 06       		.byte	0x6
 5783 0028 DB0C0000 		.4byte	.LASF0
 5784 002c 03       		.uleb128 0x3
 5785 002d 900A0000 		.4byte	.LASF3
 5786 0031 02       		.byte	0x2
 5787 0032 1D       		.byte	0x1d
 5788 0033 37000000 		.4byte	0x37
 5789 0037 02       		.uleb128 0x2
 5790 0038 01       		.byte	0x1
 5791 0039 08       		.byte	0x8
 5792 003a 1B0B0000 		.4byte	.LASF1
 5793 003e 02       		.uleb128 0x2
 5794 003f 02       		.byte	0x2
 5795 0040 05       		.byte	0x5
 5796 0041 1C090000 		.4byte	.LASF2
 5797 0045 03       		.uleb128 0x3
 5798 0046 17040000 		.4byte	.LASF4
 5799 004a 02       		.byte	0x2
 5800 004b 2B       		.byte	0x2b
 5801 004c 50000000 		.4byte	0x50
 5802 0050 02       		.uleb128 0x2
 5803 0051 02       		.byte	0x2
 5804 0052 07       		.byte	0x7
 5805 0053 270D0000 		.4byte	.LASF5
 5806 0057 02       		.uleb128 0x2
 5807 0058 04       		.byte	0x4
 5808 0059 05       		.byte	0x5
 5809 005a 49090000 		.4byte	.LASF6
 5810 005e 03       		.uleb128 0x3
 5811 005f 4E0B0000 		.4byte	.LASF7
 5812 0063 02       		.byte	0x2
 5813 0064 41       		.byte	0x41
 5814 0065 69000000 		.4byte	0x69
 5815 0069 02       		.uleb128 0x2
 5816 006a 04       		.byte	0x4
 5817 006b 07       		.byte	0x7
 5818 006c DD0A0000 		.4byte	.LASF8
 5819 0070 02       		.uleb128 0x2
 5820 0071 08       		.byte	0x8
 5821 0072 05       		.byte	0x5
 5822 0073 1F070000 		.4byte	.LASF9
 5823 0077 02       		.uleb128 0x2
ARM GAS  C:\Users\CHRONI~1\AppData\Local\Temp\cc7oUGua.s 			page 153


 5824 0078 08       		.byte	0x8
 5825 0079 07       		.byte	0x7
 5826 007a BE030000 		.4byte	.LASF10
 5827 007e 04       		.uleb128 0x4
 5828 007f 04       		.byte	0x4
 5829 0080 05       		.byte	0x5
 5830 0081 696E7400 		.ascii	"int\000"
 5831 0085 02       		.uleb128 0x2
 5832 0086 04       		.byte	0x4
 5833 0087 07       		.byte	0x7
 5834 0088 09010000 		.4byte	.LASF11
 5835 008c 02       		.uleb128 0x2
 5836 008d 08       		.byte	0x8
 5837 008e 04       		.byte	0x4
 5838 008f 57080000 		.4byte	.LASF12
 5839 0093 02       		.uleb128 0x2
 5840 0094 04       		.byte	0x4
 5841 0095 07       		.byte	0x7
 5842 0096 D40A0000 		.4byte	.LASF13
 5843 009a 02       		.uleb128 0x2
 5844 009b 01       		.byte	0x1
 5845 009c 08       		.byte	0x8
 5846 009d 4F060000 		.4byte	.LASF14
 5847 00a1 05       		.uleb128 0x5
 5848 00a2 04       		.byte	0x4
 5849 00a3 A7000000 		.4byte	0xa7
 5850 00a7 06       		.uleb128 0x6
 5851 00a8 9A000000 		.4byte	0x9a
 5852 00ac 07       		.uleb128 0x7
 5853 00ad 9A000000 		.4byte	0x9a
 5854 00b1 BC000000 		.4byte	0xbc
 5855 00b5 08       		.uleb128 0x8
 5856 00b6 93000000 		.4byte	0x93
 5857 00ba 07       		.byte	0x7
 5858 00bb 00       		.byte	0
 5859 00bc 03       		.uleb128 0x3
 5860 00bd BA060000 		.4byte	.LASF15
 5861 00c1 03       		.byte	0x3
 5862 00c2 18       		.byte	0x18
 5863 00c3 2C000000 		.4byte	0x2c
 5864 00c7 03       		.uleb128 0x3
 5865 00c8 63080000 		.4byte	.LASF16
 5866 00cc 03       		.byte	0x3
 5867 00cd 24       		.byte	0x24
 5868 00ce 45000000 		.4byte	0x45
 5869 00d2 03       		.uleb128 0x3
 5870 00d3 F5020000 		.4byte	.LASF17
 5871 00d7 03       		.byte	0x3
 5872 00d8 30       		.byte	0x30
 5873 00d9 5E000000 		.4byte	0x5e
 5874 00dd 09       		.uleb128 0x9
 5875 00de 01       		.byte	0x1
 5876 00df 37000000 		.4byte	0x37
 5877 00e3 04       		.byte	0x4
 5878 00e4 3F       		.byte	0x3f
 5879 00e5 F6000000 		.4byte	0xf6
 5880 00e9 0A       		.uleb128 0xa
ARM GAS  C:\Users\CHRONI~1\AppData\Local\Temp\cc7oUGua.s 			page 154


 5881 00ea 3A0D0000 		.4byte	.LASF18
 5882 00ee 00       		.byte	0
 5883 00ef 0A       		.uleb128 0xa
 5884 00f0 DB010000 		.4byte	.LASF19
 5885 00f4 01       		.byte	0x1
 5886 00f5 00       		.byte	0
 5887 00f6 03       		.uleb128 0x3
 5888 00f7 41030000 		.4byte	.LASF20
 5889 00fb 04       		.byte	0x4
 5890 00fc 42       		.byte	0x42
 5891 00fd DD000000 		.4byte	0xdd
 5892 0101 09       		.uleb128 0x9
 5893 0102 01       		.byte	0x1
 5894 0103 37000000 		.4byte	0x37
 5895 0107 04       		.byte	0x4
 5896 0108 48       		.byte	0x48
 5897 0109 32010000 		.4byte	0x132
 5898 010d 0A       		.uleb128 0xa
 5899 010e 4C0C0000 		.4byte	.LASF21
 5900 0112 00       		.byte	0
 5901 0113 0A       		.uleb128 0xa
 5902 0114 680C0000 		.4byte	.LASF22
 5903 0118 01       		.byte	0x1
 5904 0119 0A       		.uleb128 0xa
 5905 011a 840C0000 		.4byte	.LASF23
 5906 011e 02       		.byte	0x2
 5907 011f 0A       		.uleb128 0xa
 5908 0120 A00C0000 		.4byte	.LASF24
 5909 0124 03       		.byte	0x3
 5910 0125 0A       		.uleb128 0xa
 5911 0126 590B0000 		.4byte	.LASF25
 5912 012a 04       		.byte	0x4
 5913 012b 0A       		.uleb128 0xa
 5914 012c BB0D0000 		.4byte	.LASF26
 5915 0130 05       		.byte	0x5
 5916 0131 00       		.byte	0
 5917 0132 03       		.uleb128 0x3
 5918 0133 29040000 		.4byte	.LASF27
 5919 0137 04       		.byte	0x4
 5920 0138 4F       		.byte	0x4f
 5921 0139 01010000 		.4byte	0x101
 5922 013d 09       		.uleb128 0x9
 5923 013e 01       		.byte	0x1
 5924 013f 37000000 		.4byte	0x37
 5925 0143 04       		.byte	0x4
 5926 0144 55       		.byte	0x55
 5927 0145 5C010000 		.4byte	0x15c
 5928 0149 0A       		.uleb128 0xa
 5929 014a 96060000 		.4byte	.LASF28
 5930 014e 02       		.byte	0x2
 5931 014f 0A       		.uleb128 0xa
 5932 0150 14020000 		.4byte	.LASF29
 5933 0154 03       		.byte	0x3
 5934 0155 0A       		.uleb128 0xa
 5935 0156 2D070000 		.4byte	.LASF30
 5936 015a 07       		.byte	0x7
 5937 015b 00       		.byte	0
ARM GAS  C:\Users\CHRONI~1\AppData\Local\Temp\cc7oUGua.s 			page 155


 5938 015c 03       		.uleb128 0x3
 5939 015d 77090000 		.4byte	.LASF31
 5940 0161 04       		.byte	0x4
 5941 0162 59       		.byte	0x59
 5942 0163 3D010000 		.4byte	0x13d
 5943 0167 09       		.uleb128 0x9
 5944 0168 01       		.byte	0x1
 5945 0169 37000000 		.4byte	0x37
 5946 016d 04       		.byte	0x4
 5947 016e 5F       		.byte	0x5f
 5948 016f 92010000 		.4byte	0x192
 5949 0173 0A       		.uleb128 0xa
 5950 0174 F7050000 		.4byte	.LASF32
 5951 0178 07       		.byte	0x7
 5952 0179 0A       		.uleb128 0xa
 5953 017a 1B060000 		.4byte	.LASF33
 5954 017e 06       		.byte	0x6
 5955 017f 0A       		.uleb128 0xa
 5956 0180 14080000 		.4byte	.LASF34
 5957 0184 05       		.byte	0x5
 5958 0185 0A       		.uleb128 0xa
 5959 0186 88010000 		.4byte	.LASF35
 5960 018a 00       		.byte	0
 5961 018b 0A       		.uleb128 0xa
 5962 018c D0050000 		.4byte	.LASF36
 5963 0190 01       		.byte	0x1
 5964 0191 00       		.byte	0
 5965 0192 03       		.uleb128 0x3
 5966 0193 6A040000 		.4byte	.LASF37
 5967 0197 04       		.byte	0x4
 5968 0198 65       		.byte	0x65
 5969 0199 67010000 		.4byte	0x167
 5970 019d 09       		.uleb128 0x9
 5971 019e 01       		.byte	0x1
 5972 019f 37000000 		.4byte	0x37
 5973 01a3 04       		.byte	0x4
 5974 01a4 6B       		.byte	0x6b
 5975 01a5 C2010000 		.4byte	0x1c2
 5976 01a9 0A       		.uleb128 0xa
 5977 01aa 72000000 		.4byte	.LASF38
 5978 01ae 07       		.byte	0x7
 5979 01af 0A       		.uleb128 0xa
 5980 01b0 EC070000 		.4byte	.LASF39
 5981 01b4 06       		.byte	0x6
 5982 01b5 0A       		.uleb128 0xa
 5983 01b6 B2050000 		.4byte	.LASF40
 5984 01ba 05       		.byte	0x5
 5985 01bb 0A       		.uleb128 0xa
 5986 01bc 1E030000 		.4byte	.LASF41
 5987 01c0 01       		.byte	0x1
 5988 01c1 00       		.byte	0
 5989 01c2 03       		.uleb128 0x3
 5990 01c3 6A0D0000 		.4byte	.LASF42
 5991 01c7 04       		.byte	0x4
 5992 01c8 70       		.byte	0x70
 5993 01c9 9D010000 		.4byte	0x19d
 5994 01cd 09       		.uleb128 0x9
ARM GAS  C:\Users\CHRONI~1\AppData\Local\Temp\cc7oUGua.s 			page 156


 5995 01ce 01       		.byte	0x1
 5996 01cf 37000000 		.4byte	0x37
 5997 01d3 04       		.byte	0x4
 5998 01d4 76       		.byte	0x76
 5999 01d5 F2010000 		.4byte	0x1f2
 6000 01d9 0A       		.uleb128 0xa
 6001 01da 9E0D0000 		.4byte	.LASF43
 6002 01de 00       		.byte	0
 6003 01df 0A       		.uleb128 0xa
 6004 01e0 6B060000 		.4byte	.LASF44
 6005 01e4 01       		.byte	0x1
 6006 01e5 0A       		.uleb128 0xa
 6007 01e6 F7010000 		.4byte	.LASF45
 6008 01ea 02       		.byte	0x2
 6009 01eb 0A       		.uleb128 0xa
 6010 01ec 45070000 		.4byte	.LASF46
 6011 01f0 03       		.byte	0x3
 6012 01f1 00       		.byte	0
 6013 01f2 03       		.uleb128 0x3
 6014 01f3 84030000 		.4byte	.LASF47
 6015 01f7 04       		.byte	0x4
 6016 01f8 7B       		.byte	0x7b
 6017 01f9 CD010000 		.4byte	0x1cd
 6018 01fd 09       		.uleb128 0x9
 6019 01fe 01       		.byte	0x1
 6020 01ff 37000000 		.4byte	0x37
 6021 0203 04       		.byte	0x4
 6022 0204 81       		.byte	0x81
 6023 0205 3A020000 		.4byte	0x23a
 6024 0209 0A       		.uleb128 0xa
 6025 020a FE020000 		.4byte	.LASF48
 6026 020e 00       		.byte	0
 6027 020f 0A       		.uleb128 0xa
 6028 0210 E70C0000 		.4byte	.LASF49
 6029 0214 01       		.byte	0x1
 6030 0215 0A       		.uleb128 0xa
 6031 0216 8A070000 		.4byte	.LASF50
 6032 021a 02       		.byte	0x2
 6033 021b 0A       		.uleb128 0xa
 6034 021c 180A0000 		.4byte	.LASF51
 6035 0220 03       		.byte	0x3
 6036 0221 0A       		.uleb128 0xa
 6037 0222 9B020000 		.4byte	.LASF52
 6038 0226 04       		.byte	0x4
 6039 0227 0A       		.uleb128 0xa
 6040 0228 50000000 		.4byte	.LASF53
 6041 022c 05       		.byte	0x5
 6042 022d 0A       		.uleb128 0xa
 6043 022e D1080000 		.4byte	.LASF54
 6044 0232 06       		.byte	0x6
 6045 0233 0A       		.uleb128 0xa
 6046 0234 68050000 		.4byte	.LASF55
 6047 0238 07       		.byte	0x7
 6048 0239 00       		.byte	0
 6049 023a 03       		.uleb128 0x3
 6050 023b 36080000 		.4byte	.LASF56
 6051 023f 04       		.byte	0x4
ARM GAS  C:\Users\CHRONI~1\AppData\Local\Temp\cc7oUGua.s 			page 157


 6052 0240 8A       		.byte	0x8a
 6053 0241 FD010000 		.4byte	0x1fd
 6054 0245 09       		.uleb128 0x9
 6055 0246 01       		.byte	0x1
 6056 0247 37000000 		.4byte	0x37
 6057 024b 04       		.byte	0x4
 6058 024c 90       		.byte	0x90
 6059 024d 6A020000 		.4byte	0x26a
 6060 0251 0A       		.uleb128 0xa
 6061 0252 6C080000 		.4byte	.LASF57
 6062 0256 00       		.byte	0
 6063 0257 0A       		.uleb128 0xa
 6064 0258 45040000 		.4byte	.LASF58
 6065 025c 01       		.byte	0x1
 6066 025d 0A       		.uleb128 0xa
 6067 025e 7F0D0000 		.4byte	.LASF59
 6068 0262 02       		.byte	0x2
 6069 0263 0A       		.uleb128 0xa
 6070 0264 080D0000 		.4byte	.LASF60
 6071 0268 03       		.byte	0x3
 6072 0269 00       		.byte	0
 6073 026a 03       		.uleb128 0x3
 6074 026b F3080000 		.4byte	.LASF61
 6075 026f 04       		.byte	0x4
 6076 0270 95       		.byte	0x95
 6077 0271 45020000 		.4byte	0x245
 6078 0275 09       		.uleb128 0x9
 6079 0276 01       		.byte	0x1
 6080 0277 37000000 		.4byte	0x37
 6081 027b 04       		.byte	0x4
 6082 027c 9B       		.byte	0x9b
 6083 027d 94020000 		.4byte	0x294
 6084 0281 0A       		.uleb128 0xa
 6085 0282 87090000 		.4byte	.LASF62
 6086 0286 00       		.byte	0
 6087 0287 0A       		.uleb128 0xa
 6088 0288 2D010000 		.4byte	.LASF63
 6089 028c 01       		.byte	0x1
 6090 028d 0A       		.uleb128 0xa
 6091 028e B7080000 		.4byte	.LASF64
 6092 0292 02       		.byte	0x2
 6093 0293 00       		.byte	0
 6094 0294 03       		.uleb128 0x3
 6095 0295 0D090000 		.4byte	.LASF65
 6096 0299 04       		.byte	0x4
 6097 029a 9F       		.byte	0x9f
 6098 029b 75020000 		.4byte	0x275
 6099 029f 09       		.uleb128 0x9
 6100 02a0 01       		.byte	0x1
 6101 02a1 37000000 		.4byte	0x37
 6102 02a5 04       		.byte	0x4
 6103 02a6 A5       		.byte	0xa5
 6104 02a7 C4020000 		.4byte	0x2c4
 6105 02ab 0A       		.uleb128 0xa
 6106 02ac E80B0000 		.4byte	.LASF66
 6107 02b0 00       		.byte	0
 6108 02b1 0A       		.uleb128 0xa
ARM GAS  C:\Users\CHRONI~1\AppData\Local\Temp\cc7oUGua.s 			page 158


 6109 02b2 F80B0000 		.4byte	.LASF67
 6110 02b6 01       		.byte	0x1
 6111 02b7 0A       		.uleb128 0xa
 6112 02b8 080C0000 		.4byte	.LASF68
 6113 02bc 02       		.byte	0x2
 6114 02bd 0A       		.uleb128 0xa
 6115 02be 180C0000 		.4byte	.LASF69
 6116 02c2 03       		.byte	0x3
 6117 02c3 00       		.byte	0
 6118 02c4 03       		.uleb128 0x3
 6119 02c5 8B080000 		.4byte	.LASF70
 6120 02c9 04       		.byte	0x4
 6121 02ca AA       		.byte	0xaa
 6122 02cb 9F020000 		.4byte	0x29f
 6123 02cf 0B       		.uleb128 0xb
 6124 02d0 20050000 		.4byte	.LASF83
 6125 02d4 E4       		.byte	0xe4
 6126 02d5 04       		.byte	0x4
 6127 02d6 AF       		.byte	0xaf
 6128 02d7 6C030000 		.4byte	0x36c
 6129 02db 0C       		.uleb128 0xc
 6130 02dc EE010000 		.4byte	.LASF71
 6131 02e0 04       		.byte	0x4
 6132 02e1 B1       		.byte	0xb1
 6133 02e2 71030000 		.4byte	0x371
 6134 02e6 00       		.byte	0
 6135 02e7 0C       		.uleb128 0xc
 6136 02e8 C90A0000 		.4byte	.LASF72
 6137 02ec 04       		.byte	0x4
 6138 02ed B2       		.byte	0xb2
 6139 02ee 71030000 		.4byte	0x371
 6140 02f2 04       		.byte	0x4
 6141 02f3 0C       		.uleb128 0xc
 6142 02f4 51030000 		.4byte	.LASF73
 6143 02f8 04       		.byte	0x4
 6144 02f9 B3       		.byte	0xb3
 6145 02fa 9B030000 		.4byte	0x39b
 6146 02fe 08       		.byte	0x8
 6147 02ff 0C       		.uleb128 0xc
 6148 0300 C7080000 		.4byte	.LASF74
 6149 0304 04       		.byte	0x4
 6150 0305 B4       		.byte	0xb4
 6151 0306 9B030000 		.4byte	0x39b
 6152 030a 0C       		.byte	0xc
 6153 030b 0C       		.uleb128 0xc
 6154 030c 8A050000 		.4byte	.LASF75
 6155 0310 04       		.byte	0x4
 6156 0311 B5       		.byte	0xb5
 6157 0312 AC030000 		.4byte	0x3ac
 6158 0316 10       		.byte	0x10
 6159 0317 0C       		.uleb128 0xc
 6160 0318 A9050000 		.4byte	.LASF76
 6161 031c 04       		.byte	0x4
 6162 031d B6       		.byte	0xb6
 6163 031e BD030000 		.4byte	0x3bd
 6164 0322 14       		.byte	0x14
 6165 0323 0C       		.uleb128 0xc
ARM GAS  C:\Users\CHRONI~1\AppData\Local\Temp\cc7oUGua.s 			page 159


 6166 0324 26090000 		.4byte	.LASF77
 6167 0328 04       		.byte	0x4
 6168 0329 B7       		.byte	0xb7
 6169 032a D4030000 		.4byte	0x3d4
 6170 032e 18       		.byte	0x18
 6171 032f 0C       		.uleb128 0xc
 6172 0330 3A000000 		.4byte	.LASF78
 6173 0334 04       		.byte	0x4
 6174 0335 B8       		.byte	0xb8
 6175 0336 BC000000 		.4byte	0xbc
 6176 033a 1C       		.byte	0x1c
 6177 033b 0C       		.uleb128 0xc
 6178 033c CD010000 		.4byte	.LASF79
 6179 0340 04       		.byte	0x4
 6180 0341 B9       		.byte	0xb9
 6181 0342 BC000000 		.4byte	0xbc
 6182 0346 1D       		.byte	0x1d
 6183 0347 0D       		.uleb128 0xd
 6184 0348 72617700 		.ascii	"raw\000"
 6185 034c 04       		.byte	0x4
 6186 034d BA       		.byte	0xba
 6187 034e C7000000 		.4byte	0xc7
 6188 0352 1E       		.byte	0x1e
 6189 0353 0C       		.uleb128 0xc
 6190 0354 92000000 		.4byte	.LASF80
 6191 0358 04       		.byte	0x4
 6192 0359 BB       		.byte	0xbb
 6193 035a DA030000 		.4byte	0x3da
 6194 035e 20       		.byte	0x20
 6195 035f 0D       		.uleb128 0xd
 6196 0360 62756600 		.ascii	"buf\000"
 6197 0364 04       		.byte	0x4
 6198 0365 BC       		.byte	0xbc
 6199 0366 E1030000 		.4byte	0x3e1
 6200 036a 24       		.byte	0x24
 6201 036b 00       		.byte	0
 6202 036c 0E       		.uleb128 0xe
 6203 036d BC000000 		.4byte	0xbc
 6204 0371 05       		.uleb128 0x5
 6205 0372 04       		.byte	0x4
 6206 0373 6C030000 		.4byte	0x36c
 6207 0377 0F       		.uleb128 0xf
 6208 0378 BC000000 		.4byte	0xbc
 6209 037c 95030000 		.4byte	0x395
 6210 0380 10       		.uleb128 0x10
 6211 0381 BC000000 		.4byte	0xbc
 6212 0385 10       		.uleb128 0x10
 6213 0386 BC000000 		.4byte	0xbc
 6214 038a 10       		.uleb128 0x10
 6215 038b 95030000 		.4byte	0x395
 6216 038f 10       		.uleb128 0x10
 6217 0390 C7000000 		.4byte	0xc7
 6218 0394 00       		.byte	0
 6219 0395 05       		.uleb128 0x5
 6220 0396 04       		.byte	0x4
 6221 0397 BC000000 		.4byte	0xbc
 6222 039b 05       		.uleb128 0x5
ARM GAS  C:\Users\CHRONI~1\AppData\Local\Temp\cc7oUGua.s 			page 160


 6223 039c 04       		.byte	0x4
 6224 039d 77030000 		.4byte	0x377
 6225 03a1 11       		.uleb128 0x11
 6226 03a2 AC030000 		.4byte	0x3ac
 6227 03a6 10       		.uleb128 0x10
 6228 03a7 BC000000 		.4byte	0xbc
 6229 03ab 00       		.byte	0
 6230 03ac 05       		.uleb128 0x5
 6231 03ad 04       		.byte	0x4
 6232 03ae A1030000 		.4byte	0x3a1
 6233 03b2 11       		.uleb128 0x11
 6234 03b3 BD030000 		.4byte	0x3bd
 6235 03b7 10       		.uleb128 0x10
 6236 03b8 D2000000 		.4byte	0xd2
 6237 03bc 00       		.byte	0
 6238 03bd 05       		.uleb128 0x5
 6239 03be 04       		.byte	0x4
 6240 03bf B2030000 		.4byte	0x3b2
 6241 03c3 11       		.uleb128 0x11
 6242 03c4 CF030000 		.4byte	0x3cf
 6243 03c8 10       		.uleb128 0x10
 6244 03c9 CF030000 		.4byte	0x3cf
 6245 03cd 12       		.uleb128 0x12
 6246 03ce 00       		.byte	0
 6247 03cf 06       		.uleb128 0x6
 6248 03d0 A1000000 		.4byte	0xa1
 6249 03d4 05       		.uleb128 0x5
 6250 03d5 04       		.byte	0x4
 6251 03d6 C3030000 		.4byte	0x3c3
 6252 03da 02       		.uleb128 0x2
 6253 03db 04       		.byte	0x4
 6254 03dc 04       		.byte	0x4
 6255 03dd 5A030000 		.4byte	.LASF81
 6256 03e1 07       		.uleb128 0x7
 6257 03e2 BC000000 		.4byte	0xbc
 6258 03e6 F1030000 		.4byte	0x3f1
 6259 03ea 08       		.uleb128 0x8
 6260 03eb 93000000 		.4byte	0x93
 6261 03ef BF       		.byte	0xbf
 6262 03f0 00       		.byte	0
 6263 03f1 03       		.uleb128 0x3
 6264 03f2 32050000 		.4byte	.LASF82
 6265 03f6 04       		.byte	0x4
 6266 03f7 BD       		.byte	0xbd
 6267 03f8 CF020000 		.4byte	0x2cf
 6268 03fc 0B       		.uleb128 0xb
 6269 03fd F60A0000 		.4byte	.LASF84
 6270 0401 60       		.byte	0x60
 6271 0402 04       		.byte	0x4
 6272 0403 C2       		.byte	0xc2
 6273 0404 75040000 		.4byte	0x475
 6274 0408 0C       		.uleb128 0xc
 6275 0409 0A080000 		.4byte	.LASF85
 6276 040d 04       		.byte	0x4
 6277 040e C4       		.byte	0xc4
 6278 040f 75040000 		.4byte	0x475
 6279 0413 00       		.byte	0
ARM GAS  C:\Users\CHRONI~1\AppData\Local\Temp\cc7oUGua.s 			page 161


 6280 0414 0C       		.uleb128 0xc
 6281 0415 9A0A0000 		.4byte	.LASF86
 6282 0419 04       		.byte	0x4
 6283 041a C5       		.byte	0xc5
 6284 041b 75040000 		.4byte	0x475
 6285 041f 20       		.byte	0x20
 6286 0420 0C       		.uleb128 0xc
 6287 0421 C4000000 		.4byte	.LASF87
 6288 0425 04       		.byte	0x4
 6289 0426 C6       		.byte	0xc6
 6290 0427 AC000000 		.4byte	0xac
 6291 042b 40       		.byte	0x40
 6292 042c 0C       		.uleb128 0xc
 6293 042d 550D0000 		.4byte	.LASF88
 6294 0431 04       		.byte	0x4
 6295 0432 C7       		.byte	0xc7
 6296 0433 DA030000 		.4byte	0x3da
 6297 0437 48       		.byte	0x48
 6298 0438 0C       		.uleb128 0xc
 6299 0439 00000000 		.4byte	.LASF89
 6300 043d 04       		.byte	0x4
 6301 043e C8       		.byte	0xc8
 6302 043f DA030000 		.4byte	0x3da
 6303 0443 4C       		.byte	0x4c
 6304 0444 0C       		.uleb128 0xc
 6305 0445 BA090000 		.4byte	.LASF90
 6306 0449 04       		.byte	0x4
 6307 044a C9       		.byte	0xc9
 6308 044b DA030000 		.4byte	0x3da
 6309 044f 50       		.byte	0x50
 6310 0450 0C       		.uleb128 0xc
 6311 0451 78010000 		.4byte	.LASF91
 6312 0455 04       		.byte	0x4
 6313 0456 CA       		.byte	0xca
 6314 0457 DA030000 		.4byte	0x3da
 6315 045b 54       		.byte	0x54
 6316 045c 0C       		.uleb128 0xc
 6317 045d DC070000 		.4byte	.LASF92
 6318 0461 04       		.byte	0x4
 6319 0462 CB       		.byte	0xcb
 6320 0463 DA030000 		.4byte	0x3da
 6321 0467 58       		.byte	0x58
 6322 0468 0C       		.uleb128 0xc
 6323 0469 41000000 		.4byte	.LASF93
 6324 046d 04       		.byte	0x4
 6325 046e CC       		.byte	0xcc
 6326 046f D2000000 		.4byte	0xd2
 6327 0473 5C       		.byte	0x5c
 6328 0474 00       		.byte	0
 6329 0475 07       		.uleb128 0x7
 6330 0476 9A000000 		.4byte	0x9a
 6331 047a 85040000 		.4byte	0x485
 6332 047e 08       		.uleb128 0x8
 6333 047f 93000000 		.4byte	0x93
 6334 0483 1F       		.byte	0x1f
 6335 0484 00       		.byte	0
 6336 0485 03       		.uleb128 0x3
ARM GAS  C:\Users\CHRONI~1\AppData\Local\Temp\cc7oUGua.s 			page 162


 6337 0486 060B0000 		.4byte	.LASF94
 6338 048a 04       		.byte	0x4
 6339 048b CD       		.byte	0xcd
 6340 048c FC030000 		.4byte	0x3fc
 6341 0490 13       		.uleb128 0x13
 6342 0491 9B050000 		.4byte	.LASF97
 6343 0495 01       		.byte	0x1
 6344 0496 5E       		.byte	0x5e
 6345 0497 BC000000 		.4byte	0xbc
 6346 049b 00000000 		.4byte	.LFB1
 6347 049f B0020000 		.4byte	.LFE1-.LFB1
 6348 04a3 01       		.uleb128 0x1
 6349 04a4 9C       		.byte	0x9c
 6350 04a5 A4080000 		.4byte	0x8a4
 6351 04a9 14       		.uleb128 0x14
 6352 04aa 4E0D0000 		.4byte	.LASF99
 6353 04ae 01       		.byte	0x1
 6354 04af 5E       		.byte	0x5e
 6355 04b0 A4080000 		.4byte	0x8a4
 6356 04b4 00000000 		.4byte	.LLST0
 6357 04b8 15       		.uleb128 0x15
 6358 04b9 72657300 		.ascii	"res\000"
 6359 04bd 01       		.byte	0x1
 6360 04be 60       		.byte	0x60
 6361 04bf BC000000 		.4byte	0xbc
 6362 04c3 42000000 		.4byte	.LLST1
 6363 04c7 16       		.uleb128 0x16
 6364 04c8 43020000 		.4byte	.LASF95
 6365 04cc 01       		.byte	0x1
 6366 04cd 61       		.byte	0x61
 6367 04ce BC000000 		.4byte	0xbc
 6368 04d2 02       		.uleb128 0x2
 6369 04d3 91       		.byte	0x91
 6370 04d4 67       		.sleb128 -25
 6371 04d5 16       		.uleb128 0x16
 6372 04d6 AB070000 		.4byte	.LASF96
 6373 04da 01       		.byte	0x1
 6374 04db 62       		.byte	0x62
 6375 04dc BC000000 		.4byte	0xbc
 6376 04e0 02       		.uleb128 0x2
 6377 04e1 91       		.byte	0x91
 6378 04e2 66       		.sleb128 -26
 6379 04e3 17       		.uleb128 0x17
 6380 04e4 0E000000 		.4byte	.LVL2
 6381 04e8 F6040000 		.4byte	0x4f6
 6382 04ec 18       		.uleb128 0x18
 6383 04ed 01       		.uleb128 0x1
 6384 04ee 50       		.byte	0x50
 6385 04ef 05       		.uleb128 0x5
 6386 04f0 03       		.byte	0x3
 6387 04f1 00000000 		.4byte	.LC0
 6388 04f5 00       		.byte	0
 6389 04f6 17       		.uleb128 0x17
 6390 04f7 18000000 		.4byte	.LVL5
 6391 04fb 09050000 		.4byte	0x509
 6392 04ff 18       		.uleb128 0x18
 6393 0500 01       		.uleb128 0x1
ARM GAS  C:\Users\CHRONI~1\AppData\Local\Temp\cc7oUGua.s 			page 163


 6394 0501 50       		.byte	0x50
 6395 0502 05       		.uleb128 0x5
 6396 0503 03       		.byte	0x3
 6397 0504 1C000000 		.4byte	.LC1
 6398 0508 00       		.byte	0
 6399 0509 17       		.uleb128 0x17
 6400 050a 20000000 		.4byte	.LVL6
 6401 050e 1C050000 		.4byte	0x51c
 6402 0512 18       		.uleb128 0x18
 6403 0513 01       		.uleb128 0x1
 6404 0514 50       		.byte	0x50
 6405 0515 05       		.uleb128 0x5
 6406 0516 03       		.byte	0x3
 6407 0517 38000000 		.4byte	.LC2
 6408 051b 00       		.byte	0
 6409 051c 17       		.uleb128 0x17
 6410 051d 2C000000 		.4byte	.LVL7
 6411 0521 2F050000 		.4byte	0x52f
 6412 0525 18       		.uleb128 0x18
 6413 0526 01       		.uleb128 0x1
 6414 0527 50       		.byte	0x50
 6415 0528 05       		.uleb128 0x5
 6416 0529 03       		.byte	0x3
 6417 052a 58000000 		.4byte	.LC3
 6418 052e 00       		.byte	0
 6419 052f 17       		.uleb128 0x17
 6420 0530 38000000 		.4byte	.LVL8
 6421 0534 42050000 		.4byte	0x542
 6422 0538 18       		.uleb128 0x18
 6423 0539 01       		.uleb128 0x1
 6424 053a 50       		.byte	0x50
 6425 053b 05       		.uleb128 0x5
 6426 053c 03       		.byte	0x3
 6427 053d 78000000 		.4byte	.LC4
 6428 0541 00       		.byte	0
 6429 0542 17       		.uleb128 0x17
 6430 0543 44000000 		.4byte	.LVL9
 6431 0547 55050000 		.4byte	0x555
 6432 054b 18       		.uleb128 0x18
 6433 054c 01       		.uleb128 0x1
 6434 054d 50       		.byte	0x50
 6435 054e 05       		.uleb128 0x5
 6436 054f 03       		.byte	0x3
 6437 0550 98000000 		.4byte	.LC5
 6438 0554 00       		.byte	0
 6439 0555 17       		.uleb128 0x17
 6440 0556 50000000 		.4byte	.LVL10
 6441 055a 68050000 		.4byte	0x568
 6442 055e 18       		.uleb128 0x18
 6443 055f 01       		.uleb128 0x1
 6444 0560 50       		.byte	0x50
 6445 0561 05       		.uleb128 0x5
 6446 0562 03       		.byte	0x3
 6447 0563 B8000000 		.4byte	.LC6
 6448 0567 00       		.byte	0
 6449 0568 17       		.uleb128 0x17
 6450 0569 5C000000 		.4byte	.LVL11
ARM GAS  C:\Users\CHRONI~1\AppData\Local\Temp\cc7oUGua.s 			page 164


 6451 056d 7B050000 		.4byte	0x57b
 6452 0571 18       		.uleb128 0x18
 6453 0572 01       		.uleb128 0x1
 6454 0573 50       		.byte	0x50
 6455 0574 05       		.uleb128 0x5
 6456 0575 03       		.byte	0x3
 6457 0576 D8000000 		.4byte	.LC7
 6458 057a 00       		.byte	0
 6459 057b 17       		.uleb128 0x17
 6460 057c 68000000 		.4byte	.LVL12
 6461 0580 8E050000 		.4byte	0x58e
 6462 0584 18       		.uleb128 0x18
 6463 0585 01       		.uleb128 0x1
 6464 0586 50       		.byte	0x50
 6465 0587 05       		.uleb128 0x5
 6466 0588 03       		.byte	0x3
 6467 0589 00010000 		.4byte	.LC8
 6468 058d 00       		.byte	0
 6469 058e 17       		.uleb128 0x17
 6470 058f 70000000 		.4byte	.LVL13
 6471 0593 A1050000 		.4byte	0x5a1
 6472 0597 18       		.uleb128 0x18
 6473 0598 01       		.uleb128 0x1
 6474 0599 50       		.byte	0x50
 6475 059a 05       		.uleb128 0x5
 6476 059b 03       		.byte	0x3
 6477 059c 20010000 		.4byte	.LC9
 6478 05a0 00       		.byte	0
 6479 05a1 17       		.uleb128 0x17
 6480 05a2 7C000000 		.4byte	.LVL15
 6481 05a6 B4050000 		.4byte	0x5b4
 6482 05aa 18       		.uleb128 0x18
 6483 05ab 01       		.uleb128 0x1
 6484 05ac 50       		.byte	0x50
 6485 05ad 05       		.uleb128 0x5
 6486 05ae 03       		.byte	0x3
 6487 05af 40010000 		.4byte	.LC10
 6488 05b3 00       		.byte	0
 6489 05b4 17       		.uleb128 0x17
 6490 05b5 86000000 		.4byte	.LVL16
 6491 05b9 C7050000 		.4byte	0x5c7
 6492 05bd 18       		.uleb128 0x18
 6493 05be 01       		.uleb128 0x1
 6494 05bf 50       		.byte	0x50
 6495 05c0 05       		.uleb128 0x5
 6496 05c1 03       		.byte	0x3
 6497 05c2 68010000 		.4byte	.LC11
 6498 05c6 00       		.byte	0
 6499 05c7 17       		.uleb128 0x17
 6500 05c8 8C000000 		.4byte	.LVL17
 6501 05cc DA050000 		.4byte	0x5da
 6502 05d0 18       		.uleb128 0x18
 6503 05d1 01       		.uleb128 0x1
 6504 05d2 50       		.byte	0x50
 6505 05d3 05       		.uleb128 0x5
 6506 05d4 03       		.byte	0x3
 6507 05d5 94010000 		.4byte	.LC12
ARM GAS  C:\Users\CHRONI~1\AppData\Local\Temp\cc7oUGua.s 			page 165


 6508 05d9 00       		.byte	0
 6509 05da 19       		.uleb128 0x19
 6510 05db 9A000000 		.4byte	.LVL18
 6511 05df 02       		.uleb128 0x2
 6512 05e0 75       		.byte	0x75
 6513 05e1 00       		.sleb128 0
 6514 05e2 FE050000 		.4byte	0x5fe
 6515 05e6 18       		.uleb128 0x18
 6516 05e7 01       		.uleb128 0x1
 6517 05e8 50       		.byte	0x50
 6518 05e9 02       		.uleb128 0x2
 6519 05ea 08       		.byte	0x8
 6520 05eb 57       		.byte	0x57
 6521 05ec 18       		.uleb128 0x18
 6522 05ed 01       		.uleb128 0x1
 6523 05ee 51       		.byte	0x51
 6524 05ef 02       		.uleb128 0x2
 6525 05f0 09       		.byte	0x9
 6526 05f1 FF       		.byte	0xff
 6527 05f2 18       		.uleb128 0x18
 6528 05f3 01       		.uleb128 0x1
 6529 05f4 52       		.byte	0x52
 6530 05f5 02       		.uleb128 0x2
 6531 05f6 91       		.byte	0x91
 6532 05f7 66       		.sleb128 -26
 6533 05f8 18       		.uleb128 0x18
 6534 05f9 01       		.uleb128 0x1
 6535 05fa 53       		.byte	0x53
 6536 05fb 01       		.uleb128 0x1
 6537 05fc 31       		.byte	0x31
 6538 05fd 00       		.byte	0
 6539 05fe 17       		.uleb128 0x17
 6540 05ff A2000000 		.4byte	.LVL20
 6541 0603 11060000 		.4byte	0x611
 6542 0607 18       		.uleb128 0x18
 6543 0608 01       		.uleb128 0x1
 6544 0609 50       		.byte	0x50
 6545 060a 05       		.uleb128 0x5
 6546 060b 03       		.byte	0x3
 6547 060c B4010000 		.4byte	.LC13
 6548 0610 00       		.byte	0
 6549 0611 17       		.uleb128 0x17
 6550 0612 B4000000 		.4byte	.LVL24
 6551 0616 24060000 		.4byte	0x624
 6552 061a 18       		.uleb128 0x18
 6553 061b 01       		.uleb128 0x1
 6554 061c 50       		.byte	0x50
 6555 061d 05       		.uleb128 0x5
 6556 061e 03       		.byte	0x3
 6557 061f D8010000 		.4byte	.LC14
 6558 0623 00       		.byte	0
 6559 0624 17       		.uleb128 0x17
 6560 0625 C2000000 		.4byte	.LVL25
 6561 0629 37060000 		.4byte	0x637
 6562 062d 18       		.uleb128 0x18
 6563 062e 01       		.uleb128 0x1
 6564 062f 50       		.byte	0x50
ARM GAS  C:\Users\CHRONI~1\AppData\Local\Temp\cc7oUGua.s 			page 166


 6565 0630 05       		.uleb128 0x5
 6566 0631 03       		.byte	0x3
 6567 0632 0C020000 		.4byte	.LC15
 6568 0636 00       		.byte	0
 6569 0637 17       		.uleb128 0x17
 6570 0638 D0000000 		.4byte	.LVL27
 6571 063c 4A060000 		.4byte	0x64a
 6572 0640 18       		.uleb128 0x18
 6573 0641 01       		.uleb128 0x1
 6574 0642 50       		.byte	0x50
 6575 0643 05       		.uleb128 0x5
 6576 0644 03       		.byte	0x3
 6577 0645 48020000 		.4byte	.LC16
 6578 0649 00       		.byte	0
 6579 064a 17       		.uleb128 0x17
 6580 064b D6000000 		.4byte	.LVL28
 6581 064f 5D060000 		.4byte	0x65d
 6582 0653 18       		.uleb128 0x18
 6583 0654 01       		.uleb128 0x1
 6584 0655 50       		.byte	0x50
 6585 0656 05       		.uleb128 0x5
 6586 0657 03       		.byte	0x3
 6587 0658 70020000 		.4byte	.LC17
 6588 065c 00       		.byte	0
 6589 065d 19       		.uleb128 0x19
 6590 065e E4000000 		.4byte	.LVL29
 6591 0662 02       		.uleb128 0x2
 6592 0663 75       		.byte	0x75
 6593 0664 00       		.sleb128 0
 6594 0665 80060000 		.4byte	0x680
 6595 0669 18       		.uleb128 0x18
 6596 066a 01       		.uleb128 0x1
 6597 066b 50       		.byte	0x50
 6598 066c 02       		.uleb128 0x2
 6599 066d 08       		.byte	0x8
 6600 066e 57       		.byte	0x57
 6601 066f 18       		.uleb128 0x18
 6602 0670 01       		.uleb128 0x1
 6603 0671 51       		.byte	0x51
 6604 0672 01       		.uleb128 0x1
 6605 0673 39       		.byte	0x39
 6606 0674 18       		.uleb128 0x18
 6607 0675 01       		.uleb128 0x1
 6608 0676 52       		.byte	0x52
 6609 0677 02       		.uleb128 0x2
 6610 0678 91       		.byte	0x91
 6611 0679 67       		.sleb128 -25
 6612 067a 18       		.uleb128 0x18
 6613 067b 01       		.uleb128 0x1
 6614 067c 53       		.byte	0x53
 6615 067d 01       		.uleb128 0x1
 6616 067e 31       		.byte	0x31
 6617 067f 00       		.byte	0
 6618 0680 17       		.uleb128 0x17
 6619 0681 EC000000 		.4byte	.LVL31
 6620 0685 93060000 		.4byte	0x693
 6621 0689 18       		.uleb128 0x18
ARM GAS  C:\Users\CHRONI~1\AppData\Local\Temp\cc7oUGua.s 			page 167


 6622 068a 01       		.uleb128 0x1
 6623 068b 50       		.byte	0x50
 6624 068c 05       		.uleb128 0x5
 6625 068d 03       		.byte	0x3
 6626 068e 94020000 		.4byte	.LC18
 6627 0692 00       		.byte	0
 6628 0693 17       		.uleb128 0x17
 6629 0694 FE000000 		.4byte	.LVL35
 6630 0698 A6060000 		.4byte	0x6a6
 6631 069c 18       		.uleb128 0x18
 6632 069d 01       		.uleb128 0x1
 6633 069e 50       		.byte	0x50
 6634 069f 05       		.uleb128 0x5
 6635 06a0 03       		.byte	0x3
 6636 06a1 BC020000 		.4byte	.LC19
 6637 06a5 00       		.byte	0
 6638 06a6 17       		.uleb128 0x17
 6639 06a7 16010000 		.4byte	.LVL36
 6640 06ab B9060000 		.4byte	0x6b9
 6641 06af 18       		.uleb128 0x18
 6642 06b0 01       		.uleb128 0x1
 6643 06b1 50       		.byte	0x50
 6644 06b2 05       		.uleb128 0x5
 6645 06b3 03       		.byte	0x3
 6646 06b4 F4020000 		.4byte	.LC20
 6647 06b8 00       		.byte	0
 6648 06b9 19       		.uleb128 0x19
 6649 06ba 22010000 		.4byte	.LVL37
 6650 06be 02       		.uleb128 0x2
 6651 06bf 76       		.byte	0x76
 6652 06c0 00       		.sleb128 0
 6653 06c1 DC060000 		.4byte	0x6dc
 6654 06c5 18       		.uleb128 0x18
 6655 06c6 01       		.uleb128 0x1
 6656 06c7 50       		.byte	0x50
 6657 06c8 02       		.uleb128 0x2
 6658 06c9 08       		.byte	0x8
 6659 06ca 57       		.byte	0x57
 6660 06cb 18       		.uleb128 0x18
 6661 06cc 01       		.uleb128 0x1
 6662 06cd 51       		.byte	0x51
 6663 06ce 01       		.uleb128 0x1
 6664 06cf 39       		.byte	0x39
 6665 06d0 18       		.uleb128 0x18
 6666 06d1 01       		.uleb128 0x1
 6667 06d2 52       		.byte	0x52
 6668 06d3 02       		.uleb128 0x2
 6669 06d4 75       		.byte	0x75
 6670 06d5 00       		.sleb128 0
 6671 06d6 18       		.uleb128 0x18
 6672 06d7 01       		.uleb128 0x1
 6673 06d8 53       		.byte	0x53
 6674 06d9 01       		.uleb128 0x1
 6675 06da 31       		.byte	0x31
 6676 06db 00       		.byte	0
 6677 06dc 17       		.uleb128 0x17
 6678 06dd 2A010000 		.4byte	.LVL39
ARM GAS  C:\Users\CHRONI~1\AppData\Local\Temp\cc7oUGua.s 			page 168


 6679 06e1 EF060000 		.4byte	0x6ef
 6680 06e5 18       		.uleb128 0x18
 6681 06e6 01       		.uleb128 0x1
 6682 06e7 50       		.byte	0x50
 6683 06e8 05       		.uleb128 0x5
 6684 06e9 03       		.byte	0x3
 6685 06ea 30030000 		.4byte	.LC21
 6686 06ee 00       		.byte	0
 6687 06ef 17       		.uleb128 0x17
 6688 06f0 38010000 		.4byte	.LVL43
 6689 06f4 02070000 		.4byte	0x702
 6690 06f8 18       		.uleb128 0x18
 6691 06f9 01       		.uleb128 0x1
 6692 06fa 50       		.byte	0x50
 6693 06fb 05       		.uleb128 0x5
 6694 06fc 03       		.byte	0x3
 6695 06fd 58030000 		.4byte	.LC22
 6696 0701 00       		.byte	0
 6697 0702 17       		.uleb128 0x17
 6698 0703 3E010000 		.4byte	.LVL44
 6699 0707 11070000 		.4byte	0x711
 6700 070b 18       		.uleb128 0x18
 6701 070c 01       		.uleb128 0x1
 6702 070d 50       		.byte	0x50
 6703 070e 01       		.uleb128 0x1
 6704 070f 3A       		.byte	0x3a
 6705 0710 00       		.byte	0
 6706 0711 17       		.uleb128 0x17
 6707 0712 44010000 		.4byte	.LVL45
 6708 0716 24070000 		.4byte	0x724
 6709 071a 18       		.uleb128 0x18
 6710 071b 01       		.uleb128 0x1
 6711 071c 50       		.byte	0x50
 6712 071d 05       		.uleb128 0x5
 6713 071e 03       		.byte	0x3
 6714 071f 9C030000 		.4byte	.LC23
 6715 0723 00       		.byte	0
 6716 0724 17       		.uleb128 0x17
 6717 0725 4A010000 		.4byte	.LVL46
 6718 0729 37070000 		.4byte	0x737
 6719 072d 18       		.uleb128 0x18
 6720 072e 01       		.uleb128 0x1
 6721 072f 50       		.byte	0x50
 6722 0730 05       		.uleb128 0x5
 6723 0731 03       		.byte	0x3
 6724 0732 CC030000 		.4byte	.LC24
 6725 0736 00       		.byte	0
 6726 0737 19       		.uleb128 0x19
 6727 0738 58010000 		.4byte	.LVL47
 6728 073c 02       		.uleb128 0x2
 6729 073d 75       		.byte	0x75
 6730 073e 00       		.sleb128 0
 6731 073f 5A070000 		.4byte	0x75a
 6732 0743 18       		.uleb128 0x18
 6733 0744 01       		.uleb128 0x1
 6734 0745 50       		.byte	0x50
 6735 0746 02       		.uleb128 0x2
ARM GAS  C:\Users\CHRONI~1\AppData\Local\Temp\cc7oUGua.s 			page 169


 6736 0747 08       		.byte	0x8
 6737 0748 57       		.byte	0x57
 6738 0749 18       		.uleb128 0x18
 6739 074a 01       		.uleb128 0x1
 6740 074b 51       		.byte	0x51
 6741 074c 01       		.uleb128 0x1
 6742 074d 39       		.byte	0x39
 6743 074e 18       		.uleb128 0x18
 6744 074f 01       		.uleb128 0x1
 6745 0750 52       		.byte	0x52
 6746 0751 02       		.uleb128 0x2
 6747 0752 91       		.byte	0x91
 6748 0753 67       		.sleb128 -25
 6749 0754 18       		.uleb128 0x18
 6750 0755 01       		.uleb128 0x1
 6751 0756 53       		.byte	0x53
 6752 0757 01       		.uleb128 0x1
 6753 0758 31       		.byte	0x31
 6754 0759 00       		.byte	0
 6755 075a 17       		.uleb128 0x17
 6756 075b 60010000 		.4byte	.LVL49
 6757 075f 6D070000 		.4byte	0x76d
 6758 0763 18       		.uleb128 0x18
 6759 0764 01       		.uleb128 0x1
 6760 0765 50       		.byte	0x50
 6761 0766 05       		.uleb128 0x5
 6762 0767 03       		.byte	0x3
 6763 0768 08040000 		.4byte	.LC25
 6764 076c 00       		.byte	0
 6765 076d 17       		.uleb128 0x17
 6766 076e 72010000 		.4byte	.LVL53
 6767 0772 80070000 		.4byte	0x780
 6768 0776 18       		.uleb128 0x18
 6769 0777 01       		.uleb128 0x1
 6770 0778 50       		.byte	0x50
 6771 0779 05       		.uleb128 0x5
 6772 077a 03       		.byte	0x3
 6773 077b 3C040000 		.4byte	.LC26
 6774 077f 00       		.byte	0
 6775 0780 17       		.uleb128 0x17
 6776 0781 86010000 		.4byte	.LVL54
 6777 0785 93070000 		.4byte	0x793
 6778 0789 18       		.uleb128 0x18
 6779 078a 01       		.uleb128 0x1
 6780 078b 50       		.byte	0x50
 6781 078c 05       		.uleb128 0x5
 6782 078d 03       		.byte	0x3
 6783 078e 68040000 		.4byte	.LC27
 6784 0792 00       		.byte	0
 6785 0793 17       		.uleb128 0x17
 6786 0794 94010000 		.4byte	.LVL56
 6787 0798 A6070000 		.4byte	0x7a6
 6788 079c 18       		.uleb128 0x18
 6789 079d 01       		.uleb128 0x1
 6790 079e 50       		.byte	0x50
 6791 079f 05       		.uleb128 0x5
 6792 07a0 03       		.byte	0x3
ARM GAS  C:\Users\CHRONI~1\AppData\Local\Temp\cc7oUGua.s 			page 170


 6793 07a1 98040000 		.4byte	.LC28
 6794 07a5 00       		.byte	0
 6795 07a6 17       		.uleb128 0x17
 6796 07a7 A2010000 		.4byte	.LVL57
 6797 07ab B9070000 		.4byte	0x7b9
 6798 07af 18       		.uleb128 0x18
 6799 07b0 01       		.uleb128 0x1
 6800 07b1 50       		.byte	0x50
 6801 07b2 05       		.uleb128 0x5
 6802 07b3 03       		.byte	0x3
 6803 07b4 C4040000 		.4byte	.LC29
 6804 07b8 00       		.byte	0
 6805 07b9 19       		.uleb128 0x19
 6806 07ba AE010000 		.4byte	.LVL58
 6807 07be 02       		.uleb128 0x2
 6808 07bf 77       		.byte	0x77
 6809 07c0 00       		.sleb128 0
 6810 07c1 DC070000 		.4byte	0x7dc
 6811 07c5 18       		.uleb128 0x18
 6812 07c6 01       		.uleb128 0x1
 6813 07c7 50       		.byte	0x50
 6814 07c8 02       		.uleb128 0x2
 6815 07c9 08       		.byte	0x8
 6816 07ca 57       		.byte	0x57
 6817 07cb 18       		.uleb128 0x18
 6818 07cc 01       		.uleb128 0x1
 6819 07cd 51       		.byte	0x51
 6820 07ce 01       		.uleb128 0x1
 6821 07cf 36       		.byte	0x36
 6822 07d0 18       		.uleb128 0x18
 6823 07d1 01       		.uleb128 0x1
 6824 07d2 52       		.byte	0x52
 6825 07d3 02       		.uleb128 0x2
 6826 07d4 76       		.byte	0x76
 6827 07d5 00       		.sleb128 0
 6828 07d6 18       		.uleb128 0x18
 6829 07d7 01       		.uleb128 0x1
 6830 07d8 53       		.byte	0x53
 6831 07d9 01       		.uleb128 0x1
 6832 07da 31       		.byte	0x31
 6833 07db 00       		.byte	0
 6834 07dc 17       		.uleb128 0x17
 6835 07dd B6010000 		.4byte	.LVL60
 6836 07e1 EF070000 		.4byte	0x7ef
 6837 07e5 18       		.uleb128 0x18
 6838 07e6 01       		.uleb128 0x1
 6839 07e7 50       		.byte	0x50
 6840 07e8 05       		.uleb128 0x5
 6841 07e9 03       		.byte	0x3
 6842 07ea EC040000 		.4byte	.LC30
 6843 07ee 00       		.byte	0
 6844 07ef 17       		.uleb128 0x17
 6845 07f0 C4010000 		.4byte	.LVL64
 6846 07f4 02080000 		.4byte	0x802
 6847 07f8 18       		.uleb128 0x18
 6848 07f9 01       		.uleb128 0x1
 6849 07fa 50       		.byte	0x50
ARM GAS  C:\Users\CHRONI~1\AppData\Local\Temp\cc7oUGua.s 			page 171


 6850 07fb 05       		.uleb128 0x5
 6851 07fc 03       		.byte	0x3
 6852 07fd 1C050000 		.4byte	.LC31
 6853 0801 00       		.byte	0
 6854 0802 19       		.uleb128 0x19
 6855 0803 D2010000 		.4byte	.LVL65
 6856 0807 02       		.uleb128 0x2
 6857 0808 76       		.byte	0x76
 6858 0809 00       		.sleb128 0
 6859 080a 25080000 		.4byte	0x825
 6860 080e 18       		.uleb128 0x18
 6861 080f 01       		.uleb128 0x1
 6862 0810 50       		.byte	0x50
 6863 0811 02       		.uleb128 0x2
 6864 0812 08       		.byte	0x8
 6865 0813 57       		.byte	0x57
 6866 0814 18       		.uleb128 0x18
 6867 0815 01       		.uleb128 0x1
 6868 0816 51       		.byte	0x51
 6869 0817 01       		.uleb128 0x1
 6870 0818 34       		.byte	0x34
 6871 0819 18       		.uleb128 0x18
 6872 081a 01       		.uleb128 0x1
 6873 081b 52       		.byte	0x52
 6874 081c 02       		.uleb128 0x2
 6875 081d 91       		.byte	0x91
 6876 081e 67       		.sleb128 -25
 6877 081f 18       		.uleb128 0x18
 6878 0820 01       		.uleb128 0x1
 6879 0821 53       		.byte	0x53
 6880 0822 01       		.uleb128 0x1
 6881 0823 31       		.byte	0x31
 6882 0824 00       		.byte	0
 6883 0825 17       		.uleb128 0x17
 6884 0826 DA010000 		.4byte	.LVL67
 6885 082a 38080000 		.4byte	0x838
 6886 082e 18       		.uleb128 0x18
 6887 082f 01       		.uleb128 0x1
 6888 0830 50       		.byte	0x50
 6889 0831 05       		.uleb128 0x5
 6890 0832 03       		.byte	0x3
 6891 0833 44050000 		.4byte	.LC32
 6892 0837 00       		.byte	0
 6893 0838 17       		.uleb128 0x17
 6894 0839 E8010000 		.4byte	.LVL71
 6895 083d 4B080000 		.4byte	0x84b
 6896 0841 18       		.uleb128 0x18
 6897 0842 01       		.uleb128 0x1
 6898 0843 50       		.byte	0x50
 6899 0844 05       		.uleb128 0x5
 6900 0845 03       		.byte	0x3
 6901 0846 74050000 		.4byte	.LC33
 6902 084a 00       		.byte	0
 6903 084b 19       		.uleb128 0x19
 6904 084c F6010000 		.4byte	.LVL72
 6905 0850 02       		.uleb128 0x2
 6906 0851 76       		.byte	0x76
ARM GAS  C:\Users\CHRONI~1\AppData\Local\Temp\cc7oUGua.s 			page 172


 6907 0852 00       		.sleb128 0
 6908 0853 6E080000 		.4byte	0x86e
 6909 0857 18       		.uleb128 0x18
 6910 0858 01       		.uleb128 0x1
 6911 0859 50       		.byte	0x50
 6912 085a 02       		.uleb128 0x2
 6913 085b 08       		.byte	0x8
 6914 085c 57       		.byte	0x57
 6915 085d 18       		.uleb128 0x18
 6916 085e 01       		.uleb128 0x1
 6917 085f 51       		.byte	0x51
 6918 0860 01       		.uleb128 0x1
 6919 0861 35       		.byte	0x35
 6920 0862 18       		.uleb128 0x18
 6921 0863 01       		.uleb128 0x1
 6922 0864 52       		.byte	0x52
 6923 0865 02       		.uleb128 0x2
 6924 0866 91       		.byte	0x91
 6925 0867 67       		.sleb128 -25
 6926 0868 18       		.uleb128 0x18
 6927 0869 01       		.uleb128 0x1
 6928 086a 53       		.byte	0x53
 6929 086b 01       		.uleb128 0x1
 6930 086c 31       		.byte	0x31
 6931 086d 00       		.byte	0
 6932 086e 17       		.uleb128 0x17
 6933 086f FE010000 		.4byte	.LVL74
 6934 0873 81080000 		.4byte	0x881
 6935 0877 18       		.uleb128 0x18
 6936 0878 01       		.uleb128 0x1
 6937 0879 50       		.byte	0x50
 6938 087a 05       		.uleb128 0x5
 6939 087b 03       		.byte	0x3
 6940 087c 9C050000 		.4byte	.LC34
 6941 0880 00       		.byte	0
 6942 0881 17       		.uleb128 0x17
 6943 0882 0C020000 		.4byte	.LVL78
 6944 0886 94080000 		.4byte	0x894
 6945 088a 18       		.uleb128 0x18
 6946 088b 01       		.uleb128 0x1
 6947 088c 50       		.byte	0x50
 6948 088d 05       		.uleb128 0x5
 6949 088e 03       		.byte	0x3
 6950 088f CC050000 		.4byte	.LC35
 6951 0893 00       		.byte	0
 6952 0894 1A       		.uleb128 0x1a
 6953 0895 16020000 		.4byte	.LVL79
 6954 0899 18       		.uleb128 0x18
 6955 089a 01       		.uleb128 0x1
 6956 089b 50       		.byte	0x50
 6957 089c 05       		.uleb128 0x5
 6958 089d 03       		.byte	0x3
 6959 089e F4050000 		.4byte	.LC36
 6960 08a2 00       		.byte	0
 6961 08a3 00       		.byte	0
 6962 08a4 05       		.uleb128 0x5
 6963 08a5 04       		.byte	0x4
ARM GAS  C:\Users\CHRONI~1\AppData\Local\Temp\cc7oUGua.s 			page 173


 6964 08a6 F1030000 		.4byte	0x3f1
 6965 08aa 13       		.uleb128 0x13
 6966 08ab 9C0B0000 		.4byte	.LASF98
 6967 08af 01       		.byte	0x1
 6968 08b0 F7       		.byte	0xf7
 6969 08b1 BC000000 		.4byte	0xbc
 6970 08b5 00000000 		.4byte	.LFB2
 6971 08b9 80000000 		.4byte	.LFE2-.LFB2
 6972 08bd 01       		.uleb128 0x1
 6973 08be 9C       		.byte	0x9c
 6974 08bf 6B090000 		.4byte	0x96b
 6975 08c3 14       		.uleb128 0x14
 6976 08c4 4E0D0000 		.4byte	.LASF99
 6977 08c8 01       		.byte	0x1
 6978 08c9 F7       		.byte	0xf7
 6979 08ca A4080000 		.4byte	0x8a4
 6980 08ce E4000000 		.4byte	.LLST2
 6981 08d2 15       		.uleb128 0x15
 6982 08d3 72657300 		.ascii	"res\000"
 6983 08d7 01       		.byte	0x1
 6984 08d8 F9       		.byte	0xf9
 6985 08d9 BC000000 		.4byte	0xbc
 6986 08dd 34010000 		.4byte	.LLST3
 6987 08e1 16       		.uleb128 0x16
 6988 08e2 43020000 		.4byte	.LASF95
 6989 08e6 01       		.byte	0x1
 6990 08e7 FA       		.byte	0xfa
 6991 08e8 BC000000 		.4byte	0xbc
 6992 08ec 02       		.uleb128 0x2
 6993 08ed 91       		.byte	0x91
 6994 08ee 6F       		.sleb128 -17
 6995 08ef 19       		.uleb128 0x19
 6996 08f0 1E000000 		.4byte	.LVL83
 6997 08f4 02       		.uleb128 0x2
 6998 08f5 76       		.byte	0x76
 6999 08f6 00       		.sleb128 0
 7000 08f7 12090000 		.4byte	0x912
 7001 08fb 18       		.uleb128 0x18
 7002 08fc 01       		.uleb128 0x1
 7003 08fd 50       		.byte	0x50
 7004 08fe 02       		.uleb128 0x2
 7005 08ff 08       		.byte	0x8
 7006 0900 57       		.byte	0x57
 7007 0901 18       		.uleb128 0x18
 7008 0902 01       		.uleb128 0x1
 7009 0903 51       		.byte	0x51
 7010 0904 01       		.uleb128 0x1
 7011 0905 39       		.byte	0x39
 7012 0906 18       		.uleb128 0x18
 7013 0907 01       		.uleb128 0x1
 7014 0908 52       		.byte	0x52
 7015 0909 02       		.uleb128 0x2
 7016 090a 91       		.byte	0x91
 7017 090b 6F       		.sleb128 -17
 7018 090c 18       		.uleb128 0x18
 7019 090d 01       		.uleb128 0x1
 7020 090e 53       		.byte	0x53
ARM GAS  C:\Users\CHRONI~1\AppData\Local\Temp\cc7oUGua.s 			page 174


 7021 090f 01       		.uleb128 0x1
 7022 0910 31       		.byte	0x31
 7023 0911 00       		.byte	0
 7024 0912 17       		.uleb128 0x17
 7025 0913 26000000 		.4byte	.LVL85
 7026 0917 25090000 		.4byte	0x925
 7027 091b 18       		.uleb128 0x18
 7028 091c 01       		.uleb128 0x1
 7029 091d 50       		.byte	0x50
 7030 091e 05       		.uleb128 0x5
 7031 091f 03       		.byte	0x3
 7032 0920 20060000 		.4byte	.LC37
 7033 0924 00       		.byte	0
 7034 0925 19       		.uleb128 0x19
 7035 0926 42000000 		.4byte	.LVL88
 7036 092a 02       		.uleb128 0x2
 7037 092b 76       		.byte	0x76
 7038 092c 00       		.sleb128 0
 7039 092d 48090000 		.4byte	0x948
 7040 0931 18       		.uleb128 0x18
 7041 0932 01       		.uleb128 0x1
 7042 0933 50       		.byte	0x50
 7043 0934 02       		.uleb128 0x2
 7044 0935 08       		.byte	0x8
 7045 0936 57       		.byte	0x57
 7046 0937 18       		.uleb128 0x18
 7047 0938 01       		.uleb128 0x1
 7048 0939 51       		.byte	0x51
 7049 093a 01       		.uleb128 0x1
 7050 093b 39       		.byte	0x39
 7051 093c 18       		.uleb128 0x18
 7052 093d 01       		.uleb128 0x1
 7053 093e 52       		.byte	0x52
 7054 093f 02       		.uleb128 0x2
 7055 0940 91       		.byte	0x91
 7056 0941 6F       		.sleb128 -17
 7057 0942 18       		.uleb128 0x18
 7058 0943 01       		.uleb128 0x1
 7059 0944 53       		.byte	0x53
 7060 0945 01       		.uleb128 0x1
 7061 0946 31       		.byte	0x31
 7062 0947 00       		.byte	0
 7063 0948 17       		.uleb128 0x17
 7064 0949 4A000000 		.4byte	.LVL90
 7065 094d 5B090000 		.4byte	0x95b
 7066 0951 18       		.uleb128 0x18
 7067 0952 01       		.uleb128 0x1
 7068 0953 50       		.byte	0x50
 7069 0954 05       		.uleb128 0x5
 7070 0955 03       		.byte	0x3
 7071 0956 44060000 		.4byte	.LC38
 7072 095a 00       		.byte	0
 7073 095b 1A       		.uleb128 0x1a
 7074 095c 5C000000 		.4byte	.LVL93
 7075 0960 18       		.uleb128 0x18
 7076 0961 01       		.uleb128 0x1
 7077 0962 50       		.byte	0x50
ARM GAS  C:\Users\CHRONI~1\AppData\Local\Temp\cc7oUGua.s 			page 175


 7078 0963 05       		.uleb128 0x5
 7079 0964 03       		.byte	0x3
 7080 0965 6C060000 		.4byte	.LC39
 7081 0969 00       		.byte	0
 7082 096a 00       		.byte	0
 7083 096b 1B       		.uleb128 0x1b
 7084 096c 030A0000 		.4byte	.LASF100
 7085 0970 01       		.byte	0x1
 7086 0971 2B01     		.2byte	0x12b
 7087 0973 BC000000 		.4byte	0xbc
 7088 0977 00000000 		.4byte	.LFB3
 7089 097b 30010000 		.4byte	.LFE3-.LFB3
 7090 097f 01       		.uleb128 0x1
 7091 0980 9C       		.byte	0x9c
 7092 0981 EA0A0000 		.4byte	0xaea
 7093 0985 1C       		.uleb128 0x1c
 7094 0986 4E0D0000 		.4byte	.LASF99
 7095 098a 01       		.byte	0x1
 7096 098b 2B01     		.2byte	0x12b
 7097 098d A4080000 		.4byte	0x8a4
 7098 0991 68010000 		.4byte	.LLST4
 7099 0995 1D       		.uleb128 0x1d
 7100 0996 72657300 		.ascii	"res\000"
 7101 099a 01       		.byte	0x1
 7102 099b 2D01     		.2byte	0x12d
 7103 099d BC000000 		.4byte	0xbc
 7104 09a1 B8010000 		.4byte	.LLST5
 7105 09a5 1E       		.uleb128 0x1e
 7106 09a6 43020000 		.4byte	.LASF95
 7107 09aa 01       		.byte	0x1
 7108 09ab 2E01     		.2byte	0x12e
 7109 09ad BC000000 		.4byte	0xbc
 7110 09b1 02       		.uleb128 0x2
 7111 09b2 91       		.byte	0x91
 7112 09b3 6F       		.sleb128 -17
 7113 09b4 1F       		.uleb128 0x1f
 7114 09b5 00000000 		.4byte	.Ldebug_ranges0+0
 7115 09b9 450A0000 		.4byte	0xa45
 7116 09bd 1E       		.uleb128 0x1e
 7117 09be 7D070000 		.4byte	.LASF101
 7118 09c2 01       		.byte	0x1
 7119 09c3 6501     		.2byte	0x165
 7120 09c5 BC000000 		.4byte	0xbc
 7121 09c9 02       		.uleb128 0x2
 7122 09ca 91       		.byte	0x91
 7123 09cb 6E       		.sleb128 -18
 7124 09cc 19       		.uleb128 0x19
 7125 09cd AC000000 		.4byte	.LVL114
 7126 09d1 02       		.uleb128 0x2
 7127 09d2 76       		.byte	0x76
 7128 09d3 00       		.sleb128 0
 7129 09d4 EF090000 		.4byte	0x9ef
 7130 09d8 18       		.uleb128 0x18
 7131 09d9 01       		.uleb128 0x1
 7132 09da 50       		.byte	0x50
 7133 09db 02       		.uleb128 0x2
 7134 09dc 08       		.byte	0x8
ARM GAS  C:\Users\CHRONI~1\AppData\Local\Temp\cc7oUGua.s 			page 176


 7135 09dd 57       		.byte	0x57
 7136 09de 18       		.uleb128 0x18
 7137 09df 01       		.uleb128 0x1
 7138 09e0 51       		.byte	0x51
 7139 09e1 01       		.uleb128 0x1
 7140 09e2 4F       		.byte	0x4f
 7141 09e3 18       		.uleb128 0x18
 7142 09e4 01       		.uleb128 0x1
 7143 09e5 52       		.byte	0x52
 7144 09e6 02       		.uleb128 0x2
 7145 09e7 91       		.byte	0x91
 7146 09e8 6F       		.sleb128 -17
 7147 09e9 18       		.uleb128 0x18
 7148 09ea 01       		.uleb128 0x1
 7149 09eb 53       		.byte	0x53
 7150 09ec 01       		.uleb128 0x1
 7151 09ed 31       		.byte	0x31
 7152 09ee 00       		.byte	0
 7153 09ef 17       		.uleb128 0x17
 7154 09f0 B4000000 		.4byte	.LVL116
 7155 09f4 020A0000 		.4byte	0xa02
 7156 09f8 18       		.uleb128 0x18
 7157 09f9 01       		.uleb128 0x1
 7158 09fa 50       		.byte	0x50
 7159 09fb 05       		.uleb128 0x5
 7160 09fc 03       		.byte	0x3
 7161 09fd E4060000 		.4byte	.LC42
 7162 0a01 00       		.byte	0
 7163 0a02 19       		.uleb128 0x19
 7164 0a03 CC000000 		.4byte	.LVL119
 7165 0a07 02       		.uleb128 0x2
 7166 0a08 76       		.byte	0x76
 7167 0a09 00       		.sleb128 0
 7168 0a0a 260A0000 		.4byte	0xa26
 7169 0a0e 18       		.uleb128 0x18
 7170 0a0f 01       		.uleb128 0x1
 7171 0a10 50       		.byte	0x50
 7172 0a11 02       		.uleb128 0x2
 7173 0a12 08       		.byte	0x8
 7174 0a13 57       		.byte	0x57
 7175 0a14 18       		.uleb128 0x18
 7176 0a15 01       		.uleb128 0x1
 7177 0a16 51       		.byte	0x51
 7178 0a17 02       		.uleb128 0x2
 7179 0a18 08       		.byte	0x8
 7180 0a19 20       		.byte	0x20
 7181 0a1a 18       		.uleb128 0x18
 7182 0a1b 01       		.uleb128 0x1
 7183 0a1c 52       		.byte	0x52
 7184 0a1d 02       		.uleb128 0x2
 7185 0a1e 91       		.byte	0x91
 7186 0a1f 6E       		.sleb128 -18
 7187 0a20 18       		.uleb128 0x18
 7188 0a21 01       		.uleb128 0x1
 7189 0a22 53       		.byte	0x53
 7190 0a23 01       		.uleb128 0x1
 7191 0a24 31       		.byte	0x31
ARM GAS  C:\Users\CHRONI~1\AppData\Local\Temp\cc7oUGua.s 			page 177


 7192 0a25 00       		.byte	0
 7193 0a26 17       		.uleb128 0x17
 7194 0a27 D4000000 		.4byte	.LVL121
 7195 0a2b 390A0000 		.4byte	0xa39
 7196 0a2f 18       		.uleb128 0x18
 7197 0a30 01       		.uleb128 0x1
 7198 0a31 50       		.byte	0x50
 7199 0a32 05       		.uleb128 0x5
 7200 0a33 03       		.byte	0x3
 7201 0a34 10070000 		.4byte	.LC43
 7202 0a38 00       		.byte	0
 7203 0a39 1A       		.uleb128 0x1a
 7204 0a3a 0E010000 		.4byte	.LVL128
 7205 0a3e 18       		.uleb128 0x18
 7206 0a3f 01       		.uleb128 0x1
 7207 0a40 50       		.byte	0x50
 7208 0a41 01       		.uleb128 0x1
 7209 0a42 31       		.byte	0x31
 7210 0a43 00       		.byte	0
 7211 0a44 00       		.byte	0
 7212 0a45 19       		.uleb128 0x19
 7213 0a46 22000000 		.4byte	.LVL100
 7214 0a4a 02       		.uleb128 0x2
 7215 0a4b 76       		.byte	0x76
 7216 0a4c 00       		.sleb128 0
 7217 0a4d 680A0000 		.4byte	0xa68
 7218 0a51 18       		.uleb128 0x18
 7219 0a52 01       		.uleb128 0x1
 7220 0a53 50       		.byte	0x50
 7221 0a54 02       		.uleb128 0x2
 7222 0a55 08       		.byte	0x8
 7223 0a56 57       		.byte	0x57
 7224 0a57 18       		.uleb128 0x18
 7225 0a58 01       		.uleb128 0x1
 7226 0a59 51       		.byte	0x51
 7227 0a5a 01       		.uleb128 0x1
 7228 0a5b 30       		.byte	0x30
 7229 0a5c 18       		.uleb128 0x18
 7230 0a5d 01       		.uleb128 0x1
 7231 0a5e 52       		.byte	0x52
 7232 0a5f 02       		.uleb128 0x2
 7233 0a60 91       		.byte	0x91
 7234 0a61 6F       		.sleb128 -17
 7235 0a62 18       		.uleb128 0x18
 7236 0a63 01       		.uleb128 0x1
 7237 0a64 53       		.byte	0x53
 7238 0a65 01       		.uleb128 0x1
 7239 0a66 31       		.byte	0x31
 7240 0a67 00       		.byte	0
 7241 0a68 17       		.uleb128 0x17
 7242 0a69 2A000000 		.4byte	.LVL102
 7243 0a6d 7B0A0000 		.4byte	0xa7b
 7244 0a71 18       		.uleb128 0x18
 7245 0a72 01       		.uleb128 0x1
 7246 0a73 50       		.byte	0x50
 7247 0a74 05       		.uleb128 0x5
 7248 0a75 03       		.byte	0x3
ARM GAS  C:\Users\CHRONI~1\AppData\Local\Temp\cc7oUGua.s 			page 178


 7249 0a76 8C060000 		.4byte	.LC40
 7250 0a7a 00       		.byte	0
 7251 0a7b 17       		.uleb128 0x17
 7252 0a7c 3E000000 		.4byte	.LVL105
 7253 0a80 8A0A0000 		.4byte	0xa8a
 7254 0a84 18       		.uleb128 0x18
 7255 0a85 01       		.uleb128 0x1
 7256 0a86 50       		.byte	0x50
 7257 0a87 01       		.uleb128 0x1
 7258 0a88 37       		.byte	0x37
 7259 0a89 00       		.byte	0
 7260 0a8a 17       		.uleb128 0x17
 7261 0a8b 50000000 		.4byte	.LVL106
 7262 0a8f 990A0000 		.4byte	0xa99
 7263 0a93 18       		.uleb128 0x18
 7264 0a94 01       		.uleb128 0x1
 7265 0a95 50       		.byte	0x50
 7266 0a96 01       		.uleb128 0x1
 7267 0a97 36       		.byte	0x36
 7268 0a98 00       		.byte	0
 7269 0a99 17       		.uleb128 0x17
 7270 0a9a 62000000 		.4byte	.LVL107
 7271 0a9e A80A0000 		.4byte	0xaa8
 7272 0aa2 18       		.uleb128 0x18
 7273 0aa3 01       		.uleb128 0x1
 7274 0aa4 50       		.byte	0x50
 7275 0aa5 01       		.uleb128 0x1
 7276 0aa6 35       		.byte	0x35
 7277 0aa7 00       		.byte	0
 7278 0aa8 17       		.uleb128 0x17
 7279 0aa9 74000000 		.4byte	.LVL108
 7280 0aad B70A0000 		.4byte	0xab7
 7281 0ab1 18       		.uleb128 0x18
 7282 0ab2 01       		.uleb128 0x1
 7283 0ab3 50       		.byte	0x50
 7284 0ab4 01       		.uleb128 0x1
 7285 0ab5 30       		.byte	0x30
 7286 0ab6 00       		.byte	0
 7287 0ab7 19       		.uleb128 0x19
 7288 0ab8 82000000 		.4byte	.LVL109
 7289 0abc 02       		.uleb128 0x2
 7290 0abd 76       		.byte	0x76
 7291 0abe 00       		.sleb128 0
 7292 0abf DA0A0000 		.4byte	0xada
 7293 0ac3 18       		.uleb128 0x18
 7294 0ac4 01       		.uleb128 0x1
 7295 0ac5 50       		.byte	0x50
 7296 0ac6 02       		.uleb128 0x2
 7297 0ac7 08       		.byte	0x8
 7298 0ac8 57       		.byte	0x57
 7299 0ac9 18       		.uleb128 0x18
 7300 0aca 01       		.uleb128 0x1
 7301 0acb 51       		.byte	0x51
 7302 0acc 01       		.uleb128 0x1
 7303 0acd 31       		.byte	0x31
 7304 0ace 18       		.uleb128 0x18
 7305 0acf 01       		.uleb128 0x1
ARM GAS  C:\Users\CHRONI~1\AppData\Local\Temp\cc7oUGua.s 			page 179


 7306 0ad0 52       		.byte	0x52
 7307 0ad1 02       		.uleb128 0x2
 7308 0ad2 91       		.byte	0x91
 7309 0ad3 6F       		.sleb128 -17
 7310 0ad4 18       		.uleb128 0x18
 7311 0ad5 01       		.uleb128 0x1
 7312 0ad6 53       		.byte	0x53
 7313 0ad7 01       		.uleb128 0x1
 7314 0ad8 31       		.byte	0x31
 7315 0ad9 00       		.byte	0
 7316 0ada 1A       		.uleb128 0x1a
 7317 0adb 8A000000 		.4byte	.LVL111
 7318 0adf 18       		.uleb128 0x18
 7319 0ae0 01       		.uleb128 0x1
 7320 0ae1 50       		.byte	0x50
 7321 0ae2 05       		.uleb128 0x5
 7322 0ae3 03       		.byte	0x3
 7323 0ae4 B8060000 		.4byte	.LC41
 7324 0ae8 00       		.byte	0
 7325 0ae9 00       		.byte	0
 7326 0aea 20       		.uleb128 0x20
 7327 0aeb 88060000 		.4byte	.LASF102
 7328 0aef 01       		.byte	0x1
 7329 0af0 9201     		.2byte	0x192
 7330 0af2 BC000000 		.4byte	0xbc
 7331 0af6 00000000 		.4byte	.LFB4
 7332 0afa F8010000 		.4byte	.LFE4-.LFB4
 7333 0afe 01       		.uleb128 0x1
 7334 0aff 9C       		.byte	0x9c
 7335 0b00 3B0D0000 		.4byte	0xd3b
 7336 0b04 1C       		.uleb128 0x1c
 7337 0b05 4E0D0000 		.4byte	.LASF99
 7338 0b09 01       		.byte	0x1
 7339 0b0a 9201     		.2byte	0x192
 7340 0b0c A4080000 		.4byte	0x8a4
 7341 0b10 18020000 		.4byte	.LLST6
 7342 0b14 1C       		.uleb128 0x1c
 7343 0b15 D80D0000 		.4byte	.LASF103
 7344 0b19 01       		.byte	0x1
 7345 0b1a 9201     		.2byte	0x192
 7346 0b1c 3B0D0000 		.4byte	0xd3b
 7347 0b20 4F020000 		.4byte	.LLST7
 7348 0b24 1C       		.uleb128 0x1c
 7349 0b25 15000000 		.4byte	.LASF104
 7350 0b29 01       		.byte	0x1
 7351 0b2a 9201     		.2byte	0x192
 7352 0b2c 3B0D0000 		.4byte	0xd3b
 7353 0b30 86020000 		.4byte	.LLST8
 7354 0b34 21       		.uleb128 0x21
 7355 0b35 6C656E00 		.ascii	"len\000"
 7356 0b39 01       		.byte	0x1
 7357 0b3a 9201     		.2byte	0x192
 7358 0b3c 95030000 		.4byte	0x395
 7359 0b40 BD020000 		.4byte	.LLST9
 7360 0b44 1D       		.uleb128 0x1d
 7361 0b45 72657300 		.ascii	"res\000"
 7362 0b49 01       		.byte	0x1
ARM GAS  C:\Users\CHRONI~1\AppData\Local\Temp\cc7oUGua.s 			page 180


 7363 0b4a 9401     		.2byte	0x194
 7364 0b4c BC000000 		.4byte	0xbc
 7365 0b50 F4020000 		.4byte	.LLST10
 7366 0b54 1E       		.uleb128 0x1e
 7367 0b55 43020000 		.4byte	.LASF95
 7368 0b59 01       		.byte	0x1
 7369 0b5a 9501     		.2byte	0x195
 7370 0b5c BC000000 		.4byte	0xbc
 7371 0b60 02       		.uleb128 0x2
 7372 0b61 91       		.byte	0x91
 7373 0b62 57       		.sleb128 -41
 7374 0b63 22       		.uleb128 0x22
 7375 0b64 27020000 		.4byte	.LASF105
 7376 0b68 01       		.byte	0x1
 7377 0b69 9601     		.2byte	0x196
 7378 0b6b BC000000 		.4byte	0xbc
 7379 0b6f 96030000 		.4byte	.LLST11
 7380 0b73 1D       		.uleb128 0x1d
 7381 0b74 6B00     		.ascii	"k\000"
 7382 0b76 01       		.byte	0x1
 7383 0b77 9701     		.2byte	0x197
 7384 0b79 BC000000 		.4byte	0xbc
 7385 0b7d A9030000 		.4byte	.LLST12
 7386 0b81 1E       		.uleb128 0x1e
 7387 0b82 520A0000 		.4byte	.LASF106
 7388 0b86 01       		.byte	0x1
 7389 0b87 9801     		.2byte	0x198
 7390 0b89 BC000000 		.4byte	0xbc
 7391 0b8d 02       		.uleb128 0x2
 7392 0b8e 91       		.byte	0x91
 7393 0b8f 56       		.sleb128 -42
 7394 0b90 1E       		.uleb128 0x1e
 7395 0b91 86040000 		.4byte	.LASF107
 7396 0b95 01       		.byte	0x1
 7397 0b96 9901     		.2byte	0x199
 7398 0b98 BC000000 		.4byte	0xbc
 7399 0b9c 02       		.uleb128 0x2
 7400 0b9d 91       		.byte	0x91
 7401 0b9e 55       		.sleb128 -43
 7402 0b9f 1D       		.uleb128 0x1d
 7403 0ba0 6C00     		.ascii	"l\000"
 7404 0ba2 01       		.byte	0x1
 7405 0ba3 9A01     		.2byte	0x19a
 7406 0ba5 BC000000 		.4byte	0xbc
 7407 0ba9 BC030000 		.4byte	.LLST13
 7408 0bad 1D       		.uleb128 0x1d
 7409 0bae 62697400 		.ascii	"bit\000"
 7410 0bb2 01       		.byte	0x1
 7411 0bb3 9B01     		.2byte	0x19b
 7412 0bb5 BC000000 		.4byte	0xbc
 7413 0bb9 DA030000 		.4byte	.LLST14
 7414 0bbd 1D       		.uleb128 0x1d
 7415 0bbe 6900     		.ascii	"i\000"
 7416 0bc0 01       		.byte	0x1
 7417 0bc1 9C01     		.2byte	0x19c
 7418 0bc3 BC000000 		.4byte	0xbc
 7419 0bc7 ED030000 		.4byte	.LLST15
ARM GAS  C:\Users\CHRONI~1\AppData\Local\Temp\cc7oUGua.s 			page 181


 7420 0bcb 1D       		.uleb128 0x1d
 7421 0bcc 7200     		.ascii	"r\000"
 7422 0bce 01       		.byte	0x1
 7423 0bcf 9D01     		.2byte	0x19d
 7424 0bd1 BC000000 		.4byte	0xbc
 7425 0bd5 17040000 		.4byte	.LLST16
 7426 0bd9 19       		.uleb128 0x19
 7427 0bda 2A000000 		.4byte	.LVL138
 7428 0bde 02       		.uleb128 0x2
 7429 0bdf 77       		.byte	0x77
 7430 0be0 00       		.sleb128 0
 7431 0be1 FC0B0000 		.4byte	0xbfc
 7432 0be5 18       		.uleb128 0x18
 7433 0be6 01       		.uleb128 0x1
 7434 0be7 50       		.byte	0x50
 7435 0be8 02       		.uleb128 0x2
 7436 0be9 08       		.byte	0x8
 7437 0bea 57       		.byte	0x57
 7438 0beb 18       		.uleb128 0x18
 7439 0bec 01       		.uleb128 0x1
 7440 0bed 51       		.byte	0x51
 7441 0bee 01       		.uleb128 0x1
 7442 0bef 35       		.byte	0x35
 7443 0bf0 18       		.uleb128 0x18
 7444 0bf1 01       		.uleb128 0x1
 7445 0bf2 52       		.byte	0x52
 7446 0bf3 02       		.uleb128 0x2
 7447 0bf4 91       		.byte	0x91
 7448 0bf5 57       		.sleb128 -41
 7449 0bf6 18       		.uleb128 0x18
 7450 0bf7 01       		.uleb128 0x1
 7451 0bf8 53       		.byte	0x53
 7452 0bf9 01       		.uleb128 0x1
 7453 0bfa 31       		.byte	0x31
 7454 0bfb 00       		.byte	0
 7455 0bfc 17       		.uleb128 0x17
 7456 0bfd 32000000 		.4byte	.LVL140
 7457 0c01 0F0C0000 		.4byte	0xc0f
 7458 0c05 18       		.uleb128 0x18
 7459 0c06 01       		.uleb128 0x1
 7460 0c07 50       		.byte	0x50
 7461 0c08 05       		.uleb128 0x5
 7462 0c09 03       		.byte	0x3
 7463 0c0a 3C070000 		.4byte	.LC44
 7464 0c0e 00       		.byte	0
 7465 0c0f 17       		.uleb128 0x17
 7466 0c10 40000000 		.4byte	.LVL144
 7467 0c14 220C0000 		.4byte	0xc22
 7468 0c18 18       		.uleb128 0x18
 7469 0c19 01       		.uleb128 0x1
 7470 0c1a 50       		.byte	0x50
 7471 0c1b 05       		.uleb128 0x5
 7472 0c1c 03       		.byte	0x3
 7473 0c1d 68070000 		.4byte	.LC45
 7474 0c21 00       		.byte	0
 7475 0c22 19       		.uleb128 0x19
 7476 0c23 58000000 		.4byte	.LVL147
ARM GAS  C:\Users\CHRONI~1\AppData\Local\Temp\cc7oUGua.s 			page 182


 7477 0c27 02       		.uleb128 0x2
 7478 0c28 77       		.byte	0x77
 7479 0c29 00       		.sleb128 0
 7480 0c2a 450C0000 		.4byte	0xc45
 7481 0c2e 18       		.uleb128 0x18
 7482 0c2f 01       		.uleb128 0x1
 7483 0c30 50       		.byte	0x50
 7484 0c31 02       		.uleb128 0x2
 7485 0c32 08       		.byte	0x8
 7486 0c33 57       		.byte	0x57
 7487 0c34 18       		.uleb128 0x18
 7488 0c35 01       		.uleb128 0x1
 7489 0c36 51       		.byte	0x51
 7490 0c37 01       		.uleb128 0x1
 7491 0c38 36       		.byte	0x36
 7492 0c39 18       		.uleb128 0x18
 7493 0c3a 01       		.uleb128 0x1
 7494 0c3b 52       		.byte	0x52
 7495 0c3c 02       		.uleb128 0x2
 7496 0c3d 91       		.byte	0x91
 7497 0c3e 56       		.sleb128 -42
 7498 0c3f 18       		.uleb128 0x18
 7499 0c40 01       		.uleb128 0x1
 7500 0c41 53       		.byte	0x53
 7501 0c42 01       		.uleb128 0x1
 7502 0c43 31       		.byte	0x31
 7503 0c44 00       		.byte	0
 7504 0c45 17       		.uleb128 0x17
 7505 0c46 60000000 		.4byte	.LVL149
 7506 0c4a 580C0000 		.4byte	0xc58
 7507 0c4e 18       		.uleb128 0x18
 7508 0c4f 01       		.uleb128 0x1
 7509 0c50 50       		.byte	0x50
 7510 0c51 05       		.uleb128 0x5
 7511 0c52 03       		.byte	0x3
 7512 0c53 84070000 		.4byte	.LC46
 7513 0c57 00       		.byte	0
 7514 0c58 19       		.uleb128 0x19
 7515 0c59 70000000 		.4byte	.LVL152
 7516 0c5d 02       		.uleb128 0x2
 7517 0c5e 77       		.byte	0x77
 7518 0c5f 00       		.sleb128 0
 7519 0c60 7B0C0000 		.4byte	0xc7b
 7520 0c64 18       		.uleb128 0x18
 7521 0c65 01       		.uleb128 0x1
 7522 0c66 50       		.byte	0x50
 7523 0c67 02       		.uleb128 0x2
 7524 0c68 08       		.byte	0x8
 7525 0c69 57       		.byte	0x57
 7526 0c6a 18       		.uleb128 0x18
 7527 0c6b 01       		.uleb128 0x1
 7528 0c6c 51       		.byte	0x51
 7529 0c6d 01       		.uleb128 0x1
 7530 0c6e 34       		.byte	0x34
 7531 0c6f 18       		.uleb128 0x18
 7532 0c70 01       		.uleb128 0x1
 7533 0c71 52       		.byte	0x52
ARM GAS  C:\Users\CHRONI~1\AppData\Local\Temp\cc7oUGua.s 			page 183


 7534 0c72 02       		.uleb128 0x2
 7535 0c73 91       		.byte	0x91
 7536 0c74 55       		.sleb128 -43
 7537 0c75 18       		.uleb128 0x18
 7538 0c76 01       		.uleb128 0x1
 7539 0c77 53       		.byte	0x53
 7540 0c78 01       		.uleb128 0x1
 7541 0c79 31       		.byte	0x31
 7542 0c7a 00       		.byte	0
 7543 0c7b 17       		.uleb128 0x17
 7544 0c7c 78000000 		.4byte	.LVL154
 7545 0c80 8E0C0000 		.4byte	0xc8e
 7546 0c84 18       		.uleb128 0x18
 7547 0c85 01       		.uleb128 0x1
 7548 0c86 50       		.byte	0x50
 7549 0c87 05       		.uleb128 0x5
 7550 0c88 03       		.byte	0x3
 7551 0c89 AC070000 		.4byte	.LC47
 7552 0c8d 00       		.byte	0
 7553 0c8e 19       		.uleb128 0x19
 7554 0c8f AA000000 		.4byte	.LVL161
 7555 0c93 02       		.uleb128 0x2
 7556 0c94 77       		.byte	0x77
 7557 0c95 00       		.sleb128 0
 7558 0c96 B10C0000 		.4byte	0xcb1
 7559 0c9a 18       		.uleb128 0x18
 7560 0c9b 01       		.uleb128 0x1
 7561 0c9c 50       		.byte	0x50
 7562 0c9d 02       		.uleb128 0x2
 7563 0c9e 08       		.byte	0x8
 7564 0c9f 57       		.byte	0x57
 7565 0ca0 18       		.uleb128 0x18
 7566 0ca1 01       		.uleb128 0x1
 7567 0ca2 51       		.byte	0x51
 7568 0ca3 01       		.uleb128 0x1
 7569 0ca4 39       		.byte	0x39
 7570 0ca5 18       		.uleb128 0x18
 7571 0ca6 01       		.uleb128 0x1
 7572 0ca7 52       		.byte	0x52
 7573 0ca8 02       		.uleb128 0x2
 7574 0ca9 91       		.byte	0x91
 7575 0caa 57       		.sleb128 -41
 7576 0cab 18       		.uleb128 0x18
 7577 0cac 01       		.uleb128 0x1
 7578 0cad 53       		.byte	0x53
 7579 0cae 01       		.uleb128 0x1
 7580 0caf 31       		.byte	0x31
 7581 0cb0 00       		.byte	0
 7582 0cb1 17       		.uleb128 0x17
 7583 0cb2 B2000000 		.4byte	.LVL163
 7584 0cb6 C40C0000 		.4byte	0xcc4
 7585 0cba 18       		.uleb128 0x18
 7586 0cbb 01       		.uleb128 0x1
 7587 0cbc 50       		.byte	0x50
 7588 0cbd 05       		.uleb128 0x5
 7589 0cbe 03       		.byte	0x3
 7590 0cbf 20060000 		.4byte	.LC37
ARM GAS  C:\Users\CHRONI~1\AppData\Local\Temp\cc7oUGua.s 			page 184


 7591 0cc3 00       		.byte	0
 7592 0cc4 17       		.uleb128 0x17
 7593 0cc5 D4000000 		.4byte	.LVL167
 7594 0cc9 D70C0000 		.4byte	0xcd7
 7595 0ccd 18       		.uleb128 0x18
 7596 0cce 01       		.uleb128 0x1
 7597 0ccf 50       		.byte	0x50
 7598 0cd0 05       		.uleb128 0x5
 7599 0cd1 03       		.byte	0x3
 7600 0cd2 D8070000 		.4byte	.LC48
 7601 0cd6 00       		.byte	0
 7602 0cd7 19       		.uleb128 0x19
 7603 0cd8 F4000000 		.4byte	.LVL172
 7604 0cdc 02       		.uleb128 0x2
 7605 0cdd 77       		.byte	0x77
 7606 0cde 00       		.sleb128 0
 7607 0cdf F50C0000 		.4byte	0xcf5
 7608 0ce3 18       		.uleb128 0x18
 7609 0ce4 01       		.uleb128 0x1
 7610 0ce5 50       		.byte	0x50
 7611 0ce6 02       		.uleb128 0x2
 7612 0ce7 08       		.byte	0x8
 7613 0ce8 57       		.byte	0x57
 7614 0ce9 18       		.uleb128 0x18
 7615 0cea 01       		.uleb128 0x1
 7616 0ceb 51       		.byte	0x51
 7617 0cec 01       		.uleb128 0x1
 7618 0ced 37       		.byte	0x37
 7619 0cee 18       		.uleb128 0x18
 7620 0cef 01       		.uleb128 0x1
 7621 0cf0 52       		.byte	0x52
 7622 0cf1 02       		.uleb128 0x2
 7623 0cf2 75       		.byte	0x75
 7624 0cf3 24       		.sleb128 36
 7625 0cf4 00       		.byte	0
 7626 0cf5 17       		.uleb128 0x17
 7627 0cf6 FC000000 		.4byte	.LVL174
 7628 0cfa 080D0000 		.4byte	0xd08
 7629 0cfe 18       		.uleb128 0x18
 7630 0cff 01       		.uleb128 0x1
 7631 0d00 50       		.byte	0x50
 7632 0d01 05       		.uleb128 0x5
 7633 0d02 03       		.byte	0x3
 7634 0d03 F4070000 		.4byte	.LC49
 7635 0d07 00       		.byte	0
 7636 0d08 19       		.uleb128 0x19
 7637 0d09 0C010000 		.4byte	.LVL177
 7638 0d0d 02       		.uleb128 0x2
 7639 0d0e 77       		.byte	0x77
 7640 0d0f 00       		.sleb128 0
 7641 0d10 2B0D0000 		.4byte	0xd2b
 7642 0d14 18       		.uleb128 0x18
 7643 0d15 01       		.uleb128 0x1
 7644 0d16 50       		.byte	0x50
 7645 0d17 02       		.uleb128 0x2
 7646 0d18 08       		.byte	0x8
 7647 0d19 57       		.byte	0x57
ARM GAS  C:\Users\CHRONI~1\AppData\Local\Temp\cc7oUGua.s 			page 185


 7648 0d1a 18       		.uleb128 0x18
 7649 0d1b 01       		.uleb128 0x1
 7650 0d1c 51       		.byte	0x51
 7651 0d1d 01       		.uleb128 0x1
 7652 0d1e 3A       		.byte	0x3a
 7653 0d1f 18       		.uleb128 0x18
 7654 0d20 01       		.uleb128 0x1
 7655 0d21 52       		.byte	0x52
 7656 0d22 02       		.uleb128 0x2
 7657 0d23 91       		.byte	0x91
 7658 0d24 57       		.sleb128 -41
 7659 0d25 18       		.uleb128 0x18
 7660 0d26 01       		.uleb128 0x1
 7661 0d27 53       		.byte	0x53
 7662 0d28 01       		.uleb128 0x1
 7663 0d29 31       		.byte	0x31
 7664 0d2a 00       		.byte	0
 7665 0d2b 1A       		.uleb128 0x1a
 7666 0d2c 14010000 		.4byte	.LVL179
 7667 0d30 18       		.uleb128 0x18
 7668 0d31 01       		.uleb128 0x1
 7669 0d32 50       		.byte	0x50
 7670 0d33 05       		.uleb128 0x5
 7671 0d34 03       		.byte	0x3
 7672 0d35 20080000 		.4byte	.LC50
 7673 0d39 00       		.byte	0
 7674 0d3a 00       		.byte	0
 7675 0d3b 05       		.uleb128 0x5
 7676 0d3c 04       		.byte	0x4
 7677 0d3d D2000000 		.4byte	0xd2
 7678 0d41 20       		.uleb128 0x20
 7679 0d42 63070000 		.4byte	.LASF108
 7680 0d46 01       		.byte	0x1
 7681 0d47 2E02     		.2byte	0x22e
 7682 0d49 BC000000 		.4byte	0xbc
 7683 0d4d 00000000 		.4byte	.LFB5
 7684 0d51 F0000000 		.4byte	.LFE5-.LFB5
 7685 0d55 01       		.uleb128 0x1
 7686 0d56 9C       		.byte	0x9c
 7687 0d57 B30E0000 		.4byte	0xeb3
 7688 0d5b 1C       		.uleb128 0x1c
 7689 0d5c 4E0D0000 		.4byte	.LASF99
 7690 0d60 01       		.byte	0x1
 7691 0d61 2E02     		.2byte	0x22e
 7692 0d63 A4080000 		.4byte	0x8a4
 7693 0d67 4E040000 		.4byte	.LLST17
 7694 0d6b 21       		.uleb128 0x21
 7695 0d6c 72617700 		.ascii	"raw\000"
 7696 0d70 01       		.byte	0x1
 7697 0d71 2E02     		.2byte	0x22e
 7698 0d73 B30E0000 		.4byte	0xeb3
 7699 0d77 85040000 		.4byte	.LLST18
 7700 0d7b 1C       		.uleb128 0x1c
 7701 0d7c DB090000 		.4byte	.LASF109
 7702 0d80 01       		.byte	0x1
 7703 0d81 2E02     		.2byte	0x22e
 7704 0d83 B90E0000 		.4byte	0xeb9
ARM GAS  C:\Users\CHRONI~1\AppData\Local\Temp\cc7oUGua.s 			page 186


 7705 0d87 BC040000 		.4byte	.LLST19
 7706 0d8b 1D       		.uleb128 0x1d
 7707 0d8c 72657300 		.ascii	"res\000"
 7708 0d90 01       		.byte	0x1
 7709 0d91 3002     		.2byte	0x230
 7710 0d93 BC000000 		.4byte	0xbc
 7711 0d97 F3040000 		.4byte	.LLST20
 7712 0d9b 1E       		.uleb128 0x1e
 7713 0d9c 43020000 		.4byte	.LASF95
 7714 0da0 01       		.byte	0x1
 7715 0da1 3102     		.2byte	0x231
 7716 0da3 BC000000 		.4byte	0xbc
 7717 0da7 02       		.uleb128 0x2
 7718 0da8 91       		.byte	0x91
 7719 0da9 67       		.sleb128 -25
 7720 0daa 22       		.uleb128 0x22
 7721 0dab 940B0000 		.4byte	.LASF110
 7722 0daf 01       		.byte	0x1
 7723 0db0 3202     		.2byte	0x232
 7724 0db2 C7000000 		.4byte	0xc7
 7725 0db6 53050000 		.4byte	.LLST21
 7726 0dba 19       		.uleb128 0x19
 7727 0dbb 24000000 		.4byte	.LVL191
 7728 0dbf 02       		.uleb128 0x2
 7729 0dc0 77       		.byte	0x77
 7730 0dc1 00       		.sleb128 0
 7731 0dc2 DD0D0000 		.4byte	0xddd
 7732 0dc6 18       		.uleb128 0x18
 7733 0dc7 01       		.uleb128 0x1
 7734 0dc8 50       		.byte	0x50
 7735 0dc9 02       		.uleb128 0x2
 7736 0dca 08       		.byte	0x8
 7737 0dcb 57       		.byte	0x57
 7738 0dcc 18       		.uleb128 0x18
 7739 0dcd 01       		.uleb128 0x1
 7740 0dce 51       		.byte	0x51
 7741 0dcf 01       		.uleb128 0x1
 7742 0dd0 33       		.byte	0x33
 7743 0dd1 18       		.uleb128 0x18
 7744 0dd2 01       		.uleb128 0x1
 7745 0dd3 52       		.byte	0x52
 7746 0dd4 02       		.uleb128 0x2
 7747 0dd5 91       		.byte	0x91
 7748 0dd6 67       		.sleb128 -25
 7749 0dd7 18       		.uleb128 0x18
 7750 0dd8 01       		.uleb128 0x1
 7751 0dd9 53       		.byte	0x53
 7752 0dda 01       		.uleb128 0x1
 7753 0ddb 31       		.byte	0x31
 7754 0ddc 00       		.byte	0
 7755 0ddd 17       		.uleb128 0x17
 7756 0dde 2C000000 		.4byte	.LVL193
 7757 0de2 F00D0000 		.4byte	0xdf0
 7758 0de6 18       		.uleb128 0x18
 7759 0de7 01       		.uleb128 0x1
 7760 0de8 50       		.byte	0x50
 7761 0de9 05       		.uleb128 0x5
ARM GAS  C:\Users\CHRONI~1\AppData\Local\Temp\cc7oUGua.s 			page 187


 7762 0dea 03       		.byte	0x3
 7763 0deb 44080000 		.4byte	.LC51
 7764 0def 00       		.byte	0
 7765 0df0 19       		.uleb128 0x19
 7766 0df1 50000000 		.4byte	.LVL196
 7767 0df5 02       		.uleb128 0x2
 7768 0df6 77       		.byte	0x77
 7769 0df7 00       		.sleb128 0
 7770 0df8 130E0000 		.4byte	0xe13
 7771 0dfc 18       		.uleb128 0x18
 7772 0dfd 01       		.uleb128 0x1
 7773 0dfe 50       		.byte	0x50
 7774 0dff 02       		.uleb128 0x2
 7775 0e00 08       		.byte	0x8
 7776 0e01 57       		.byte	0x57
 7777 0e02 18       		.uleb128 0x18
 7778 0e03 01       		.uleb128 0x1
 7779 0e04 51       		.byte	0x51
 7780 0e05 01       		.uleb128 0x1
 7781 0e06 33       		.byte	0x33
 7782 0e07 18       		.uleb128 0x18
 7783 0e08 01       		.uleb128 0x1
 7784 0e09 52       		.byte	0x52
 7785 0e0a 02       		.uleb128 0x2
 7786 0e0b 91       		.byte	0x91
 7787 0e0c 67       		.sleb128 -25
 7788 0e0d 18       		.uleb128 0x18
 7789 0e0e 01       		.uleb128 0x1
 7790 0e0f 53       		.byte	0x53
 7791 0e10 01       		.uleb128 0x1
 7792 0e11 31       		.byte	0x31
 7793 0e12 00       		.byte	0
 7794 0e13 17       		.uleb128 0x17
 7795 0e14 58000000 		.4byte	.LVL198
 7796 0e18 260E0000 		.4byte	0xe26
 7797 0e1c 18       		.uleb128 0x18
 7798 0e1d 01       		.uleb128 0x1
 7799 0e1e 50       		.byte	0x50
 7800 0e1f 05       		.uleb128 0x5
 7801 0e20 03       		.byte	0x3
 7802 0e21 70080000 		.4byte	.LC52
 7803 0e25 00       		.byte	0
 7804 0e26 19       		.uleb128 0x19
 7805 0e27 68000000 		.4byte	.LVL201
 7806 0e2b 02       		.uleb128 0x2
 7807 0e2c 77       		.byte	0x77
 7808 0e2d 00       		.sleb128 0
 7809 0e2e 4A0E0000 		.4byte	0xe4a
 7810 0e32 18       		.uleb128 0x18
 7811 0e33 01       		.uleb128 0x1
 7812 0e34 50       		.byte	0x50
 7813 0e35 02       		.uleb128 0x2
 7814 0e36 08       		.byte	0x8
 7815 0e37 57       		.byte	0x57
 7816 0e38 18       		.uleb128 0x18
 7817 0e39 01       		.uleb128 0x1
 7818 0e3a 51       		.byte	0x51
ARM GAS  C:\Users\CHRONI~1\AppData\Local\Temp\cc7oUGua.s 			page 188


 7819 0e3b 02       		.uleb128 0x2
 7820 0e3c 08       		.byte	0x8
 7821 0e3d 21       		.byte	0x21
 7822 0e3e 18       		.uleb128 0x18
 7823 0e3f 01       		.uleb128 0x1
 7824 0e40 52       		.byte	0x52
 7825 0e41 02       		.uleb128 0x2
 7826 0e42 91       		.byte	0x91
 7827 0e43 67       		.sleb128 -25
 7828 0e44 18       		.uleb128 0x18
 7829 0e45 01       		.uleb128 0x1
 7830 0e46 53       		.byte	0x53
 7831 0e47 01       		.uleb128 0x1
 7832 0e48 31       		.byte	0x31
 7833 0e49 00       		.byte	0
 7834 0e4a 17       		.uleb128 0x17
 7835 0e4b 70000000 		.4byte	.LVL203
 7836 0e4f 5D0E0000 		.4byte	0xe5d
 7837 0e53 18       		.uleb128 0x18
 7838 0e54 01       		.uleb128 0x1
 7839 0e55 50       		.byte	0x50
 7840 0e56 05       		.uleb128 0x5
 7841 0e57 03       		.byte	0x3
 7842 0e58 9C080000 		.4byte	.LC53
 7843 0e5c 00       		.byte	0
 7844 0e5d 19       		.uleb128 0x19
 7845 0e5e 8E000000 		.4byte	.LVL206
 7846 0e62 02       		.uleb128 0x2
 7847 0e63 77       		.byte	0x77
 7848 0e64 00       		.sleb128 0
 7849 0e65 810E0000 		.4byte	0xe81
 7850 0e69 18       		.uleb128 0x18
 7851 0e6a 01       		.uleb128 0x1
 7852 0e6b 50       		.byte	0x50
 7853 0e6c 02       		.uleb128 0x2
 7854 0e6d 08       		.byte	0x8
 7855 0e6e 57       		.byte	0x57
 7856 0e6f 18       		.uleb128 0x18
 7857 0e70 01       		.uleb128 0x1
 7858 0e71 51       		.byte	0x51
 7859 0e72 02       		.uleb128 0x2
 7860 0e73 08       		.byte	0x8
 7861 0e74 21       		.byte	0x21
 7862 0e75 18       		.uleb128 0x18
 7863 0e76 01       		.uleb128 0x1
 7864 0e77 52       		.byte	0x52
 7865 0e78 02       		.uleb128 0x2
 7866 0e79 91       		.byte	0x91
 7867 0e7a 67       		.sleb128 -25
 7868 0e7b 18       		.uleb128 0x18
 7869 0e7c 01       		.uleb128 0x1
 7870 0e7d 53       		.byte	0x53
 7871 0e7e 01       		.uleb128 0x1
 7872 0e7f 31       		.byte	0x31
 7873 0e80 00       		.byte	0
 7874 0e81 17       		.uleb128 0x17
 7875 0e82 96000000 		.4byte	.LVL208
ARM GAS  C:\Users\CHRONI~1\AppData\Local\Temp\cc7oUGua.s 			page 189


 7876 0e86 940E0000 		.4byte	0xe94
 7877 0e8a 18       		.uleb128 0x18
 7878 0e8b 01       		.uleb128 0x1
 7879 0e8c 50       		.byte	0x50
 7880 0e8d 05       		.uleb128 0x5
 7881 0e8e 03       		.byte	0x3
 7882 0e8f C4080000 		.4byte	.LC54
 7883 0e93 00       		.byte	0
 7884 0e94 17       		.uleb128 0x17
 7885 0e95 A8000000 		.4byte	.LVL211
 7886 0e99 A30E0000 		.4byte	0xea3
 7887 0e9d 18       		.uleb128 0x18
 7888 0e9e 01       		.uleb128 0x1
 7889 0e9f 50       		.byte	0x50
 7890 0ea0 01       		.uleb128 0x1
 7891 0ea1 31       		.byte	0x31
 7892 0ea2 00       		.byte	0
 7893 0ea3 1A       		.uleb128 0x1a
 7894 0ea4 BC000000 		.4byte	.LVL215
 7895 0ea8 18       		.uleb128 0x18
 7896 0ea9 01       		.uleb128 0x1
 7897 0eaa 50       		.byte	0x50
 7898 0eab 05       		.uleb128 0x5
 7899 0eac 03       		.byte	0x3
 7900 0ead F0080000 		.4byte	.LC55
 7901 0eb1 00       		.byte	0
 7902 0eb2 00       		.byte	0
 7903 0eb3 05       		.uleb128 0x5
 7904 0eb4 04       		.byte	0x4
 7905 0eb5 C7000000 		.4byte	0xc7
 7906 0eb9 05       		.uleb128 0x5
 7907 0eba 04       		.byte	0x4
 7908 0ebb DA030000 		.4byte	0x3da
 7909 0ebf 20       		.uleb128 0x20
 7910 0ec0 AC0B0000 		.4byte	.LASF111
 7911 0ec4 01       		.byte	0x1
 7912 0ec5 8502     		.2byte	0x285
 7913 0ec7 BC000000 		.4byte	0xbc
 7914 0ecb 00000000 		.4byte	.LFB6
 7915 0ecf 84000000 		.4byte	.LFE6-.LFB6
 7916 0ed3 01       		.uleb128 0x1
 7917 0ed4 9C       		.byte	0x9c
 7918 0ed5 910F0000 		.4byte	0xf91
 7919 0ed9 1C       		.uleb128 0x1c
 7920 0eda 4E0D0000 		.4byte	.LASF99
 7921 0ede 01       		.byte	0x1
 7922 0edf 8502     		.2byte	0x285
 7923 0ee1 A4080000 		.4byte	0x8a4
 7924 0ee5 7F050000 		.4byte	.LLST22
 7925 0ee9 1C       		.uleb128 0x1c
 7926 0eea C2060000 		.4byte	.LASF112
 7927 0eee 01       		.byte	0x1
 7928 0eef 8502     		.2byte	0x285
 7929 0ef1 92010000 		.4byte	0x192
 7930 0ef5 CC050000 		.4byte	.LLST23
 7931 0ef9 1C       		.uleb128 0x1c
 7932 0efa 22040000 		.4byte	.LASF113
ARM GAS  C:\Users\CHRONI~1\AppData\Local\Temp\cc7oUGua.s 			page 190


 7933 0efe 01       		.byte	0x1
 7934 0eff 8502     		.2byte	0x285
 7935 0f01 910F0000 		.4byte	0xf91
 7936 0f05 1F060000 		.4byte	.LLST24
 7937 0f09 1D       		.uleb128 0x1d
 7938 0f0a 72657300 		.ascii	"res\000"
 7939 0f0e 01       		.byte	0x1
 7940 0f0f 8702     		.2byte	0x287
 7941 0f11 BC000000 		.4byte	0xbc
 7942 0f15 6C060000 		.4byte	.LLST25
 7943 0f19 1E       		.uleb128 0x1e
 7944 0f1a 43020000 		.4byte	.LASF95
 7945 0f1e 01       		.byte	0x1
 7946 0f1f 8802     		.2byte	0x288
 7947 0f21 BC000000 		.4byte	0xbc
 7948 0f25 02       		.uleb128 0x2
 7949 0f26 91       		.byte	0x91
 7950 0f27 67       		.sleb128 -25
 7951 0f28 19       		.uleb128 0x19
 7952 0f29 26000000 		.4byte	.LVL222
 7953 0f2d 02       		.uleb128 0x2
 7954 0f2e 77       		.byte	0x77
 7955 0f2f 00       		.sleb128 0
 7956 0f30 4B0F0000 		.4byte	0xf4b
 7957 0f34 18       		.uleb128 0x18
 7958 0f35 01       		.uleb128 0x1
 7959 0f36 50       		.byte	0x50
 7960 0f37 02       		.uleb128 0x2
 7961 0f38 08       		.byte	0x8
 7962 0f39 57       		.byte	0x57
 7963 0f3a 18       		.uleb128 0x18
 7964 0f3b 01       		.uleb128 0x1
 7965 0f3c 51       		.byte	0x51
 7966 0f3d 01       		.uleb128 0x1
 7967 0f3e 31       		.byte	0x31
 7968 0f3f 18       		.uleb128 0x18
 7969 0f40 01       		.uleb128 0x1
 7970 0f41 52       		.byte	0x52
 7971 0f42 02       		.uleb128 0x2
 7972 0f43 91       		.byte	0x91
 7973 0f44 67       		.sleb128 -25
 7974 0f45 18       		.uleb128 0x18
 7975 0f46 01       		.uleb128 0x1
 7976 0f47 53       		.byte	0x53
 7977 0f48 01       		.uleb128 0x1
 7978 0f49 31       		.byte	0x31
 7979 0f4a 00       		.byte	0
 7980 0f4b 17       		.uleb128 0x17
 7981 0f4c 2E000000 		.4byte	.LVL224
 7982 0f50 5E0F0000 		.4byte	0xf5e
 7983 0f54 18       		.uleb128 0x18
 7984 0f55 01       		.uleb128 0x1
 7985 0f56 50       		.byte	0x50
 7986 0f57 05       		.uleb128 0x5
 7987 0f58 03       		.byte	0x3
 7988 0f59 B8060000 		.4byte	.LC41
 7989 0f5d 00       		.byte	0
ARM GAS  C:\Users\CHRONI~1\AppData\Local\Temp\cc7oUGua.s 			page 191


 7990 0f5e 19       		.uleb128 0x19
 7991 0f5f 50000000 		.4byte	.LVL230
 7992 0f63 02       		.uleb128 0x2
 7993 0f64 77       		.byte	0x77
 7994 0f65 00       		.sleb128 0
 7995 0f66 810F0000 		.4byte	0xf81
 7996 0f6a 18       		.uleb128 0x18
 7997 0f6b 01       		.uleb128 0x1
 7998 0f6c 50       		.byte	0x50
 7999 0f6d 02       		.uleb128 0x2
 8000 0f6e 08       		.byte	0x8
 8001 0f6f 57       		.byte	0x57
 8002 0f70 18       		.uleb128 0x18
 8003 0f71 01       		.uleb128 0x1
 8004 0f72 51       		.byte	0x51
 8005 0f73 01       		.uleb128 0x1
 8006 0f74 30       		.byte	0x30
 8007 0f75 18       		.uleb128 0x18
 8008 0f76 01       		.uleb128 0x1
 8009 0f77 52       		.byte	0x52
 8010 0f78 02       		.uleb128 0x2
 8011 0f79 91       		.byte	0x91
 8012 0f7a 67       		.sleb128 -25
 8013 0f7b 18       		.uleb128 0x18
 8014 0f7c 01       		.uleb128 0x1
 8015 0f7d 53       		.byte	0x53
 8016 0f7e 01       		.uleb128 0x1
 8017 0f7f 31       		.byte	0x31
 8018 0f80 00       		.byte	0
 8019 0f81 1A       		.uleb128 0x1a
 8020 0f82 58000000 		.4byte	.LVL232
 8021 0f86 18       		.uleb128 0x18
 8022 0f87 01       		.uleb128 0x1
 8023 0f88 50       		.byte	0x50
 8024 0f89 05       		.uleb128 0x5
 8025 0f8a 03       		.byte	0x3
 8026 0f8b 8C060000 		.4byte	.LC40
 8027 0f8f 00       		.byte	0
 8028 0f90 00       		.byte	0
 8029 0f91 05       		.uleb128 0x5
 8030 0f92 04       		.byte	0x4
 8031 0f93 F6000000 		.4byte	0xf6
 8032 0f97 20       		.uleb128 0x20
 8033 0f98 32090000 		.4byte	.LASF114
 8034 0f9c 01       		.byte	0x1
 8035 0f9d BB02     		.2byte	0x2bb
 8036 0f9f BC000000 		.4byte	0xbc
 8037 0fa3 00000000 		.4byte	.LFB7
 8038 0fa7 CC000000 		.4byte	.LFE7-.LFB7
 8039 0fab 01       		.uleb128 0x1
 8040 0fac 9C       		.byte	0x9c
 8041 0fad D5100000 		.4byte	0x10d5
 8042 0fb1 1C       		.uleb128 0x1c
 8043 0fb2 4E0D0000 		.4byte	.LASF99
 8044 0fb6 01       		.byte	0x1
 8045 0fb7 BB02     		.2byte	0x2bb
 8046 0fb9 A4080000 		.4byte	0x8a4
ARM GAS  C:\Users\CHRONI~1\AppData\Local\Temp\cc7oUGua.s 			page 192


 8047 0fbd A0060000 		.4byte	.LLST26
 8048 0fc1 1C       		.uleb128 0x1c
 8049 0fc2 160B0000 		.4byte	.LASF115
 8050 0fc6 01       		.byte	0x1
 8051 0fc7 BB02     		.2byte	0x2bb
 8052 0fc9 C2010000 		.4byte	0x1c2
 8053 0fcd F8060000 		.4byte	.LLST27
 8054 0fd1 1C       		.uleb128 0x1c
 8055 0fd2 22040000 		.4byte	.LASF113
 8056 0fd6 01       		.byte	0x1
 8057 0fd7 BB02     		.2byte	0x2bb
 8058 0fd9 F6000000 		.4byte	0xf6
 8059 0fdd 4B070000 		.4byte	.LLST28
 8060 0fe1 1D       		.uleb128 0x1d
 8061 0fe2 72657300 		.ascii	"res\000"
 8062 0fe6 01       		.byte	0x1
 8063 0fe7 BD02     		.2byte	0x2bd
 8064 0fe9 BC000000 		.4byte	0xbc
 8065 0fed 9E070000 		.4byte	.LLST29
 8066 0ff1 1E       		.uleb128 0x1e
 8067 0ff2 43020000 		.4byte	.LASF95
 8068 0ff6 01       		.byte	0x1
 8069 0ff7 BE02     		.2byte	0x2be
 8070 0ff9 BC000000 		.4byte	0xbc
 8071 0ffd 02       		.uleb128 0x2
 8072 0ffe 91       		.byte	0x91
 8073 0fff 67       		.sleb128 -25
 8074 1000 19       		.uleb128 0x19
 8075 1001 28000000 		.4byte	.LVL240
 8076 1005 02       		.uleb128 0x2
 8077 1006 77       		.byte	0x77
 8078 1007 00       		.sleb128 0
 8079 1008 23100000 		.4byte	0x1023
 8080 100c 18       		.uleb128 0x18
 8081 100d 01       		.uleb128 0x1
 8082 100e 50       		.byte	0x50
 8083 100f 02       		.uleb128 0x2
 8084 1010 08       		.byte	0x8
 8085 1011 57       		.byte	0x57
 8086 1012 18       		.uleb128 0x18
 8087 1013 01       		.uleb128 0x1
 8088 1014 51       		.byte	0x51
 8089 1015 01       		.uleb128 0x1
 8090 1016 33       		.byte	0x33
 8091 1017 18       		.uleb128 0x18
 8092 1018 01       		.uleb128 0x1
 8093 1019 52       		.byte	0x52
 8094 101a 02       		.uleb128 0x2
 8095 101b 91       		.byte	0x91
 8096 101c 67       		.sleb128 -25
 8097 101d 18       		.uleb128 0x18
 8098 101e 01       		.uleb128 0x1
 8099 101f 53       		.byte	0x53
 8100 1020 01       		.uleb128 0x1
 8101 1021 31       		.byte	0x31
 8102 1022 00       		.byte	0
 8103 1023 17       		.uleb128 0x17
ARM GAS  C:\Users\CHRONI~1\AppData\Local\Temp\cc7oUGua.s 			page 193


 8104 1024 30000000 		.4byte	.LVL242
 8105 1028 36100000 		.4byte	0x1036
 8106 102c 18       		.uleb128 0x18
 8107 102d 01       		.uleb128 0x1
 8108 102e 50       		.byte	0x50
 8109 102f 05       		.uleb128 0x5
 8110 1030 03       		.byte	0x3
 8111 1031 44080000 		.4byte	.LC51
 8112 1035 00       		.byte	0
 8113 1036 19       		.uleb128 0x19
 8114 1037 56000000 		.4byte	.LVL245
 8115 103b 02       		.uleb128 0x2
 8116 103c 76       		.byte	0x76
 8117 103d 00       		.sleb128 0
 8118 103e 59100000 		.4byte	0x1059
 8119 1042 18       		.uleb128 0x18
 8120 1043 01       		.uleb128 0x1
 8121 1044 50       		.byte	0x50
 8122 1045 02       		.uleb128 0x2
 8123 1046 08       		.byte	0x8
 8124 1047 57       		.byte	0x57
 8125 1048 18       		.uleb128 0x18
 8126 1049 01       		.uleb128 0x1
 8127 104a 51       		.byte	0x51
 8128 104b 01       		.uleb128 0x1
 8129 104c 33       		.byte	0x33
 8130 104d 18       		.uleb128 0x18
 8131 104e 01       		.uleb128 0x1
 8132 104f 52       		.byte	0x52
 8133 1050 02       		.uleb128 0x2
 8134 1051 91       		.byte	0x91
 8135 1052 67       		.sleb128 -25
 8136 1053 18       		.uleb128 0x18
 8137 1054 01       		.uleb128 0x1
 8138 1055 53       		.byte	0x53
 8139 1056 01       		.uleb128 0x1
 8140 1057 31       		.byte	0x31
 8141 1058 00       		.byte	0
 8142 1059 17       		.uleb128 0x17
 8143 105a 5E000000 		.4byte	.LVL247
 8144 105e 6C100000 		.4byte	0x106c
 8145 1062 18       		.uleb128 0x18
 8146 1063 01       		.uleb128 0x1
 8147 1064 50       		.byte	0x50
 8148 1065 05       		.uleb128 0x5
 8149 1066 03       		.byte	0x3
 8150 1067 70080000 		.4byte	.LC52
 8151 106b 00       		.byte	0
 8152 106c 19       		.uleb128 0x19
 8153 106d 6E000000 		.4byte	.LVL252
 8154 1071 02       		.uleb128 0x2
 8155 1072 77       		.byte	0x77
 8156 1073 00       		.sleb128 0
 8157 1074 8F100000 		.4byte	0x108f
 8158 1078 18       		.uleb128 0x18
 8159 1079 01       		.uleb128 0x1
 8160 107a 50       		.byte	0x50
ARM GAS  C:\Users\CHRONI~1\AppData\Local\Temp\cc7oUGua.s 			page 194


 8161 107b 02       		.uleb128 0x2
 8162 107c 08       		.byte	0x8
 8163 107d 57       		.byte	0x57
 8164 107e 18       		.uleb128 0x18
 8165 107f 01       		.uleb128 0x1
 8166 1080 51       		.byte	0x51
 8167 1081 01       		.uleb128 0x1
 8168 1082 32       		.byte	0x32
 8169 1083 18       		.uleb128 0x18
 8170 1084 01       		.uleb128 0x1
 8171 1085 52       		.byte	0x52
 8172 1086 02       		.uleb128 0x2
 8173 1087 91       		.byte	0x91
 8174 1088 67       		.sleb128 -25
 8175 1089 18       		.uleb128 0x18
 8176 108a 01       		.uleb128 0x1
 8177 108b 53       		.byte	0x53
 8178 108c 01       		.uleb128 0x1
 8179 108d 31       		.byte	0x31
 8180 108e 00       		.byte	0
 8181 108f 17       		.uleb128 0x17
 8182 1090 76000000 		.4byte	.LVL254
 8183 1094 A2100000 		.4byte	0x10a2
 8184 1098 18       		.uleb128 0x18
 8185 1099 01       		.uleb128 0x1
 8186 109a 50       		.byte	0x50
 8187 109b 05       		.uleb128 0x5
 8188 109c 03       		.byte	0x3
 8189 109d 0C090000 		.4byte	.LC56
 8190 10a1 00       		.byte	0
 8191 10a2 19       		.uleb128 0x19
 8192 10a3 9C000000 		.4byte	.LVL257
 8193 10a7 02       		.uleb128 0x2
 8194 10a8 76       		.byte	0x76
 8195 10a9 00       		.sleb128 0
 8196 10aa C5100000 		.4byte	0x10c5
 8197 10ae 18       		.uleb128 0x18
 8198 10af 01       		.uleb128 0x1
 8199 10b0 50       		.byte	0x50
 8200 10b1 02       		.uleb128 0x2
 8201 10b2 08       		.byte	0x8
 8202 10b3 57       		.byte	0x57
 8203 10b4 18       		.uleb128 0x18
 8204 10b5 01       		.uleb128 0x1
 8205 10b6 51       		.byte	0x51
 8206 10b7 01       		.uleb128 0x1
 8207 10b8 32       		.byte	0x32
 8208 10b9 18       		.uleb128 0x18
 8209 10ba 01       		.uleb128 0x1
 8210 10bb 52       		.byte	0x52
 8211 10bc 02       		.uleb128 0x2
 8212 10bd 91       		.byte	0x91
 8213 10be 67       		.sleb128 -25
 8214 10bf 18       		.uleb128 0x18
 8215 10c0 01       		.uleb128 0x1
 8216 10c1 53       		.byte	0x53
 8217 10c2 01       		.uleb128 0x1
ARM GAS  C:\Users\CHRONI~1\AppData\Local\Temp\cc7oUGua.s 			page 195


 8218 10c3 31       		.byte	0x31
 8219 10c4 00       		.byte	0
 8220 10c5 1A       		.uleb128 0x1a
 8221 10c6 A4000000 		.4byte	.LVL259
 8222 10ca 18       		.uleb128 0x18
 8223 10cb 01       		.uleb128 0x1
 8224 10cc 50       		.byte	0x50
 8225 10cd 05       		.uleb128 0x5
 8226 10ce 03       		.byte	0x3
 8227 10cf 38090000 		.4byte	.LC57
 8228 10d3 00       		.byte	0
 8229 10d4 00       		.byte	0
 8230 10d5 20       		.uleb128 0x20
 8231 10d6 5D0A0000 		.4byte	.LASF116
 8232 10da 01       		.byte	0x1
 8233 10db 0103     		.2byte	0x301
 8234 10dd BC000000 		.4byte	0xbc
 8235 10e1 00000000 		.4byte	.LFB8
 8236 10e5 84000000 		.4byte	.LFE8-.LFB8
 8237 10e9 01       		.uleb128 0x1
 8238 10ea 9C       		.byte	0x9c
 8239 10eb A7110000 		.4byte	0x11a7
 8240 10ef 1C       		.uleb128 0x1c
 8241 10f0 4E0D0000 		.4byte	.LASF99
 8242 10f4 01       		.byte	0x1
 8243 10f5 0103     		.2byte	0x301
 8244 10f7 A4080000 		.4byte	0x8a4
 8245 10fb F3070000 		.4byte	.LLST30
 8246 10ff 1C       		.uleb128 0x1c
 8247 1100 160B0000 		.4byte	.LASF115
 8248 1104 01       		.byte	0x1
 8249 1105 0103     		.2byte	0x301
 8250 1107 C2010000 		.4byte	0x1c2
 8251 110b 40080000 		.4byte	.LLST31
 8252 110f 1C       		.uleb128 0x1c
 8253 1110 22040000 		.4byte	.LASF113
 8254 1114 01       		.byte	0x1
 8255 1115 0103     		.2byte	0x301
 8256 1117 910F0000 		.4byte	0xf91
 8257 111b 93080000 		.4byte	.LLST32
 8258 111f 1D       		.uleb128 0x1d
 8259 1120 72657300 		.ascii	"res\000"
 8260 1124 01       		.byte	0x1
 8261 1125 0303     		.2byte	0x303
 8262 1127 BC000000 		.4byte	0xbc
 8263 112b E0080000 		.4byte	.LLST33
 8264 112f 1E       		.uleb128 0x1e
 8265 1130 43020000 		.4byte	.LASF95
 8266 1134 01       		.byte	0x1
 8267 1135 0403     		.2byte	0x304
 8268 1137 BC000000 		.4byte	0xbc
 8269 113b 02       		.uleb128 0x2
 8270 113c 91       		.byte	0x91
 8271 113d 67       		.sleb128 -25
 8272 113e 19       		.uleb128 0x19
 8273 113f 26000000 		.4byte	.LVL267
 8274 1143 02       		.uleb128 0x2
ARM GAS  C:\Users\CHRONI~1\AppData\Local\Temp\cc7oUGua.s 			page 196


 8275 1144 77       		.byte	0x77
 8276 1145 00       		.sleb128 0
 8277 1146 61110000 		.4byte	0x1161
 8278 114a 18       		.uleb128 0x18
 8279 114b 01       		.uleb128 0x1
 8280 114c 50       		.byte	0x50
 8281 114d 02       		.uleb128 0x2
 8282 114e 08       		.byte	0x8
 8283 114f 57       		.byte	0x57
 8284 1150 18       		.uleb128 0x18
 8285 1151 01       		.uleb128 0x1
 8286 1152 51       		.byte	0x51
 8287 1153 01       		.uleb128 0x1
 8288 1154 33       		.byte	0x33
 8289 1155 18       		.uleb128 0x18
 8290 1156 01       		.uleb128 0x1
 8291 1157 52       		.byte	0x52
 8292 1158 02       		.uleb128 0x2
 8293 1159 91       		.byte	0x91
 8294 115a 67       		.sleb128 -25
 8295 115b 18       		.uleb128 0x18
 8296 115c 01       		.uleb128 0x1
 8297 115d 53       		.byte	0x53
 8298 115e 01       		.uleb128 0x1
 8299 115f 31       		.byte	0x31
 8300 1160 00       		.byte	0
 8301 1161 17       		.uleb128 0x17
 8302 1162 2E000000 		.4byte	.LVL269
 8303 1166 74110000 		.4byte	0x1174
 8304 116a 18       		.uleb128 0x18
 8305 116b 01       		.uleb128 0x1
 8306 116c 50       		.byte	0x50
 8307 116d 05       		.uleb128 0x5
 8308 116e 03       		.byte	0x3
 8309 116f 44080000 		.4byte	.LC51
 8310 1173 00       		.byte	0
 8311 1174 19       		.uleb128 0x19
 8312 1175 50000000 		.4byte	.LVL275
 8313 1179 02       		.uleb128 0x2
 8314 117a 77       		.byte	0x77
 8315 117b 00       		.sleb128 0
 8316 117c 97110000 		.4byte	0x1197
 8317 1180 18       		.uleb128 0x18
 8318 1181 01       		.uleb128 0x1
 8319 1182 50       		.byte	0x50
 8320 1183 02       		.uleb128 0x2
 8321 1184 08       		.byte	0x8
 8322 1185 57       		.byte	0x57
 8323 1186 18       		.uleb128 0x18
 8324 1187 01       		.uleb128 0x1
 8325 1188 51       		.byte	0x51
 8326 1189 01       		.uleb128 0x1
 8327 118a 32       		.byte	0x32
 8328 118b 18       		.uleb128 0x18
 8329 118c 01       		.uleb128 0x1
 8330 118d 52       		.byte	0x52
 8331 118e 02       		.uleb128 0x2
ARM GAS  C:\Users\CHRONI~1\AppData\Local\Temp\cc7oUGua.s 			page 197


 8332 118f 91       		.byte	0x91
 8333 1190 67       		.sleb128 -25
 8334 1191 18       		.uleb128 0x18
 8335 1192 01       		.uleb128 0x1
 8336 1193 53       		.byte	0x53
 8337 1194 01       		.uleb128 0x1
 8338 1195 31       		.byte	0x31
 8339 1196 00       		.byte	0
 8340 1197 1A       		.uleb128 0x1a
 8341 1198 58000000 		.4byte	.LVL277
 8342 119c 18       		.uleb128 0x18
 8343 119d 01       		.uleb128 0x1
 8344 119e 50       		.byte	0x50
 8345 119f 05       		.uleb128 0x5
 8346 11a0 03       		.byte	0x3
 8347 11a1 0C090000 		.4byte	.LC56
 8348 11a5 00       		.byte	0
 8349 11a6 00       		.byte	0
 8350 11a7 20       		.uleb128 0x20
 8351 11a8 48020000 		.4byte	.LASF117
 8352 11ac 01       		.byte	0x1
 8353 11ad 3703     		.2byte	0x337
 8354 11af BC000000 		.4byte	0xbc
 8355 11b3 00000000 		.4byte	.LFB9
 8356 11b7 54000000 		.4byte	.LFE9-.LFB9
 8357 11bb 01       		.uleb128 0x1
 8358 11bc 9C       		.byte	0x9c
 8359 11bd 46120000 		.4byte	0x1246
 8360 11c1 1C       		.uleb128 0x1c
 8361 11c2 4E0D0000 		.4byte	.LASF99
 8362 11c6 01       		.byte	0x1
 8363 11c7 3703     		.2byte	0x337
 8364 11c9 A4080000 		.4byte	0x8a4
 8365 11cd 14090000 		.4byte	.LLST34
 8366 11d1 1C       		.uleb128 0x1c
 8367 11d2 4A0A0000 		.4byte	.LASF118
 8368 11d6 01       		.byte	0x1
 8369 11d7 3703     		.2byte	0x337
 8370 11d9 BC000000 		.4byte	0xbc
 8371 11dd 6C090000 		.4byte	.LLST35
 8372 11e1 1D       		.uleb128 0x1d
 8373 11e2 72657300 		.ascii	"res\000"
 8374 11e6 01       		.byte	0x1
 8375 11e7 3903     		.2byte	0x339
 8376 11e9 BC000000 		.4byte	0xbc
 8377 11ed BF090000 		.4byte	.LLST36
 8378 11f1 1E       		.uleb128 0x1e
 8379 11f2 43020000 		.4byte	.LASF95
 8380 11f6 01       		.byte	0x1
 8381 11f7 3A03     		.2byte	0x33a
 8382 11f9 BC000000 		.4byte	0xbc
 8383 11fd 02       		.uleb128 0x2
 8384 11fe 91       		.byte	0x91
 8385 11ff 6F       		.sleb128 -17
 8386 1200 17       		.uleb128 0x17
 8387 1201 18000000 		.4byte	.LVL283
 8388 1205 13120000 		.4byte	0x1213
ARM GAS  C:\Users\CHRONI~1\AppData\Local\Temp\cc7oUGua.s 			page 198


 8389 1209 18       		.uleb128 0x18
 8390 120a 01       		.uleb128 0x1
 8391 120b 50       		.byte	0x50
 8392 120c 05       		.uleb128 0x5
 8393 120d 03       		.byte	0x3
 8394 120e 64090000 		.4byte	.LC58
 8395 1212 00       		.byte	0
 8396 1213 19       		.uleb128 0x19
 8397 1214 30000000 		.4byte	.LVL287
 8398 1218 02       		.uleb128 0x2
 8399 1219 76       		.byte	0x76
 8400 121a 00       		.sleb128 0
 8401 121b 36120000 		.4byte	0x1236
 8402 121f 18       		.uleb128 0x18
 8403 1220 01       		.uleb128 0x1
 8404 1221 50       		.byte	0x50
 8405 1222 02       		.uleb128 0x2
 8406 1223 08       		.byte	0x8
 8407 1224 57       		.byte	0x57
 8408 1225 18       		.uleb128 0x18
 8409 1226 01       		.uleb128 0x1
 8410 1227 51       		.byte	0x51
 8411 1228 01       		.uleb128 0x1
 8412 1229 34       		.byte	0x34
 8413 122a 18       		.uleb128 0x18
 8414 122b 01       		.uleb128 0x1
 8415 122c 52       		.byte	0x52
 8416 122d 02       		.uleb128 0x2
 8417 122e 91       		.byte	0x91
 8418 122f 6F       		.sleb128 -17
 8419 1230 18       		.uleb128 0x18
 8420 1231 01       		.uleb128 0x1
 8421 1232 53       		.byte	0x53
 8422 1233 01       		.uleb128 0x1
 8423 1234 31       		.byte	0x31
 8424 1235 00       		.byte	0
 8425 1236 1A       		.uleb128 0x1a
 8426 1237 38000000 		.4byte	.LVL289
 8427 123b 18       		.uleb128 0x18
 8428 123c 01       		.uleb128 0x1
 8429 123d 50       		.byte	0x50
 8430 123e 05       		.uleb128 0x5
 8431 123f 03       		.byte	0x3
 8432 1240 8C090000 		.4byte	.LC59
 8433 1244 00       		.byte	0
 8434 1245 00       		.byte	0
 8435 1246 20       		.uleb128 0x20
 8436 1247 9E030000 		.4byte	.LASF119
 8437 124b 01       		.byte	0x1
 8438 124c 6203     		.2byte	0x362
 8439 124e BC000000 		.4byte	0xbc
 8440 1252 00000000 		.4byte	.LFB10
 8441 1256 48000000 		.4byte	.LFE10-.LFB10
 8442 125a 01       		.uleb128 0x1
 8443 125b 9C       		.byte	0x9c
 8444 125c D2120000 		.4byte	0x12d2
 8445 1260 1C       		.uleb128 0x1c
ARM GAS  C:\Users\CHRONI~1\AppData\Local\Temp\cc7oUGua.s 			page 199


 8446 1261 4E0D0000 		.4byte	.LASF99
 8447 1265 01       		.byte	0x1
 8448 1266 6203     		.2byte	0x362
 8449 1268 A4080000 		.4byte	0x8a4
 8450 126c DD090000 		.4byte	.LLST37
 8451 1270 1C       		.uleb128 0x1c
 8452 1271 4A0A0000 		.4byte	.LASF118
 8453 1275 01       		.byte	0x1
 8454 1276 6203     		.2byte	0x362
 8455 1278 95030000 		.4byte	0x395
 8456 127c 140A0000 		.4byte	.LLST38
 8457 1280 1D       		.uleb128 0x1d
 8458 1281 72657300 		.ascii	"res\000"
 8459 1285 01       		.byte	0x1
 8460 1286 6403     		.2byte	0x364
 8461 1288 BC000000 		.4byte	0xbc
 8462 128c 4B0A0000 		.4byte	.LLST39
 8463 1290 1E       		.uleb128 0x1e
 8464 1291 43020000 		.4byte	.LASF95
 8465 1295 01       		.byte	0x1
 8466 1296 6503     		.2byte	0x365
 8467 1298 BC000000 		.4byte	0xbc
 8468 129c 02       		.uleb128 0x2
 8469 129d 91       		.byte	0x91
 8470 129e 67       		.sleb128 -25
 8471 129f 19       		.uleb128 0x19
 8472 12a0 1E000000 		.4byte	.LVL296
 8473 12a4 02       		.uleb128 0x2
 8474 12a5 77       		.byte	0x77
 8475 12a6 00       		.sleb128 0
 8476 12a7 C2120000 		.4byte	0x12c2
 8477 12ab 18       		.uleb128 0x18
 8478 12ac 01       		.uleb128 0x1
 8479 12ad 50       		.byte	0x50
 8480 12ae 02       		.uleb128 0x2
 8481 12af 08       		.byte	0x8
 8482 12b0 57       		.byte	0x57
 8483 12b1 18       		.uleb128 0x18
 8484 12b2 01       		.uleb128 0x1
 8485 12b3 51       		.byte	0x51
 8486 12b4 01       		.uleb128 0x1
 8487 12b5 34       		.byte	0x34
 8488 12b6 18       		.uleb128 0x18
 8489 12b7 01       		.uleb128 0x1
 8490 12b8 52       		.byte	0x52
 8491 12b9 02       		.uleb128 0x2
 8492 12ba 91       		.byte	0x91
 8493 12bb 67       		.sleb128 -25
 8494 12bc 18       		.uleb128 0x18
 8495 12bd 01       		.uleb128 0x1
 8496 12be 53       		.byte	0x53
 8497 12bf 01       		.uleb128 0x1
 8498 12c0 31       		.byte	0x31
 8499 12c1 00       		.byte	0
 8500 12c2 1A       		.uleb128 0x1a
 8501 12c3 26000000 		.4byte	.LVL298
 8502 12c7 18       		.uleb128 0x18
ARM GAS  C:\Users\CHRONI~1\AppData\Local\Temp\cc7oUGua.s 			page 200


 8503 12c8 01       		.uleb128 0x1
 8504 12c9 50       		.byte	0x50
 8505 12ca 05       		.uleb128 0x5
 8506 12cb 03       		.byte	0x3
 8507 12cc B8090000 		.4byte	.LC60
 8508 12d0 00       		.byte	0
 8509 12d1 00       		.byte	0
 8510 12d2 20       		.uleb128 0x20
 8511 12d3 E0090000 		.4byte	.LASF120
 8512 12d7 01       		.byte	0x1
 8513 12d8 8803     		.2byte	0x388
 8514 12da BC000000 		.4byte	0xbc
 8515 12de 00000000 		.4byte	.LFB11
 8516 12e2 54000000 		.4byte	.LFE11-.LFB11
 8517 12e6 01       		.uleb128 0x1
 8518 12e7 9C       		.byte	0x9c
 8519 12e8 71130000 		.4byte	0x1371
 8520 12ec 1C       		.uleb128 0x1c
 8521 12ed 4E0D0000 		.4byte	.LASF99
 8522 12f1 01       		.byte	0x1
 8523 12f2 8803     		.2byte	0x388
 8524 12f4 A4080000 		.4byte	0x8a4
 8525 12f8 690A0000 		.4byte	.LLST40
 8526 12fc 1C       		.uleb128 0x1c
 8527 12fd 44050000 		.4byte	.LASF121
 8528 1301 01       		.byte	0x1
 8529 1302 8803     		.2byte	0x388
 8530 1304 BC000000 		.4byte	0xbc
 8531 1308 C10A0000 		.4byte	.LLST41
 8532 130c 1D       		.uleb128 0x1d
 8533 130d 72657300 		.ascii	"res\000"
 8534 1311 01       		.byte	0x1
 8535 1312 8A03     		.2byte	0x38a
 8536 1314 BC000000 		.4byte	0xbc
 8537 1318 140B0000 		.4byte	.LLST42
 8538 131c 1E       		.uleb128 0x1e
 8539 131d 43020000 		.4byte	.LASF95
 8540 1321 01       		.byte	0x1
 8541 1322 8B03     		.2byte	0x38b
 8542 1324 BC000000 		.4byte	0xbc
 8543 1328 02       		.uleb128 0x2
 8544 1329 91       		.byte	0x91
 8545 132a 6F       		.sleb128 -17
 8546 132b 17       		.uleb128 0x17
 8547 132c 18000000 		.4byte	.LVL304
 8548 1330 3E130000 		.4byte	0x133e
 8549 1334 18       		.uleb128 0x18
 8550 1335 01       		.uleb128 0x1
 8551 1336 50       		.byte	0x50
 8552 1337 05       		.uleb128 0x5
 8553 1338 03       		.byte	0x3
 8554 1339 E4090000 		.4byte	.LC61
 8555 133d 00       		.byte	0
 8556 133e 19       		.uleb128 0x19
 8557 133f 30000000 		.4byte	.LVL308
 8558 1343 02       		.uleb128 0x2
 8559 1344 76       		.byte	0x76
ARM GAS  C:\Users\CHRONI~1\AppData\Local\Temp\cc7oUGua.s 			page 201


 8560 1345 00       		.sleb128 0
 8561 1346 61130000 		.4byte	0x1361
 8562 134a 18       		.uleb128 0x18
 8563 134b 01       		.uleb128 0x1
 8564 134c 50       		.byte	0x50
 8565 134d 02       		.uleb128 0x2
 8566 134e 08       		.byte	0x8
 8567 134f 57       		.byte	0x57
 8568 1350 18       		.uleb128 0x18
 8569 1351 01       		.uleb128 0x1
 8570 1352 51       		.byte	0x51
 8571 1353 01       		.uleb128 0x1
 8572 1354 35       		.byte	0x35
 8573 1355 18       		.uleb128 0x18
 8574 1356 01       		.uleb128 0x1
 8575 1357 52       		.byte	0x52
 8576 1358 02       		.uleb128 0x2
 8577 1359 91       		.byte	0x91
 8578 135a 6F       		.sleb128 -17
 8579 135b 18       		.uleb128 0x18
 8580 135c 01       		.uleb128 0x1
 8581 135d 53       		.byte	0x53
 8582 135e 01       		.uleb128 0x1
 8583 135f 31       		.byte	0x31
 8584 1360 00       		.byte	0
 8585 1361 1A       		.uleb128 0x1a
 8586 1362 38000000 		.4byte	.LVL310
 8587 1366 18       		.uleb128 0x18
 8588 1367 01       		.uleb128 0x1
 8589 1368 50       		.byte	0x50
 8590 1369 05       		.uleb128 0x5
 8591 136a 03       		.byte	0x3
 8592 136b 0C0A0000 		.4byte	.LC62
 8593 136f 00       		.byte	0
 8594 1370 00       		.byte	0
 8595 1371 20       		.uleb128 0x20
 8596 1372 DF060000 		.4byte	.LASF122
 8597 1376 01       		.byte	0x1
 8598 1377 B303     		.2byte	0x3b3
 8599 1379 BC000000 		.4byte	0xbc
 8600 137d 00000000 		.4byte	.LFB12
 8601 1381 48000000 		.4byte	.LFE12-.LFB12
 8602 1385 01       		.uleb128 0x1
 8603 1386 9C       		.byte	0x9c
 8604 1387 FD130000 		.4byte	0x13fd
 8605 138b 1C       		.uleb128 0x1c
 8606 138c 4E0D0000 		.4byte	.LASF99
 8607 1390 01       		.byte	0x1
 8608 1391 B303     		.2byte	0x3b3
 8609 1393 A4080000 		.4byte	0x8a4
 8610 1397 320B0000 		.4byte	.LLST43
 8611 139b 1C       		.uleb128 0x1c
 8612 139c 44050000 		.4byte	.LASF121
 8613 13a0 01       		.byte	0x1
 8614 13a1 B303     		.2byte	0x3b3
 8615 13a3 95030000 		.4byte	0x395
 8616 13a7 690B0000 		.4byte	.LLST44
ARM GAS  C:\Users\CHRONI~1\AppData\Local\Temp\cc7oUGua.s 			page 202


 8617 13ab 1D       		.uleb128 0x1d
 8618 13ac 72657300 		.ascii	"res\000"
 8619 13b0 01       		.byte	0x1
 8620 13b1 B503     		.2byte	0x3b5
 8621 13b3 BC000000 		.4byte	0xbc
 8622 13b7 A00B0000 		.4byte	.LLST45
 8623 13bb 1E       		.uleb128 0x1e
 8624 13bc 43020000 		.4byte	.LASF95
 8625 13c0 01       		.byte	0x1
 8626 13c1 B603     		.2byte	0x3b6
 8627 13c3 BC000000 		.4byte	0xbc
 8628 13c7 02       		.uleb128 0x2
 8629 13c8 91       		.byte	0x91
 8630 13c9 67       		.sleb128 -25
 8631 13ca 19       		.uleb128 0x19
 8632 13cb 1E000000 		.4byte	.LVL317
 8633 13cf 02       		.uleb128 0x2
 8634 13d0 77       		.byte	0x77
 8635 13d1 00       		.sleb128 0
 8636 13d2 ED130000 		.4byte	0x13ed
 8637 13d6 18       		.uleb128 0x18
 8638 13d7 01       		.uleb128 0x1
 8639 13d8 50       		.byte	0x50
 8640 13d9 02       		.uleb128 0x2
 8641 13da 08       		.byte	0x8
 8642 13db 57       		.byte	0x57
 8643 13dc 18       		.uleb128 0x18
 8644 13dd 01       		.uleb128 0x1
 8645 13de 51       		.byte	0x51
 8646 13df 01       		.uleb128 0x1
 8647 13e0 35       		.byte	0x35
 8648 13e1 18       		.uleb128 0x18
 8649 13e2 01       		.uleb128 0x1
 8650 13e3 52       		.byte	0x52
 8651 13e4 02       		.uleb128 0x2
 8652 13e5 91       		.byte	0x91
 8653 13e6 67       		.sleb128 -25
 8654 13e7 18       		.uleb128 0x18
 8655 13e8 01       		.uleb128 0x1
 8656 13e9 53       		.byte	0x53
 8657 13ea 01       		.uleb128 0x1
 8658 13eb 31       		.byte	0x31
 8659 13ec 00       		.byte	0
 8660 13ed 1A       		.uleb128 0x1a
 8661 13ee 26000000 		.4byte	.LVL319
 8662 13f2 18       		.uleb128 0x18
 8663 13f3 01       		.uleb128 0x1
 8664 13f4 50       		.byte	0x50
 8665 13f5 05       		.uleb128 0x5
 8666 13f6 03       		.byte	0x3
 8667 13f7 3C0A0000 		.4byte	.LC63
 8668 13fb 00       		.byte	0
 8669 13fc 00       		.byte	0
 8670 13fd 20       		.uleb128 0x20
 8671 13fe BC0C0000 		.4byte	.LASF123
 8672 1402 01       		.byte	0x1
 8673 1403 D903     		.2byte	0x3d9
ARM GAS  C:\Users\CHRONI~1\AppData\Local\Temp\cc7oUGua.s 			page 203


 8674 1405 BC000000 		.4byte	0xbc
 8675 1409 00000000 		.4byte	.LFB13
 8676 140d 54000000 		.4byte	.LFE13-.LFB13
 8677 1411 01       		.uleb128 0x1
 8678 1412 9C       		.byte	0x9c
 8679 1413 9C140000 		.4byte	0x149c
 8680 1417 1C       		.uleb128 0x1c
 8681 1418 4E0D0000 		.4byte	.LASF99
 8682 141c 01       		.byte	0x1
 8683 141d D903     		.2byte	0x3d9
 8684 141f A4080000 		.4byte	0x8a4
 8685 1423 BE0B0000 		.4byte	.LLST46
 8686 1427 1C       		.uleb128 0x1c
 8687 1428 4A0A0000 		.4byte	.LASF118
 8688 142c 01       		.byte	0x1
 8689 142d D903     		.2byte	0x3d9
 8690 142f BC000000 		.4byte	0xbc
 8691 1433 160C0000 		.4byte	.LLST47
 8692 1437 1D       		.uleb128 0x1d
 8693 1438 72657300 		.ascii	"res\000"
 8694 143c 01       		.byte	0x1
 8695 143d DB03     		.2byte	0x3db
 8696 143f BC000000 		.4byte	0xbc
 8697 1443 690C0000 		.4byte	.LLST48
 8698 1447 1E       		.uleb128 0x1e
 8699 1448 43020000 		.4byte	.LASF95
 8700 144c 01       		.byte	0x1
 8701 144d DC03     		.2byte	0x3dc
 8702 144f BC000000 		.4byte	0xbc
 8703 1453 02       		.uleb128 0x2
 8704 1454 91       		.byte	0x91
 8705 1455 6F       		.sleb128 -17
 8706 1456 17       		.uleb128 0x17
 8707 1457 18000000 		.4byte	.LVL325
 8708 145b 69140000 		.4byte	0x1469
 8709 145f 18       		.uleb128 0x18
 8710 1460 01       		.uleb128 0x1
 8711 1461 50       		.byte	0x50
 8712 1462 05       		.uleb128 0x5
 8713 1463 03       		.byte	0x3
 8714 1464 64090000 		.4byte	.LC58
 8715 1468 00       		.byte	0
 8716 1469 19       		.uleb128 0x19
 8717 146a 30000000 		.4byte	.LVL329
 8718 146e 02       		.uleb128 0x2
 8719 146f 76       		.byte	0x76
 8720 1470 00       		.sleb128 0
 8721 1471 8C140000 		.4byte	0x148c
 8722 1475 18       		.uleb128 0x18
 8723 1476 01       		.uleb128 0x1
 8724 1477 50       		.byte	0x50
 8725 1478 02       		.uleb128 0x2
 8726 1479 08       		.byte	0x8
 8727 147a 57       		.byte	0x57
 8728 147b 18       		.uleb128 0x18
 8729 147c 01       		.uleb128 0x1
 8730 147d 51       		.byte	0x51
ARM GAS  C:\Users\CHRONI~1\AppData\Local\Temp\cc7oUGua.s 			page 204


 8731 147e 01       		.uleb128 0x1
 8732 147f 36       		.byte	0x36
 8733 1480 18       		.uleb128 0x18
 8734 1481 01       		.uleb128 0x1
 8735 1482 52       		.byte	0x52
 8736 1483 02       		.uleb128 0x2
 8737 1484 91       		.byte	0x91
 8738 1485 6F       		.sleb128 -17
 8739 1486 18       		.uleb128 0x18
 8740 1487 01       		.uleb128 0x1
 8741 1488 53       		.byte	0x53
 8742 1489 01       		.uleb128 0x1
 8743 148a 31       		.byte	0x31
 8744 148b 00       		.byte	0
 8745 148c 1A       		.uleb128 0x1a
 8746 148d 38000000 		.4byte	.LVL331
 8747 1491 18       		.uleb128 0x18
 8748 1492 01       		.uleb128 0x1
 8749 1493 50       		.byte	0x50
 8750 1494 05       		.uleb128 0x5
 8751 1495 03       		.byte	0x3
 8752 1496 6C0A0000 		.4byte	.LC64
 8753 149a 00       		.byte	0
 8754 149b 00       		.byte	0
 8755 149c 20       		.uleb128 0x20
 8756 149d CE000000 		.4byte	.LASF124
 8757 14a1 01       		.byte	0x1
 8758 14a2 0404     		.2byte	0x404
 8759 14a4 BC000000 		.4byte	0xbc
 8760 14a8 00000000 		.4byte	.LFB14
 8761 14ac 48000000 		.4byte	.LFE14-.LFB14
 8762 14b0 01       		.uleb128 0x1
 8763 14b1 9C       		.byte	0x9c
 8764 14b2 28150000 		.4byte	0x1528
 8765 14b6 1C       		.uleb128 0x1c
 8766 14b7 4E0D0000 		.4byte	.LASF99
 8767 14bb 01       		.byte	0x1
 8768 14bc 0404     		.2byte	0x404
 8769 14be A4080000 		.4byte	0x8a4
 8770 14c2 870C0000 		.4byte	.LLST49
 8771 14c6 1C       		.uleb128 0x1c
 8772 14c7 4A0A0000 		.4byte	.LASF118
 8773 14cb 01       		.byte	0x1
 8774 14cc 0404     		.2byte	0x404
 8775 14ce 95030000 		.4byte	0x395
 8776 14d2 BE0C0000 		.4byte	.LLST50
 8777 14d6 1D       		.uleb128 0x1d
 8778 14d7 72657300 		.ascii	"res\000"
 8779 14db 01       		.byte	0x1
 8780 14dc 0604     		.2byte	0x406
 8781 14de BC000000 		.4byte	0xbc
 8782 14e2 F50C0000 		.4byte	.LLST51
 8783 14e6 1E       		.uleb128 0x1e
 8784 14e7 43020000 		.4byte	.LASF95
 8785 14eb 01       		.byte	0x1
 8786 14ec 0704     		.2byte	0x407
 8787 14ee BC000000 		.4byte	0xbc
ARM GAS  C:\Users\CHRONI~1\AppData\Local\Temp\cc7oUGua.s 			page 205


 8788 14f2 02       		.uleb128 0x2
 8789 14f3 91       		.byte	0x91
 8790 14f4 67       		.sleb128 -25
 8791 14f5 19       		.uleb128 0x19
 8792 14f6 1E000000 		.4byte	.LVL338
 8793 14fa 02       		.uleb128 0x2
 8794 14fb 77       		.byte	0x77
 8795 14fc 00       		.sleb128 0
 8796 14fd 18150000 		.4byte	0x1518
 8797 1501 18       		.uleb128 0x18
 8798 1502 01       		.uleb128 0x1
 8799 1503 50       		.byte	0x50
 8800 1504 02       		.uleb128 0x2
 8801 1505 08       		.byte	0x8
 8802 1506 57       		.byte	0x57
 8803 1507 18       		.uleb128 0x18
 8804 1508 01       		.uleb128 0x1
 8805 1509 51       		.byte	0x51
 8806 150a 01       		.uleb128 0x1
 8807 150b 36       		.byte	0x36
 8808 150c 18       		.uleb128 0x18
 8809 150d 01       		.uleb128 0x1
 8810 150e 52       		.byte	0x52
 8811 150f 02       		.uleb128 0x2
 8812 1510 91       		.byte	0x91
 8813 1511 67       		.sleb128 -25
 8814 1512 18       		.uleb128 0x18
 8815 1513 01       		.uleb128 0x1
 8816 1514 53       		.byte	0x53
 8817 1515 01       		.uleb128 0x1
 8818 1516 31       		.byte	0x31
 8819 1517 00       		.byte	0
 8820 1518 1A       		.uleb128 0x1a
 8821 1519 26000000 		.4byte	.LVL340
 8822 151d 18       		.uleb128 0x18
 8823 151e 01       		.uleb128 0x1
 8824 151f 50       		.byte	0x50
 8825 1520 05       		.uleb128 0x5
 8826 1521 03       		.byte	0x3
 8827 1522 980A0000 		.4byte	.LC65
 8828 1526 00       		.byte	0
 8829 1527 00       		.byte	0
 8830 1528 20       		.uleb128 0x20
 8831 1529 16010000 		.4byte	.LASF125
 8832 152d 01       		.byte	0x1
 8833 152e 2904     		.2byte	0x429
 8834 1530 BC000000 		.4byte	0xbc
 8835 1534 00000000 		.4byte	.LFB15
 8836 1538 40000000 		.4byte	.LFE15-.LFB15
 8837 153c 01       		.uleb128 0x1
 8838 153d 9C       		.byte	0x9c
 8839 153e A5150000 		.4byte	0x15a5
 8840 1542 1C       		.uleb128 0x1c
 8841 1543 4E0D0000 		.4byte	.LASF99
 8842 1547 01       		.byte	0x1
 8843 1548 2904     		.2byte	0x429
 8844 154a A4080000 		.4byte	0x8a4
ARM GAS  C:\Users\CHRONI~1\AppData\Local\Temp\cc7oUGua.s 			page 206


 8845 154e 130D0000 		.4byte	.LLST52
 8846 1552 1C       		.uleb128 0x1c
 8847 1553 52080000 		.4byte	.LASF126
 8848 1557 01       		.byte	0x1
 8849 1558 2904     		.2byte	0x429
 8850 155a BC000000 		.4byte	0xbc
 8851 155e 550D0000 		.4byte	.LLST53
 8852 1562 1D       		.uleb128 0x1d
 8853 1563 72657300 		.ascii	"res\000"
 8854 1567 01       		.byte	0x1
 8855 1568 2B04     		.2byte	0x42b
 8856 156a BC000000 		.4byte	0xbc
 8857 156e A30D0000 		.4byte	.LLST54
 8858 1572 19       		.uleb128 0x19
 8859 1573 20000000 		.4byte	.LVL347
 8860 1577 02       		.uleb128 0x2
 8861 1578 76       		.byte	0x76
 8862 1579 00       		.sleb128 0
 8863 157a 95150000 		.4byte	0x1595
 8864 157e 18       		.uleb128 0x18
 8865 157f 01       		.uleb128 0x1
 8866 1580 50       		.byte	0x50
 8867 1581 02       		.uleb128 0x2
 8868 1582 08       		.byte	0x8
 8869 1583 57       		.byte	0x57
 8870 1584 18       		.uleb128 0x18
 8871 1585 01       		.uleb128 0x1
 8872 1586 51       		.byte	0x51
 8873 1587 01       		.uleb128 0x1
 8874 1588 37       		.byte	0x37
 8875 1589 18       		.uleb128 0x18
 8876 158a 01       		.uleb128 0x1
 8877 158b 52       		.byte	0x52
 8878 158c 02       		.uleb128 0x2
 8879 158d 91       		.byte	0x91
 8880 158e 6F       		.sleb128 -17
 8881 158f 18       		.uleb128 0x18
 8882 1590 01       		.uleb128 0x1
 8883 1591 53       		.byte	0x53
 8884 1592 01       		.uleb128 0x1
 8885 1593 31       		.byte	0x31
 8886 1594 00       		.byte	0
 8887 1595 1A       		.uleb128 0x1a
 8888 1596 28000000 		.4byte	.LVL349
 8889 159a 18       		.uleb128 0x18
 8890 159b 01       		.uleb128 0x1
 8891 159c 50       		.byte	0x50
 8892 159d 05       		.uleb128 0x5
 8893 159e 03       		.byte	0x3
 8894 159f C40A0000 		.4byte	.LC66
 8895 15a3 00       		.byte	0
 8896 15a4 00       		.byte	0
 8897 15a5 20       		.uleb128 0x20
 8898 15a6 2C020000 		.4byte	.LASF127
 8899 15aa 01       		.byte	0x1
 8900 15ab 4C04     		.2byte	0x44c
 8901 15ad BC000000 		.4byte	0xbc
ARM GAS  C:\Users\CHRONI~1\AppData\Local\Temp\cc7oUGua.s 			page 207


 8902 15b1 00000000 		.4byte	.LFB16
 8903 15b5 34000000 		.4byte	.LFE16-.LFB16
 8904 15b9 01       		.uleb128 0x1
 8905 15ba 9C       		.byte	0x9c
 8906 15bb 23160000 		.4byte	0x1623
 8907 15bf 1C       		.uleb128 0x1c
 8908 15c0 4E0D0000 		.4byte	.LASF99
 8909 15c4 01       		.byte	0x1
 8910 15c5 4C04     		.2byte	0x44c
 8911 15c7 A4080000 		.4byte	0x8a4
 8912 15cb C10D0000 		.4byte	.LLST55
 8913 15cf 1C       		.uleb128 0x1c
 8914 15d0 52080000 		.4byte	.LASF126
 8915 15d4 01       		.byte	0x1
 8916 15d5 4C04     		.2byte	0x44c
 8917 15d7 95030000 		.4byte	0x395
 8918 15db 030E0000 		.4byte	.LLST56
 8919 15df 1D       		.uleb128 0x1d
 8920 15e0 72657300 		.ascii	"res\000"
 8921 15e4 01       		.byte	0x1
 8922 15e5 4E04     		.2byte	0x44e
 8923 15e7 BC000000 		.4byte	0xbc
 8924 15eb 480E0000 		.4byte	.LLST57
 8925 15ef 19       		.uleb128 0x19
 8926 15f0 18000000 		.4byte	.LVL357
 8927 15f4 02       		.uleb128 0x2
 8928 15f5 76       		.byte	0x76
 8929 15f6 00       		.sleb128 0
 8930 15f7 13160000 		.4byte	0x1613
 8931 15fb 18       		.uleb128 0x18
 8932 15fc 01       		.uleb128 0x1
 8933 15fd 50       		.byte	0x50
 8934 15fe 02       		.uleb128 0x2
 8935 15ff 08       		.byte	0x8
 8936 1600 57       		.byte	0x57
 8937 1601 18       		.uleb128 0x18
 8938 1602 01       		.uleb128 0x1
 8939 1603 51       		.byte	0x51
 8940 1604 01       		.uleb128 0x1
 8941 1605 37       		.byte	0x37
 8942 1606 18       		.uleb128 0x18
 8943 1607 01       		.uleb128 0x1
 8944 1608 52       		.byte	0x52
 8945 1609 03       		.uleb128 0x3
 8946 160a F3       		.byte	0xf3
 8947 160b 01       		.uleb128 0x1
 8948 160c 51       		.byte	0x51
 8949 160d 18       		.uleb128 0x18
 8950 160e 01       		.uleb128 0x1
 8951 160f 53       		.byte	0x53
 8952 1610 01       		.uleb128 0x1
 8953 1611 31       		.byte	0x31
 8954 1612 00       		.byte	0
 8955 1613 1A       		.uleb128 0x1a
 8956 1614 20000000 		.4byte	.LVL359
 8957 1618 18       		.uleb128 0x18
 8958 1619 01       		.uleb128 0x1
ARM GAS  C:\Users\CHRONI~1\AppData\Local\Temp\cc7oUGua.s 			page 208


 8959 161a 50       		.byte	0x50
 8960 161b 05       		.uleb128 0x5
 8961 161c 03       		.byte	0x3
 8962 161d F4070000 		.4byte	.LC49
 8963 1621 00       		.byte	0
 8964 1622 00       		.byte	0
 8965 1623 20       		.uleb128 0x20
 8966 1624 D5030000 		.4byte	.LASF128
 8967 1628 01       		.byte	0x1
 8968 1629 6F04     		.2byte	0x46f
 8969 162b BC000000 		.4byte	0xbc
 8970 162f 00000000 		.4byte	.LFB17
 8971 1633 68000000 		.4byte	.LFE17-.LFB17
 8972 1637 01       		.uleb128 0x1
 8973 1638 9C       		.byte	0x9c
 8974 1639 E5160000 		.4byte	0x16e5
 8975 163d 1C       		.uleb128 0x1c
 8976 163e 4E0D0000 		.4byte	.LASF99
 8977 1642 01       		.byte	0x1
 8978 1643 6F04     		.2byte	0x46f
 8979 1645 A4080000 		.4byte	0x8a4
 8980 1649 660E0000 		.4byte	.LLST58
 8981 164d 1C       		.uleb128 0x1c
 8982 164e EF0A0000 		.4byte	.LASF129
 8983 1652 01       		.byte	0x1
 8984 1653 6F04     		.2byte	0x46f
 8985 1655 32010000 		.4byte	0x132
 8986 1659 A80E0000 		.4byte	.LLST59
 8987 165d 1D       		.uleb128 0x1d
 8988 165e 72657300 		.ascii	"res\000"
 8989 1662 01       		.byte	0x1
 8990 1663 7104     		.2byte	0x471
 8991 1665 BC000000 		.4byte	0xbc
 8992 1669 E20E0000 		.4byte	.LLST60
 8993 166d 1E       		.uleb128 0x1e
 8994 166e 43020000 		.4byte	.LASF95
 8995 1672 01       		.byte	0x1
 8996 1673 7204     		.2byte	0x472
 8997 1675 BC000000 		.4byte	0xbc
 8998 1679 02       		.uleb128 0x2
 8999 167a 91       		.byte	0x91
 9000 167b 67       		.sleb128 -25
 9001 167c 19       		.uleb128 0x19
 9002 167d 1E000000 		.4byte	.LVL366
 9003 1681 02       		.uleb128 0x2
 9004 1682 77       		.byte	0x77
 9005 1683 00       		.sleb128 0
 9006 1684 9F160000 		.4byte	0x169f
 9007 1688 18       		.uleb128 0x18
 9008 1689 01       		.uleb128 0x1
 9009 168a 50       		.byte	0x50
 9010 168b 02       		.uleb128 0x2
 9011 168c 08       		.byte	0x8
 9012 168d 57       		.byte	0x57
 9013 168e 18       		.uleb128 0x18
 9014 168f 01       		.uleb128 0x1
 9015 1690 51       		.byte	0x51
ARM GAS  C:\Users\CHRONI~1\AppData\Local\Temp\cc7oUGua.s 			page 209


 9016 1691 01       		.uleb128 0x1
 9017 1692 38       		.byte	0x38
 9018 1693 18       		.uleb128 0x18
 9019 1694 01       		.uleb128 0x1
 9020 1695 52       		.byte	0x52
 9021 1696 02       		.uleb128 0x2
 9022 1697 91       		.byte	0x91
 9023 1698 67       		.sleb128 -25
 9024 1699 18       		.uleb128 0x18
 9025 169a 01       		.uleb128 0x1
 9026 169b 53       		.byte	0x53
 9027 169c 01       		.uleb128 0x1
 9028 169d 31       		.byte	0x31
 9029 169e 00       		.byte	0
 9030 169f 17       		.uleb128 0x17
 9031 16a0 26000000 		.4byte	.LVL368
 9032 16a4 B2160000 		.4byte	0x16b2
 9033 16a8 18       		.uleb128 0x18
 9034 16a9 01       		.uleb128 0x1
 9035 16aa 50       		.byte	0x50
 9036 16ab 05       		.uleb128 0x5
 9037 16ac 03       		.byte	0x3
 9038 16ad F00A0000 		.4byte	.LC67
 9039 16b1 00       		.byte	0
 9040 16b2 19       		.uleb128 0x19
 9041 16b3 44000000 		.4byte	.LVL371
 9042 16b7 02       		.uleb128 0x2
 9043 16b8 76       		.byte	0x76
 9044 16b9 00       		.sleb128 0
 9045 16ba D5160000 		.4byte	0x16d5
 9046 16be 18       		.uleb128 0x18
 9047 16bf 01       		.uleb128 0x1
 9048 16c0 50       		.byte	0x50
 9049 16c1 02       		.uleb128 0x2
 9050 16c2 08       		.byte	0x8
 9051 16c3 57       		.byte	0x57
 9052 16c4 18       		.uleb128 0x18
 9053 16c5 01       		.uleb128 0x1
 9054 16c6 51       		.byte	0x51
 9055 16c7 01       		.uleb128 0x1
 9056 16c8 38       		.byte	0x38
 9057 16c9 18       		.uleb128 0x18
 9058 16ca 01       		.uleb128 0x1
 9059 16cb 52       		.byte	0x52
 9060 16cc 02       		.uleb128 0x2
 9061 16cd 91       		.byte	0x91
 9062 16ce 67       		.sleb128 -25
 9063 16cf 18       		.uleb128 0x18
 9064 16d0 01       		.uleb128 0x1
 9065 16d1 53       		.byte	0x53
 9066 16d2 01       		.uleb128 0x1
 9067 16d3 31       		.byte	0x31
 9068 16d4 00       		.byte	0
 9069 16d5 1A       		.uleb128 0x1a
 9070 16d6 4C000000 		.4byte	.LVL373
 9071 16da 18       		.uleb128 0x18
 9072 16db 01       		.uleb128 0x1
ARM GAS  C:\Users\CHRONI~1\AppData\Local\Temp\cc7oUGua.s 			page 210


 9073 16dc 50       		.byte	0x50
 9074 16dd 05       		.uleb128 0x5
 9075 16de 03       		.byte	0x3
 9076 16df 140B0000 		.4byte	.LC68
 9077 16e3 00       		.byte	0
 9078 16e4 00       		.byte	0
 9079 16e5 20       		.uleb128 0x20
 9080 16e6 AA010000 		.4byte	.LASF130
 9081 16ea 01       		.byte	0x1
 9082 16eb 9C04     		.2byte	0x49c
 9083 16ed BC000000 		.4byte	0xbc
 9084 16f1 00000000 		.4byte	.LFB18
 9085 16f5 44000000 		.4byte	.LFE18-.LFB18
 9086 16f9 01       		.uleb128 0x1
 9087 16fa 9C       		.byte	0x9c
 9088 16fb 71170000 		.4byte	0x1771
 9089 16ff 1C       		.uleb128 0x1c
 9090 1700 4E0D0000 		.4byte	.LASF99
 9091 1704 01       		.byte	0x1
 9092 1705 9C04     		.2byte	0x49c
 9093 1707 A4080000 		.4byte	0x8a4
 9094 170b 160F0000 		.4byte	.LLST61
 9095 170f 1C       		.uleb128 0x1c
 9096 1710 EF0A0000 		.4byte	.LASF129
 9097 1714 01       		.byte	0x1
 9098 1715 9C04     		.2byte	0x49c
 9099 1717 71170000 		.4byte	0x1771
 9100 171b 4D0F0000 		.4byte	.LLST62
 9101 171f 1D       		.uleb128 0x1d
 9102 1720 72657300 		.ascii	"res\000"
 9103 1724 01       		.byte	0x1
 9104 1725 9E04     		.2byte	0x49e
 9105 1727 BC000000 		.4byte	0xbc
 9106 172b 840F0000 		.4byte	.LLST63
 9107 172f 1E       		.uleb128 0x1e
 9108 1730 43020000 		.4byte	.LASF95
 9109 1734 01       		.byte	0x1
 9110 1735 9F04     		.2byte	0x49f
 9111 1737 BC000000 		.4byte	0xbc
 9112 173b 02       		.uleb128 0x2
 9113 173c 91       		.byte	0x91
 9114 173d 67       		.sleb128 -25
 9115 173e 19       		.uleb128 0x19
 9116 173f 1E000000 		.4byte	.LVL380
 9117 1743 02       		.uleb128 0x2
 9118 1744 77       		.byte	0x77
 9119 1745 00       		.sleb128 0
 9120 1746 61170000 		.4byte	0x1761
 9121 174a 18       		.uleb128 0x18
 9122 174b 01       		.uleb128 0x1
 9123 174c 50       		.byte	0x50
 9124 174d 02       		.uleb128 0x2
 9125 174e 08       		.byte	0x8
 9126 174f 57       		.byte	0x57
 9127 1750 18       		.uleb128 0x18
 9128 1751 01       		.uleb128 0x1
 9129 1752 51       		.byte	0x51
ARM GAS  C:\Users\CHRONI~1\AppData\Local\Temp\cc7oUGua.s 			page 211


 9130 1753 01       		.uleb128 0x1
 9131 1754 38       		.byte	0x38
 9132 1755 18       		.uleb128 0x18
 9133 1756 01       		.uleb128 0x1
 9134 1757 52       		.byte	0x52
 9135 1758 02       		.uleb128 0x2
 9136 1759 91       		.byte	0x91
 9137 175a 67       		.sleb128 -25
 9138 175b 18       		.uleb128 0x18
 9139 175c 01       		.uleb128 0x1
 9140 175d 53       		.byte	0x53
 9141 175e 01       		.uleb128 0x1
 9142 175f 31       		.byte	0x31
 9143 1760 00       		.byte	0
 9144 1761 1A       		.uleb128 0x1a
 9145 1762 26000000 		.4byte	.LVL382
 9146 1766 18       		.uleb128 0x18
 9147 1767 01       		.uleb128 0x1
 9148 1768 50       		.byte	0x50
 9149 1769 05       		.uleb128 0x5
 9150 176a 03       		.byte	0x3
 9151 176b F00A0000 		.4byte	.LC67
 9152 176f 00       		.byte	0
 9153 1770 00       		.byte	0
 9154 1771 05       		.uleb128 0x5
 9155 1772 04       		.byte	0x4
 9156 1773 32010000 		.4byte	0x132
 9157 1777 20       		.uleb128 0x20
 9158 1778 DE020000 		.4byte	.LASF131
 9159 177c 01       		.byte	0x1
 9160 177d C104     		.2byte	0x4c1
 9161 177f BC000000 		.4byte	0xbc
 9162 1783 00000000 		.4byte	.LFB19
 9163 1787 68000000 		.4byte	.LFE19-.LFB19
 9164 178b 01       		.uleb128 0x1
 9165 178c 9C       		.byte	0x9c
 9166 178d 39180000 		.4byte	0x1839
 9167 1791 1C       		.uleb128 0x1c
 9168 1792 4E0D0000 		.4byte	.LASF99
 9169 1796 01       		.byte	0x1
 9170 1797 C104     		.2byte	0x4c1
 9171 1799 A4080000 		.4byte	0x8a4
 9172 179d A20F0000 		.4byte	.LLST64
 9173 17a1 1C       		.uleb128 0x1c
 9174 17a2 22040000 		.4byte	.LASF113
 9175 17a6 01       		.byte	0x1
 9176 17a7 C104     		.2byte	0x4c1
 9177 17a9 F6000000 		.4byte	0xf6
 9178 17ad E40F0000 		.4byte	.LLST65
 9179 17b1 1D       		.uleb128 0x1d
 9180 17b2 72657300 		.ascii	"res\000"
 9181 17b6 01       		.byte	0x1
 9182 17b7 C304     		.2byte	0x4c3
 9183 17b9 BC000000 		.4byte	0xbc
 9184 17bd 1E100000 		.4byte	.LLST66
 9185 17c1 1E       		.uleb128 0x1e
 9186 17c2 43020000 		.4byte	.LASF95
ARM GAS  C:\Users\CHRONI~1\AppData\Local\Temp\cc7oUGua.s 			page 212


 9187 17c6 01       		.byte	0x1
 9188 17c7 C404     		.2byte	0x4c4
 9189 17c9 BC000000 		.4byte	0xbc
 9190 17cd 02       		.uleb128 0x2
 9191 17ce 91       		.byte	0x91
 9192 17cf 67       		.sleb128 -25
 9193 17d0 19       		.uleb128 0x19
 9194 17d1 1E000000 		.4byte	.LVL389
 9195 17d5 02       		.uleb128 0x2
 9196 17d6 77       		.byte	0x77
 9197 17d7 00       		.sleb128 0
 9198 17d8 F3170000 		.4byte	0x17f3
 9199 17dc 18       		.uleb128 0x18
 9200 17dd 01       		.uleb128 0x1
 9201 17de 50       		.byte	0x50
 9202 17df 02       		.uleb128 0x2
 9203 17e0 08       		.byte	0x8
 9204 17e1 57       		.byte	0x57
 9205 17e2 18       		.uleb128 0x18
 9206 17e3 01       		.uleb128 0x1
 9207 17e4 51       		.byte	0x51
 9208 17e5 01       		.uleb128 0x1
 9209 17e6 38       		.byte	0x38
 9210 17e7 18       		.uleb128 0x18
 9211 17e8 01       		.uleb128 0x1
 9212 17e9 52       		.byte	0x52
 9213 17ea 02       		.uleb128 0x2
 9214 17eb 91       		.byte	0x91
 9215 17ec 67       		.sleb128 -25
 9216 17ed 18       		.uleb128 0x18
 9217 17ee 01       		.uleb128 0x1
 9218 17ef 53       		.byte	0x53
 9219 17f0 01       		.uleb128 0x1
 9220 17f1 31       		.byte	0x31
 9221 17f2 00       		.byte	0
 9222 17f3 17       		.uleb128 0x17
 9223 17f4 26000000 		.4byte	.LVL391
 9224 17f8 06180000 		.4byte	0x1806
 9225 17fc 18       		.uleb128 0x18
 9226 17fd 01       		.uleb128 0x1
 9227 17fe 50       		.byte	0x50
 9228 17ff 05       		.uleb128 0x5
 9229 1800 03       		.byte	0x3
 9230 1801 F00A0000 		.4byte	.LC67
 9231 1805 00       		.byte	0
 9232 1806 19       		.uleb128 0x19
 9233 1807 44000000 		.4byte	.LVL394
 9234 180b 02       		.uleb128 0x2
 9235 180c 76       		.byte	0x76
 9236 180d 00       		.sleb128 0
 9237 180e 29180000 		.4byte	0x1829
 9238 1812 18       		.uleb128 0x18
 9239 1813 01       		.uleb128 0x1
 9240 1814 50       		.byte	0x50
 9241 1815 02       		.uleb128 0x2
 9242 1816 08       		.byte	0x8
 9243 1817 57       		.byte	0x57
ARM GAS  C:\Users\CHRONI~1\AppData\Local\Temp\cc7oUGua.s 			page 213


 9244 1818 18       		.uleb128 0x18
 9245 1819 01       		.uleb128 0x1
 9246 181a 51       		.byte	0x51
 9247 181b 01       		.uleb128 0x1
 9248 181c 38       		.byte	0x38
 9249 181d 18       		.uleb128 0x18
 9250 181e 01       		.uleb128 0x1
 9251 181f 52       		.byte	0x52
 9252 1820 02       		.uleb128 0x2
 9253 1821 91       		.byte	0x91
 9254 1822 67       		.sleb128 -25
 9255 1823 18       		.uleb128 0x18
 9256 1824 01       		.uleb128 0x1
 9257 1825 53       		.byte	0x53
 9258 1826 01       		.uleb128 0x1
 9259 1827 31       		.byte	0x31
 9260 1828 00       		.byte	0
 9261 1829 1A       		.uleb128 0x1a
 9262 182a 4C000000 		.4byte	.LVL396
 9263 182e 18       		.uleb128 0x18
 9264 182f 01       		.uleb128 0x1
 9265 1830 50       		.byte	0x50
 9266 1831 05       		.uleb128 0x5
 9267 1832 03       		.byte	0x3
 9268 1833 140B0000 		.4byte	.LC68
 9269 1837 00       		.byte	0
 9270 1838 00       		.byte	0
 9271 1839 20       		.uleb128 0x20
 9272 183a 00040000 		.4byte	.LASF132
 9273 183e 01       		.byte	0x1
 9274 183f EE04     		.2byte	0x4ee
 9275 1841 BC000000 		.4byte	0xbc
 9276 1845 00000000 		.4byte	.LFB20
 9277 1849 48000000 		.4byte	.LFE20-.LFB20
 9278 184d 01       		.uleb128 0x1
 9279 184e 9C       		.byte	0x9c
 9280 184f C5180000 		.4byte	0x18c5
 9281 1853 1C       		.uleb128 0x1c
 9282 1854 4E0D0000 		.4byte	.LASF99
 9283 1858 01       		.byte	0x1
 9284 1859 EE04     		.2byte	0x4ee
 9285 185b A4080000 		.4byte	0x8a4
 9286 185f 52100000 		.4byte	.LLST67
 9287 1863 1C       		.uleb128 0x1c
 9288 1864 22040000 		.4byte	.LASF113
 9289 1868 01       		.byte	0x1
 9290 1869 EE04     		.2byte	0x4ee
 9291 186b 910F0000 		.4byte	0xf91
 9292 186f 89100000 		.4byte	.LLST68
 9293 1873 1D       		.uleb128 0x1d
 9294 1874 72657300 		.ascii	"res\000"
 9295 1878 01       		.byte	0x1
 9296 1879 F004     		.2byte	0x4f0
 9297 187b BC000000 		.4byte	0xbc
 9298 187f C0100000 		.4byte	.LLST69
 9299 1883 1E       		.uleb128 0x1e
 9300 1884 43020000 		.4byte	.LASF95
ARM GAS  C:\Users\CHRONI~1\AppData\Local\Temp\cc7oUGua.s 			page 214


 9301 1888 01       		.byte	0x1
 9302 1889 F104     		.2byte	0x4f1
 9303 188b BC000000 		.4byte	0xbc
 9304 188f 02       		.uleb128 0x2
 9305 1890 91       		.byte	0x91
 9306 1891 67       		.sleb128 -25
 9307 1892 19       		.uleb128 0x19
 9308 1893 1E000000 		.4byte	.LVL403
 9309 1897 02       		.uleb128 0x2
 9310 1898 77       		.byte	0x77
 9311 1899 00       		.sleb128 0
 9312 189a B5180000 		.4byte	0x18b5
 9313 189e 18       		.uleb128 0x18
 9314 189f 01       		.uleb128 0x1
 9315 18a0 50       		.byte	0x50
 9316 18a1 02       		.uleb128 0x2
 9317 18a2 08       		.byte	0x8
 9318 18a3 57       		.byte	0x57
 9319 18a4 18       		.uleb128 0x18
 9320 18a5 01       		.uleb128 0x1
 9321 18a6 51       		.byte	0x51
 9322 18a7 01       		.uleb128 0x1
 9323 18a8 38       		.byte	0x38
 9324 18a9 18       		.uleb128 0x18
 9325 18aa 01       		.uleb128 0x1
 9326 18ab 52       		.byte	0x52
 9327 18ac 02       		.uleb128 0x2
 9328 18ad 91       		.byte	0x91
 9329 18ae 67       		.sleb128 -25
 9330 18af 18       		.uleb128 0x18
 9331 18b0 01       		.uleb128 0x1
 9332 18b1 53       		.byte	0x53
 9333 18b2 01       		.uleb128 0x1
 9334 18b3 31       		.byte	0x31
 9335 18b4 00       		.byte	0
 9336 18b5 1A       		.uleb128 0x1a
 9337 18b6 26000000 		.4byte	.LVL405
 9338 18ba 18       		.uleb128 0x18
 9339 18bb 01       		.uleb128 0x1
 9340 18bc 50       		.byte	0x50
 9341 18bd 05       		.uleb128 0x5
 9342 18be 03       		.byte	0x3
 9343 18bf F00A0000 		.4byte	.LC67
 9344 18c3 00       		.byte	0
 9345 18c4 00       		.byte	0
 9346 18c5 20       		.uleb128 0x20
 9347 18c6 1C000000 		.4byte	.LASF133
 9348 18ca 01       		.byte	0x1
 9349 18cb 1405     		.2byte	0x514
 9350 18cd BC000000 		.4byte	0xbc
 9351 18d1 00000000 		.4byte	.LFB21
 9352 18d5 78000000 		.4byte	.LFE21-.LFB21
 9353 18d9 01       		.uleb128 0x1
 9354 18da 9C       		.byte	0x9c
 9355 18db 9A190000 		.4byte	0x199a
 9356 18df 1C       		.uleb128 0x1c
 9357 18e0 4E0D0000 		.4byte	.LASF99
ARM GAS  C:\Users\CHRONI~1\AppData\Local\Temp\cc7oUGua.s 			page 215


 9358 18e4 01       		.byte	0x1
 9359 18e5 1405     		.2byte	0x514
 9360 18e7 A4080000 		.4byte	0x8a4
 9361 18eb DE100000 		.4byte	.LLST70
 9362 18ef 1C       		.uleb128 0x1c
 9363 18f0 64040000 		.4byte	.LASF134
 9364 18f4 01       		.byte	0x1
 9365 18f5 1405     		.2byte	0x514
 9366 18f7 BC000000 		.4byte	0xbc
 9367 18fb 36110000 		.4byte	.LLST71
 9368 18ff 1D       		.uleb128 0x1d
 9369 1900 72657300 		.ascii	"res\000"
 9370 1904 01       		.byte	0x1
 9371 1905 1605     		.2byte	0x516
 9372 1907 BC000000 		.4byte	0xbc
 9373 190b 89110000 		.4byte	.LLST72
 9374 190f 1E       		.uleb128 0x1e
 9375 1910 43020000 		.4byte	.LASF95
 9376 1914 01       		.byte	0x1
 9377 1915 1705     		.2byte	0x517
 9378 1917 BC000000 		.4byte	0xbc
 9379 191b 02       		.uleb128 0x2
 9380 191c 91       		.byte	0x91
 9381 191d 67       		.sleb128 -25
 9382 191e 17       		.uleb128 0x17
 9383 191f 1A000000 		.4byte	.LVL411
 9384 1923 31190000 		.4byte	0x1931
 9385 1927 18       		.uleb128 0x18
 9386 1928 01       		.uleb128 0x1
 9387 1929 50       		.byte	0x50
 9388 192a 05       		.uleb128 0x5
 9389 192b 03       		.byte	0x3
 9390 192c 3C0B0000 		.4byte	.LC69
 9391 1930 00       		.byte	0
 9392 1931 19       		.uleb128 0x19
 9393 1932 2C000000 		.4byte	.LVL415
 9394 1936 02       		.uleb128 0x2
 9395 1937 77       		.byte	0x77
 9396 1938 00       		.sleb128 0
 9397 1939 54190000 		.4byte	0x1954
 9398 193d 18       		.uleb128 0x18
 9399 193e 01       		.uleb128 0x1
 9400 193f 50       		.byte	0x50
 9401 1940 02       		.uleb128 0x2
 9402 1941 08       		.byte	0x8
 9403 1942 57       		.byte	0x57
 9404 1943 18       		.uleb128 0x18
 9405 1944 01       		.uleb128 0x1
 9406 1945 51       		.byte	0x51
 9407 1946 01       		.uleb128 0x1
 9408 1947 38       		.byte	0x38
 9409 1948 18       		.uleb128 0x18
 9410 1949 01       		.uleb128 0x1
 9411 194a 52       		.byte	0x52
 9412 194b 02       		.uleb128 0x2
 9413 194c 91       		.byte	0x91
 9414 194d 67       		.sleb128 -25
ARM GAS  C:\Users\CHRONI~1\AppData\Local\Temp\cc7oUGua.s 			page 216


 9415 194e 18       		.uleb128 0x18
 9416 194f 01       		.uleb128 0x1
 9417 1950 53       		.byte	0x53
 9418 1951 01       		.uleb128 0x1
 9419 1952 31       		.byte	0x31
 9420 1953 00       		.byte	0
 9421 1954 17       		.uleb128 0x17
 9422 1955 34000000 		.4byte	.LVL417
 9423 1959 67190000 		.4byte	0x1967
 9424 195d 18       		.uleb128 0x18
 9425 195e 01       		.uleb128 0x1
 9426 195f 50       		.byte	0x50
 9427 1960 05       		.uleb128 0x5
 9428 1961 03       		.byte	0x3
 9429 1962 F00A0000 		.4byte	.LC67
 9430 1966 00       		.byte	0
 9431 1967 19       		.uleb128 0x19
 9432 1968 50000000 		.4byte	.LVL420
 9433 196c 02       		.uleb128 0x2
 9434 196d 76       		.byte	0x76
 9435 196e 00       		.sleb128 0
 9436 196f 8A190000 		.4byte	0x198a
 9437 1973 18       		.uleb128 0x18
 9438 1974 01       		.uleb128 0x1
 9439 1975 50       		.byte	0x50
 9440 1976 02       		.uleb128 0x2
 9441 1977 08       		.byte	0x8
 9442 1978 57       		.byte	0x57
 9443 1979 18       		.uleb128 0x18
 9444 197a 01       		.uleb128 0x1
 9445 197b 51       		.byte	0x51
 9446 197c 01       		.uleb128 0x1
 9447 197d 38       		.byte	0x38
 9448 197e 18       		.uleb128 0x18
 9449 197f 01       		.uleb128 0x1
 9450 1980 52       		.byte	0x52
 9451 1981 02       		.uleb128 0x2
 9452 1982 91       		.byte	0x91
 9453 1983 67       		.sleb128 -25
 9454 1984 18       		.uleb128 0x18
 9455 1985 01       		.uleb128 0x1
 9456 1986 53       		.byte	0x53
 9457 1987 01       		.uleb128 0x1
 9458 1988 31       		.byte	0x31
 9459 1989 00       		.byte	0
 9460 198a 1A       		.uleb128 0x1a
 9461 198b 58000000 		.4byte	.LVL422
 9462 198f 18       		.uleb128 0x18
 9463 1990 01       		.uleb128 0x1
 9464 1991 50       		.byte	0x50
 9465 1992 05       		.uleb128 0x5
 9466 1993 03       		.byte	0x3
 9467 1994 140B0000 		.4byte	.LC68
 9468 1998 00       		.byte	0
 9469 1999 00       		.byte	0
 9470 199a 20       		.uleb128 0x20
 9471 199b 760B0000 		.4byte	.LASF135
ARM GAS  C:\Users\CHRONI~1\AppData\Local\Temp\cc7oUGua.s 			page 217


 9472 199f 01       		.byte	0x1
 9473 19a0 4705     		.2byte	0x547
 9474 19a2 BC000000 		.4byte	0xbc
 9475 19a6 00000000 		.4byte	.LFB22
 9476 19aa 48000000 		.4byte	.LFE22-.LFB22
 9477 19ae 01       		.uleb128 0x1
 9478 19af 9C       		.byte	0x9c
 9479 19b0 261A0000 		.4byte	0x1a26
 9480 19b4 1C       		.uleb128 0x1c
 9481 19b5 4E0D0000 		.4byte	.LASF99
 9482 19b9 01       		.byte	0x1
 9483 19ba 4705     		.2byte	0x547
 9484 19bc A4080000 		.4byte	0x8a4
 9485 19c0 BD110000 		.4byte	.LLST73
 9486 19c4 1C       		.uleb128 0x1c
 9487 19c5 64040000 		.4byte	.LASF134
 9488 19c9 01       		.byte	0x1
 9489 19ca 4705     		.2byte	0x547
 9490 19cc 95030000 		.4byte	0x395
 9491 19d0 F4110000 		.4byte	.LLST74
 9492 19d4 1D       		.uleb128 0x1d
 9493 19d5 72657300 		.ascii	"res\000"
 9494 19d9 01       		.byte	0x1
 9495 19da 4905     		.2byte	0x549
 9496 19dc BC000000 		.4byte	0xbc
 9497 19e0 2B120000 		.4byte	.LLST75
 9498 19e4 1E       		.uleb128 0x1e
 9499 19e5 43020000 		.4byte	.LASF95
 9500 19e9 01       		.byte	0x1
 9501 19ea 4A05     		.2byte	0x54a
 9502 19ec BC000000 		.4byte	0xbc
 9503 19f0 02       		.uleb128 0x2
 9504 19f1 91       		.byte	0x91
 9505 19f2 67       		.sleb128 -25
 9506 19f3 19       		.uleb128 0x19
 9507 19f4 1E000000 		.4byte	.LVL429
 9508 19f8 02       		.uleb128 0x2
 9509 19f9 77       		.byte	0x77
 9510 19fa 00       		.sleb128 0
 9511 19fb 161A0000 		.4byte	0x1a16
 9512 19ff 18       		.uleb128 0x18
 9513 1a00 01       		.uleb128 0x1
 9514 1a01 50       		.byte	0x50
 9515 1a02 02       		.uleb128 0x2
 9516 1a03 08       		.byte	0x8
 9517 1a04 57       		.byte	0x57
 9518 1a05 18       		.uleb128 0x18
 9519 1a06 01       		.uleb128 0x1
 9520 1a07 51       		.byte	0x51
 9521 1a08 01       		.uleb128 0x1
 9522 1a09 38       		.byte	0x38
 9523 1a0a 18       		.uleb128 0x18
 9524 1a0b 01       		.uleb128 0x1
 9525 1a0c 52       		.byte	0x52
 9526 1a0d 02       		.uleb128 0x2
 9527 1a0e 91       		.byte	0x91
 9528 1a0f 67       		.sleb128 -25
ARM GAS  C:\Users\CHRONI~1\AppData\Local\Temp\cc7oUGua.s 			page 218


 9529 1a10 18       		.uleb128 0x18
 9530 1a11 01       		.uleb128 0x1
 9531 1a12 53       		.byte	0x53
 9532 1a13 01       		.uleb128 0x1
 9533 1a14 31       		.byte	0x31
 9534 1a15 00       		.byte	0
 9535 1a16 1A       		.uleb128 0x1a
 9536 1a17 26000000 		.4byte	.LVL431
 9537 1a1b 18       		.uleb128 0x18
 9538 1a1c 01       		.uleb128 0x1
 9539 1a1d 50       		.byte	0x50
 9540 1a1e 05       		.uleb128 0x5
 9541 1a1f 03       		.byte	0x3
 9542 1a20 F00A0000 		.4byte	.LC67
 9543 1a24 00       		.byte	0
 9544 1a25 00       		.byte	0
 9545 1a26 20       		.uleb128 0x20
 9546 1a27 C9060000 		.4byte	.LASF136
 9547 1a2b 01       		.byte	0x1
 9548 1a2c 6C05     		.2byte	0x56c
 9549 1a2e BC000000 		.4byte	0xbc
 9550 1a32 00000000 		.4byte	.LFB23
 9551 1a36 68000000 		.4byte	.LFE23-.LFB23
 9552 1a3a 01       		.uleb128 0x1
 9553 1a3b 9C       		.byte	0x9c
 9554 1a3c E81A0000 		.4byte	0x1ae8
 9555 1a40 1C       		.uleb128 0x1c
 9556 1a41 4E0D0000 		.4byte	.LASF99
 9557 1a45 01       		.byte	0x1
 9558 1a46 6C05     		.2byte	0x56c
 9559 1a48 A4080000 		.4byte	0x8a4
 9560 1a4c 49120000 		.4byte	.LLST76
 9561 1a50 1C       		.uleb128 0x1c
 9562 1a51 22040000 		.4byte	.LASF113
 9563 1a55 01       		.byte	0x1
 9564 1a56 6C05     		.2byte	0x56c
 9565 1a58 F6000000 		.4byte	0xf6
 9566 1a5c 8B120000 		.4byte	.LLST77
 9567 1a60 1D       		.uleb128 0x1d
 9568 1a61 72657300 		.ascii	"res\000"
 9569 1a65 01       		.byte	0x1
 9570 1a66 6E05     		.2byte	0x56e
 9571 1a68 BC000000 		.4byte	0xbc
 9572 1a6c C5120000 		.4byte	.LLST78
 9573 1a70 1E       		.uleb128 0x1e
 9574 1a71 43020000 		.4byte	.LASF95
 9575 1a75 01       		.byte	0x1
 9576 1a76 6F05     		.2byte	0x56f
 9577 1a78 BC000000 		.4byte	0xbc
 9578 1a7c 02       		.uleb128 0x2
 9579 1a7d 91       		.byte	0x91
 9580 1a7e 67       		.sleb128 -25
 9581 1a7f 19       		.uleb128 0x19
 9582 1a80 1E000000 		.4byte	.LVL438
 9583 1a84 02       		.uleb128 0x2
 9584 1a85 77       		.byte	0x77
 9585 1a86 00       		.sleb128 0
ARM GAS  C:\Users\CHRONI~1\AppData\Local\Temp\cc7oUGua.s 			page 219


 9586 1a87 A21A0000 		.4byte	0x1aa2
 9587 1a8b 18       		.uleb128 0x18
 9588 1a8c 01       		.uleb128 0x1
 9589 1a8d 50       		.byte	0x50
 9590 1a8e 02       		.uleb128 0x2
 9591 1a8f 08       		.byte	0x8
 9592 1a90 57       		.byte	0x57
 9593 1a91 18       		.uleb128 0x18
 9594 1a92 01       		.uleb128 0x1
 9595 1a93 51       		.byte	0x51
 9596 1a94 01       		.uleb128 0x1
 9597 1a95 39       		.byte	0x39
 9598 1a96 18       		.uleb128 0x18
 9599 1a97 01       		.uleb128 0x1
 9600 1a98 52       		.byte	0x52
 9601 1a99 02       		.uleb128 0x2
 9602 1a9a 91       		.byte	0x91
 9603 1a9b 67       		.sleb128 -25
 9604 1a9c 18       		.uleb128 0x18
 9605 1a9d 01       		.uleb128 0x1
 9606 1a9e 53       		.byte	0x53
 9607 1a9f 01       		.uleb128 0x1
 9608 1aa0 31       		.byte	0x31
 9609 1aa1 00       		.byte	0
 9610 1aa2 17       		.uleb128 0x17
 9611 1aa3 26000000 		.4byte	.LVL440
 9612 1aa7 B51A0000 		.4byte	0x1ab5
 9613 1aab 18       		.uleb128 0x18
 9614 1aac 01       		.uleb128 0x1
 9615 1aad 50       		.byte	0x50
 9616 1aae 05       		.uleb128 0x5
 9617 1aaf 03       		.byte	0x3
 9618 1ab0 20060000 		.4byte	.LC37
 9619 1ab4 00       		.byte	0
 9620 1ab5 19       		.uleb128 0x19
 9621 1ab6 44000000 		.4byte	.LVL443
 9622 1aba 02       		.uleb128 0x2
 9623 1abb 76       		.byte	0x76
 9624 1abc 00       		.sleb128 0
 9625 1abd D81A0000 		.4byte	0x1ad8
 9626 1ac1 18       		.uleb128 0x18
 9627 1ac2 01       		.uleb128 0x1
 9628 1ac3 50       		.byte	0x50
 9629 1ac4 02       		.uleb128 0x2
 9630 1ac5 08       		.byte	0x8
 9631 1ac6 57       		.byte	0x57
 9632 1ac7 18       		.uleb128 0x18
 9633 1ac8 01       		.uleb128 0x1
 9634 1ac9 51       		.byte	0x51
 9635 1aca 01       		.uleb128 0x1
 9636 1acb 39       		.byte	0x39
 9637 1acc 18       		.uleb128 0x18
 9638 1acd 01       		.uleb128 0x1
 9639 1ace 52       		.byte	0x52
 9640 1acf 02       		.uleb128 0x2
 9641 1ad0 91       		.byte	0x91
 9642 1ad1 67       		.sleb128 -25
ARM GAS  C:\Users\CHRONI~1\AppData\Local\Temp\cc7oUGua.s 			page 220


 9643 1ad2 18       		.uleb128 0x18
 9644 1ad3 01       		.uleb128 0x1
 9645 1ad4 53       		.byte	0x53
 9646 1ad5 01       		.uleb128 0x1
 9647 1ad6 31       		.byte	0x31
 9648 1ad7 00       		.byte	0
 9649 1ad8 1A       		.uleb128 0x1a
 9650 1ad9 4C000000 		.4byte	.LVL445
 9651 1add 18       		.uleb128 0x18
 9652 1ade 01       		.uleb128 0x1
 9653 1adf 50       		.byte	0x50
 9654 1ae0 05       		.uleb128 0x5
 9655 1ae1 03       		.byte	0x3
 9656 1ae2 44060000 		.4byte	.LC38
 9657 1ae6 00       		.byte	0
 9658 1ae7 00       		.byte	0
 9659 1ae8 20       		.uleb128 0x20
 9660 1ae9 BC020000 		.4byte	.LASF137
 9661 1aed 01       		.byte	0x1
 9662 1aee 9905     		.2byte	0x599
 9663 1af0 BC000000 		.4byte	0xbc
 9664 1af4 00000000 		.4byte	.LFB24
 9665 1af8 44000000 		.4byte	.LFE24-.LFB24
 9666 1afc 01       		.uleb128 0x1
 9667 1afd 9C       		.byte	0x9c
 9668 1afe 741B0000 		.4byte	0x1b74
 9669 1b02 1C       		.uleb128 0x1c
 9670 1b03 4E0D0000 		.4byte	.LASF99
 9671 1b07 01       		.byte	0x1
 9672 1b08 9905     		.2byte	0x599
 9673 1b0a A4080000 		.4byte	0x8a4
 9674 1b0e F9120000 		.4byte	.LLST79
 9675 1b12 1C       		.uleb128 0x1c
 9676 1b13 22040000 		.4byte	.LASF113
 9677 1b17 01       		.byte	0x1
 9678 1b18 9905     		.2byte	0x599
 9679 1b1a 910F0000 		.4byte	0xf91
 9680 1b1e 30130000 		.4byte	.LLST80
 9681 1b22 1D       		.uleb128 0x1d
 9682 1b23 72657300 		.ascii	"res\000"
 9683 1b27 01       		.byte	0x1
 9684 1b28 9B05     		.2byte	0x59b
 9685 1b2a BC000000 		.4byte	0xbc
 9686 1b2e 67130000 		.4byte	.LLST81
 9687 1b32 1E       		.uleb128 0x1e
 9688 1b33 43020000 		.4byte	.LASF95
 9689 1b37 01       		.byte	0x1
 9690 1b38 9C05     		.2byte	0x59c
 9691 1b3a BC000000 		.4byte	0xbc
 9692 1b3e 02       		.uleb128 0x2
 9693 1b3f 91       		.byte	0x91
 9694 1b40 67       		.sleb128 -25
 9695 1b41 19       		.uleb128 0x19
 9696 1b42 1E000000 		.4byte	.LVL452
 9697 1b46 02       		.uleb128 0x2
 9698 1b47 77       		.byte	0x77
 9699 1b48 00       		.sleb128 0
ARM GAS  C:\Users\CHRONI~1\AppData\Local\Temp\cc7oUGua.s 			page 221


 9700 1b49 641B0000 		.4byte	0x1b64
 9701 1b4d 18       		.uleb128 0x18
 9702 1b4e 01       		.uleb128 0x1
 9703 1b4f 50       		.byte	0x50
 9704 1b50 02       		.uleb128 0x2
 9705 1b51 08       		.byte	0x8
 9706 1b52 57       		.byte	0x57
 9707 1b53 18       		.uleb128 0x18
 9708 1b54 01       		.uleb128 0x1
 9709 1b55 51       		.byte	0x51
 9710 1b56 01       		.uleb128 0x1
 9711 1b57 39       		.byte	0x39
 9712 1b58 18       		.uleb128 0x18
 9713 1b59 01       		.uleb128 0x1
 9714 1b5a 52       		.byte	0x52
 9715 1b5b 02       		.uleb128 0x2
 9716 1b5c 91       		.byte	0x91
 9717 1b5d 67       		.sleb128 -25
 9718 1b5e 18       		.uleb128 0x18
 9719 1b5f 01       		.uleb128 0x1
 9720 1b60 53       		.byte	0x53
 9721 1b61 01       		.uleb128 0x1
 9722 1b62 31       		.byte	0x31
 9723 1b63 00       		.byte	0
 9724 1b64 1A       		.uleb128 0x1a
 9725 1b65 26000000 		.4byte	.LVL454
 9726 1b69 18       		.uleb128 0x18
 9727 1b6a 01       		.uleb128 0x1
 9728 1b6b 50       		.byte	0x50
 9729 1b6c 05       		.uleb128 0x5
 9730 1b6d 03       		.byte	0x3
 9731 1b6e 20060000 		.4byte	.LC37
 9732 1b72 00       		.byte	0
 9733 1b73 00       		.byte	0
 9734 1b74 20       		.uleb128 0x20
 9735 1b75 AB090000 		.4byte	.LASF138
 9736 1b79 01       		.byte	0x1
 9737 1b7a BD05     		.2byte	0x5bd
 9738 1b7c BC000000 		.4byte	0xbc
 9739 1b80 00000000 		.4byte	.LFB25
 9740 1b84 64000000 		.4byte	.LFE25-.LFB25
 9741 1b88 01       		.uleb128 0x1
 9742 1b89 9C       		.byte	0x9c
 9743 1b8a 261C0000 		.4byte	0x1c26
 9744 1b8e 1C       		.uleb128 0x1c
 9745 1b8f 4E0D0000 		.4byte	.LASF99
 9746 1b93 01       		.byte	0x1
 9747 1b94 BD05     		.2byte	0x5bd
 9748 1b96 A4080000 		.4byte	0x8a4
 9749 1b9a 85130000 		.4byte	.LLST82
 9750 1b9e 1D       		.uleb128 0x1d
 9751 1b9f 72657300 		.ascii	"res\000"
 9752 1ba3 01       		.byte	0x1
 9753 1ba4 BF05     		.2byte	0x5bf
 9754 1ba6 BC000000 		.4byte	0xbc
 9755 1baa C7130000 		.4byte	.LLST83
 9756 1bae 1E       		.uleb128 0x1e
ARM GAS  C:\Users\CHRONI~1\AppData\Local\Temp\cc7oUGua.s 			page 222


 9757 1baf 43020000 		.4byte	.LASF95
 9758 1bb3 01       		.byte	0x1
 9759 1bb4 C005     		.2byte	0x5c0
 9760 1bb6 BC000000 		.4byte	0xbc
 9761 1bba 02       		.uleb128 0x2
 9762 1bbb 91       		.byte	0x91
 9763 1bbc 6F       		.sleb128 -17
 9764 1bbd 19       		.uleb128 0x19
 9765 1bbe 1C000000 		.4byte	.LVL460
 9766 1bc2 02       		.uleb128 0x2
 9767 1bc3 76       		.byte	0x76
 9768 1bc4 00       		.sleb128 0
 9769 1bc5 E01B0000 		.4byte	0x1be0
 9770 1bc9 18       		.uleb128 0x18
 9771 1bca 01       		.uleb128 0x1
 9772 1bcb 50       		.byte	0x50
 9773 1bcc 02       		.uleb128 0x2
 9774 1bcd 08       		.byte	0x8
 9775 1bce 57       		.byte	0x57
 9776 1bcf 18       		.uleb128 0x18
 9777 1bd0 01       		.uleb128 0x1
 9778 1bd1 51       		.byte	0x51
 9779 1bd2 01       		.uleb128 0x1
 9780 1bd3 39       		.byte	0x39
 9781 1bd4 18       		.uleb128 0x18
 9782 1bd5 01       		.uleb128 0x1
 9783 1bd6 52       		.byte	0x52
 9784 1bd7 02       		.uleb128 0x2
 9785 1bd8 91       		.byte	0x91
 9786 1bd9 6F       		.sleb128 -17
 9787 1bda 18       		.uleb128 0x18
 9788 1bdb 01       		.uleb128 0x1
 9789 1bdc 53       		.byte	0x53
 9790 1bdd 01       		.uleb128 0x1
 9791 1bde 31       		.byte	0x31
 9792 1bdf 00       		.byte	0
 9793 1be0 17       		.uleb128 0x17
 9794 1be1 24000000 		.4byte	.LVL462
 9795 1be5 F31B0000 		.4byte	0x1bf3
 9796 1be9 18       		.uleb128 0x18
 9797 1bea 01       		.uleb128 0x1
 9798 1beb 50       		.byte	0x50
 9799 1bec 05       		.uleb128 0x5
 9800 1bed 03       		.byte	0x3
 9801 1bee 20060000 		.4byte	.LC37
 9802 1bf2 00       		.byte	0
 9803 1bf3 19       		.uleb128 0x19
 9804 1bf4 42000000 		.4byte	.LVL465
 9805 1bf8 02       		.uleb128 0x2
 9806 1bf9 76       		.byte	0x76
 9807 1bfa 00       		.sleb128 0
 9808 1bfb 161C0000 		.4byte	0x1c16
 9809 1bff 18       		.uleb128 0x18
 9810 1c00 01       		.uleb128 0x1
 9811 1c01 50       		.byte	0x50
 9812 1c02 02       		.uleb128 0x2
 9813 1c03 08       		.byte	0x8
ARM GAS  C:\Users\CHRONI~1\AppData\Local\Temp\cc7oUGua.s 			page 223


 9814 1c04 57       		.byte	0x57
 9815 1c05 18       		.uleb128 0x18
 9816 1c06 01       		.uleb128 0x1
 9817 1c07 51       		.byte	0x51
 9818 1c08 01       		.uleb128 0x1
 9819 1c09 39       		.byte	0x39
 9820 1c0a 18       		.uleb128 0x18
 9821 1c0b 01       		.uleb128 0x1
 9822 1c0c 52       		.byte	0x52
 9823 1c0d 02       		.uleb128 0x2
 9824 1c0e 91       		.byte	0x91
 9825 1c0f 6F       		.sleb128 -17
 9826 1c10 18       		.uleb128 0x18
 9827 1c11 01       		.uleb128 0x1
 9828 1c12 53       		.byte	0x53
 9829 1c13 01       		.uleb128 0x1
 9830 1c14 31       		.byte	0x31
 9831 1c15 00       		.byte	0
 9832 1c16 1A       		.uleb128 0x1a
 9833 1c17 4A000000 		.4byte	.LVL467
 9834 1c1b 18       		.uleb128 0x18
 9835 1c1c 01       		.uleb128 0x1
 9836 1c1d 50       		.byte	0x50
 9837 1c1e 05       		.uleb128 0x5
 9838 1c1f 03       		.byte	0x3
 9839 1c20 44060000 		.4byte	.LC38
 9840 1c24 00       		.byte	0
 9841 1c25 00       		.byte	0
 9842 1c26 20       		.uleb128 0x20
 9843 1c27 99090000 		.4byte	.LASF139
 9844 1c2b 01       		.byte	0x1
 9845 1c2c EA05     		.2byte	0x5ea
 9846 1c2e BC000000 		.4byte	0xbc
 9847 1c32 00000000 		.4byte	.LFB26
 9848 1c36 64000000 		.4byte	.LFE26-.LFB26
 9849 1c3a 01       		.uleb128 0x1
 9850 1c3b 9C       		.byte	0x9c
 9851 1c3c E81C0000 		.4byte	0x1ce8
 9852 1c40 1C       		.uleb128 0x1c
 9853 1c41 4E0D0000 		.4byte	.LASF99
 9854 1c45 01       		.byte	0x1
 9855 1c46 EA05     		.2byte	0x5ea
 9856 1c48 A4080000 		.4byte	0x8a4
 9857 1c4c FB130000 		.4byte	.LLST84
 9858 1c50 1C       		.uleb128 0x1c
 9859 1c51 27020000 		.4byte	.LASF105
 9860 1c55 01       		.byte	0x1
 9861 1c56 EA05     		.2byte	0x5ea
 9862 1c58 5C010000 		.4byte	0x15c
 9863 1c5c 3D140000 		.4byte	.LLST85
 9864 1c60 1D       		.uleb128 0x1d
 9865 1c61 72657300 		.ascii	"res\000"
 9866 1c65 01       		.byte	0x1
 9867 1c66 EC05     		.2byte	0x5ec
 9868 1c68 BC000000 		.4byte	0xbc
 9869 1c6c 77140000 		.4byte	.LLST86
 9870 1c70 1E       		.uleb128 0x1e
ARM GAS  C:\Users\CHRONI~1\AppData\Local\Temp\cc7oUGua.s 			page 224


 9871 1c71 43020000 		.4byte	.LASF95
 9872 1c75 01       		.byte	0x1
 9873 1c76 ED05     		.2byte	0x5ed
 9874 1c78 BC000000 		.4byte	0xbc
 9875 1c7c 02       		.uleb128 0x2
 9876 1c7d 91       		.byte	0x91
 9877 1c7e 67       		.sleb128 -25
 9878 1c7f 19       		.uleb128 0x19
 9879 1c80 1E000000 		.4byte	.LVL474
 9880 1c84 02       		.uleb128 0x2
 9881 1c85 77       		.byte	0x77
 9882 1c86 00       		.sleb128 0
 9883 1c87 A21C0000 		.4byte	0x1ca2
 9884 1c8b 18       		.uleb128 0x18
 9885 1c8c 01       		.uleb128 0x1
 9886 1c8d 50       		.byte	0x50
 9887 1c8e 02       		.uleb128 0x2
 9888 1c8f 08       		.byte	0x8
 9889 1c90 57       		.byte	0x57
 9890 1c91 18       		.uleb128 0x18
 9891 1c92 01       		.uleb128 0x1
 9892 1c93 51       		.byte	0x51
 9893 1c94 01       		.uleb128 0x1
 9894 1c95 39       		.byte	0x39
 9895 1c96 18       		.uleb128 0x18
 9896 1c97 01       		.uleb128 0x1
 9897 1c98 52       		.byte	0x52
 9898 1c99 02       		.uleb128 0x2
 9899 1c9a 91       		.byte	0x91
 9900 1c9b 67       		.sleb128 -25
 9901 1c9c 18       		.uleb128 0x18
 9902 1c9d 01       		.uleb128 0x1
 9903 1c9e 53       		.byte	0x53
 9904 1c9f 01       		.uleb128 0x1
 9905 1ca0 31       		.byte	0x31
 9906 1ca1 00       		.byte	0
 9907 1ca2 17       		.uleb128 0x17
 9908 1ca3 26000000 		.4byte	.LVL476
 9909 1ca7 B51C0000 		.4byte	0x1cb5
 9910 1cab 18       		.uleb128 0x18
 9911 1cac 01       		.uleb128 0x1
 9912 1cad 50       		.byte	0x50
 9913 1cae 05       		.uleb128 0x5
 9914 1caf 03       		.byte	0x3
 9915 1cb0 20060000 		.4byte	.LC37
 9916 1cb4 00       		.byte	0
 9917 1cb5 19       		.uleb128 0x19
 9918 1cb6 42000000 		.4byte	.LVL479
 9919 1cba 02       		.uleb128 0x2
 9920 1cbb 76       		.byte	0x76
 9921 1cbc 00       		.sleb128 0
 9922 1cbd D81C0000 		.4byte	0x1cd8
 9923 1cc1 18       		.uleb128 0x18
 9924 1cc2 01       		.uleb128 0x1
 9925 1cc3 50       		.byte	0x50
 9926 1cc4 02       		.uleb128 0x2
 9927 1cc5 08       		.byte	0x8
ARM GAS  C:\Users\CHRONI~1\AppData\Local\Temp\cc7oUGua.s 			page 225


 9928 1cc6 57       		.byte	0x57
 9929 1cc7 18       		.uleb128 0x18
 9930 1cc8 01       		.uleb128 0x1
 9931 1cc9 51       		.byte	0x51
 9932 1cca 01       		.uleb128 0x1
 9933 1ccb 39       		.byte	0x39
 9934 1ccc 18       		.uleb128 0x18
 9935 1ccd 01       		.uleb128 0x1
 9936 1cce 52       		.byte	0x52
 9937 1ccf 02       		.uleb128 0x2
 9938 1cd0 91       		.byte	0x91
 9939 1cd1 67       		.sleb128 -25
 9940 1cd2 18       		.uleb128 0x18
 9941 1cd3 01       		.uleb128 0x1
 9942 1cd4 53       		.byte	0x53
 9943 1cd5 01       		.uleb128 0x1
 9944 1cd6 31       		.byte	0x31
 9945 1cd7 00       		.byte	0
 9946 1cd8 1A       		.uleb128 0x1a
 9947 1cd9 4A000000 		.4byte	.LVL481
 9948 1cdd 18       		.uleb128 0x18
 9949 1cde 01       		.uleb128 0x1
 9950 1cdf 50       		.byte	0x50
 9951 1ce0 05       		.uleb128 0x5
 9952 1ce1 03       		.byte	0x3
 9953 1ce2 44060000 		.4byte	.LC38
 9954 1ce6 00       		.byte	0
 9955 1ce7 00       		.byte	0
 9956 1ce8 20       		.uleb128 0x20
 9957 1ce9 3D060000 		.4byte	.LASF140
 9958 1ced 01       		.byte	0x1
 9959 1cee 1706     		.2byte	0x617
 9960 1cf0 BC000000 		.4byte	0xbc
 9961 1cf4 00000000 		.4byte	.LFB27
 9962 1cf8 48000000 		.4byte	.LFE27-.LFB27
 9963 1cfc 01       		.uleb128 0x1
 9964 1cfd 9C       		.byte	0x9c
 9965 1cfe 741D0000 		.4byte	0x1d74
 9966 1d02 1C       		.uleb128 0x1c
 9967 1d03 4E0D0000 		.4byte	.LASF99
 9968 1d07 01       		.byte	0x1
 9969 1d08 1706     		.2byte	0x617
 9970 1d0a A4080000 		.4byte	0x8a4
 9971 1d0e AB140000 		.4byte	.LLST87
 9972 1d12 1C       		.uleb128 0x1c
 9973 1d13 27020000 		.4byte	.LASF105
 9974 1d17 01       		.byte	0x1
 9975 1d18 1706     		.2byte	0x617
 9976 1d1a 741D0000 		.4byte	0x1d74
 9977 1d1e E2140000 		.4byte	.LLST88
 9978 1d22 1D       		.uleb128 0x1d
 9979 1d23 72657300 		.ascii	"res\000"
 9980 1d27 01       		.byte	0x1
 9981 1d28 1906     		.2byte	0x619
 9982 1d2a BC000000 		.4byte	0xbc
 9983 1d2e 19150000 		.4byte	.LLST89
 9984 1d32 1E       		.uleb128 0x1e
ARM GAS  C:\Users\CHRONI~1\AppData\Local\Temp\cc7oUGua.s 			page 226


 9985 1d33 43020000 		.4byte	.LASF95
 9986 1d37 01       		.byte	0x1
 9987 1d38 1A06     		.2byte	0x61a
 9988 1d3a BC000000 		.4byte	0xbc
 9989 1d3e 02       		.uleb128 0x2
 9990 1d3f 91       		.byte	0x91
 9991 1d40 67       		.sleb128 -25
 9992 1d41 19       		.uleb128 0x19
 9993 1d42 1E000000 		.4byte	.LVL488
 9994 1d46 02       		.uleb128 0x2
 9995 1d47 77       		.byte	0x77
 9996 1d48 00       		.sleb128 0
 9997 1d49 641D0000 		.4byte	0x1d64
 9998 1d4d 18       		.uleb128 0x18
 9999 1d4e 01       		.uleb128 0x1
 10000 1d4f 50       		.byte	0x50
 10001 1d50 02       		.uleb128 0x2
 10002 1d51 08       		.byte	0x8
 10003 1d52 57       		.byte	0x57
 10004 1d53 18       		.uleb128 0x18
 10005 1d54 01       		.uleb128 0x1
 10006 1d55 51       		.byte	0x51
 10007 1d56 01       		.uleb128 0x1
 10008 1d57 39       		.byte	0x39
 10009 1d58 18       		.uleb128 0x18
 10010 1d59 01       		.uleb128 0x1
 10011 1d5a 52       		.byte	0x52
 10012 1d5b 02       		.uleb128 0x2
 10013 1d5c 91       		.byte	0x91
 10014 1d5d 67       		.sleb128 -25
 10015 1d5e 18       		.uleb128 0x18
 10016 1d5f 01       		.uleb128 0x1
 10017 1d60 53       		.byte	0x53
 10018 1d61 01       		.uleb128 0x1
 10019 1d62 31       		.byte	0x31
 10020 1d63 00       		.byte	0
 10021 1d64 1A       		.uleb128 0x1a
 10022 1d65 26000000 		.4byte	.LVL490
 10023 1d69 18       		.uleb128 0x18
 10024 1d6a 01       		.uleb128 0x1
 10025 1d6b 50       		.byte	0x50
 10026 1d6c 05       		.uleb128 0x5
 10027 1d6d 03       		.byte	0x3
 10028 1d6e 20060000 		.4byte	.LC37
 10029 1d72 00       		.byte	0
 10030 1d73 00       		.byte	0
 10031 1d74 05       		.uleb128 0x5
 10032 1d75 04       		.byte	0x4
 10033 1d76 5C010000 		.4byte	0x15c
 10034 1d7a 20       		.uleb128 0x20
 10035 1d7b 4C050000 		.4byte	.LASF141
 10036 1d7f 01       		.byte	0x1
 10037 1d80 3C06     		.2byte	0x63c
 10038 1d82 BC000000 		.4byte	0xbc
 10039 1d86 00000000 		.4byte	.LFB28
 10040 1d8a 68000000 		.4byte	.LFE28-.LFB28
 10041 1d8e 01       		.uleb128 0x1
ARM GAS  C:\Users\CHRONI~1\AppData\Local\Temp\cc7oUGua.s 			page 227


 10042 1d8f 9C       		.byte	0x9c
 10043 1d90 3C1E0000 		.4byte	0x1e3c
 10044 1d94 1C       		.uleb128 0x1c
 10045 1d95 4E0D0000 		.4byte	.LASF99
 10046 1d99 01       		.byte	0x1
 10047 1d9a 3C06     		.2byte	0x63c
 10048 1d9c A4080000 		.4byte	0x8a4
 10049 1da0 37150000 		.4byte	.LLST90
 10050 1da4 1C       		.uleb128 0x1c
 10051 1da5 B3070000 		.4byte	.LASF142
 10052 1da9 01       		.byte	0x1
 10053 1daa 3C06     		.2byte	0x63c
 10054 1dac F2010000 		.4byte	0x1f2
 10055 1db0 79150000 		.4byte	.LLST91
 10056 1db4 1D       		.uleb128 0x1d
 10057 1db5 72657300 		.ascii	"res\000"
 10058 1db9 01       		.byte	0x1
 10059 1dba 3E06     		.2byte	0x63e
 10060 1dbc BC000000 		.4byte	0xbc
 10061 1dc0 B3150000 		.4byte	.LLST92
 10062 1dc4 1E       		.uleb128 0x1e
 10063 1dc5 43020000 		.4byte	.LASF95
 10064 1dc9 01       		.byte	0x1
 10065 1dca 3F06     		.2byte	0x63f
 10066 1dcc BC000000 		.4byte	0xbc
 10067 1dd0 02       		.uleb128 0x2
 10068 1dd1 91       		.byte	0x91
 10069 1dd2 67       		.sleb128 -25
 10070 1dd3 19       		.uleb128 0x19
 10071 1dd4 1E000000 		.4byte	.LVL497
 10072 1dd8 02       		.uleb128 0x2
 10073 1dd9 77       		.byte	0x77
 10074 1dda 00       		.sleb128 0
 10075 1ddb F61D0000 		.4byte	0x1df6
 10076 1ddf 18       		.uleb128 0x18
 10077 1de0 01       		.uleb128 0x1
 10078 1de1 50       		.byte	0x50
 10079 1de2 02       		.uleb128 0x2
 10080 1de3 08       		.byte	0x8
 10081 1de4 57       		.byte	0x57
 10082 1de5 18       		.uleb128 0x18
 10083 1de6 01       		.uleb128 0x1
 10084 1de7 51       		.byte	0x51
 10085 1de8 01       		.uleb128 0x1
 10086 1de9 3A       		.byte	0x3a
 10087 1dea 18       		.uleb128 0x18
 10088 1deb 01       		.uleb128 0x1
 10089 1dec 52       		.byte	0x52
 10090 1ded 02       		.uleb128 0x2
 10091 1dee 91       		.byte	0x91
 10092 1def 67       		.sleb128 -25
 10093 1df0 18       		.uleb128 0x18
 10094 1df1 01       		.uleb128 0x1
 10095 1df2 53       		.byte	0x53
 10096 1df3 01       		.uleb128 0x1
 10097 1df4 31       		.byte	0x31
 10098 1df5 00       		.byte	0
ARM GAS  C:\Users\CHRONI~1\AppData\Local\Temp\cc7oUGua.s 			page 228


 10099 1df6 17       		.uleb128 0x17
 10100 1df7 26000000 		.4byte	.LVL499
 10101 1dfb 091E0000 		.4byte	0x1e09
 10102 1dff 18       		.uleb128 0x18
 10103 1e00 01       		.uleb128 0x1
 10104 1e01 50       		.byte	0x50
 10105 1e02 05       		.uleb128 0x5
 10106 1e03 03       		.byte	0x3
 10107 1e04 20080000 		.4byte	.LC50
 10108 1e08 00       		.byte	0
 10109 1e09 19       		.uleb128 0x19
 10110 1e0a 44000000 		.4byte	.LVL502
 10111 1e0e 02       		.uleb128 0x2
 10112 1e0f 76       		.byte	0x76
 10113 1e10 00       		.sleb128 0
 10114 1e11 2C1E0000 		.4byte	0x1e2c
 10115 1e15 18       		.uleb128 0x18
 10116 1e16 01       		.uleb128 0x1
 10117 1e17 50       		.byte	0x50
 10118 1e18 02       		.uleb128 0x2
 10119 1e19 08       		.byte	0x8
 10120 1e1a 57       		.byte	0x57
 10121 1e1b 18       		.uleb128 0x18
 10122 1e1c 01       		.uleb128 0x1
 10123 1e1d 51       		.byte	0x51
 10124 1e1e 01       		.uleb128 0x1
 10125 1e1f 3A       		.byte	0x3a
 10126 1e20 18       		.uleb128 0x18
 10127 1e21 01       		.uleb128 0x1
 10128 1e22 52       		.byte	0x52
 10129 1e23 02       		.uleb128 0x2
 10130 1e24 91       		.byte	0x91
 10131 1e25 67       		.sleb128 -25
 10132 1e26 18       		.uleb128 0x18
 10133 1e27 01       		.uleb128 0x1
 10134 1e28 53       		.byte	0x53
 10135 1e29 01       		.uleb128 0x1
 10136 1e2a 31       		.byte	0x31
 10137 1e2b 00       		.byte	0
 10138 1e2c 1A       		.uleb128 0x1a
 10139 1e2d 4C000000 		.4byte	.LVL504
 10140 1e31 18       		.uleb128 0x18
 10141 1e32 01       		.uleb128 0x1
 10142 1e33 50       		.byte	0x50
 10143 1e34 05       		.uleb128 0x5
 10144 1e35 03       		.byte	0x3
 10145 1e36 600B0000 		.4byte	.LC70
 10146 1e3a 00       		.byte	0
 10147 1e3b 00       		.byte	0
 10148 1e3c 20       		.uleb128 0x20
 10149 1e3d 9B080000 		.4byte	.LASF143
 10150 1e41 01       		.byte	0x1
 10151 1e42 6906     		.2byte	0x669
 10152 1e44 BC000000 		.4byte	0xbc
 10153 1e48 00000000 		.4byte	.LFB29
 10154 1e4c 48000000 		.4byte	.LFE29-.LFB29
 10155 1e50 01       		.uleb128 0x1
ARM GAS  C:\Users\CHRONI~1\AppData\Local\Temp\cc7oUGua.s 			page 229


 10156 1e51 9C       		.byte	0x9c
 10157 1e52 C81E0000 		.4byte	0x1ec8
 10158 1e56 1C       		.uleb128 0x1c
 10159 1e57 4E0D0000 		.4byte	.LASF99
 10160 1e5b 01       		.byte	0x1
 10161 1e5c 6906     		.2byte	0x669
 10162 1e5e A4080000 		.4byte	0x8a4
 10163 1e62 E7150000 		.4byte	.LLST93
 10164 1e66 1C       		.uleb128 0x1c
 10165 1e67 B3070000 		.4byte	.LASF142
 10166 1e6b 01       		.byte	0x1
 10167 1e6c 6906     		.2byte	0x669
 10168 1e6e C81E0000 		.4byte	0x1ec8
 10169 1e72 1E160000 		.4byte	.LLST94
 10170 1e76 1D       		.uleb128 0x1d
 10171 1e77 72657300 		.ascii	"res\000"
 10172 1e7b 01       		.byte	0x1
 10173 1e7c 6B06     		.2byte	0x66b
 10174 1e7e BC000000 		.4byte	0xbc
 10175 1e82 55160000 		.4byte	.LLST95
 10176 1e86 1E       		.uleb128 0x1e
 10177 1e87 43020000 		.4byte	.LASF95
 10178 1e8b 01       		.byte	0x1
 10179 1e8c 6C06     		.2byte	0x66c
 10180 1e8e BC000000 		.4byte	0xbc
 10181 1e92 02       		.uleb128 0x2
 10182 1e93 91       		.byte	0x91
 10183 1e94 67       		.sleb128 -25
 10184 1e95 19       		.uleb128 0x19
 10185 1e96 1E000000 		.4byte	.LVL511
 10186 1e9a 02       		.uleb128 0x2
 10187 1e9b 77       		.byte	0x77
 10188 1e9c 00       		.sleb128 0
 10189 1e9d B81E0000 		.4byte	0x1eb8
 10190 1ea1 18       		.uleb128 0x18
 10191 1ea2 01       		.uleb128 0x1
 10192 1ea3 50       		.byte	0x50
 10193 1ea4 02       		.uleb128 0x2
 10194 1ea5 08       		.byte	0x8
 10195 1ea6 57       		.byte	0x57
 10196 1ea7 18       		.uleb128 0x18
 10197 1ea8 01       		.uleb128 0x1
 10198 1ea9 51       		.byte	0x51
 10199 1eaa 01       		.uleb128 0x1
 10200 1eab 3A       		.byte	0x3a
 10201 1eac 18       		.uleb128 0x18
 10202 1ead 01       		.uleb128 0x1
 10203 1eae 52       		.byte	0x52
 10204 1eaf 02       		.uleb128 0x2
 10205 1eb0 91       		.byte	0x91
 10206 1eb1 67       		.sleb128 -25
 10207 1eb2 18       		.uleb128 0x18
 10208 1eb3 01       		.uleb128 0x1
 10209 1eb4 53       		.byte	0x53
 10210 1eb5 01       		.uleb128 0x1
 10211 1eb6 31       		.byte	0x31
 10212 1eb7 00       		.byte	0
ARM GAS  C:\Users\CHRONI~1\AppData\Local\Temp\cc7oUGua.s 			page 230


 10213 1eb8 1A       		.uleb128 0x1a
 10214 1eb9 26000000 		.4byte	.LVL513
 10215 1ebd 18       		.uleb128 0x18
 10216 1ebe 01       		.uleb128 0x1
 10217 1ebf 50       		.byte	0x50
 10218 1ec0 05       		.uleb128 0x5
 10219 1ec1 03       		.byte	0x3
 10220 1ec2 20080000 		.4byte	.LC50
 10221 1ec6 00       		.byte	0
 10222 1ec7 00       		.byte	0
 10223 1ec8 05       		.uleb128 0x5
 10224 1ec9 04       		.byte	0x4
 10225 1eca F2010000 		.4byte	0x1f2
 10226 1ece 20       		.uleb128 0x20
 10227 1ecf CA0B0000 		.4byte	.LASF144
 10228 1ed3 01       		.byte	0x1
 10229 1ed4 8E06     		.2byte	0x68e
 10230 1ed6 BC000000 		.4byte	0xbc
 10231 1eda 00000000 		.4byte	.LFB30
 10232 1ede 68000000 		.4byte	.LFE30-.LFB30
 10233 1ee2 01       		.uleb128 0x1
 10234 1ee3 9C       		.byte	0x9c
 10235 1ee4 901F0000 		.4byte	0x1f90
 10236 1ee8 1C       		.uleb128 0x1c
 10237 1ee9 4E0D0000 		.4byte	.LASF99
 10238 1eed 01       		.byte	0x1
 10239 1eee 8E06     		.2byte	0x68e
 10240 1ef0 A4080000 		.4byte	0x8a4
 10241 1ef4 73160000 		.4byte	.LLST96
 10242 1ef8 1C       		.uleb128 0x1c
 10243 1ef9 54060000 		.4byte	.LASF145
 10244 1efd 01       		.byte	0x1
 10245 1efe 8E06     		.2byte	0x68e
 10246 1f00 3A020000 		.4byte	0x23a
 10247 1f04 B5160000 		.4byte	.LLST97
 10248 1f08 1D       		.uleb128 0x1d
 10249 1f09 72657300 		.ascii	"res\000"
 10250 1f0d 01       		.byte	0x1
 10251 1f0e 9006     		.2byte	0x690
 10252 1f10 BC000000 		.4byte	0xbc
 10253 1f14 EF160000 		.4byte	.LLST98
 10254 1f18 1E       		.uleb128 0x1e
 10255 1f19 43020000 		.4byte	.LASF95
 10256 1f1d 01       		.byte	0x1
 10257 1f1e 9106     		.2byte	0x691
 10258 1f20 BC000000 		.4byte	0xbc
 10259 1f24 02       		.uleb128 0x2
 10260 1f25 91       		.byte	0x91
 10261 1f26 67       		.sleb128 -25
 10262 1f27 19       		.uleb128 0x19
 10263 1f28 1E000000 		.4byte	.LVL520
 10264 1f2c 02       		.uleb128 0x2
 10265 1f2d 77       		.byte	0x77
 10266 1f2e 00       		.sleb128 0
 10267 1f2f 4A1F0000 		.4byte	0x1f4a
 10268 1f33 18       		.uleb128 0x18
 10269 1f34 01       		.uleb128 0x1
ARM GAS  C:\Users\CHRONI~1\AppData\Local\Temp\cc7oUGua.s 			page 231


 10270 1f35 50       		.byte	0x50
 10271 1f36 02       		.uleb128 0x2
 10272 1f37 08       		.byte	0x8
 10273 1f38 57       		.byte	0x57
 10274 1f39 18       		.uleb128 0x18
 10275 1f3a 01       		.uleb128 0x1
 10276 1f3b 51       		.byte	0x51
 10277 1f3c 01       		.uleb128 0x1
 10278 1f3d 3A       		.byte	0x3a
 10279 1f3e 18       		.uleb128 0x18
 10280 1f3f 01       		.uleb128 0x1
 10281 1f40 52       		.byte	0x52
 10282 1f41 02       		.uleb128 0x2
 10283 1f42 91       		.byte	0x91
 10284 1f43 67       		.sleb128 -25
 10285 1f44 18       		.uleb128 0x18
 10286 1f45 01       		.uleb128 0x1
 10287 1f46 53       		.byte	0x53
 10288 1f47 01       		.uleb128 0x1
 10289 1f48 31       		.byte	0x31
 10290 1f49 00       		.byte	0
 10291 1f4a 17       		.uleb128 0x17
 10292 1f4b 26000000 		.4byte	.LVL522
 10293 1f4f 5D1F0000 		.4byte	0x1f5d
 10294 1f53 18       		.uleb128 0x18
 10295 1f54 01       		.uleb128 0x1
 10296 1f55 50       		.byte	0x50
 10297 1f56 05       		.uleb128 0x5
 10298 1f57 03       		.byte	0x3
 10299 1f58 20080000 		.4byte	.LC50
 10300 1f5c 00       		.byte	0
 10301 1f5d 19       		.uleb128 0x19
 10302 1f5e 44000000 		.4byte	.LVL525
 10303 1f62 02       		.uleb128 0x2
 10304 1f63 76       		.byte	0x76
 10305 1f64 00       		.sleb128 0
 10306 1f65 801F0000 		.4byte	0x1f80
 10307 1f69 18       		.uleb128 0x18
 10308 1f6a 01       		.uleb128 0x1
 10309 1f6b 50       		.byte	0x50
 10310 1f6c 02       		.uleb128 0x2
 10311 1f6d 08       		.byte	0x8
 10312 1f6e 57       		.byte	0x57
 10313 1f6f 18       		.uleb128 0x18
 10314 1f70 01       		.uleb128 0x1
 10315 1f71 51       		.byte	0x51
 10316 1f72 01       		.uleb128 0x1
 10317 1f73 3A       		.byte	0x3a
 10318 1f74 18       		.uleb128 0x18
 10319 1f75 01       		.uleb128 0x1
 10320 1f76 52       		.byte	0x52
 10321 1f77 02       		.uleb128 0x2
 10322 1f78 91       		.byte	0x91
 10323 1f79 67       		.sleb128 -25
 10324 1f7a 18       		.uleb128 0x18
 10325 1f7b 01       		.uleb128 0x1
 10326 1f7c 53       		.byte	0x53
ARM GAS  C:\Users\CHRONI~1\AppData\Local\Temp\cc7oUGua.s 			page 232


 10327 1f7d 01       		.uleb128 0x1
 10328 1f7e 31       		.byte	0x31
 10329 1f7f 00       		.byte	0
 10330 1f80 1A       		.uleb128 0x1a
 10331 1f81 4C000000 		.4byte	.LVL527
 10332 1f85 18       		.uleb128 0x18
 10333 1f86 01       		.uleb128 0x1
 10334 1f87 50       		.byte	0x50
 10335 1f88 05       		.uleb128 0x5
 10336 1f89 03       		.byte	0x3
 10337 1f8a 600B0000 		.4byte	.LC70
 10338 1f8e 00       		.byte	0
 10339 1f8f 00       		.byte	0
 10340 1f90 20       		.uleb128 0x20
 10341 1f91 B9070000 		.4byte	.LASF146
 10342 1f95 01       		.byte	0x1
 10343 1f96 BB06     		.2byte	0x6bb
 10344 1f98 BC000000 		.4byte	0xbc
 10345 1f9c 00000000 		.4byte	.LFB31
 10346 1fa0 48000000 		.4byte	.LFE31-.LFB31
 10347 1fa4 01       		.uleb128 0x1
 10348 1fa5 9C       		.byte	0x9c
 10349 1fa6 1C200000 		.4byte	0x201c
 10350 1faa 1C       		.uleb128 0x1c
 10351 1fab 4E0D0000 		.4byte	.LASF99
 10352 1faf 01       		.byte	0x1
 10353 1fb0 BB06     		.2byte	0x6bb
 10354 1fb2 A4080000 		.4byte	0x8a4
 10355 1fb6 23170000 		.4byte	.LLST99
 10356 1fba 1C       		.uleb128 0x1c
 10357 1fbb 54060000 		.4byte	.LASF145
 10358 1fbf 01       		.byte	0x1
 10359 1fc0 BB06     		.2byte	0x6bb
 10360 1fc2 1C200000 		.4byte	0x201c
 10361 1fc6 5A170000 		.4byte	.LLST100
 10362 1fca 1D       		.uleb128 0x1d
 10363 1fcb 72657300 		.ascii	"res\000"
 10364 1fcf 01       		.byte	0x1
 10365 1fd0 BD06     		.2byte	0x6bd
 10366 1fd2 BC000000 		.4byte	0xbc
 10367 1fd6 91170000 		.4byte	.LLST101
 10368 1fda 1E       		.uleb128 0x1e
 10369 1fdb 43020000 		.4byte	.LASF95
 10370 1fdf 01       		.byte	0x1
 10371 1fe0 BE06     		.2byte	0x6be
 10372 1fe2 BC000000 		.4byte	0xbc
 10373 1fe6 02       		.uleb128 0x2
 10374 1fe7 91       		.byte	0x91
 10375 1fe8 67       		.sleb128 -25
 10376 1fe9 19       		.uleb128 0x19
 10377 1fea 1E000000 		.4byte	.LVL534
 10378 1fee 02       		.uleb128 0x2
 10379 1fef 77       		.byte	0x77
 10380 1ff0 00       		.sleb128 0
 10381 1ff1 0C200000 		.4byte	0x200c
 10382 1ff5 18       		.uleb128 0x18
 10383 1ff6 01       		.uleb128 0x1
ARM GAS  C:\Users\CHRONI~1\AppData\Local\Temp\cc7oUGua.s 			page 233


 10384 1ff7 50       		.byte	0x50
 10385 1ff8 02       		.uleb128 0x2
 10386 1ff9 08       		.byte	0x8
 10387 1ffa 57       		.byte	0x57
 10388 1ffb 18       		.uleb128 0x18
 10389 1ffc 01       		.uleb128 0x1
 10390 1ffd 51       		.byte	0x51
 10391 1ffe 01       		.uleb128 0x1
 10392 1fff 3A       		.byte	0x3a
 10393 2000 18       		.uleb128 0x18
 10394 2001 01       		.uleb128 0x1
 10395 2002 52       		.byte	0x52
 10396 2003 02       		.uleb128 0x2
 10397 2004 91       		.byte	0x91
 10398 2005 67       		.sleb128 -25
 10399 2006 18       		.uleb128 0x18
 10400 2007 01       		.uleb128 0x1
 10401 2008 53       		.byte	0x53
 10402 2009 01       		.uleb128 0x1
 10403 200a 31       		.byte	0x31
 10404 200b 00       		.byte	0
 10405 200c 1A       		.uleb128 0x1a
 10406 200d 26000000 		.4byte	.LVL536
 10407 2011 18       		.uleb128 0x18
 10408 2012 01       		.uleb128 0x1
 10409 2013 50       		.byte	0x50
 10410 2014 05       		.uleb128 0x5
 10411 2015 03       		.byte	0x3
 10412 2016 20080000 		.4byte	.LC50
 10413 201a 00       		.byte	0
 10414 201b 00       		.byte	0
 10415 201c 05       		.uleb128 0x5
 10416 201d 04       		.byte	0x4
 10417 201e 3A020000 		.4byte	0x23a
 10418 2022 20       		.uleb128 0x20
 10419 2023 740A0000 		.4byte	.LASF147
 10420 2027 01       		.byte	0x1
 10421 2028 E006     		.2byte	0x6e0
 10422 202a BC000000 		.4byte	0xbc
 10423 202e 00000000 		.4byte	.LFB32
 10424 2032 64000000 		.4byte	.LFE32-.LFB32
 10425 2036 01       		.uleb128 0x1
 10426 2037 9C       		.byte	0x9c
 10427 2038 E4200000 		.4byte	0x20e4
 10428 203c 1C       		.uleb128 0x1c
 10429 203d 4E0D0000 		.4byte	.LASF99
 10430 2041 01       		.byte	0x1
 10431 2042 E006     		.2byte	0x6e0
 10432 2044 A4080000 		.4byte	0x8a4
 10433 2048 AF170000 		.4byte	.LLST102
 10434 204c 1C       		.uleb128 0x1c
 10435 204d AF060000 		.4byte	.LASF148
 10436 2051 01       		.byte	0x1
 10437 2052 E006     		.2byte	0x6e0
 10438 2054 6A020000 		.4byte	0x26a
 10439 2058 F1170000 		.4byte	.LLST103
 10440 205c 1D       		.uleb128 0x1d
ARM GAS  C:\Users\CHRONI~1\AppData\Local\Temp\cc7oUGua.s 			page 234


 10441 205d 72657300 		.ascii	"res\000"
 10442 2061 01       		.byte	0x1
 10443 2062 E206     		.2byte	0x6e2
 10444 2064 BC000000 		.4byte	0xbc
 10445 2068 2B180000 		.4byte	.LLST104
 10446 206c 1E       		.uleb128 0x1e
 10447 206d 43020000 		.4byte	.LASF95
 10448 2071 01       		.byte	0x1
 10449 2072 E306     		.2byte	0x6e3
 10450 2074 BC000000 		.4byte	0xbc
 10451 2078 02       		.uleb128 0x2
 10452 2079 91       		.byte	0x91
 10453 207a 67       		.sleb128 -25
 10454 207b 19       		.uleb128 0x19
 10455 207c 1E000000 		.4byte	.LVL543
 10456 2080 02       		.uleb128 0x2
 10457 2081 77       		.byte	0x77
 10458 2082 00       		.sleb128 0
 10459 2083 9E200000 		.4byte	0x209e
 10460 2087 18       		.uleb128 0x18
 10461 2088 01       		.uleb128 0x1
 10462 2089 50       		.byte	0x50
 10463 208a 02       		.uleb128 0x2
 10464 208b 08       		.byte	0x8
 10465 208c 57       		.byte	0x57
 10466 208d 18       		.uleb128 0x18
 10467 208e 01       		.uleb128 0x1
 10468 208f 51       		.byte	0x51
 10469 2090 01       		.uleb128 0x1
 10470 2091 3A       		.byte	0x3a
 10471 2092 18       		.uleb128 0x18
 10472 2093 01       		.uleb128 0x1
 10473 2094 52       		.byte	0x52
 10474 2095 02       		.uleb128 0x2
 10475 2096 91       		.byte	0x91
 10476 2097 67       		.sleb128 -25
 10477 2098 18       		.uleb128 0x18
 10478 2099 01       		.uleb128 0x1
 10479 209a 53       		.byte	0x53
 10480 209b 01       		.uleb128 0x1
 10481 209c 31       		.byte	0x31
 10482 209d 00       		.byte	0
 10483 209e 17       		.uleb128 0x17
 10484 209f 26000000 		.4byte	.LVL545
 10485 20a3 B1200000 		.4byte	0x20b1
 10486 20a7 18       		.uleb128 0x18
 10487 20a8 01       		.uleb128 0x1
 10488 20a9 50       		.byte	0x50
 10489 20aa 05       		.uleb128 0x5
 10490 20ab 03       		.byte	0x3
 10491 20ac 20080000 		.4byte	.LC50
 10492 20b0 00       		.byte	0
 10493 20b1 19       		.uleb128 0x19
 10494 20b2 42000000 		.4byte	.LVL548
 10495 20b6 02       		.uleb128 0x2
 10496 20b7 76       		.byte	0x76
 10497 20b8 00       		.sleb128 0
ARM GAS  C:\Users\CHRONI~1\AppData\Local\Temp\cc7oUGua.s 			page 235


 10498 20b9 D4200000 		.4byte	0x20d4
 10499 20bd 18       		.uleb128 0x18
 10500 20be 01       		.uleb128 0x1
 10501 20bf 50       		.byte	0x50
 10502 20c0 02       		.uleb128 0x2
 10503 20c1 08       		.byte	0x8
 10504 20c2 57       		.byte	0x57
 10505 20c3 18       		.uleb128 0x18
 10506 20c4 01       		.uleb128 0x1
 10507 20c5 51       		.byte	0x51
 10508 20c6 01       		.uleb128 0x1
 10509 20c7 3A       		.byte	0x3a
 10510 20c8 18       		.uleb128 0x18
 10511 20c9 01       		.uleb128 0x1
 10512 20ca 52       		.byte	0x52
 10513 20cb 02       		.uleb128 0x2
 10514 20cc 91       		.byte	0x91
 10515 20cd 67       		.sleb128 -25
 10516 20ce 18       		.uleb128 0x18
 10517 20cf 01       		.uleb128 0x1
 10518 20d0 53       		.byte	0x53
 10519 20d1 01       		.uleb128 0x1
 10520 20d2 31       		.byte	0x31
 10521 20d3 00       		.byte	0
 10522 20d4 1A       		.uleb128 0x1a
 10523 20d5 4A000000 		.4byte	.LVL550
 10524 20d9 18       		.uleb128 0x18
 10525 20da 01       		.uleb128 0x1
 10526 20db 50       		.byte	0x50
 10527 20dc 05       		.uleb128 0x5
 10528 20dd 03       		.byte	0x3
 10529 20de 600B0000 		.4byte	.LC70
 10530 20e2 00       		.byte	0
 10531 20e3 00       		.byte	0
 10532 20e4 20       		.uleb128 0x20
 10533 20e5 ED000000 		.4byte	.LASF149
 10534 20e9 01       		.byte	0x1
 10535 20ea 0D07     		.2byte	0x70d
 10536 20ec BC000000 		.4byte	0xbc
 10537 20f0 00000000 		.4byte	.LFB33
 10538 20f4 48000000 		.4byte	.LFE33-.LFB33
 10539 20f8 01       		.uleb128 0x1
 10540 20f9 9C       		.byte	0x9c
 10541 20fa 70210000 		.4byte	0x2170
 10542 20fe 1C       		.uleb128 0x1c
 10543 20ff 4E0D0000 		.4byte	.LASF99
 10544 2103 01       		.byte	0x1
 10545 2104 0D07     		.2byte	0x70d
 10546 2106 A4080000 		.4byte	0x8a4
 10547 210a 5F180000 		.4byte	.LLST105
 10548 210e 1C       		.uleb128 0x1c
 10549 210f AF060000 		.4byte	.LASF148
 10550 2113 01       		.byte	0x1
 10551 2114 0D07     		.2byte	0x70d
 10552 2116 70210000 		.4byte	0x2170
 10553 211a 96180000 		.4byte	.LLST106
 10554 211e 1D       		.uleb128 0x1d
ARM GAS  C:\Users\CHRONI~1\AppData\Local\Temp\cc7oUGua.s 			page 236


 10555 211f 72657300 		.ascii	"res\000"
 10556 2123 01       		.byte	0x1
 10557 2124 0F07     		.2byte	0x70f
 10558 2126 BC000000 		.4byte	0xbc
 10559 212a CD180000 		.4byte	.LLST107
 10560 212e 1E       		.uleb128 0x1e
 10561 212f 43020000 		.4byte	.LASF95
 10562 2133 01       		.byte	0x1
 10563 2134 1007     		.2byte	0x710
 10564 2136 BC000000 		.4byte	0xbc
 10565 213a 02       		.uleb128 0x2
 10566 213b 91       		.byte	0x91
 10567 213c 67       		.sleb128 -25
 10568 213d 19       		.uleb128 0x19
 10569 213e 1E000000 		.4byte	.LVL557
 10570 2142 02       		.uleb128 0x2
 10571 2143 77       		.byte	0x77
 10572 2144 00       		.sleb128 0
 10573 2145 60210000 		.4byte	0x2160
 10574 2149 18       		.uleb128 0x18
 10575 214a 01       		.uleb128 0x1
 10576 214b 50       		.byte	0x50
 10577 214c 02       		.uleb128 0x2
 10578 214d 08       		.byte	0x8
 10579 214e 57       		.byte	0x57
 10580 214f 18       		.uleb128 0x18
 10581 2150 01       		.uleb128 0x1
 10582 2151 51       		.byte	0x51
 10583 2152 01       		.uleb128 0x1
 10584 2153 3A       		.byte	0x3a
 10585 2154 18       		.uleb128 0x18
 10586 2155 01       		.uleb128 0x1
 10587 2156 52       		.byte	0x52
 10588 2157 02       		.uleb128 0x2
 10589 2158 91       		.byte	0x91
 10590 2159 67       		.sleb128 -25
 10591 215a 18       		.uleb128 0x18
 10592 215b 01       		.uleb128 0x1
 10593 215c 53       		.byte	0x53
 10594 215d 01       		.uleb128 0x1
 10595 215e 31       		.byte	0x31
 10596 215f 00       		.byte	0
 10597 2160 1A       		.uleb128 0x1a
 10598 2161 26000000 		.4byte	.LVL559
 10599 2165 18       		.uleb128 0x18
 10600 2166 01       		.uleb128 0x1
 10601 2167 50       		.byte	0x50
 10602 2168 05       		.uleb128 0x5
 10603 2169 03       		.byte	0x3
 10604 216a 20080000 		.4byte	.LC50
 10605 216e 00       		.byte	0
 10606 216f 00       		.byte	0
 10607 2170 05       		.uleb128 0x5
 10608 2171 04       		.byte	0x4
 10609 2172 6A020000 		.4byte	0x26a
 10610 2176 20       		.uleb128 0x20
 10611 2177 290B0000 		.4byte	.LASF150
ARM GAS  C:\Users\CHRONI~1\AppData\Local\Temp\cc7oUGua.s 			page 237


 10612 217b 01       		.byte	0x1
 10613 217c 3207     		.2byte	0x732
 10614 217e BC000000 		.4byte	0xbc
 10615 2182 00000000 		.4byte	.LFB34
 10616 2186 40000000 		.4byte	.LFE34-.LFB34
 10617 218a 01       		.uleb128 0x1
 10618 218b 9C       		.byte	0x9c
 10619 218c F3210000 		.4byte	0x21f3
 10620 2190 1C       		.uleb128 0x1c
 10621 2191 4E0D0000 		.4byte	.LASF99
 10622 2195 01       		.byte	0x1
 10623 2196 3207     		.2byte	0x732
 10624 2198 A4080000 		.4byte	0x8a4
 10625 219c EB180000 		.4byte	.LLST108
 10626 21a0 21       		.uleb128 0x21
 10627 21a1 616D7000 		.ascii	"amp\000"
 10628 21a5 01       		.byte	0x1
 10629 21a6 3207     		.2byte	0x732
 10630 21a8 BC000000 		.4byte	0xbc
 10631 21ac 2D190000 		.4byte	.LLST109
 10632 21b0 1D       		.uleb128 0x1d
 10633 21b1 72657300 		.ascii	"res\000"
 10634 21b5 01       		.byte	0x1
 10635 21b6 3407     		.2byte	0x734
 10636 21b8 BC000000 		.4byte	0xbc
 10637 21bc 7B190000 		.4byte	.LLST110
 10638 21c0 19       		.uleb128 0x19
 10639 21c1 20000000 		.4byte	.LVL566
 10640 21c5 02       		.uleb128 0x2
 10641 21c6 76       		.byte	0x76
 10642 21c7 00       		.sleb128 0
 10643 21c8 E3210000 		.4byte	0x21e3
 10644 21cc 18       		.uleb128 0x18
 10645 21cd 01       		.uleb128 0x1
 10646 21ce 50       		.byte	0x50
 10647 21cf 02       		.uleb128 0x2
 10648 21d0 08       		.byte	0x8
 10649 21d1 57       		.byte	0x57
 10650 21d2 18       		.uleb128 0x18
 10651 21d3 01       		.uleb128 0x1
 10652 21d4 51       		.byte	0x51
 10653 21d5 01       		.uleb128 0x1
 10654 21d6 3C       		.byte	0x3c
 10655 21d7 18       		.uleb128 0x18
 10656 21d8 01       		.uleb128 0x1
 10657 21d9 52       		.byte	0x52
 10658 21da 02       		.uleb128 0x2
 10659 21db 91       		.byte	0x91
 10660 21dc 6F       		.sleb128 -17
 10661 21dd 18       		.uleb128 0x18
 10662 21de 01       		.uleb128 0x1
 10663 21df 53       		.byte	0x53
 10664 21e0 01       		.uleb128 0x1
 10665 21e1 31       		.byte	0x31
 10666 21e2 00       		.byte	0
 10667 21e3 1A       		.uleb128 0x1a
 10668 21e4 28000000 		.4byte	.LVL568
ARM GAS  C:\Users\CHRONI~1\AppData\Local\Temp\cc7oUGua.s 			page 238


 10669 21e8 18       		.uleb128 0x18
 10670 21e9 01       		.uleb128 0x1
 10671 21ea 50       		.byte	0x50
 10672 21eb 05       		.uleb128 0x5
 10673 21ec 03       		.byte	0x3
 10674 21ed 880B0000 		.4byte	.LC71
 10675 21f1 00       		.byte	0
 10676 21f2 00       		.byte	0
 10677 21f3 20       		.uleb128 0x20
 10678 21f4 76020000 		.4byte	.LASF151
 10679 21f8 01       		.byte	0x1
 10680 21f9 5507     		.2byte	0x755
 10681 21fb BC000000 		.4byte	0xbc
 10682 21ff 00000000 		.4byte	.LFB35
 10683 2203 34000000 		.4byte	.LFE35-.LFB35
 10684 2207 01       		.uleb128 0x1
 10685 2208 9C       		.byte	0x9c
 10686 2209 71220000 		.4byte	0x2271
 10687 220d 1C       		.uleb128 0x1c
 10688 220e 4E0D0000 		.4byte	.LASF99
 10689 2212 01       		.byte	0x1
 10690 2213 5507     		.2byte	0x755
 10691 2215 A4080000 		.4byte	0x8a4
 10692 2219 99190000 		.4byte	.LLST111
 10693 221d 21       		.uleb128 0x21
 10694 221e 616D7000 		.ascii	"amp\000"
 10695 2222 01       		.byte	0x1
 10696 2223 5507     		.2byte	0x755
 10697 2225 95030000 		.4byte	0x395
 10698 2229 DB190000 		.4byte	.LLST112
 10699 222d 1D       		.uleb128 0x1d
 10700 222e 72657300 		.ascii	"res\000"
 10701 2232 01       		.byte	0x1
 10702 2233 5707     		.2byte	0x757
 10703 2235 BC000000 		.4byte	0xbc
 10704 2239 201A0000 		.4byte	.LLST113
 10705 223d 19       		.uleb128 0x19
 10706 223e 18000000 		.4byte	.LVL576
 10707 2242 02       		.uleb128 0x2
 10708 2243 76       		.byte	0x76
 10709 2244 00       		.sleb128 0
 10710 2245 61220000 		.4byte	0x2261
 10711 2249 18       		.uleb128 0x18
 10712 224a 01       		.uleb128 0x1
 10713 224b 50       		.byte	0x50
 10714 224c 02       		.uleb128 0x2
 10715 224d 08       		.byte	0x8
 10716 224e 57       		.byte	0x57
 10717 224f 18       		.uleb128 0x18
 10718 2250 01       		.uleb128 0x1
 10719 2251 51       		.byte	0x51
 10720 2252 01       		.uleb128 0x1
 10721 2253 3C       		.byte	0x3c
 10722 2254 18       		.uleb128 0x18
 10723 2255 01       		.uleb128 0x1
 10724 2256 52       		.byte	0x52
 10725 2257 03       		.uleb128 0x3
ARM GAS  C:\Users\CHRONI~1\AppData\Local\Temp\cc7oUGua.s 			page 239


 10726 2258 F3       		.byte	0xf3
 10727 2259 01       		.uleb128 0x1
 10728 225a 51       		.byte	0x51
 10729 225b 18       		.uleb128 0x18
 10730 225c 01       		.uleb128 0x1
 10731 225d 53       		.byte	0x53
 10732 225e 01       		.uleb128 0x1
 10733 225f 31       		.byte	0x31
 10734 2260 00       		.byte	0
 10735 2261 1A       		.uleb128 0x1a
 10736 2262 20000000 		.4byte	.LVL578
 10737 2266 18       		.uleb128 0x18
 10738 2267 01       		.uleb128 0x1
 10739 2268 50       		.byte	0x50
 10740 2269 05       		.uleb128 0x5
 10741 226a 03       		.byte	0x3
 10742 226b B00B0000 		.4byte	.LC72
 10743 226f 00       		.byte	0
 10744 2270 00       		.byte	0
 10745 2271 20       		.uleb128 0x20
 10746 2272 280C0000 		.4byte	.LASF152
 10747 2276 01       		.byte	0x1
 10748 2277 7807     		.2byte	0x778
 10749 2279 BC000000 		.4byte	0xbc
 10750 227d 00000000 		.4byte	.LFB36
 10751 2281 40000000 		.4byte	.LFE36-.LFB36
 10752 2285 01       		.uleb128 0x1
 10753 2286 9C       		.byte	0x9c
 10754 2287 EE220000 		.4byte	0x22ee
 10755 228b 1C       		.uleb128 0x1c
 10756 228c 4E0D0000 		.4byte	.LASF99
 10757 2290 01       		.byte	0x1
 10758 2291 7807     		.2byte	0x778
 10759 2293 A4080000 		.4byte	0x8a4
 10760 2297 3E1A0000 		.4byte	.LLST114
 10761 229b 21       		.uleb128 0x21
 10762 229c 616D7000 		.ascii	"amp\000"
 10763 22a0 01       		.byte	0x1
 10764 22a1 7807     		.2byte	0x778
 10765 22a3 BC000000 		.4byte	0xbc
 10766 22a7 801A0000 		.4byte	.LLST115
 10767 22ab 1D       		.uleb128 0x1d
 10768 22ac 72657300 		.ascii	"res\000"
 10769 22b0 01       		.byte	0x1
 10770 22b1 7A07     		.2byte	0x77a
 10771 22b3 BC000000 		.4byte	0xbc
 10772 22b7 CE1A0000 		.4byte	.LLST116
 10773 22bb 19       		.uleb128 0x19
 10774 22bc 20000000 		.4byte	.LVL585
 10775 22c0 02       		.uleb128 0x2
 10776 22c1 76       		.byte	0x76
 10777 22c2 00       		.sleb128 0
 10778 22c3 DE220000 		.4byte	0x22de
 10779 22c7 18       		.uleb128 0x18
 10780 22c8 01       		.uleb128 0x1
 10781 22c9 50       		.byte	0x50
 10782 22ca 02       		.uleb128 0x2
ARM GAS  C:\Users\CHRONI~1\AppData\Local\Temp\cc7oUGua.s 			page 240


 10783 22cb 08       		.byte	0x8
 10784 22cc 57       		.byte	0x57
 10785 22cd 18       		.uleb128 0x18
 10786 22ce 01       		.uleb128 0x1
 10787 22cf 51       		.byte	0x51
 10788 22d0 01       		.uleb128 0x1
 10789 22d1 3D       		.byte	0x3d
 10790 22d2 18       		.uleb128 0x18
 10791 22d3 01       		.uleb128 0x1
 10792 22d4 52       		.byte	0x52
 10793 22d5 02       		.uleb128 0x2
 10794 22d6 91       		.byte	0x91
 10795 22d7 6F       		.sleb128 -17
 10796 22d8 18       		.uleb128 0x18
 10797 22d9 01       		.uleb128 0x1
 10798 22da 53       		.byte	0x53
 10799 22db 01       		.uleb128 0x1
 10800 22dc 31       		.byte	0x31
 10801 22dd 00       		.byte	0
 10802 22de 1A       		.uleb128 0x1a
 10803 22df 28000000 		.4byte	.LVL587
 10804 22e3 18       		.uleb128 0x18
 10805 22e4 01       		.uleb128 0x1
 10806 22e5 50       		.byte	0x50
 10807 22e6 05       		.uleb128 0x5
 10808 22e7 03       		.byte	0x3
 10809 22e8 D40B0000 		.4byte	.LC73
 10810 22ec 00       		.byte	0
 10811 22ed 00       		.byte	0
 10812 22ee 20       		.uleb128 0x20
 10813 22ef 60030000 		.4byte	.LASF153
 10814 22f3 01       		.byte	0x1
 10815 22f4 9B07     		.2byte	0x79b
 10816 22f6 BC000000 		.4byte	0xbc
 10817 22fa 00000000 		.4byte	.LFB37
 10818 22fe 34000000 		.4byte	.LFE37-.LFB37
 10819 2302 01       		.uleb128 0x1
 10820 2303 9C       		.byte	0x9c
 10821 2304 6C230000 		.4byte	0x236c
 10822 2308 1C       		.uleb128 0x1c
 10823 2309 4E0D0000 		.4byte	.LASF99
 10824 230d 01       		.byte	0x1
 10825 230e 9B07     		.2byte	0x79b
 10826 2310 A4080000 		.4byte	0x8a4
 10827 2314 EC1A0000 		.4byte	.LLST117
 10828 2318 21       		.uleb128 0x21
 10829 2319 616D7000 		.ascii	"amp\000"
 10830 231d 01       		.byte	0x1
 10831 231e 9B07     		.2byte	0x79b
 10832 2320 95030000 		.4byte	0x395
 10833 2324 2E1B0000 		.4byte	.LLST118
 10834 2328 1D       		.uleb128 0x1d
 10835 2329 72657300 		.ascii	"res\000"
 10836 232d 01       		.byte	0x1
 10837 232e 9D07     		.2byte	0x79d
 10838 2330 BC000000 		.4byte	0xbc
 10839 2334 731B0000 		.4byte	.LLST119
ARM GAS  C:\Users\CHRONI~1\AppData\Local\Temp\cc7oUGua.s 			page 241


 10840 2338 19       		.uleb128 0x19
 10841 2339 18000000 		.4byte	.LVL595
 10842 233d 02       		.uleb128 0x2
 10843 233e 76       		.byte	0x76
 10844 233f 00       		.sleb128 0
 10845 2340 5C230000 		.4byte	0x235c
 10846 2344 18       		.uleb128 0x18
 10847 2345 01       		.uleb128 0x1
 10848 2346 50       		.byte	0x50
 10849 2347 02       		.uleb128 0x2
 10850 2348 08       		.byte	0x8
 10851 2349 57       		.byte	0x57
 10852 234a 18       		.uleb128 0x18
 10853 234b 01       		.uleb128 0x1
 10854 234c 51       		.byte	0x51
 10855 234d 01       		.uleb128 0x1
 10856 234e 3D       		.byte	0x3d
 10857 234f 18       		.uleb128 0x18
 10858 2350 01       		.uleb128 0x1
 10859 2351 52       		.byte	0x52
 10860 2352 03       		.uleb128 0x3
 10861 2353 F3       		.byte	0xf3
 10862 2354 01       		.uleb128 0x1
 10863 2355 51       		.byte	0x51
 10864 2356 18       		.uleb128 0x18
 10865 2357 01       		.uleb128 0x1
 10866 2358 53       		.byte	0x53
 10867 2359 01       		.uleb128 0x1
 10868 235a 31       		.byte	0x31
 10869 235b 00       		.byte	0
 10870 235c 1A       		.uleb128 0x1a
 10871 235d 20000000 		.4byte	.LVL597
 10872 2361 18       		.uleb128 0x18
 10873 2362 01       		.uleb128 0x1
 10874 2363 50       		.byte	0x50
 10875 2364 05       		.uleb128 0x5
 10876 2365 03       		.byte	0x3
 10877 2366 FC0B0000 		.4byte	.LC74
 10878 236a 00       		.byte	0
 10879 236b 00       		.byte	0
 10880 236c 20       		.uleb128 0x20
 10881 236d C9090000 		.4byte	.LASF154
 10882 2371 01       		.byte	0x1
 10883 2372 BF07     		.2byte	0x7bf
 10884 2374 BC000000 		.4byte	0xbc
 10885 2378 00000000 		.4byte	.LFB38
 10886 237c 50010000 		.4byte	.LFE38-.LFB38
 10887 2380 01       		.uleb128 0x1
 10888 2381 9C       		.byte	0x9c
 10889 2382 95250000 		.4byte	0x2595
 10890 2386 1C       		.uleb128 0x1c
 10891 2387 4E0D0000 		.4byte	.LASF99
 10892 238b 01       		.byte	0x1
 10893 238c BF07     		.2byte	0x7bf
 10894 238e A4080000 		.4byte	0x8a4
 10895 2392 911B0000 		.4byte	.LLST120
 10896 2396 1C       		.uleb128 0x1c
ARM GAS  C:\Users\CHRONI~1\AppData\Local\Temp\cc7oUGua.s 			page 242


 10897 2397 9E000000 		.4byte	.LASF155
 10898 239b 01       		.byte	0x1
 10899 239c BF07     		.2byte	0x7bf
 10900 239e C4020000 		.4byte	0x2c4
 10901 23a2 2B1C0000 		.4byte	.LLST121
 10902 23a6 21       		.uleb128 0x21
 10903 23a7 6C656400 		.ascii	"led\000"
 10904 23ab 01       		.byte	0x1
 10905 23ac BF07     		.2byte	0x7bf
 10906 23ae 94020000 		.4byte	0x294
 10907 23b2 C91C0000 		.4byte	.LLST122
 10908 23b6 1D       		.uleb128 0x1d
 10909 23b7 72657300 		.ascii	"res\000"
 10910 23bb 01       		.byte	0x1
 10911 23bc C107     		.2byte	0x7c1
 10912 23be BC000000 		.4byte	0xbc
 10913 23c2 671D0000 		.4byte	.LLST123
 10914 23c6 1E       		.uleb128 0x1e
 10915 23c7 43020000 		.4byte	.LASF95
 10916 23cb 01       		.byte	0x1
 10917 23cc C207     		.2byte	0x7c2
 10918 23ce BC000000 		.4byte	0xbc
 10919 23d2 02       		.uleb128 0x2
 10920 23d3 91       		.byte	0x91
 10921 23d4 67       		.sleb128 -25
 10922 23d5 19       		.uleb128 0x19
 10923 23d6 26000000 		.4byte	.LVL605
 10924 23da 02       		.uleb128 0x2
 10925 23db 77       		.byte	0x77
 10926 23dc 00       		.sleb128 0
 10927 23dd F8230000 		.4byte	0x23f8
 10928 23e1 18       		.uleb128 0x18
 10929 23e2 01       		.uleb128 0x1
 10930 23e3 50       		.byte	0x50
 10931 23e4 02       		.uleb128 0x2
 10932 23e5 08       		.byte	0x8
 10933 23e6 57       		.byte	0x57
 10934 23e7 18       		.uleb128 0x18
 10935 23e8 01       		.uleb128 0x1
 10936 23e9 51       		.byte	0x51
 10937 23ea 01       		.uleb128 0x1
 10938 23eb 41       		.byte	0x41
 10939 23ec 18       		.uleb128 0x18
 10940 23ed 01       		.uleb128 0x1
 10941 23ee 52       		.byte	0x52
 10942 23ef 02       		.uleb128 0x2
 10943 23f0 91       		.byte	0x91
 10944 23f1 67       		.sleb128 -25
 10945 23f2 18       		.uleb128 0x18
 10946 23f3 01       		.uleb128 0x1
 10947 23f4 53       		.byte	0x53
 10948 23f5 01       		.uleb128 0x1
 10949 23f6 31       		.byte	0x31
 10950 23f7 00       		.byte	0
 10951 23f8 17       		.uleb128 0x17
 10952 23f9 2E000000 		.4byte	.LVL607
 10953 23fd 0B240000 		.4byte	0x240b
ARM GAS  C:\Users\CHRONI~1\AppData\Local\Temp\cc7oUGua.s 			page 243


 10954 2401 18       		.uleb128 0x18
 10955 2402 01       		.uleb128 0x1
 10956 2403 50       		.byte	0x50
 10957 2404 05       		.uleb128 0x5
 10958 2405 03       		.byte	0x3
 10959 2406 200C0000 		.4byte	.LC75
 10960 240a 00       		.byte	0
 10961 240b 19       		.uleb128 0x19
 10962 240c 4A000000 		.4byte	.LVL610
 10963 2410 02       		.uleb128 0x2
 10964 2411 76       		.byte	0x76
 10965 2412 00       		.sleb128 0
 10966 2413 2E240000 		.4byte	0x242e
 10967 2417 18       		.uleb128 0x18
 10968 2418 01       		.uleb128 0x1
 10969 2419 50       		.byte	0x50
 10970 241a 02       		.uleb128 0x2
 10971 241b 08       		.byte	0x8
 10972 241c 57       		.byte	0x57
 10973 241d 18       		.uleb128 0x18
 10974 241e 01       		.uleb128 0x1
 10975 241f 51       		.byte	0x51
 10976 2420 01       		.uleb128 0x1
 10977 2421 41       		.byte	0x41
 10978 2422 18       		.uleb128 0x18
 10979 2423 01       		.uleb128 0x1
 10980 2424 52       		.byte	0x52
 10981 2425 02       		.uleb128 0x2
 10982 2426 91       		.byte	0x91
 10983 2427 67       		.sleb128 -25
 10984 2428 18       		.uleb128 0x18
 10985 2429 01       		.uleb128 0x1
 10986 242a 53       		.byte	0x53
 10987 242b 01       		.uleb128 0x1
 10988 242c 31       		.byte	0x31
 10989 242d 00       		.byte	0
 10990 242e 17       		.uleb128 0x17
 10991 242f 54000000 		.4byte	.LVL612
 10992 2433 41240000 		.4byte	0x2441
 10993 2437 18       		.uleb128 0x18
 10994 2438 01       		.uleb128 0x1
 10995 2439 50       		.byte	0x50
 10996 243a 05       		.uleb128 0x5
 10997 243b 03       		.byte	0x3
 10998 243c 440C0000 		.4byte	.LC76
 10999 2440 00       		.byte	0
 11000 2441 19       		.uleb128 0x19
 11001 2442 68000000 		.4byte	.LVL617
 11002 2446 02       		.uleb128 0x2
 11003 2447 77       		.byte	0x77
 11004 2448 00       		.sleb128 0
 11005 2449 64240000 		.4byte	0x2464
 11006 244d 18       		.uleb128 0x18
 11007 244e 01       		.uleb128 0x1
 11008 244f 50       		.byte	0x50
 11009 2450 02       		.uleb128 0x2
 11010 2451 08       		.byte	0x8
ARM GAS  C:\Users\CHRONI~1\AppData\Local\Temp\cc7oUGua.s 			page 244


 11011 2452 57       		.byte	0x57
 11012 2453 18       		.uleb128 0x18
 11013 2454 01       		.uleb128 0x1
 11014 2455 51       		.byte	0x51
 11015 2456 01       		.uleb128 0x1
 11016 2457 41       		.byte	0x41
 11017 2458 18       		.uleb128 0x18
 11018 2459 01       		.uleb128 0x1
 11019 245a 52       		.byte	0x52
 11020 245b 02       		.uleb128 0x2
 11021 245c 91       		.byte	0x91
 11022 245d 67       		.sleb128 -25
 11023 245e 18       		.uleb128 0x18
 11024 245f 01       		.uleb128 0x1
 11025 2460 53       		.byte	0x53
 11026 2461 01       		.uleb128 0x1
 11027 2462 31       		.byte	0x31
 11028 2463 00       		.byte	0
 11029 2464 17       		.uleb128 0x17
 11030 2465 70000000 		.4byte	.LVL619
 11031 2469 77240000 		.4byte	0x2477
 11032 246d 18       		.uleb128 0x18
 11033 246e 01       		.uleb128 0x1
 11034 246f 50       		.byte	0x50
 11035 2470 05       		.uleb128 0x5
 11036 2471 03       		.byte	0x3
 11037 2472 200C0000 		.4byte	.LC75
 11038 2476 00       		.byte	0
 11039 2477 19       		.uleb128 0x19
 11040 2478 8E000000 		.4byte	.LVL622
 11041 247c 02       		.uleb128 0x2
 11042 247d 76       		.byte	0x76
 11043 247e 00       		.sleb128 0
 11044 247f 9A240000 		.4byte	0x249a
 11045 2483 18       		.uleb128 0x18
 11046 2484 01       		.uleb128 0x1
 11047 2485 50       		.byte	0x50
 11048 2486 02       		.uleb128 0x2
 11049 2487 08       		.byte	0x8
 11050 2488 57       		.byte	0x57
 11051 2489 18       		.uleb128 0x18
 11052 248a 01       		.uleb128 0x1
 11053 248b 51       		.byte	0x51
 11054 248c 01       		.uleb128 0x1
 11055 248d 41       		.byte	0x41
 11056 248e 18       		.uleb128 0x18
 11057 248f 01       		.uleb128 0x1
 11058 2490 52       		.byte	0x52
 11059 2491 02       		.uleb128 0x2
 11060 2492 91       		.byte	0x91
 11061 2493 67       		.sleb128 -25
 11062 2494 18       		.uleb128 0x18
 11063 2495 01       		.uleb128 0x1
 11064 2496 53       		.byte	0x53
 11065 2497 01       		.uleb128 0x1
 11066 2498 31       		.byte	0x31
 11067 2499 00       		.byte	0
ARM GAS  C:\Users\CHRONI~1\AppData\Local\Temp\cc7oUGua.s 			page 245


 11068 249a 17       		.uleb128 0x17
 11069 249b 98000000 		.4byte	.LVL624
 11070 249f AD240000 		.4byte	0x24ad
 11071 24a3 18       		.uleb128 0x18
 11072 24a4 01       		.uleb128 0x1
 11073 24a5 50       		.byte	0x50
 11074 24a6 05       		.uleb128 0x5
 11075 24a7 03       		.byte	0x3
 11076 24a8 440C0000 		.4byte	.LC76
 11077 24ac 00       		.byte	0
 11078 24ad 19       		.uleb128 0x19
 11079 24ae AC000000 		.4byte	.LVL629
 11080 24b2 02       		.uleb128 0x2
 11081 24b3 77       		.byte	0x77
 11082 24b4 00       		.sleb128 0
 11083 24b5 D0240000 		.4byte	0x24d0
 11084 24b9 18       		.uleb128 0x18
 11085 24ba 01       		.uleb128 0x1
 11086 24bb 50       		.byte	0x50
 11087 24bc 02       		.uleb128 0x2
 11088 24bd 08       		.byte	0x8
 11089 24be 57       		.byte	0x57
 11090 24bf 18       		.uleb128 0x18
 11091 24c0 01       		.uleb128 0x1
 11092 24c1 51       		.byte	0x51
 11093 24c2 01       		.uleb128 0x1
 11094 24c3 42       		.byte	0x42
 11095 24c4 18       		.uleb128 0x18
 11096 24c5 01       		.uleb128 0x1
 11097 24c6 52       		.byte	0x52
 11098 24c7 02       		.uleb128 0x2
 11099 24c8 91       		.byte	0x91
 11100 24c9 67       		.sleb128 -25
 11101 24ca 18       		.uleb128 0x18
 11102 24cb 01       		.uleb128 0x1
 11103 24cc 53       		.byte	0x53
 11104 24cd 01       		.uleb128 0x1
 11105 24ce 31       		.byte	0x31
 11106 24cf 00       		.byte	0
 11107 24d0 17       		.uleb128 0x17
 11108 24d1 B4000000 		.4byte	.LVL631
 11109 24d5 E3240000 		.4byte	0x24e3
 11110 24d9 18       		.uleb128 0x18
 11111 24da 01       		.uleb128 0x1
 11112 24db 50       		.byte	0x50
 11113 24dc 05       		.uleb128 0x5
 11114 24dd 03       		.byte	0x3
 11115 24de 200C0000 		.4byte	.LC75
 11116 24e2 00       		.byte	0
 11117 24e3 19       		.uleb128 0x19
 11118 24e4 D0000000 		.4byte	.LVL634
 11119 24e8 02       		.uleb128 0x2
 11120 24e9 76       		.byte	0x76
 11121 24ea 00       		.sleb128 0
 11122 24eb 06250000 		.4byte	0x2506
 11123 24ef 18       		.uleb128 0x18
 11124 24f0 01       		.uleb128 0x1
ARM GAS  C:\Users\CHRONI~1\AppData\Local\Temp\cc7oUGua.s 			page 246


 11125 24f1 50       		.byte	0x50
 11126 24f2 02       		.uleb128 0x2
 11127 24f3 08       		.byte	0x8
 11128 24f4 57       		.byte	0x57
 11129 24f5 18       		.uleb128 0x18
 11130 24f6 01       		.uleb128 0x1
 11131 24f7 51       		.byte	0x51
 11132 24f8 01       		.uleb128 0x1
 11133 24f9 42       		.byte	0x42
 11134 24fa 18       		.uleb128 0x18
 11135 24fb 01       		.uleb128 0x1
 11136 24fc 52       		.byte	0x52
 11137 24fd 02       		.uleb128 0x2
 11138 24fe 91       		.byte	0x91
 11139 24ff 67       		.sleb128 -25
 11140 2500 18       		.uleb128 0x18
 11141 2501 01       		.uleb128 0x1
 11142 2502 53       		.byte	0x53
 11143 2503 01       		.uleb128 0x1
 11144 2504 31       		.byte	0x31
 11145 2505 00       		.byte	0
 11146 2506 17       		.uleb128 0x17
 11147 2507 DA000000 		.4byte	.LVL636
 11148 250b 19250000 		.4byte	0x2519
 11149 250f 18       		.uleb128 0x18
 11150 2510 01       		.uleb128 0x1
 11151 2511 50       		.byte	0x50
 11152 2512 05       		.uleb128 0x5
 11153 2513 03       		.byte	0x3
 11154 2514 440C0000 		.4byte	.LC76
 11155 2518 00       		.byte	0
 11156 2519 19       		.uleb128 0x19
 11157 251a EE000000 		.4byte	.LVL641
 11158 251e 02       		.uleb128 0x2
 11159 251f 77       		.byte	0x77
 11160 2520 00       		.sleb128 0
 11161 2521 3C250000 		.4byte	0x253c
 11162 2525 18       		.uleb128 0x18
 11163 2526 01       		.uleb128 0x1
 11164 2527 50       		.byte	0x50
 11165 2528 02       		.uleb128 0x2
 11166 2529 08       		.byte	0x8
 11167 252a 57       		.byte	0x57
 11168 252b 18       		.uleb128 0x18
 11169 252c 01       		.uleb128 0x1
 11170 252d 51       		.byte	0x51
 11171 252e 01       		.uleb128 0x1
 11172 252f 42       		.byte	0x42
 11173 2530 18       		.uleb128 0x18
 11174 2531 01       		.uleb128 0x1
 11175 2532 52       		.byte	0x52
 11176 2533 02       		.uleb128 0x2
 11177 2534 91       		.byte	0x91
 11178 2535 67       		.sleb128 -25
 11179 2536 18       		.uleb128 0x18
 11180 2537 01       		.uleb128 0x1
 11181 2538 53       		.byte	0x53
ARM GAS  C:\Users\CHRONI~1\AppData\Local\Temp\cc7oUGua.s 			page 247


 11182 2539 01       		.uleb128 0x1
 11183 253a 31       		.byte	0x31
 11184 253b 00       		.byte	0
 11185 253c 17       		.uleb128 0x17
 11186 253d F6000000 		.4byte	.LVL643
 11187 2541 4F250000 		.4byte	0x254f
 11188 2545 18       		.uleb128 0x18
 11189 2546 01       		.uleb128 0x1
 11190 2547 50       		.byte	0x50
 11191 2548 05       		.uleb128 0x5
 11192 2549 03       		.byte	0x3
 11193 254a 200C0000 		.4byte	.LC75
 11194 254e 00       		.byte	0
 11195 254f 19       		.uleb128 0x19
 11196 2550 14010000 		.4byte	.LVL646
 11197 2554 02       		.uleb128 0x2
 11198 2555 76       		.byte	0x76
 11199 2556 00       		.sleb128 0
 11200 2557 72250000 		.4byte	0x2572
 11201 255b 18       		.uleb128 0x18
 11202 255c 01       		.uleb128 0x1
 11203 255d 50       		.byte	0x50
 11204 255e 02       		.uleb128 0x2
 11205 255f 08       		.byte	0x8
 11206 2560 57       		.byte	0x57
 11207 2561 18       		.uleb128 0x18
 11208 2562 01       		.uleb128 0x1
 11209 2563 51       		.byte	0x51
 11210 2564 01       		.uleb128 0x1
 11211 2565 42       		.byte	0x42
 11212 2566 18       		.uleb128 0x18
 11213 2567 01       		.uleb128 0x1
 11214 2568 52       		.byte	0x52
 11215 2569 02       		.uleb128 0x2
 11216 256a 91       		.byte	0x91
 11217 256b 67       		.sleb128 -25
 11218 256c 18       		.uleb128 0x18
 11219 256d 01       		.uleb128 0x1
 11220 256e 53       		.byte	0x53
 11221 256f 01       		.uleb128 0x1
 11222 2570 31       		.byte	0x31
 11223 2571 00       		.byte	0
 11224 2572 17       		.uleb128 0x17
 11225 2573 1C010000 		.4byte	.LVL648
 11226 2577 85250000 		.4byte	0x2585
 11227 257b 18       		.uleb128 0x18
 11228 257c 01       		.uleb128 0x1
 11229 257d 50       		.byte	0x50
 11230 257e 05       		.uleb128 0x5
 11231 257f 03       		.byte	0x3
 11232 2580 440C0000 		.4byte	.LC76
 11233 2584 00       		.byte	0
 11234 2585 1A       		.uleb128 0x1a
 11235 2586 24010000 		.4byte	.LVL651
 11236 258a 18       		.uleb128 0x18
 11237 258b 01       		.uleb128 0x1
 11238 258c 50       		.byte	0x50
ARM GAS  C:\Users\CHRONI~1\AppData\Local\Temp\cc7oUGua.s 			page 248


 11239 258d 05       		.uleb128 0x5
 11240 258e 03       		.byte	0x3
 11241 258f 680C0000 		.4byte	.LC77
 11242 2593 00       		.byte	0
 11243 2594 00       		.byte	0
 11244 2595 20       		.uleb128 0x20
 11245 2596 59060000 		.4byte	.LASF156
 11246 259a 01       		.byte	0x1
 11247 259b 3508     		.2byte	0x835
 11248 259d BC000000 		.4byte	0xbc
 11249 25a1 00000000 		.4byte	.LFB39
 11250 25a5 D4000000 		.4byte	.LFE39-.LFB39
 11251 25a9 01       		.uleb128 0x1
 11252 25aa 9C       		.byte	0x9c
 11253 25ab E6260000 		.4byte	0x26e6
 11254 25af 1C       		.uleb128 0x1c
 11255 25b0 4E0D0000 		.4byte	.LASF99
 11256 25b4 01       		.byte	0x1
 11257 25b5 3508     		.2byte	0x835
 11258 25b7 A4080000 		.4byte	0x8a4
 11259 25bb FE1D0000 		.4byte	.LLST124
 11260 25bf 1C       		.uleb128 0x1c
 11261 25c0 9E000000 		.4byte	.LASF155
 11262 25c4 01       		.byte	0x1
 11263 25c5 3508     		.2byte	0x835
 11264 25c7 C4020000 		.4byte	0x2c4
 11265 25cb 8D1E0000 		.4byte	.LLST125
 11266 25cf 21       		.uleb128 0x21
 11267 25d0 6C656400 		.ascii	"led\000"
 11268 25d4 01       		.byte	0x1
 11269 25d5 3508     		.2byte	0x835
 11270 25d7 E6260000 		.4byte	0x26e6
 11271 25db 2B1F0000 		.4byte	.LLST126
 11272 25df 1D       		.uleb128 0x1d
 11273 25e0 72657300 		.ascii	"res\000"
 11274 25e4 01       		.byte	0x1
 11275 25e5 3708     		.2byte	0x837
 11276 25e7 BC000000 		.4byte	0xbc
 11277 25eb BA1F0000 		.4byte	.LLST127
 11278 25ef 1E       		.uleb128 0x1e
 11279 25f0 43020000 		.4byte	.LASF95
 11280 25f4 01       		.byte	0x1
 11281 25f5 3808     		.2byte	0x838
 11282 25f7 BC000000 		.4byte	0xbc
 11283 25fb 02       		.uleb128 0x2
 11284 25fc 91       		.byte	0x91
 11285 25fd 67       		.sleb128 -25
 11286 25fe 19       		.uleb128 0x19
 11287 25ff 22000000 		.4byte	.LVL659
 11288 2603 02       		.uleb128 0x2
 11289 2604 77       		.byte	0x77
 11290 2605 00       		.sleb128 0
 11291 2606 21260000 		.4byte	0x2621
 11292 260a 18       		.uleb128 0x18
 11293 260b 01       		.uleb128 0x1
 11294 260c 50       		.byte	0x50
 11295 260d 02       		.uleb128 0x2
ARM GAS  C:\Users\CHRONI~1\AppData\Local\Temp\cc7oUGua.s 			page 249


 11296 260e 08       		.byte	0x8
 11297 260f 57       		.byte	0x57
 11298 2610 18       		.uleb128 0x18
 11299 2611 01       		.uleb128 0x1
 11300 2612 51       		.byte	0x51
 11301 2613 01       		.uleb128 0x1
 11302 2614 41       		.byte	0x41
 11303 2615 18       		.uleb128 0x18
 11304 2616 01       		.uleb128 0x1
 11305 2617 52       		.byte	0x52
 11306 2618 02       		.uleb128 0x2
 11307 2619 91       		.byte	0x91
 11308 261a 67       		.sleb128 -25
 11309 261b 18       		.uleb128 0x18
 11310 261c 01       		.uleb128 0x1
 11311 261d 53       		.byte	0x53
 11312 261e 01       		.uleb128 0x1
 11313 261f 31       		.byte	0x31
 11314 2620 00       		.byte	0
 11315 2621 17       		.uleb128 0x17
 11316 2622 2A000000 		.4byte	.LVL661
 11317 2626 34260000 		.4byte	0x2634
 11318 262a 18       		.uleb128 0x18
 11319 262b 01       		.uleb128 0x1
 11320 262c 50       		.byte	0x50
 11321 262d 05       		.uleb128 0x5
 11322 262e 03       		.byte	0x3
 11323 262f 200C0000 		.4byte	.LC75
 11324 2633 00       		.byte	0
 11325 2634 19       		.uleb128 0x19
 11326 2635 4C000000 		.4byte	.LVL667
 11327 2639 02       		.uleb128 0x2
 11328 263a 77       		.byte	0x77
 11329 263b 00       		.sleb128 0
 11330 263c 57260000 		.4byte	0x2657
 11331 2640 18       		.uleb128 0x18
 11332 2641 01       		.uleb128 0x1
 11333 2642 50       		.byte	0x50
 11334 2643 02       		.uleb128 0x2
 11335 2644 08       		.byte	0x8
 11336 2645 57       		.byte	0x57
 11337 2646 18       		.uleb128 0x18
 11338 2647 01       		.uleb128 0x1
 11339 2648 51       		.byte	0x51
 11340 2649 01       		.uleb128 0x1
 11341 264a 41       		.byte	0x41
 11342 264b 18       		.uleb128 0x18
 11343 264c 01       		.uleb128 0x1
 11344 264d 52       		.byte	0x52
 11345 264e 02       		.uleb128 0x2
 11346 264f 91       		.byte	0x91
 11347 2650 67       		.sleb128 -25
 11348 2651 18       		.uleb128 0x18
 11349 2652 01       		.uleb128 0x1
 11350 2653 53       		.byte	0x53
 11351 2654 01       		.uleb128 0x1
 11352 2655 31       		.byte	0x31
ARM GAS  C:\Users\CHRONI~1\AppData\Local\Temp\cc7oUGua.s 			page 250


 11353 2656 00       		.byte	0
 11354 2657 17       		.uleb128 0x17
 11355 2658 54000000 		.4byte	.LVL669
 11356 265c 6A260000 		.4byte	0x266a
 11357 2660 18       		.uleb128 0x18
 11358 2661 01       		.uleb128 0x1
 11359 2662 50       		.byte	0x50
 11360 2663 05       		.uleb128 0x5
 11361 2664 03       		.byte	0x3
 11362 2665 200C0000 		.4byte	.LC75
 11363 2669 00       		.byte	0
 11364 266a 19       		.uleb128 0x19
 11365 266b 76000000 		.4byte	.LVL675
 11366 266f 02       		.uleb128 0x2
 11367 2670 77       		.byte	0x77
 11368 2671 00       		.sleb128 0
 11369 2672 8D260000 		.4byte	0x268d
 11370 2676 18       		.uleb128 0x18
 11371 2677 01       		.uleb128 0x1
 11372 2678 50       		.byte	0x50
 11373 2679 02       		.uleb128 0x2
 11374 267a 08       		.byte	0x8
 11375 267b 57       		.byte	0x57
 11376 267c 18       		.uleb128 0x18
 11377 267d 01       		.uleb128 0x1
 11378 267e 51       		.byte	0x51
 11379 267f 01       		.uleb128 0x1
 11380 2680 42       		.byte	0x42
 11381 2681 18       		.uleb128 0x18
 11382 2682 01       		.uleb128 0x1
 11383 2683 52       		.byte	0x52
 11384 2684 02       		.uleb128 0x2
 11385 2685 91       		.byte	0x91
 11386 2686 67       		.sleb128 -25
 11387 2687 18       		.uleb128 0x18
 11388 2688 01       		.uleb128 0x1
 11389 2689 53       		.byte	0x53
 11390 268a 01       		.uleb128 0x1
 11391 268b 31       		.byte	0x31
 11392 268c 00       		.byte	0
 11393 268d 17       		.uleb128 0x17
 11394 268e 7E000000 		.4byte	.LVL677
 11395 2692 A0260000 		.4byte	0x26a0
 11396 2696 18       		.uleb128 0x18
 11397 2697 01       		.uleb128 0x1
 11398 2698 50       		.byte	0x50
 11399 2699 05       		.uleb128 0x5
 11400 269a 03       		.byte	0x3
 11401 269b 200C0000 		.4byte	.LC75
 11402 269f 00       		.byte	0
 11403 26a0 19       		.uleb128 0x19
 11404 26a1 A0000000 		.4byte	.LVL683
 11405 26a5 02       		.uleb128 0x2
 11406 26a6 77       		.byte	0x77
 11407 26a7 00       		.sleb128 0
 11408 26a8 C3260000 		.4byte	0x26c3
 11409 26ac 18       		.uleb128 0x18
ARM GAS  C:\Users\CHRONI~1\AppData\Local\Temp\cc7oUGua.s 			page 251


 11410 26ad 01       		.uleb128 0x1
 11411 26ae 50       		.byte	0x50
 11412 26af 02       		.uleb128 0x2
 11413 26b0 08       		.byte	0x8
 11414 26b1 57       		.byte	0x57
 11415 26b2 18       		.uleb128 0x18
 11416 26b3 01       		.uleb128 0x1
 11417 26b4 51       		.byte	0x51
 11418 26b5 01       		.uleb128 0x1
 11419 26b6 42       		.byte	0x42
 11420 26b7 18       		.uleb128 0x18
 11421 26b8 01       		.uleb128 0x1
 11422 26b9 52       		.byte	0x52
 11423 26ba 02       		.uleb128 0x2
 11424 26bb 91       		.byte	0x91
 11425 26bc 67       		.sleb128 -25
 11426 26bd 18       		.uleb128 0x18
 11427 26be 01       		.uleb128 0x1
 11428 26bf 53       		.byte	0x53
 11429 26c0 01       		.uleb128 0x1
 11430 26c1 31       		.byte	0x31
 11431 26c2 00       		.byte	0
 11432 26c3 17       		.uleb128 0x17
 11433 26c4 A8000000 		.4byte	.LVL685
 11434 26c8 D6260000 		.4byte	0x26d6
 11435 26cc 18       		.uleb128 0x18
 11436 26cd 01       		.uleb128 0x1
 11437 26ce 50       		.byte	0x50
 11438 26cf 05       		.uleb128 0x5
 11439 26d0 03       		.byte	0x3
 11440 26d1 200C0000 		.4byte	.LC75
 11441 26d5 00       		.byte	0
 11442 26d6 1A       		.uleb128 0x1a
 11443 26d7 BE000000 		.4byte	.LVL689
 11444 26db 18       		.uleb128 0x18
 11445 26dc 01       		.uleb128 0x1
 11446 26dd 50       		.byte	0x50
 11447 26de 05       		.uleb128 0x5
 11448 26df 03       		.byte	0x3
 11449 26e0 680C0000 		.4byte	.LC77
 11450 26e4 00       		.byte	0
 11451 26e5 00       		.byte	0
 11452 26e6 05       		.uleb128 0x5
 11453 26e7 04       		.byte	0x4
 11454 26e8 94020000 		.4byte	0x294
 11455 26ec 20       		.uleb128 0x20
 11456 26ed AC0A0000 		.4byte	.LASF157
 11457 26f1 01       		.byte	0x1
 11458 26f2 8A08     		.2byte	0x88a
 11459 26f4 BC000000 		.4byte	0xbc
 11460 26f8 00000000 		.4byte	.LFB40
 11461 26fc 64000000 		.4byte	.LFE40-.LFB40
 11462 2700 01       		.uleb128 0x1
 11463 2701 9C       		.byte	0x9c
 11464 2702 B0270000 		.4byte	0x27b0
 11465 2706 1C       		.uleb128 0x1c
 11466 2707 4E0D0000 		.4byte	.LASF99
ARM GAS  C:\Users\CHRONI~1\AppData\Local\Temp\cc7oUGua.s 			page 252


 11467 270b 01       		.byte	0x1
 11468 270c 8A08     		.2byte	0x88a
 11469 270e A4080000 		.4byte	0x8a4
 11470 2712 1A200000 		.4byte	.LLST128
 11471 2716 1C       		.uleb128 0x1c
 11472 2717 22040000 		.4byte	.LASF113
 11473 271b 01       		.byte	0x1
 11474 271c 8A08     		.2byte	0x88a
 11475 271e F6000000 		.4byte	0xf6
 11476 2722 5C200000 		.4byte	.LLST129
 11477 2726 1D       		.uleb128 0x1d
 11478 2727 72657300 		.ascii	"res\000"
 11479 272b 01       		.byte	0x1
 11480 272c 8C08     		.2byte	0x88c
 11481 272e BC000000 		.4byte	0xbc
 11482 2732 96200000 		.4byte	.LLST130
 11483 2736 1E       		.uleb128 0x1e
 11484 2737 43020000 		.4byte	.LASF95
 11485 273b 01       		.byte	0x1
 11486 273c 8D08     		.2byte	0x88d
 11487 273e BC000000 		.4byte	0xbc
 11488 2742 02       		.uleb128 0x2
 11489 2743 91       		.byte	0x91
 11490 2744 67       		.sleb128 -25
 11491 2745 19       		.uleb128 0x19
 11492 2746 1E000000 		.4byte	.LVL695
 11493 274a 02       		.uleb128 0x2
 11494 274b 77       		.byte	0x77
 11495 274c 00       		.sleb128 0
 11496 274d 69270000 		.4byte	0x2769
 11497 2751 18       		.uleb128 0x18
 11498 2752 01       		.uleb128 0x1
 11499 2753 50       		.byte	0x50
 11500 2754 02       		.uleb128 0x2
 11501 2755 08       		.byte	0x8
 11502 2756 57       		.byte	0x57
 11503 2757 18       		.uleb128 0x18
 11504 2758 01       		.uleb128 0x1
 11505 2759 51       		.byte	0x51
 11506 275a 02       		.uleb128 0x2
 11507 275b 08       		.byte	0x8
 11508 275c 21       		.byte	0x21
 11509 275d 18       		.uleb128 0x18
 11510 275e 01       		.uleb128 0x1
 11511 275f 52       		.byte	0x52
 11512 2760 02       		.uleb128 0x2
 11513 2761 91       		.byte	0x91
 11514 2762 67       		.sleb128 -25
 11515 2763 18       		.uleb128 0x18
 11516 2764 01       		.uleb128 0x1
 11517 2765 53       		.byte	0x53
 11518 2766 01       		.uleb128 0x1
 11519 2767 31       		.byte	0x31
 11520 2768 00       		.byte	0
 11521 2769 17       		.uleb128 0x17
 11522 276a 26000000 		.4byte	.LVL697
 11523 276e 7C270000 		.4byte	0x277c
ARM GAS  C:\Users\CHRONI~1\AppData\Local\Temp\cc7oUGua.s 			page 253


 11524 2772 18       		.uleb128 0x18
 11525 2773 01       		.uleb128 0x1
 11526 2774 50       		.byte	0x50
 11527 2775 05       		.uleb128 0x5
 11528 2776 03       		.byte	0x3
 11529 2777 9C080000 		.4byte	.LC53
 11530 277b 00       		.byte	0
 11531 277c 19       		.uleb128 0x19
 11532 277d 42000000 		.4byte	.LVL700
 11533 2781 02       		.uleb128 0x2
 11534 2782 76       		.byte	0x76
 11535 2783 00       		.sleb128 0
 11536 2784 A0270000 		.4byte	0x27a0
 11537 2788 18       		.uleb128 0x18
 11538 2789 01       		.uleb128 0x1
 11539 278a 50       		.byte	0x50
 11540 278b 02       		.uleb128 0x2
 11541 278c 08       		.byte	0x8
 11542 278d 57       		.byte	0x57
 11543 278e 18       		.uleb128 0x18
 11544 278f 01       		.uleb128 0x1
 11545 2790 51       		.byte	0x51
 11546 2791 02       		.uleb128 0x2
 11547 2792 08       		.byte	0x8
 11548 2793 21       		.byte	0x21
 11549 2794 18       		.uleb128 0x18
 11550 2795 01       		.uleb128 0x1
 11551 2796 52       		.byte	0x52
 11552 2797 02       		.uleb128 0x2
 11553 2798 91       		.byte	0x91
 11554 2799 67       		.sleb128 -25
 11555 279a 18       		.uleb128 0x18
 11556 279b 01       		.uleb128 0x1
 11557 279c 53       		.byte	0x53
 11558 279d 01       		.uleb128 0x1
 11559 279e 31       		.byte	0x31
 11560 279f 00       		.byte	0
 11561 27a0 1A       		.uleb128 0x1a
 11562 27a1 4A000000 		.4byte	.LVL702
 11563 27a5 18       		.uleb128 0x18
 11564 27a6 01       		.uleb128 0x1
 11565 27a7 50       		.byte	0x50
 11566 27a8 05       		.uleb128 0x5
 11567 27a9 03       		.byte	0x3
 11568 27aa C4080000 		.4byte	.LC54
 11569 27ae 00       		.byte	0
 11570 27af 00       		.byte	0
 11571 27b0 20       		.uleb128 0x20
 11572 27b1 02070000 		.4byte	.LASF158
 11573 27b5 01       		.byte	0x1
 11574 27b6 B708     		.2byte	0x8b7
 11575 27b8 BC000000 		.4byte	0xbc
 11576 27bc 00000000 		.4byte	.LFB41
 11577 27c0 48000000 		.4byte	.LFE41-.LFB41
 11578 27c4 01       		.uleb128 0x1
 11579 27c5 9C       		.byte	0x9c
 11580 27c6 3D280000 		.4byte	0x283d
ARM GAS  C:\Users\CHRONI~1\AppData\Local\Temp\cc7oUGua.s 			page 254


 11581 27ca 1C       		.uleb128 0x1c
 11582 27cb 4E0D0000 		.4byte	.LASF99
 11583 27cf 01       		.byte	0x1
 11584 27d0 B708     		.2byte	0x8b7
 11585 27d2 A4080000 		.4byte	0x8a4
 11586 27d6 CA200000 		.4byte	.LLST131
 11587 27da 1C       		.uleb128 0x1c
 11588 27db 22040000 		.4byte	.LASF113
 11589 27df 01       		.byte	0x1
 11590 27e0 B708     		.2byte	0x8b7
 11591 27e2 910F0000 		.4byte	0xf91
 11592 27e6 01210000 		.4byte	.LLST132
 11593 27ea 1D       		.uleb128 0x1d
 11594 27eb 72657300 		.ascii	"res\000"
 11595 27ef 01       		.byte	0x1
 11596 27f0 B908     		.2byte	0x8b9
 11597 27f2 BC000000 		.4byte	0xbc
 11598 27f6 38210000 		.4byte	.LLST133
 11599 27fa 1E       		.uleb128 0x1e
 11600 27fb 43020000 		.4byte	.LASF95
 11601 27ff 01       		.byte	0x1
 11602 2800 BA08     		.2byte	0x8ba
 11603 2802 BC000000 		.4byte	0xbc
 11604 2806 02       		.uleb128 0x2
 11605 2807 91       		.byte	0x91
 11606 2808 67       		.sleb128 -25
 11607 2809 19       		.uleb128 0x19
 11608 280a 1E000000 		.4byte	.LVL709
 11609 280e 02       		.uleb128 0x2
 11610 280f 77       		.byte	0x77
 11611 2810 00       		.sleb128 0
 11612 2811 2D280000 		.4byte	0x282d
 11613 2815 18       		.uleb128 0x18
 11614 2816 01       		.uleb128 0x1
 11615 2817 50       		.byte	0x50
 11616 2818 02       		.uleb128 0x2
 11617 2819 08       		.byte	0x8
 11618 281a 57       		.byte	0x57
 11619 281b 18       		.uleb128 0x18
 11620 281c 01       		.uleb128 0x1
 11621 281d 51       		.byte	0x51
 11622 281e 02       		.uleb128 0x2
 11623 281f 08       		.byte	0x8
 11624 2820 21       		.byte	0x21
 11625 2821 18       		.uleb128 0x18
 11626 2822 01       		.uleb128 0x1
 11627 2823 52       		.byte	0x52
 11628 2824 02       		.uleb128 0x2
 11629 2825 91       		.byte	0x91
 11630 2826 67       		.sleb128 -25
 11631 2827 18       		.uleb128 0x18
 11632 2828 01       		.uleb128 0x1
 11633 2829 53       		.byte	0x53
 11634 282a 01       		.uleb128 0x1
 11635 282b 31       		.byte	0x31
 11636 282c 00       		.byte	0
 11637 282d 1A       		.uleb128 0x1a
ARM GAS  C:\Users\CHRONI~1\AppData\Local\Temp\cc7oUGua.s 			page 255


 11638 282e 26000000 		.4byte	.LVL711
 11639 2832 18       		.uleb128 0x18
 11640 2833 01       		.uleb128 0x1
 11641 2834 50       		.byte	0x50
 11642 2835 05       		.uleb128 0x5
 11643 2836 03       		.byte	0x3
 11644 2837 9C080000 		.4byte	.LC53
 11645 283b 00       		.byte	0
 11646 283c 00       		.byte	0
 11647 283d 20       		.uleb128 0x20
 11648 283e A3000000 		.4byte	.LASF159
 11649 2842 01       		.byte	0x1
 11650 2843 DD08     		.2byte	0x8dd
 11651 2845 BC000000 		.4byte	0xbc
 11652 2849 00000000 		.4byte	.LFB42
 11653 284d 50000000 		.4byte	.LFE42-.LFB42
 11654 2851 01       		.uleb128 0x1
 11655 2852 9C       		.byte	0x9c
 11656 2853 03290000 		.4byte	0x2903
 11657 2857 1C       		.uleb128 0x1c
 11658 2858 4E0D0000 		.4byte	.LASF99
 11659 285c 01       		.byte	0x1
 11660 285d DD08     		.2byte	0x8dd
 11661 285f A4080000 		.4byte	0x8a4
 11662 2863 56210000 		.4byte	.LLST134
 11663 2867 1C       		.uleb128 0x1c
 11664 2868 D2020000 		.4byte	.LASF160
 11665 286c 01       		.byte	0x1
 11666 286d DD08     		.2byte	0x8dd
 11667 286f 95030000 		.4byte	0x395
 11668 2873 98210000 		.4byte	.LLST135
 11669 2877 1C       		.uleb128 0x1c
 11670 2878 AB070000 		.4byte	.LASF96
 11671 287c 01       		.byte	0x1
 11672 287d DD08     		.2byte	0x8dd
 11673 287f 95030000 		.4byte	0x395
 11674 2883 DD210000 		.4byte	.LLST136
 11675 2887 1D       		.uleb128 0x1d
 11676 2888 72657300 		.ascii	"res\000"
 11677 288c 01       		.byte	0x1
 11678 288d DF08     		.2byte	0x8df
 11679 288f BC000000 		.4byte	0xbc
 11680 2893 1F220000 		.4byte	.LLST137
 11681 2897 19       		.uleb128 0x19
 11682 2898 1A000000 		.4byte	.LVL719
 11683 289c 02       		.uleb128 0x2
 11684 289d 76       		.byte	0x76
 11685 289e 00       		.sleb128 0
 11686 289f BC280000 		.4byte	0x28bc
 11687 28a3 18       		.uleb128 0x18
 11688 28a4 01       		.uleb128 0x1
 11689 28a5 50       		.byte	0x50
 11690 28a6 02       		.uleb128 0x2
 11691 28a7 08       		.byte	0x8
 11692 28a8 57       		.byte	0x57
 11693 28a9 18       		.uleb128 0x18
 11694 28aa 01       		.uleb128 0x1
ARM GAS  C:\Users\CHRONI~1\AppData\Local\Temp\cc7oUGua.s 			page 256


 11695 28ab 51       		.byte	0x51
 11696 28ac 02       		.uleb128 0x2
 11697 28ad 09       		.byte	0x9
 11698 28ae FE       		.byte	0xfe
 11699 28af 18       		.uleb128 0x18
 11700 28b0 01       		.uleb128 0x1
 11701 28b1 52       		.byte	0x52
 11702 28b2 03       		.uleb128 0x3
 11703 28b3 F3       		.byte	0xf3
 11704 28b4 01       		.uleb128 0x1
 11705 28b5 51       		.byte	0x51
 11706 28b6 18       		.uleb128 0x18
 11707 28b7 01       		.uleb128 0x1
 11708 28b8 53       		.byte	0x53
 11709 28b9 01       		.uleb128 0x1
 11710 28ba 31       		.byte	0x31
 11711 28bb 00       		.byte	0
 11712 28bc 17       		.uleb128 0x17
 11713 28bd 22000000 		.4byte	.LVL721
 11714 28c1 CF280000 		.4byte	0x28cf
 11715 28c5 18       		.uleb128 0x18
 11716 28c6 01       		.uleb128 0x1
 11717 28c7 50       		.byte	0x50
 11718 28c8 05       		.uleb128 0x5
 11719 28c9 03       		.byte	0x3
 11720 28ca 840C0000 		.4byte	.LC78
 11721 28ce 00       		.byte	0
 11722 28cf 19       		.uleb128 0x19
 11723 28d0 30000000 		.4byte	.LVL724
 11724 28d4 02       		.uleb128 0x2
 11725 28d5 76       		.byte	0x76
 11726 28d6 00       		.sleb128 0
 11727 28d7 F3280000 		.4byte	0x28f3
 11728 28db 18       		.uleb128 0x18
 11729 28dc 01       		.uleb128 0x1
 11730 28dd 50       		.byte	0x50
 11731 28de 02       		.uleb128 0x2
 11732 28df 08       		.byte	0x8
 11733 28e0 57       		.byte	0x57
 11734 28e1 18       		.uleb128 0x18
 11735 28e2 01       		.uleb128 0x1
 11736 28e3 51       		.byte	0x51
 11737 28e4 02       		.uleb128 0x2
 11738 28e5 09       		.byte	0x9
 11739 28e6 FF       		.byte	0xff
 11740 28e7 18       		.uleb128 0x18
 11741 28e8 01       		.uleb128 0x1
 11742 28e9 52       		.byte	0x52
 11743 28ea 02       		.uleb128 0x2
 11744 28eb 77       		.byte	0x77
 11745 28ec 00       		.sleb128 0
 11746 28ed 18       		.uleb128 0x18
 11747 28ee 01       		.uleb128 0x1
 11748 28ef 53       		.byte	0x53
 11749 28f0 01       		.uleb128 0x1
 11750 28f1 31       		.byte	0x31
 11751 28f2 00       		.byte	0
ARM GAS  C:\Users\CHRONI~1\AppData\Local\Temp\cc7oUGua.s 			page 257


 11752 28f3 1A       		.uleb128 0x1a
 11753 28f4 38000000 		.4byte	.LVL726
 11754 28f8 18       		.uleb128 0x18
 11755 28f9 01       		.uleb128 0x1
 11756 28fa 50       		.byte	0x50
 11757 28fb 05       		.uleb128 0x5
 11758 28fc 03       		.byte	0x3
 11759 28fd A80C0000 		.4byte	.LC79
 11760 2901 00       		.byte	0
 11761 2902 00       		.byte	0
 11762 2903 20       		.uleb128 0x20
 11763 2904 390A0000 		.4byte	.LASF161
 11764 2908 01       		.byte	0x1
 11765 2909 0909     		.2byte	0x909
 11766 290b BC000000 		.4byte	0xbc
 11767 290f 00000000 		.4byte	.LFB43
 11768 2913 22000000 		.4byte	.LFE43-.LFB43
 11769 2917 01       		.uleb128 0x1
 11770 2918 9C       		.byte	0x9c
 11771 2919 74290000 		.4byte	0x2974
 11772 291d 1C       		.uleb128 0x1c
 11773 291e 4E0D0000 		.4byte	.LASF99
 11774 2922 01       		.byte	0x1
 11775 2923 0909     		.2byte	0x909
 11776 2925 A4080000 		.4byte	0x8a4
 11777 2929 53220000 		.4byte	.LLST138
 11778 292d 21       		.uleb128 0x21
 11779 292e 72656700 		.ascii	"reg\000"
 11780 2932 01       		.byte	0x1
 11781 2933 0909     		.2byte	0x909
 11782 2935 BC000000 		.4byte	0xbc
 11783 2939 8D220000 		.4byte	.LLST139
 11784 293d 21       		.uleb128 0x21
 11785 293e 62756600 		.ascii	"buf\000"
 11786 2942 01       		.byte	0x1
 11787 2943 0909     		.2byte	0x909
 11788 2945 95030000 		.4byte	0x395
 11789 2949 C7220000 		.4byte	.LLST140
 11790 294d 21       		.uleb128 0x21
 11791 294e 6C656E00 		.ascii	"len\000"
 11792 2952 01       		.byte	0x1
 11793 2953 0909     		.2byte	0x909
 11794 2955 C7000000 		.4byte	0xc7
 11795 2959 01230000 		.4byte	.LLST141
 11796 295d 23       		.uleb128 0x23
 11797 295e 10000000 		.4byte	.LVL732
 11798 2962 02       		.uleb128 0x2
 11799 2963 74       		.byte	0x74
 11800 2964 00       		.sleb128 0
 11801 2965 18       		.uleb128 0x18
 11802 2966 01       		.uleb128 0x1
 11803 2967 50       		.byte	0x50
 11804 2968 02       		.uleb128 0x2
 11805 2969 08       		.byte	0x8
 11806 296a 57       		.byte	0x57
 11807 296b 18       		.uleb128 0x18
 11808 296c 01       		.uleb128 0x1
ARM GAS  C:\Users\CHRONI~1\AppData\Local\Temp\cc7oUGua.s 			page 258


 11809 296d 52       		.byte	0x52
 11810 296e 03       		.uleb128 0x3
 11811 296f F3       		.byte	0xf3
 11812 2970 01       		.uleb128 0x1
 11813 2971 52       		.byte	0x52
 11814 2972 00       		.byte	0
 11815 2973 00       		.byte	0
 11816 2974 20       		.uleb128 0x20
 11817 2975 B3000000 		.4byte	.LASF162
 11818 2979 01       		.byte	0x1
 11819 297a 2B09     		.2byte	0x92b
 11820 297c BC000000 		.4byte	0xbc
 11821 2980 00000000 		.4byte	.LFB44
 11822 2984 22000000 		.4byte	.LFE44-.LFB44
 11823 2988 01       		.uleb128 0x1
 11824 2989 9C       		.byte	0x9c
 11825 298a E5290000 		.4byte	0x29e5
 11826 298e 1C       		.uleb128 0x1c
 11827 298f 4E0D0000 		.4byte	.LASF99
 11828 2993 01       		.byte	0x1
 11829 2994 2B09     		.2byte	0x92b
 11830 2996 A4080000 		.4byte	0x8a4
 11831 299a 54230000 		.4byte	.LLST142
 11832 299e 21       		.uleb128 0x21
 11833 299f 72656700 		.ascii	"reg\000"
 11834 29a3 01       		.byte	0x1
 11835 29a4 2B09     		.2byte	0x92b
 11836 29a6 BC000000 		.4byte	0xbc
 11837 29aa 8E230000 		.4byte	.LLST143
 11838 29ae 21       		.uleb128 0x21
 11839 29af 62756600 		.ascii	"buf\000"
 11840 29b3 01       		.byte	0x1
 11841 29b4 2B09     		.2byte	0x92b
 11842 29b6 95030000 		.4byte	0x395
 11843 29ba C8230000 		.4byte	.LLST144
 11844 29be 21       		.uleb128 0x21
 11845 29bf 6C656E00 		.ascii	"len\000"
 11846 29c3 01       		.byte	0x1
 11847 29c4 2B09     		.2byte	0x92b
 11848 29c6 C7000000 		.4byte	0xc7
 11849 29ca 02240000 		.4byte	.LLST145
 11850 29ce 23       		.uleb128 0x23
 11851 29cf 10000000 		.4byte	.LVL739
 11852 29d3 02       		.uleb128 0x2
 11853 29d4 74       		.byte	0x74
 11854 29d5 00       		.sleb128 0
 11855 29d6 18       		.uleb128 0x18
 11856 29d7 01       		.uleb128 0x1
 11857 29d8 50       		.byte	0x50
 11858 29d9 02       		.uleb128 0x2
 11859 29da 08       		.byte	0x8
 11860 29db 57       		.byte	0x57
 11861 29dc 18       		.uleb128 0x18
 11862 29dd 01       		.uleb128 0x1
 11863 29de 52       		.byte	0x52
 11864 29df 03       		.uleb128 0x3
 11865 29e0 F3       		.byte	0xf3
ARM GAS  C:\Users\CHRONI~1\AppData\Local\Temp\cc7oUGua.s 			page 259


 11866 29e1 01       		.uleb128 0x1
 11867 29e2 52       		.byte	0x52
 11868 29e3 00       		.byte	0
 11869 29e4 00       		.byte	0
 11870 29e5 20       		.uleb128 0x20
 11871 29e6 68020000 		.4byte	.LASF163
 11872 29ea 01       		.byte	0x1
 11873 29eb 4809     		.2byte	0x948
 11874 29ed BC000000 		.4byte	0xbc
 11875 29f1 00000000 		.4byte	.LFB45
 11876 29f5 70000000 		.4byte	.LFE45-.LFB45
 11877 29f9 01       		.uleb128 0x1
 11878 29fa 9C       		.byte	0x9c
 11879 29fb 942A0000 		.4byte	0x2a94
 11880 29ff 1C       		.uleb128 0x1c
 11881 2a00 D7070000 		.4byte	.LASF164
 11882 2a04 01       		.byte	0x1
 11883 2a05 4809     		.2byte	0x948
 11884 2a07 942A0000 		.4byte	0x2a94
 11885 2a0b 55240000 		.4byte	.LLST146
 11886 2a0f 24       		.uleb128 0x24
 11887 2a10 0E000000 		.4byte	.LVL745
 11888 2a14 9A2A0000 		.4byte	0x2a9a
 11889 2a18 2E2A0000 		.4byte	0x2a2e
 11890 2a1c 18       		.uleb128 0x18
 11891 2a1d 01       		.uleb128 0x1
 11892 2a1e 50       		.byte	0x50
 11893 2a1f 02       		.uleb128 0x2
 11894 2a20 74       		.byte	0x74
 11895 2a21 00       		.sleb128 0
 11896 2a22 18       		.uleb128 0x18
 11897 2a23 01       		.uleb128 0x1
 11898 2a24 51       		.byte	0x51
 11899 2a25 01       		.uleb128 0x1
 11900 2a26 30       		.byte	0x30
 11901 2a27 18       		.uleb128 0x18
 11902 2a28 01       		.uleb128 0x1
 11903 2a29 52       		.byte	0x52
 11904 2a2a 02       		.uleb128 0x2
 11905 2a2b 08       		.byte	0x8
 11906 2a2c 60       		.byte	0x60
 11907 2a2d 00       		.byte	0
 11908 2a2e 24       		.uleb128 0x24
 11909 2a2f 18000000 		.4byte	.LVL746
 11910 2a33 A32A0000 		.4byte	0x2aa3
 11911 2a37 512A0000 		.4byte	0x2a51
 11912 2a3b 18       		.uleb128 0x18
 11913 2a3c 01       		.uleb128 0x1
 11914 2a3d 50       		.byte	0x50
 11915 2a3e 02       		.uleb128 0x2
 11916 2a3f 74       		.byte	0x74
 11917 2a40 00       		.sleb128 0
 11918 2a41 18       		.uleb128 0x18
 11919 2a42 01       		.uleb128 0x1
 11920 2a43 51       		.byte	0x51
 11921 2a44 05       		.uleb128 0x5
 11922 2a45 03       		.byte	0x3
ARM GAS  C:\Users\CHRONI~1\AppData\Local\Temp\cc7oUGua.s 			page 260


 11923 2a46 C80C0000 		.4byte	.LC80
 11924 2a4a 18       		.uleb128 0x18
 11925 2a4b 01       		.uleb128 0x1
 11926 2a4c 52       		.byte	0x52
 11927 2a4d 02       		.uleb128 0x2
 11928 2a4e 08       		.byte	0x8
 11929 2a4f 20       		.byte	0x20
 11930 2a50 00       		.byte	0
 11931 2a51 24       		.uleb128 0x24
 11932 2a52 22000000 		.4byte	.LVL747
 11933 2a56 A32A0000 		.4byte	0x2aa3
 11934 2a5a 742A0000 		.4byte	0x2a74
 11935 2a5e 18       		.uleb128 0x18
 11936 2a5f 01       		.uleb128 0x1
 11937 2a60 50       		.byte	0x50
 11938 2a61 02       		.uleb128 0x2
 11939 2a62 74       		.byte	0x74
 11940 2a63 20       		.sleb128 32
 11941 2a64 18       		.uleb128 0x18
 11942 2a65 01       		.uleb128 0x1
 11943 2a66 51       		.byte	0x51
 11944 2a67 05       		.uleb128 0x5
 11945 2a68 03       		.byte	0x3
 11946 2a69 E40C0000 		.4byte	.LC81
 11947 2a6d 18       		.uleb128 0x18
 11948 2a6e 01       		.uleb128 0x1
 11949 2a6f 52       		.byte	0x52
 11950 2a70 02       		.uleb128 0x2
 11951 2a71 08       		.byte	0x8
 11952 2a72 20       		.byte	0x20
 11953 2a73 00       		.byte	0
 11954 2a74 25       		.uleb128 0x25
 11955 2a75 2E000000 		.4byte	.LVL748
 11956 2a79 A32A0000 		.4byte	0x2aa3
 11957 2a7d 18       		.uleb128 0x18
 11958 2a7e 01       		.uleb128 0x1
 11959 2a7f 50       		.byte	0x50
 11960 2a80 03       		.uleb128 0x3
 11961 2a81 74       		.byte	0x74
 11962 2a82 C000     		.sleb128 64
 11963 2a84 18       		.uleb128 0x18
 11964 2a85 01       		.uleb128 0x1
 11965 2a86 51       		.byte	0x51
 11966 2a87 05       		.uleb128 0x5
 11967 2a88 03       		.byte	0x3
 11968 2a89 F80C0000 		.4byte	.LC82
 11969 2a8d 18       		.uleb128 0x18
 11970 2a8e 01       		.uleb128 0x1
 11971 2a8f 52       		.byte	0x52
 11972 2a90 01       		.uleb128 0x1
 11973 2a91 38       		.byte	0x38
 11974 2a92 00       		.byte	0
 11975 2a93 00       		.byte	0
 11976 2a94 05       		.uleb128 0x5
 11977 2a95 04       		.byte	0x4
 11978 2a96 85040000 		.4byte	0x485
 11979 2a9a 26       		.uleb128 0x26
ARM GAS  C:\Users\CHRONI~1\AppData\Local\Temp\cc7oUGua.s 			page 261


 11980 2a9b 83070000 		.4byte	.LASF168
 11981 2a9f 83070000 		.4byte	.LASF168
 11982 2aa3 27       		.uleb128 0x27
 11983 2aa4 F8030000 		.4byte	.LASF169
 11984 2aa8 F8030000 		.4byte	.LASF169
 11985 2aac 05       		.byte	0x5
 11986 2aad 24       		.byte	0x24
 11987 2aae 00       		.byte	0
 11988              		.section	.debug_abbrev,"",%progbits
 11989              	.Ldebug_abbrev0:
 11990 0000 01       		.uleb128 0x1
 11991 0001 11       		.uleb128 0x11
 11992 0002 01       		.byte	0x1
 11993 0003 25       		.uleb128 0x25
 11994 0004 0E       		.uleb128 0xe
 11995 0005 13       		.uleb128 0x13
 11996 0006 0B       		.uleb128 0xb
 11997 0007 03       		.uleb128 0x3
 11998 0008 0E       		.uleb128 0xe
 11999 0009 1B       		.uleb128 0x1b
 12000 000a 0E       		.uleb128 0xe
 12001 000b 55       		.uleb128 0x55
 12002 000c 17       		.uleb128 0x17
 12003 000d 11       		.uleb128 0x11
 12004 000e 01       		.uleb128 0x1
 12005 000f 10       		.uleb128 0x10
 12006 0010 17       		.uleb128 0x17
 12007 0011 00       		.byte	0
 12008 0012 00       		.byte	0
 12009 0013 02       		.uleb128 0x2
 12010 0014 24       		.uleb128 0x24
 12011 0015 00       		.byte	0
 12012 0016 0B       		.uleb128 0xb
 12013 0017 0B       		.uleb128 0xb
 12014 0018 3E       		.uleb128 0x3e
 12015 0019 0B       		.uleb128 0xb
 12016 001a 03       		.uleb128 0x3
 12017 001b 0E       		.uleb128 0xe
 12018 001c 00       		.byte	0
 12019 001d 00       		.byte	0
 12020 001e 03       		.uleb128 0x3
 12021 001f 16       		.uleb128 0x16
 12022 0020 00       		.byte	0
 12023 0021 03       		.uleb128 0x3
 12024 0022 0E       		.uleb128 0xe
 12025 0023 3A       		.uleb128 0x3a
 12026 0024 0B       		.uleb128 0xb
 12027 0025 3B       		.uleb128 0x3b
 12028 0026 0B       		.uleb128 0xb
 12029 0027 49       		.uleb128 0x49
 12030 0028 13       		.uleb128 0x13
 12031 0029 00       		.byte	0
 12032 002a 00       		.byte	0
 12033 002b 04       		.uleb128 0x4
 12034 002c 24       		.uleb128 0x24
 12035 002d 00       		.byte	0
 12036 002e 0B       		.uleb128 0xb
ARM GAS  C:\Users\CHRONI~1\AppData\Local\Temp\cc7oUGua.s 			page 262


 12037 002f 0B       		.uleb128 0xb
 12038 0030 3E       		.uleb128 0x3e
 12039 0031 0B       		.uleb128 0xb
 12040 0032 03       		.uleb128 0x3
 12041 0033 08       		.uleb128 0x8
 12042 0034 00       		.byte	0
 12043 0035 00       		.byte	0
 12044 0036 05       		.uleb128 0x5
 12045 0037 0F       		.uleb128 0xf
 12046 0038 00       		.byte	0
 12047 0039 0B       		.uleb128 0xb
 12048 003a 0B       		.uleb128 0xb
 12049 003b 49       		.uleb128 0x49
 12050 003c 13       		.uleb128 0x13
 12051 003d 00       		.byte	0
 12052 003e 00       		.byte	0
 12053 003f 06       		.uleb128 0x6
 12054 0040 26       		.uleb128 0x26
 12055 0041 00       		.byte	0
 12056 0042 49       		.uleb128 0x49
 12057 0043 13       		.uleb128 0x13
 12058 0044 00       		.byte	0
 12059 0045 00       		.byte	0
 12060 0046 07       		.uleb128 0x7
 12061 0047 01       		.uleb128 0x1
 12062 0048 01       		.byte	0x1
 12063 0049 49       		.uleb128 0x49
 12064 004a 13       		.uleb128 0x13
 12065 004b 01       		.uleb128 0x1
 12066 004c 13       		.uleb128 0x13
 12067 004d 00       		.byte	0
 12068 004e 00       		.byte	0
 12069 004f 08       		.uleb128 0x8
 12070 0050 21       		.uleb128 0x21
 12071 0051 00       		.byte	0
 12072 0052 49       		.uleb128 0x49
 12073 0053 13       		.uleb128 0x13
 12074 0054 2F       		.uleb128 0x2f
 12075 0055 0B       		.uleb128 0xb
 12076 0056 00       		.byte	0
 12077 0057 00       		.byte	0
 12078 0058 09       		.uleb128 0x9
 12079 0059 04       		.uleb128 0x4
 12080 005a 01       		.byte	0x1
 12081 005b 0B       		.uleb128 0xb
 12082 005c 0B       		.uleb128 0xb
 12083 005d 49       		.uleb128 0x49
 12084 005e 13       		.uleb128 0x13
 12085 005f 3A       		.uleb128 0x3a
 12086 0060 0B       		.uleb128 0xb
 12087 0061 3B       		.uleb128 0x3b
 12088 0062 0B       		.uleb128 0xb
 12089 0063 01       		.uleb128 0x1
 12090 0064 13       		.uleb128 0x13
 12091 0065 00       		.byte	0
 12092 0066 00       		.byte	0
 12093 0067 0A       		.uleb128 0xa
ARM GAS  C:\Users\CHRONI~1\AppData\Local\Temp\cc7oUGua.s 			page 263


 12094 0068 28       		.uleb128 0x28
 12095 0069 00       		.byte	0
 12096 006a 03       		.uleb128 0x3
 12097 006b 0E       		.uleb128 0xe
 12098 006c 1C       		.uleb128 0x1c
 12099 006d 0B       		.uleb128 0xb
 12100 006e 00       		.byte	0
 12101 006f 00       		.byte	0
 12102 0070 0B       		.uleb128 0xb
 12103 0071 13       		.uleb128 0x13
 12104 0072 01       		.byte	0x1
 12105 0073 03       		.uleb128 0x3
 12106 0074 0E       		.uleb128 0xe
 12107 0075 0B       		.uleb128 0xb
 12108 0076 0B       		.uleb128 0xb
 12109 0077 3A       		.uleb128 0x3a
 12110 0078 0B       		.uleb128 0xb
 12111 0079 3B       		.uleb128 0x3b
 12112 007a 0B       		.uleb128 0xb
 12113 007b 01       		.uleb128 0x1
 12114 007c 13       		.uleb128 0x13
 12115 007d 00       		.byte	0
 12116 007e 00       		.byte	0
 12117 007f 0C       		.uleb128 0xc
 12118 0080 0D       		.uleb128 0xd
 12119 0081 00       		.byte	0
 12120 0082 03       		.uleb128 0x3
 12121 0083 0E       		.uleb128 0xe
 12122 0084 3A       		.uleb128 0x3a
 12123 0085 0B       		.uleb128 0xb
 12124 0086 3B       		.uleb128 0x3b
 12125 0087 0B       		.uleb128 0xb
 12126 0088 49       		.uleb128 0x49
 12127 0089 13       		.uleb128 0x13
 12128 008a 38       		.uleb128 0x38
 12129 008b 0B       		.uleb128 0xb
 12130 008c 00       		.byte	0
 12131 008d 00       		.byte	0
 12132 008e 0D       		.uleb128 0xd
 12133 008f 0D       		.uleb128 0xd
 12134 0090 00       		.byte	0
 12135 0091 03       		.uleb128 0x3
 12136 0092 08       		.uleb128 0x8
 12137 0093 3A       		.uleb128 0x3a
 12138 0094 0B       		.uleb128 0xb
 12139 0095 3B       		.uleb128 0x3b
 12140 0096 0B       		.uleb128 0xb
 12141 0097 49       		.uleb128 0x49
 12142 0098 13       		.uleb128 0x13
 12143 0099 38       		.uleb128 0x38
 12144 009a 0B       		.uleb128 0xb
 12145 009b 00       		.byte	0
 12146 009c 00       		.byte	0
 12147 009d 0E       		.uleb128 0xe
 12148 009e 15       		.uleb128 0x15
 12149 009f 00       		.byte	0
 12150 00a0 27       		.uleb128 0x27
ARM GAS  C:\Users\CHRONI~1\AppData\Local\Temp\cc7oUGua.s 			page 264


 12151 00a1 19       		.uleb128 0x19
 12152 00a2 49       		.uleb128 0x49
 12153 00a3 13       		.uleb128 0x13
 12154 00a4 00       		.byte	0
 12155 00a5 00       		.byte	0
 12156 00a6 0F       		.uleb128 0xf
 12157 00a7 15       		.uleb128 0x15
 12158 00a8 01       		.byte	0x1
 12159 00a9 27       		.uleb128 0x27
 12160 00aa 19       		.uleb128 0x19
 12161 00ab 49       		.uleb128 0x49
 12162 00ac 13       		.uleb128 0x13
 12163 00ad 01       		.uleb128 0x1
 12164 00ae 13       		.uleb128 0x13
 12165 00af 00       		.byte	0
 12166 00b0 00       		.byte	0
 12167 00b1 10       		.uleb128 0x10
 12168 00b2 05       		.uleb128 0x5
 12169 00b3 00       		.byte	0
 12170 00b4 49       		.uleb128 0x49
 12171 00b5 13       		.uleb128 0x13
 12172 00b6 00       		.byte	0
 12173 00b7 00       		.byte	0
 12174 00b8 11       		.uleb128 0x11
 12175 00b9 15       		.uleb128 0x15
 12176 00ba 01       		.byte	0x1
 12177 00bb 27       		.uleb128 0x27
 12178 00bc 19       		.uleb128 0x19
 12179 00bd 01       		.uleb128 0x1
 12180 00be 13       		.uleb128 0x13
 12181 00bf 00       		.byte	0
 12182 00c0 00       		.byte	0
 12183 00c1 12       		.uleb128 0x12
 12184 00c2 18       		.uleb128 0x18
 12185 00c3 00       		.byte	0
 12186 00c4 00       		.byte	0
 12187 00c5 00       		.byte	0
 12188 00c6 13       		.uleb128 0x13
 12189 00c7 2E       		.uleb128 0x2e
 12190 00c8 01       		.byte	0x1
 12191 00c9 3F       		.uleb128 0x3f
 12192 00ca 19       		.uleb128 0x19
 12193 00cb 03       		.uleb128 0x3
 12194 00cc 0E       		.uleb128 0xe
 12195 00cd 3A       		.uleb128 0x3a
 12196 00ce 0B       		.uleb128 0xb
 12197 00cf 3B       		.uleb128 0x3b
 12198 00d0 0B       		.uleb128 0xb
 12199 00d1 27       		.uleb128 0x27
 12200 00d2 19       		.uleb128 0x19
 12201 00d3 49       		.uleb128 0x49
 12202 00d4 13       		.uleb128 0x13
 12203 00d5 11       		.uleb128 0x11
 12204 00d6 01       		.uleb128 0x1
 12205 00d7 12       		.uleb128 0x12
 12206 00d8 06       		.uleb128 0x6
 12207 00d9 40       		.uleb128 0x40
ARM GAS  C:\Users\CHRONI~1\AppData\Local\Temp\cc7oUGua.s 			page 265


 12208 00da 18       		.uleb128 0x18
 12209 00db 9642     		.uleb128 0x2116
 12210 00dd 19       		.uleb128 0x19
 12211 00de 01       		.uleb128 0x1
 12212 00df 13       		.uleb128 0x13
 12213 00e0 00       		.byte	0
 12214 00e1 00       		.byte	0
 12215 00e2 14       		.uleb128 0x14
 12216 00e3 05       		.uleb128 0x5
 12217 00e4 00       		.byte	0
 12218 00e5 03       		.uleb128 0x3
 12219 00e6 0E       		.uleb128 0xe
 12220 00e7 3A       		.uleb128 0x3a
 12221 00e8 0B       		.uleb128 0xb
 12222 00e9 3B       		.uleb128 0x3b
 12223 00ea 0B       		.uleb128 0xb
 12224 00eb 49       		.uleb128 0x49
 12225 00ec 13       		.uleb128 0x13
 12226 00ed 02       		.uleb128 0x2
 12227 00ee 17       		.uleb128 0x17
 12228 00ef 00       		.byte	0
 12229 00f0 00       		.byte	0
 12230 00f1 15       		.uleb128 0x15
 12231 00f2 34       		.uleb128 0x34
 12232 00f3 00       		.byte	0
 12233 00f4 03       		.uleb128 0x3
 12234 00f5 08       		.uleb128 0x8
 12235 00f6 3A       		.uleb128 0x3a
 12236 00f7 0B       		.uleb128 0xb
 12237 00f8 3B       		.uleb128 0x3b
 12238 00f9 0B       		.uleb128 0xb
 12239 00fa 49       		.uleb128 0x49
 12240 00fb 13       		.uleb128 0x13
 12241 00fc 02       		.uleb128 0x2
 12242 00fd 17       		.uleb128 0x17
 12243 00fe 00       		.byte	0
 12244 00ff 00       		.byte	0
 12245 0100 16       		.uleb128 0x16
 12246 0101 34       		.uleb128 0x34
 12247 0102 00       		.byte	0
 12248 0103 03       		.uleb128 0x3
 12249 0104 0E       		.uleb128 0xe
 12250 0105 3A       		.uleb128 0x3a
 12251 0106 0B       		.uleb128 0xb
 12252 0107 3B       		.uleb128 0x3b
 12253 0108 0B       		.uleb128 0xb
 12254 0109 49       		.uleb128 0x49
 12255 010a 13       		.uleb128 0x13
 12256 010b 02       		.uleb128 0x2
 12257 010c 18       		.uleb128 0x18
 12258 010d 00       		.byte	0
 12259 010e 00       		.byte	0
 12260 010f 17       		.uleb128 0x17
 12261 0110 898201   		.uleb128 0x4109
 12262 0113 01       		.byte	0x1
 12263 0114 11       		.uleb128 0x11
 12264 0115 01       		.uleb128 0x1
ARM GAS  C:\Users\CHRONI~1\AppData\Local\Temp\cc7oUGua.s 			page 266


 12265 0116 01       		.uleb128 0x1
 12266 0117 13       		.uleb128 0x13
 12267 0118 00       		.byte	0
 12268 0119 00       		.byte	0
 12269 011a 18       		.uleb128 0x18
 12270 011b 8A8201   		.uleb128 0x410a
 12271 011e 00       		.byte	0
 12272 011f 02       		.uleb128 0x2
 12273 0120 18       		.uleb128 0x18
 12274 0121 9142     		.uleb128 0x2111
 12275 0123 18       		.uleb128 0x18
 12276 0124 00       		.byte	0
 12277 0125 00       		.byte	0
 12278 0126 19       		.uleb128 0x19
 12279 0127 898201   		.uleb128 0x4109
 12280 012a 01       		.byte	0x1
 12281 012b 11       		.uleb128 0x11
 12282 012c 01       		.uleb128 0x1
 12283 012d 9342     		.uleb128 0x2113
 12284 012f 18       		.uleb128 0x18
 12285 0130 01       		.uleb128 0x1
 12286 0131 13       		.uleb128 0x13
 12287 0132 00       		.byte	0
 12288 0133 00       		.byte	0
 12289 0134 1A       		.uleb128 0x1a
 12290 0135 898201   		.uleb128 0x4109
 12291 0138 01       		.byte	0x1
 12292 0139 11       		.uleb128 0x11
 12293 013a 01       		.uleb128 0x1
 12294 013b 00       		.byte	0
 12295 013c 00       		.byte	0
 12296 013d 1B       		.uleb128 0x1b
 12297 013e 2E       		.uleb128 0x2e
 12298 013f 01       		.byte	0x1
 12299 0140 3F       		.uleb128 0x3f
 12300 0141 19       		.uleb128 0x19
 12301 0142 03       		.uleb128 0x3
 12302 0143 0E       		.uleb128 0xe
 12303 0144 3A       		.uleb128 0x3a
 12304 0145 0B       		.uleb128 0xb
 12305 0146 3B       		.uleb128 0x3b
 12306 0147 05       		.uleb128 0x5
 12307 0148 27       		.uleb128 0x27
 12308 0149 19       		.uleb128 0x19
 12309 014a 49       		.uleb128 0x49
 12310 014b 13       		.uleb128 0x13
 12311 014c 11       		.uleb128 0x11
 12312 014d 01       		.uleb128 0x1
 12313 014e 12       		.uleb128 0x12
 12314 014f 06       		.uleb128 0x6
 12315 0150 40       		.uleb128 0x40
 12316 0151 18       		.uleb128 0x18
 12317 0152 9642     		.uleb128 0x2116
 12318 0154 19       		.uleb128 0x19
 12319 0155 01       		.uleb128 0x1
 12320 0156 13       		.uleb128 0x13
 12321 0157 00       		.byte	0
ARM GAS  C:\Users\CHRONI~1\AppData\Local\Temp\cc7oUGua.s 			page 267


 12322 0158 00       		.byte	0
 12323 0159 1C       		.uleb128 0x1c
 12324 015a 05       		.uleb128 0x5
 12325 015b 00       		.byte	0
 12326 015c 03       		.uleb128 0x3
 12327 015d 0E       		.uleb128 0xe
 12328 015e 3A       		.uleb128 0x3a
 12329 015f 0B       		.uleb128 0xb
 12330 0160 3B       		.uleb128 0x3b
 12331 0161 05       		.uleb128 0x5
 12332 0162 49       		.uleb128 0x49
 12333 0163 13       		.uleb128 0x13
 12334 0164 02       		.uleb128 0x2
 12335 0165 17       		.uleb128 0x17
 12336 0166 00       		.byte	0
 12337 0167 00       		.byte	0
 12338 0168 1D       		.uleb128 0x1d
 12339 0169 34       		.uleb128 0x34
 12340 016a 00       		.byte	0
 12341 016b 03       		.uleb128 0x3
 12342 016c 08       		.uleb128 0x8
 12343 016d 3A       		.uleb128 0x3a
 12344 016e 0B       		.uleb128 0xb
 12345 016f 3B       		.uleb128 0x3b
 12346 0170 05       		.uleb128 0x5
 12347 0171 49       		.uleb128 0x49
 12348 0172 13       		.uleb128 0x13
 12349 0173 02       		.uleb128 0x2
 12350 0174 17       		.uleb128 0x17
 12351 0175 00       		.byte	0
 12352 0176 00       		.byte	0
 12353 0177 1E       		.uleb128 0x1e
 12354 0178 34       		.uleb128 0x34
 12355 0179 00       		.byte	0
 12356 017a 03       		.uleb128 0x3
 12357 017b 0E       		.uleb128 0xe
 12358 017c 3A       		.uleb128 0x3a
 12359 017d 0B       		.uleb128 0xb
 12360 017e 3B       		.uleb128 0x3b
 12361 017f 05       		.uleb128 0x5
 12362 0180 49       		.uleb128 0x49
 12363 0181 13       		.uleb128 0x13
 12364 0182 02       		.uleb128 0x2
 12365 0183 18       		.uleb128 0x18
 12366 0184 00       		.byte	0
 12367 0185 00       		.byte	0
 12368 0186 1F       		.uleb128 0x1f
 12369 0187 0B       		.uleb128 0xb
 12370 0188 01       		.byte	0x1
 12371 0189 55       		.uleb128 0x55
 12372 018a 17       		.uleb128 0x17
 12373 018b 01       		.uleb128 0x1
 12374 018c 13       		.uleb128 0x13
 12375 018d 00       		.byte	0
 12376 018e 00       		.byte	0
 12377 018f 20       		.uleb128 0x20
 12378 0190 2E       		.uleb128 0x2e
ARM GAS  C:\Users\CHRONI~1\AppData\Local\Temp\cc7oUGua.s 			page 268


 12379 0191 01       		.byte	0x1
 12380 0192 3F       		.uleb128 0x3f
 12381 0193 19       		.uleb128 0x19
 12382 0194 03       		.uleb128 0x3
 12383 0195 0E       		.uleb128 0xe
 12384 0196 3A       		.uleb128 0x3a
 12385 0197 0B       		.uleb128 0xb
 12386 0198 3B       		.uleb128 0x3b
 12387 0199 05       		.uleb128 0x5
 12388 019a 27       		.uleb128 0x27
 12389 019b 19       		.uleb128 0x19
 12390 019c 49       		.uleb128 0x49
 12391 019d 13       		.uleb128 0x13
 12392 019e 11       		.uleb128 0x11
 12393 019f 01       		.uleb128 0x1
 12394 01a0 12       		.uleb128 0x12
 12395 01a1 06       		.uleb128 0x6
 12396 01a2 40       		.uleb128 0x40
 12397 01a3 18       		.uleb128 0x18
 12398 01a4 9742     		.uleb128 0x2117
 12399 01a6 19       		.uleb128 0x19
 12400 01a7 01       		.uleb128 0x1
 12401 01a8 13       		.uleb128 0x13
 12402 01a9 00       		.byte	0
 12403 01aa 00       		.byte	0
 12404 01ab 21       		.uleb128 0x21
 12405 01ac 05       		.uleb128 0x5
 12406 01ad 00       		.byte	0
 12407 01ae 03       		.uleb128 0x3
 12408 01af 08       		.uleb128 0x8
 12409 01b0 3A       		.uleb128 0x3a
 12410 01b1 0B       		.uleb128 0xb
 12411 01b2 3B       		.uleb128 0x3b
 12412 01b3 05       		.uleb128 0x5
 12413 01b4 49       		.uleb128 0x49
 12414 01b5 13       		.uleb128 0x13
 12415 01b6 02       		.uleb128 0x2
 12416 01b7 17       		.uleb128 0x17
 12417 01b8 00       		.byte	0
 12418 01b9 00       		.byte	0
 12419 01ba 22       		.uleb128 0x22
 12420 01bb 34       		.uleb128 0x34
 12421 01bc 00       		.byte	0
 12422 01bd 03       		.uleb128 0x3
 12423 01be 0E       		.uleb128 0xe
 12424 01bf 3A       		.uleb128 0x3a
 12425 01c0 0B       		.uleb128 0xb
 12426 01c1 3B       		.uleb128 0x3b
 12427 01c2 05       		.uleb128 0x5
 12428 01c3 49       		.uleb128 0x49
 12429 01c4 13       		.uleb128 0x13
 12430 01c5 02       		.uleb128 0x2
 12431 01c6 17       		.uleb128 0x17
 12432 01c7 00       		.byte	0
 12433 01c8 00       		.byte	0
 12434 01c9 23       		.uleb128 0x23
 12435 01ca 898201   		.uleb128 0x4109
ARM GAS  C:\Users\CHRONI~1\AppData\Local\Temp\cc7oUGua.s 			page 269


 12436 01cd 01       		.byte	0x1
 12437 01ce 11       		.uleb128 0x11
 12438 01cf 01       		.uleb128 0x1
 12439 01d0 9342     		.uleb128 0x2113
 12440 01d2 18       		.uleb128 0x18
 12441 01d3 00       		.byte	0
 12442 01d4 00       		.byte	0
 12443 01d5 24       		.uleb128 0x24
 12444 01d6 898201   		.uleb128 0x4109
 12445 01d9 01       		.byte	0x1
 12446 01da 11       		.uleb128 0x11
 12447 01db 01       		.uleb128 0x1
 12448 01dc 31       		.uleb128 0x31
 12449 01dd 13       		.uleb128 0x13
 12450 01de 01       		.uleb128 0x1
 12451 01df 13       		.uleb128 0x13
 12452 01e0 00       		.byte	0
 12453 01e1 00       		.byte	0
 12454 01e2 25       		.uleb128 0x25
 12455 01e3 898201   		.uleb128 0x4109
 12456 01e6 01       		.byte	0x1
 12457 01e7 11       		.uleb128 0x11
 12458 01e8 01       		.uleb128 0x1
 12459 01e9 31       		.uleb128 0x31
 12460 01ea 13       		.uleb128 0x13
 12461 01eb 00       		.byte	0
 12462 01ec 00       		.byte	0
 12463 01ed 26       		.uleb128 0x26
 12464 01ee 2E       		.uleb128 0x2e
 12465 01ef 00       		.byte	0
 12466 01f0 3F       		.uleb128 0x3f
 12467 01f1 19       		.uleb128 0x19
 12468 01f2 3C       		.uleb128 0x3c
 12469 01f3 19       		.uleb128 0x19
 12470 01f4 6E       		.uleb128 0x6e
 12471 01f5 0E       		.uleb128 0xe
 12472 01f6 03       		.uleb128 0x3
 12473 01f7 0E       		.uleb128 0xe
 12474 01f8 00       		.byte	0
 12475 01f9 00       		.byte	0
 12476 01fa 27       		.uleb128 0x27
 12477 01fb 2E       		.uleb128 0x2e
 12478 01fc 00       		.byte	0
 12479 01fd 3F       		.uleb128 0x3f
 12480 01fe 19       		.uleb128 0x19
 12481 01ff 3C       		.uleb128 0x3c
 12482 0200 19       		.uleb128 0x19
 12483 0201 6E       		.uleb128 0x6e
 12484 0202 0E       		.uleb128 0xe
 12485 0203 03       		.uleb128 0x3
 12486 0204 0E       		.uleb128 0xe
 12487 0205 3A       		.uleb128 0x3a
 12488 0206 0B       		.uleb128 0xb
 12489 0207 3B       		.uleb128 0x3b
 12490 0208 0B       		.uleb128 0xb
 12491 0209 00       		.byte	0
 12492 020a 00       		.byte	0
ARM GAS  C:\Users\CHRONI~1\AppData\Local\Temp\cc7oUGua.s 			page 270


 12493 020b 00       		.byte	0
 12494              		.section	.debug_loc,"",%progbits
 12495              	.Ldebug_loc0:
 12496              	.LLST0:
 12497 0000 00000000 		.4byte	.LVL0
 12498 0004 0C000000 		.4byte	.LVL1
 12499 0008 0100     		.2byte	0x1
 12500 000a 50       		.byte	0x50
 12501 000b 0C000000 		.4byte	.LVL1
 12502 000f 12000000 		.4byte	.LVL3
 12503 0013 0100     		.2byte	0x1
 12504 0015 54       		.byte	0x54
 12505 0016 12000000 		.4byte	.LVL3
 12506 001a 16000000 		.4byte	.LVL4
 12507 001e 0100     		.2byte	0x1
 12508 0020 50       		.byte	0x50
 12509 0021 16000000 		.4byte	.LVL4
 12510 0025 1C020000 		.4byte	.LVL80
 12511 0029 0100     		.2byte	0x1
 12512 002b 54       		.byte	0x54
 12513 002c 1C020000 		.4byte	.LVL80
 12514 0030 B0020000 		.4byte	.LFE1
 12515 0034 0400     		.2byte	0x4
 12516 0036 F3       		.byte	0xf3
 12517 0037 01       		.uleb128 0x1
 12518 0038 50       		.byte	0x50
 12519 0039 9F       		.byte	0x9f
 12520 003a 00000000 		.4byte	0
 12521 003e 00000000 		.4byte	0
 12522              	.LLST1:
 12523 0042 9A000000 		.4byte	.LVL18
 12524 0046 A0000000 		.4byte	.LVL19
 12525 004a 0100     		.2byte	0x1
 12526 004c 50       		.byte	0x50
 12527 004d AA000000 		.4byte	.LVL22
 12528 0051 B2000000 		.4byte	.LVL23
 12529 0055 0100     		.2byte	0x1
 12530 0057 50       		.byte	0x50
 12531 0058 E4000000 		.4byte	.LVL29
 12532 005c EA000000 		.4byte	.LVL30
 12533 0060 0100     		.2byte	0x1
 12534 0062 50       		.byte	0x50
 12535 0063 F4000000 		.4byte	.LVL33
 12536 0067 FC000000 		.4byte	.LVL34
 12537 006b 0100     		.2byte	0x1
 12538 006d 50       		.byte	0x50
 12539 006e 22010000 		.4byte	.LVL37
 12540 0072 28010000 		.4byte	.LVL38
 12541 0076 0100     		.2byte	0x1
 12542 0078 50       		.byte	0x50
 12543 0079 32010000 		.4byte	.LVL41
 12544 007d 36010000 		.4byte	.LVL42
 12545 0081 0100     		.2byte	0x1
 12546 0083 50       		.byte	0x50
 12547 0084 58010000 		.4byte	.LVL47
 12548 0088 5E010000 		.4byte	.LVL48
 12549 008c 0100     		.2byte	0x1
ARM GAS  C:\Users\CHRONI~1\AppData\Local\Temp\cc7oUGua.s 			page 271


 12550 008e 50       		.byte	0x50
 12551 008f 68010000 		.4byte	.LVL51
 12552 0093 70010000 		.4byte	.LVL52
 12553 0097 0100     		.2byte	0x1
 12554 0099 50       		.byte	0x50
 12555 009a AE010000 		.4byte	.LVL58
 12556 009e B4010000 		.4byte	.LVL59
 12557 00a2 0100     		.2byte	0x1
 12558 00a4 50       		.byte	0x50
 12559 00a5 BE010000 		.4byte	.LVL62
 12560 00a9 C2010000 		.4byte	.LVL63
 12561 00ad 0100     		.2byte	0x1
 12562 00af 50       		.byte	0x50
 12563 00b0 D2010000 		.4byte	.LVL65
 12564 00b4 D8010000 		.4byte	.LVL66
 12565 00b8 0100     		.2byte	0x1
 12566 00ba 50       		.byte	0x50
 12567 00bb E2010000 		.4byte	.LVL69
 12568 00bf E6010000 		.4byte	.LVL70
 12569 00c3 0100     		.2byte	0x1
 12570 00c5 50       		.byte	0x50
 12571 00c6 F6010000 		.4byte	.LVL72
 12572 00ca FC010000 		.4byte	.LVL73
 12573 00ce 0100     		.2byte	0x1
 12574 00d0 50       		.byte	0x50
 12575 00d1 06020000 		.4byte	.LVL76
 12576 00d5 0A020000 		.4byte	.LVL77
 12577 00d9 0100     		.2byte	0x1
 12578 00db 50       		.byte	0x50
 12579 00dc 00000000 		.4byte	0
 12580 00e0 00000000 		.4byte	0
 12581              	.LLST2:
 12582 00e4 00000000 		.4byte	.LVL81
 12583 00e8 1C000000 		.4byte	.LVL82
 12584 00ec 0100     		.2byte	0x1
 12585 00ee 50       		.byte	0x50
 12586 00ef 1C000000 		.4byte	.LVL82
 12587 00f3 66000000 		.4byte	.LVL94
 12588 00f7 0100     		.2byte	0x1
 12589 00f9 54       		.byte	0x54
 12590 00fa 66000000 		.4byte	.LVL94
 12591 00fe 6A000000 		.4byte	.LVL95
 12592 0102 0100     		.2byte	0x1
 12593 0104 50       		.byte	0x50
 12594 0105 6A000000 		.4byte	.LVL95
 12595 0109 6C000000 		.4byte	.LVL96
 12596 010d 0400     		.2byte	0x4
 12597 010f F3       		.byte	0xf3
 12598 0110 01       		.uleb128 0x1
 12599 0111 50       		.byte	0x50
 12600 0112 9F       		.byte	0x9f
 12601 0113 6C000000 		.4byte	.LVL96
 12602 0117 6E000000 		.4byte	.LVL97
 12603 011b 0100     		.2byte	0x1
 12604 011d 50       		.byte	0x50
 12605 011e 6E000000 		.4byte	.LVL97
 12606 0122 80000000 		.4byte	.LFE2
ARM GAS  C:\Users\CHRONI~1\AppData\Local\Temp\cc7oUGua.s 			page 272


 12607 0126 0400     		.2byte	0x4
 12608 0128 F3       		.byte	0xf3
 12609 0129 01       		.uleb128 0x1
 12610 012a 50       		.byte	0x50
 12611 012b 9F       		.byte	0x9f
 12612 012c 00000000 		.4byte	0
 12613 0130 00000000 		.4byte	0
 12614              	.LLST3:
 12615 0134 1E000000 		.4byte	.LVL83
 12616 0138 24000000 		.4byte	.LVL84
 12617 013c 0100     		.2byte	0x1
 12618 013e 50       		.byte	0x50
 12619 013f 2A000000 		.4byte	.LVL86
 12620 0143 40000000 		.4byte	.LVL87
 12621 0147 0100     		.2byte	0x1
 12622 0149 50       		.byte	0x50
 12623 014a 42000000 		.4byte	.LVL88
 12624 014e 48000000 		.4byte	.LVL89
 12625 0152 0100     		.2byte	0x1
 12626 0154 50       		.byte	0x50
 12627 0155 4E000000 		.4byte	.LVL91
 12628 0159 51000000 		.4byte	.LVL92-1
 12629 015d 0100     		.2byte	0x1
 12630 015f 50       		.byte	0x50
 12631 0160 00000000 		.4byte	0
 12632 0164 00000000 		.4byte	0
 12633              	.LLST4:
 12634 0168 00000000 		.4byte	.LVL98
 12635 016c 20000000 		.4byte	.LVL99
 12636 0170 0100     		.2byte	0x1
 12637 0172 50       		.byte	0x50
 12638 0173 20000000 		.4byte	.LVL99
 12639 0177 16010000 		.4byte	.LVL129
 12640 017b 0100     		.2byte	0x1
 12641 017d 54       		.byte	0x54
 12642 017e 16010000 		.4byte	.LVL129
 12643 0182 18010000 		.4byte	.LVL130
 12644 0186 0100     		.2byte	0x1
 12645 0188 50       		.byte	0x50
 12646 0189 18010000 		.4byte	.LVL130
 12647 018d 1A010000 		.4byte	.LVL131
 12648 0191 0400     		.2byte	0x4
 12649 0193 F3       		.byte	0xf3
 12650 0194 01       		.uleb128 0x1
 12651 0195 50       		.byte	0x50
 12652 0196 9F       		.byte	0x9f
 12653 0197 1A010000 		.4byte	.LVL131
 12654 019b 1C010000 		.4byte	.LVL132
 12655 019f 0100     		.2byte	0x1
 12656 01a1 50       		.byte	0x50
 12657 01a2 1C010000 		.4byte	.LVL132
 12658 01a6 30010000 		.4byte	.LFE3
 12659 01aa 0400     		.2byte	0x4
 12660 01ac F3       		.byte	0xf3
 12661 01ad 01       		.uleb128 0x1
 12662 01ae 50       		.byte	0x50
 12663 01af 9F       		.byte	0x9f
ARM GAS  C:\Users\CHRONI~1\AppData\Local\Temp\cc7oUGua.s 			page 273


 12664 01b0 00000000 		.4byte	0
 12665 01b4 00000000 		.4byte	0
 12666              	.LLST5:
 12667 01b8 22000000 		.4byte	.LVL100
 12668 01bc 28000000 		.4byte	.LVL101
 12669 01c0 0100     		.2byte	0x1
 12670 01c2 50       		.byte	0x50
 12671 01c3 2E000000 		.4byte	.LVL103
 12672 01c7 3C000000 		.4byte	.LVL104
 12673 01cb 0100     		.2byte	0x1
 12674 01cd 50       		.byte	0x50
 12675 01ce 82000000 		.4byte	.LVL109
 12676 01d2 88000000 		.4byte	.LVL110
 12677 01d6 0100     		.2byte	0x1
 12678 01d8 50       		.byte	0x50
 12679 01d9 8E000000 		.4byte	.LVL112
 12680 01dd 9A000000 		.4byte	.LVL113
 12681 01e1 0100     		.2byte	0x1
 12682 01e3 50       		.byte	0x50
 12683 01e4 AC000000 		.4byte	.LVL114
 12684 01e8 B2000000 		.4byte	.LVL115
 12685 01ec 0100     		.2byte	0x1
 12686 01ee 50       		.byte	0x50
 12687 01ef B6000000 		.4byte	.LVL117
 12688 01f3 CA000000 		.4byte	.LVL118
 12689 01f7 0100     		.2byte	0x1
 12690 01f9 50       		.byte	0x50
 12691 01fa CC000000 		.4byte	.LVL119
 12692 01fe D2000000 		.4byte	.LVL120
 12693 0202 0100     		.2byte	0x1
 12694 0204 50       		.byte	0x50
 12695 0205 D6000000 		.4byte	.LVL122
 12696 0209 E4000000 		.4byte	.LVL123
 12697 020d 0100     		.2byte	0x1
 12698 020f 50       		.byte	0x50
 12699 0210 00000000 		.4byte	0
 12700 0214 00000000 		.4byte	0
 12701              	.LLST6:
 12702 0218 00000000 		.4byte	.LVL133
 12703 021c 28000000 		.4byte	.LVL137
 12704 0220 0100     		.2byte	0x1
 12705 0222 50       		.byte	0x50
 12706 0223 28000000 		.4byte	.LVL137
 12707 0227 C8010000 		.4byte	.LVL185
 12708 022b 0100     		.2byte	0x1
 12709 022d 55       		.byte	0x55
 12710 022e C8010000 		.4byte	.LVL185
 12711 0232 CE010000 		.4byte	.LVL186
 12712 0236 0100     		.2byte	0x1
 12713 0238 50       		.byte	0x50
 12714 0239 CE010000 		.4byte	.LVL186
 12715 023d F8010000 		.4byte	.LFE4
 12716 0241 0400     		.2byte	0x4
 12717 0243 F3       		.byte	0xf3
 12718 0244 01       		.uleb128 0x1
 12719 0245 50       		.byte	0x50
 12720 0246 9F       		.byte	0x9f
ARM GAS  C:\Users\CHRONI~1\AppData\Local\Temp\cc7oUGua.s 			page 274


 12721 0247 00000000 		.4byte	0
 12722 024b 00000000 		.4byte	0
 12723              	.LLST7:
 12724 024f 00000000 		.4byte	.LVL133
 12725 0253 26000000 		.4byte	.LVL136
 12726 0257 0100     		.2byte	0x1
 12727 0259 51       		.byte	0x51
 12728 025a 26000000 		.4byte	.LVL136
 12729 025e C8010000 		.4byte	.LVL185
 12730 0262 0100     		.2byte	0x1
 12731 0264 58       		.byte	0x58
 12732 0265 C8010000 		.4byte	.LVL185
 12733 0269 CE010000 		.4byte	.LVL186
 12734 026d 0100     		.2byte	0x1
 12735 026f 51       		.byte	0x51
 12736 0270 CE010000 		.4byte	.LVL186
 12737 0274 F8010000 		.4byte	.LFE4
 12738 0278 0400     		.2byte	0x4
 12739 027a F3       		.byte	0xf3
 12740 027b 01       		.uleb128 0x1
 12741 027c 51       		.byte	0x51
 12742 027d 9F       		.byte	0x9f
 12743 027e 00000000 		.4byte	0
 12744 0282 00000000 		.4byte	0
 12745              	.LLST8:
 12746 0286 00000000 		.4byte	.LVL133
 12747 028a 24000000 		.4byte	.LVL135
 12748 028e 0100     		.2byte	0x1
 12749 0290 52       		.byte	0x52
 12750 0291 24000000 		.4byte	.LVL135
 12751 0295 C8010000 		.4byte	.LVL185
 12752 0299 0100     		.2byte	0x1
 12753 029b 59       		.byte	0x59
 12754 029c C8010000 		.4byte	.LVL185
 12755 02a0 CE010000 		.4byte	.LVL186
 12756 02a4 0100     		.2byte	0x1
 12757 02a6 52       		.byte	0x52
 12758 02a7 CE010000 		.4byte	.LVL186
 12759 02ab F8010000 		.4byte	.LFE4
 12760 02af 0400     		.2byte	0x4
 12761 02b1 F3       		.byte	0xf3
 12762 02b2 01       		.uleb128 0x1
 12763 02b3 52       		.byte	0x52
 12764 02b4 9F       		.byte	0x9f
 12765 02b5 00000000 		.4byte	0
 12766 02b9 00000000 		.4byte	0
 12767              	.LLST9:
 12768 02bd 00000000 		.4byte	.LVL133
 12769 02c1 20000000 		.4byte	.LVL134
 12770 02c5 0100     		.2byte	0x1
 12771 02c7 53       		.byte	0x53
 12772 02c8 20000000 		.4byte	.LVL134
 12773 02cc C8010000 		.4byte	.LVL185
 12774 02d0 0100     		.2byte	0x1
 12775 02d2 56       		.byte	0x56
 12776 02d3 C8010000 		.4byte	.LVL185
 12777 02d7 CE010000 		.4byte	.LVL186
ARM GAS  C:\Users\CHRONI~1\AppData\Local\Temp\cc7oUGua.s 			page 275


 12778 02db 0100     		.2byte	0x1
 12779 02dd 53       		.byte	0x53
 12780 02de CE010000 		.4byte	.LVL186
 12781 02e2 F8010000 		.4byte	.LFE4
 12782 02e6 0400     		.2byte	0x4
 12783 02e8 F3       		.byte	0xf3
 12784 02e9 01       		.uleb128 0x1
 12785 02ea 53       		.byte	0x53
 12786 02eb 9F       		.byte	0x9f
 12787 02ec 00000000 		.4byte	0
 12788 02f0 00000000 		.4byte	0
 12789              	.LLST10:
 12790 02f4 2A000000 		.4byte	.LVL138
 12791 02f8 30000000 		.4byte	.LVL139
 12792 02fc 0100     		.2byte	0x1
 12793 02fe 50       		.byte	0x50
 12794 02ff 34000000 		.4byte	.LVL141
 12795 0303 3E000000 		.4byte	.LVL143
 12796 0307 0100     		.2byte	0x1
 12797 0309 50       		.byte	0x50
 12798 030a 46000000 		.4byte	.LVL145
 12799 030e 4A000000 		.4byte	.LVL146
 12800 0312 0100     		.2byte	0x1
 12801 0314 50       		.byte	0x50
 12802 0315 58000000 		.4byte	.LVL147
 12803 0319 5E000000 		.4byte	.LVL148
 12804 031d 0100     		.2byte	0x1
 12805 031f 50       		.byte	0x50
 12806 0320 62000000 		.4byte	.LVL150
 12807 0324 6E000000 		.4byte	.LVL151
 12808 0328 0100     		.2byte	0x1
 12809 032a 50       		.byte	0x50
 12810 032b 70000000 		.4byte	.LVL152
 12811 032f 76000000 		.4byte	.LVL153
 12812 0333 0100     		.2byte	0x1
 12813 0335 50       		.byte	0x50
 12814 0336 7A000000 		.4byte	.LVL155
 12815 033a A8000000 		.4byte	.LVL160
 12816 033e 0100     		.2byte	0x1
 12817 0340 50       		.byte	0x50
 12818 0341 AA000000 		.4byte	.LVL161
 12819 0345 B0000000 		.4byte	.LVL162
 12820 0349 0100     		.2byte	0x1
 12821 034b 50       		.byte	0x50
 12822 034c B4000000 		.4byte	.LVL164
 12823 0350 D2000000 		.4byte	.LVL166
 12824 0354 0100     		.2byte	0x1
 12825 0356 50       		.byte	0x50
 12826 0357 D8000000 		.4byte	.LVL168
 12827 035b F2000000 		.4byte	.LVL171
 12828 035f 0100     		.2byte	0x1
 12829 0361 50       		.byte	0x50
 12830 0362 F4000000 		.4byte	.LVL172
 12831 0366 FA000000 		.4byte	.LVL173
 12832 036a 0100     		.2byte	0x1
 12833 036c 50       		.byte	0x50
 12834 036d FE000000 		.4byte	.LVL175
ARM GAS  C:\Users\CHRONI~1\AppData\Local\Temp\cc7oUGua.s 			page 276


 12835 0371 0A010000 		.4byte	.LVL176
 12836 0375 0100     		.2byte	0x1
 12837 0377 50       		.byte	0x50
 12838 0378 0C010000 		.4byte	.LVL177
 12839 037c 12010000 		.4byte	.LVL178
 12840 0380 0100     		.2byte	0x1
 12841 0382 50       		.byte	0x50
 12842 0383 16010000 		.4byte	.LVL180
 12843 0387 3A010000 		.4byte	.LVL182
 12844 038b 0100     		.2byte	0x1
 12845 038d 50       		.byte	0x50
 12846 038e 00000000 		.4byte	0
 12847 0392 00000000 		.4byte	0
 12848              	.LLST11:
 12849 0396 BC000000 		.4byte	.LVL165
 12850 039a C8010000 		.4byte	.LVL185
 12851 039e 0100     		.2byte	0x1
 12852 03a0 5A       		.byte	0x5a
 12853 03a1 00000000 		.4byte	0
 12854 03a5 00000000 		.4byte	0
 12855              	.LLST12:
 12856 03a9 E2000000 		.4byte	.LVL169
 12857 03ad EE000000 		.4byte	.LVL170
 12858 03b1 0100     		.2byte	0x1
 12859 03b3 52       		.byte	0x52
 12860 03b4 00000000 		.4byte	0
 12861 03b8 00000000 		.4byte	0
 12862              	.LLST13:
 12863 03bc 8A000000 		.4byte	.LVL156
 12864 03c0 8C000000 		.4byte	.LVL157
 12865 03c4 0100     		.2byte	0x1
 12866 03c6 53       		.byte	0x53
 12867 03c7 92000000 		.4byte	.LVL158
 12868 03cb 9A000000 		.4byte	.LVL159
 12869 03cf 0100     		.2byte	0x1
 12870 03d1 53       		.byte	0x53
 12871 03d2 00000000 		.4byte	0
 12872 03d6 00000000 		.4byte	0
 12873              	.LLST14:
 12874 03da 36010000 		.4byte	.LVL181
 12875 03de C8010000 		.4byte	.LVL185
 12876 03e2 0100     		.2byte	0x1
 12877 03e4 51       		.byte	0x51
 12878 03e5 00000000 		.4byte	0
 12879 03e9 00000000 		.4byte	0
 12880              	.LLST15:
 12881 03ed 36010000 		.4byte	.LVL181
 12882 03f1 3A010000 		.4byte	.LVL182
 12883 03f5 0200     		.2byte	0x2
 12884 03f7 30       		.byte	0x30
 12885 03f8 9F       		.byte	0x9f
 12886 03f9 3A010000 		.4byte	.LVL182
 12887 03fd BC010000 		.4byte	.LVL183
 12888 0401 0100     		.2byte	0x1
 12889 0403 52       		.byte	0x52
 12890 0404 BE010000 		.4byte	.LVL184
 12891 0408 C8010000 		.4byte	.LVL185
ARM GAS  C:\Users\CHRONI~1\AppData\Local\Temp\cc7oUGua.s 			page 277


 12892 040c 0100     		.2byte	0x1
 12893 040e 52       		.byte	0x52
 12894 040f 00000000 		.4byte	0
 12895 0413 00000000 		.4byte	0
 12896              	.LLST16:
 12897 0417 34000000 		.4byte	.LVL141
 12898 041b 3A000000 		.4byte	.LVL142
 12899 041f 0200     		.2byte	0x2
 12900 0421 30       		.byte	0x30
 12901 0422 9F       		.byte	0x9f
 12902 0423 3A000000 		.4byte	.LVL142
 12903 0427 46000000 		.4byte	.LVL145
 12904 042b 0200     		.2byte	0x2
 12905 042d 34       		.byte	0x34
 12906 042e 9F       		.byte	0x9f
 12907 042f 46000000 		.4byte	.LVL145
 12908 0433 4A000000 		.4byte	.LVL146
 12909 0437 0200     		.2byte	0x2
 12910 0439 30       		.byte	0x30
 12911 043a 9F       		.byte	0x9f
 12912 043b 4A000000 		.4byte	.LVL146
 12913 043f C8010000 		.4byte	.LVL185
 12914 0443 0100     		.2byte	0x1
 12915 0445 5B       		.byte	0x5b
 12916 0446 00000000 		.4byte	0
 12917 044a 00000000 		.4byte	0
 12918              	.LLST17:
 12919 044e 00000000 		.4byte	.LVL187
 12920 0452 22000000 		.4byte	.LVL190
 12921 0456 0100     		.2byte	0x1
 12922 0458 50       		.byte	0x50
 12923 0459 22000000 		.4byte	.LVL190
 12924 045d CC000000 		.4byte	.LVL216
 12925 0461 0100     		.2byte	0x1
 12926 0463 55       		.byte	0x55
 12927 0464 CC000000 		.4byte	.LVL216
 12928 0468 D2000000 		.4byte	.LVL217
 12929 046c 0100     		.2byte	0x1
 12930 046e 50       		.byte	0x50
 12931 046f D2000000 		.4byte	.LVL217
 12932 0473 F0000000 		.4byte	.LFE5
 12933 0477 0400     		.2byte	0x4
 12934 0479 F3       		.byte	0xf3
 12935 047a 01       		.uleb128 0x1
 12936 047b 50       		.byte	0x50
 12937 047c 9F       		.byte	0x9f
 12938 047d 00000000 		.4byte	0
 12939 0481 00000000 		.4byte	0
 12940              	.LLST18:
 12941 0485 00000000 		.4byte	.LVL187
 12942 0489 20000000 		.4byte	.LVL189
 12943 048d 0100     		.2byte	0x1
 12944 048f 51       		.byte	0x51
 12945 0490 20000000 		.4byte	.LVL189
 12946 0494 CC000000 		.4byte	.LVL216
 12947 0498 0100     		.2byte	0x1
 12948 049a 58       		.byte	0x58
ARM GAS  C:\Users\CHRONI~1\AppData\Local\Temp\cc7oUGua.s 			page 278


 12949 049b CC000000 		.4byte	.LVL216
 12950 049f D2000000 		.4byte	.LVL217
 12951 04a3 0100     		.2byte	0x1
 12952 04a5 51       		.byte	0x51
 12953 04a6 D2000000 		.4byte	.LVL217
 12954 04aa F0000000 		.4byte	.LFE5
 12955 04ae 0400     		.2byte	0x4
 12956 04b0 F3       		.byte	0xf3
 12957 04b1 01       		.uleb128 0x1
 12958 04b2 51       		.byte	0x51
 12959 04b3 9F       		.byte	0x9f
 12960 04b4 00000000 		.4byte	0
 12961 04b8 00000000 		.4byte	0
 12962              	.LLST19:
 12963 04bc 00000000 		.4byte	.LVL187
 12964 04c0 1E000000 		.4byte	.LVL188
 12965 04c4 0100     		.2byte	0x1
 12966 04c6 52       		.byte	0x52
 12967 04c7 1E000000 		.4byte	.LVL188
 12968 04cb CC000000 		.4byte	.LVL216
 12969 04cf 0100     		.2byte	0x1
 12970 04d1 56       		.byte	0x56
 12971 04d2 CC000000 		.4byte	.LVL216
 12972 04d6 D2000000 		.4byte	.LVL217
 12973 04da 0100     		.2byte	0x1
 12974 04dc 52       		.byte	0x52
 12975 04dd D2000000 		.4byte	.LVL217
 12976 04e1 F0000000 		.4byte	.LFE5
 12977 04e5 0400     		.2byte	0x4
 12978 04e7 F3       		.byte	0xf3
 12979 04e8 01       		.uleb128 0x1
 12980 04e9 52       		.byte	0x52
 12981 04ea 9F       		.byte	0x9f
 12982 04eb 00000000 		.4byte	0
 12983 04ef 00000000 		.4byte	0
 12984              	.LLST20:
 12985 04f3 24000000 		.4byte	.LVL191
 12986 04f7 2A000000 		.4byte	.LVL192
 12987 04fb 0100     		.2byte	0x1
 12988 04fd 50       		.byte	0x50
 12989 04fe 2E000000 		.4byte	.LVL194
 12990 0502 4E000000 		.4byte	.LVL195
 12991 0506 0100     		.2byte	0x1
 12992 0508 50       		.byte	0x50
 12993 0509 50000000 		.4byte	.LVL196
 12994 050d 56000000 		.4byte	.LVL197
 12995 0511 0100     		.2byte	0x1
 12996 0513 50       		.byte	0x50
 12997 0514 5A000000 		.4byte	.LVL199
 12998 0518 66000000 		.4byte	.LVL200
 12999 051c 0100     		.2byte	0x1
 13000 051e 50       		.byte	0x50
 13001 051f 68000000 		.4byte	.LVL201
 13002 0523 6E000000 		.4byte	.LVL202
 13003 0527 0100     		.2byte	0x1
 13004 0529 50       		.byte	0x50
 13005 052a 72000000 		.4byte	.LVL204
ARM GAS  C:\Users\CHRONI~1\AppData\Local\Temp\cc7oUGua.s 			page 279


 13006 052e 8C000000 		.4byte	.LVL205
 13007 0532 0100     		.2byte	0x1
 13008 0534 50       		.byte	0x50
 13009 0535 8E000000 		.4byte	.LVL206
 13010 0539 94000000 		.4byte	.LVL207
 13011 053d 0100     		.2byte	0x1
 13012 053f 50       		.byte	0x50
 13013 0540 98000000 		.4byte	.LVL209
 13014 0544 A2000000 		.4byte	.LVL210
 13015 0548 0100     		.2byte	0x1
 13016 054a 50       		.byte	0x50
 13017 054b 00000000 		.4byte	0
 13018 054f 00000000 		.4byte	0
 13019              	.LLST21:
 13020 0553 98000000 		.4byte	.LVL209
 13021 0557 A2000000 		.4byte	.LVL210
 13022 055b 0400     		.2byte	0x4
 13023 055d 0A       		.byte	0xa
 13024 055e 8813     		.2byte	0x1388
 13025 0560 9F       		.byte	0x9f
 13026 0561 A2000000 		.4byte	.LVL210
 13027 0565 AA000000 		.4byte	.LVL212
 13028 0569 0100     		.2byte	0x1
 13029 056b 57       		.byte	0x57
 13030 056c AC000000 		.4byte	.LVL213
 13031 0570 CC000000 		.4byte	.LVL216
 13032 0574 0100     		.2byte	0x1
 13033 0576 57       		.byte	0x57
 13034 0577 00000000 		.4byte	0
 13035 057b 00000000 		.4byte	0
 13036              	.LLST22:
 13037 057f 00000000 		.4byte	.LVL218
 13038 0583 24000000 		.4byte	.LVL221
 13039 0587 0100     		.2byte	0x1
 13040 0589 50       		.byte	0x50
 13041 058a 24000000 		.4byte	.LVL221
 13042 058e 42000000 		.4byte	.LVL226
 13043 0592 0100     		.2byte	0x1
 13044 0594 55       		.byte	0x55
 13045 0595 42000000 		.4byte	.LVL226
 13046 0599 4E000000 		.4byte	.LVL229
 13047 059d 0100     		.2byte	0x1
 13048 059f 50       		.byte	0x50
 13049 05a0 4E000000 		.4byte	.LVL229
 13050 05a4 6C000000 		.4byte	.LVL234
 13051 05a8 0100     		.2byte	0x1
 13052 05aa 55       		.byte	0x55
 13053 05ab 6C000000 		.4byte	.LVL234
 13054 05af 72000000 		.4byte	.LVL235
 13055 05b3 0100     		.2byte	0x1
 13056 05b5 50       		.byte	0x50
 13057 05b6 72000000 		.4byte	.LVL235
 13058 05ba 84000000 		.4byte	.LFE6
 13059 05be 0400     		.2byte	0x4
 13060 05c0 F3       		.byte	0xf3
 13061 05c1 01       		.uleb128 0x1
 13062 05c2 50       		.byte	0x50
ARM GAS  C:\Users\CHRONI~1\AppData\Local\Temp\cc7oUGua.s 			page 280


 13063 05c3 9F       		.byte	0x9f
 13064 05c4 00000000 		.4byte	0
 13065 05c8 00000000 		.4byte	0
 13066              	.LLST23:
 13067 05cc 00000000 		.4byte	.LVL218
 13068 05d0 22000000 		.4byte	.LVL220
 13069 05d4 0100     		.2byte	0x1
 13070 05d6 51       		.byte	0x51
 13071 05d7 22000000 		.4byte	.LVL220
 13072 05db 42000000 		.4byte	.LVL226
 13073 05df 0400     		.2byte	0x4
 13074 05e1 F3       		.byte	0xf3
 13075 05e2 01       		.uleb128 0x1
 13076 05e3 51       		.byte	0x51
 13077 05e4 9F       		.byte	0x9f
 13078 05e5 42000000 		.4byte	.LVL226
 13079 05e9 4C000000 		.4byte	.LVL228
 13080 05ed 0100     		.2byte	0x1
 13081 05ef 51       		.byte	0x51
 13082 05f0 4C000000 		.4byte	.LVL228
 13083 05f4 6C000000 		.4byte	.LVL234
 13084 05f8 0400     		.2byte	0x4
 13085 05fa F3       		.byte	0xf3
 13086 05fb 01       		.uleb128 0x1
 13087 05fc 51       		.byte	0x51
 13088 05fd 9F       		.byte	0x9f
 13089 05fe 6C000000 		.4byte	.LVL234
 13090 0602 72000000 		.4byte	.LVL235
 13091 0606 0100     		.2byte	0x1
 13092 0608 51       		.byte	0x51
 13093 0609 72000000 		.4byte	.LVL235
 13094 060d 84000000 		.4byte	.LFE6
 13095 0611 0400     		.2byte	0x4
 13096 0613 F3       		.byte	0xf3
 13097 0614 01       		.uleb128 0x1
 13098 0615 51       		.byte	0x51
 13099 0616 9F       		.byte	0x9f
 13100 0617 00000000 		.4byte	0
 13101 061b 00000000 		.4byte	0
 13102              	.LLST24:
 13103 061f 00000000 		.4byte	.LVL218
 13104 0623 20000000 		.4byte	.LVL219
 13105 0627 0100     		.2byte	0x1
 13106 0629 52       		.byte	0x52
 13107 062a 20000000 		.4byte	.LVL219
 13108 062e 42000000 		.4byte	.LVL226
 13109 0632 0100     		.2byte	0x1
 13110 0634 58       		.byte	0x58
 13111 0635 42000000 		.4byte	.LVL226
 13112 0639 4A000000 		.4byte	.LVL227
 13113 063d 0100     		.2byte	0x1
 13114 063f 52       		.byte	0x52
 13115 0640 4A000000 		.4byte	.LVL227
 13116 0644 6C000000 		.4byte	.LVL234
 13117 0648 0100     		.2byte	0x1
 13118 064a 58       		.byte	0x58
 13119 064b 6C000000 		.4byte	.LVL234
ARM GAS  C:\Users\CHRONI~1\AppData\Local\Temp\cc7oUGua.s 			page 281


 13120 064f 72000000 		.4byte	.LVL235
 13121 0653 0100     		.2byte	0x1
 13122 0655 52       		.byte	0x52
 13123 0656 72000000 		.4byte	.LVL235
 13124 065a 84000000 		.4byte	.LFE6
 13125 065e 0400     		.2byte	0x4
 13126 0660 F3       		.byte	0xf3
 13127 0661 01       		.uleb128 0x1
 13128 0662 52       		.byte	0x52
 13129 0663 9F       		.byte	0x9f
 13130 0664 00000000 		.4byte	0
 13131 0668 00000000 		.4byte	0
 13132              	.LLST25:
 13133 066c 26000000 		.4byte	.LVL222
 13134 0670 2C000000 		.4byte	.LVL223
 13135 0674 0100     		.2byte	0x1
 13136 0676 50       		.byte	0x50
 13137 0677 30000000 		.4byte	.LVL225
 13138 067b 42000000 		.4byte	.LVL226
 13139 067f 0100     		.2byte	0x1
 13140 0681 50       		.byte	0x50
 13141 0682 50000000 		.4byte	.LVL230
 13142 0686 56000000 		.4byte	.LVL231
 13143 068a 0100     		.2byte	0x1
 13144 068c 50       		.byte	0x50
 13145 068d 5A000000 		.4byte	.LVL233
 13146 0691 6C000000 		.4byte	.LVL234
 13147 0695 0100     		.2byte	0x1
 13148 0697 50       		.byte	0x50
 13149 0698 00000000 		.4byte	0
 13150 069c 00000000 		.4byte	0
 13151              	.LLST26:
 13152 06a0 00000000 		.4byte	.LVL236
 13153 06a4 26000000 		.4byte	.LVL239
 13154 06a8 0100     		.2byte	0x1
 13155 06aa 50       		.byte	0x50
 13156 06ab 26000000 		.4byte	.LVL239
 13157 06af 60000000 		.4byte	.LVL248
 13158 06b3 0100     		.2byte	0x1
 13159 06b5 55       		.byte	0x55
 13160 06b6 60000000 		.4byte	.LVL248
 13161 06ba 6C000000 		.4byte	.LVL251
 13162 06be 0100     		.2byte	0x1
 13163 06c0 50       		.byte	0x50
 13164 06c1 6C000000 		.4byte	.LVL251
 13165 06c5 A6000000 		.4byte	.LVL260
 13166 06c9 0100     		.2byte	0x1
 13167 06cb 55       		.byte	0x55
 13168 06cc A6000000 		.4byte	.LVL260
 13169 06d0 AE000000 		.4byte	.LVL261
 13170 06d4 0100     		.2byte	0x1
 13171 06d6 50       		.byte	0x50
 13172 06d7 AE000000 		.4byte	.LVL261
 13173 06db B4000000 		.4byte	.LVL262
 13174 06df 0100     		.2byte	0x1
 13175 06e1 55       		.byte	0x55
 13176 06e2 B4000000 		.4byte	.LVL262
ARM GAS  C:\Users\CHRONI~1\AppData\Local\Temp\cc7oUGua.s 			page 282


 13177 06e6 CC000000 		.4byte	.LFE7
 13178 06ea 0400     		.2byte	0x4
 13179 06ec F3       		.byte	0xf3
 13180 06ed 01       		.uleb128 0x1
 13181 06ee 50       		.byte	0x50
 13182 06ef 9F       		.byte	0x9f
 13183 06f0 00000000 		.4byte	0
 13184 06f4 00000000 		.4byte	0
 13185              	.LLST27:
 13186 06f8 00000000 		.4byte	.LVL236
 13187 06fc 24000000 		.4byte	.LVL238
 13188 0700 0100     		.2byte	0x1
 13189 0702 51       		.byte	0x51
 13190 0703 24000000 		.4byte	.LVL238
 13191 0707 60000000 		.4byte	.LVL248
 13192 070b 0400     		.2byte	0x4
 13193 070d F3       		.byte	0xf3
 13194 070e 01       		.uleb128 0x1
 13195 070f 51       		.byte	0x51
 13196 0710 9F       		.byte	0x9f
 13197 0711 60000000 		.4byte	.LVL248
 13198 0715 6A000000 		.4byte	.LVL250
 13199 0719 0100     		.2byte	0x1
 13200 071b 51       		.byte	0x51
 13201 071c 6A000000 		.4byte	.LVL250
 13202 0720 A6000000 		.4byte	.LVL260
 13203 0724 0400     		.2byte	0x4
 13204 0726 F3       		.byte	0xf3
 13205 0727 01       		.uleb128 0x1
 13206 0728 51       		.byte	0x51
 13207 0729 9F       		.byte	0x9f
 13208 072a A6000000 		.4byte	.LVL260
 13209 072e AE000000 		.4byte	.LVL261
 13210 0732 0100     		.2byte	0x1
 13211 0734 51       		.byte	0x51
 13212 0735 AE000000 		.4byte	.LVL261
 13213 0739 CC000000 		.4byte	.LFE7
 13214 073d 0400     		.2byte	0x4
 13215 073f F3       		.byte	0xf3
 13216 0740 01       		.uleb128 0x1
 13217 0741 51       		.byte	0x51
 13218 0742 9F       		.byte	0x9f
 13219 0743 00000000 		.4byte	0
 13220 0747 00000000 		.4byte	0
 13221              	.LLST28:
 13222 074b 00000000 		.4byte	.LVL236
 13223 074f 22000000 		.4byte	.LVL237
 13224 0753 0100     		.2byte	0x1
 13225 0755 52       		.byte	0x52
 13226 0756 22000000 		.4byte	.LVL237
 13227 075a 60000000 		.4byte	.LVL248
 13228 075e 0400     		.2byte	0x4
 13229 0760 F3       		.byte	0xf3
 13230 0761 01       		.uleb128 0x1
 13231 0762 52       		.byte	0x52
 13232 0763 9F       		.byte	0x9f
 13233 0764 60000000 		.4byte	.LVL248
ARM GAS  C:\Users\CHRONI~1\AppData\Local\Temp\cc7oUGua.s 			page 283


 13234 0768 68000000 		.4byte	.LVL249
 13235 076c 0100     		.2byte	0x1
 13236 076e 52       		.byte	0x52
 13237 076f 68000000 		.4byte	.LVL249
 13238 0773 A6000000 		.4byte	.LVL260
 13239 0777 0400     		.2byte	0x4
 13240 0779 F3       		.byte	0xf3
 13241 077a 01       		.uleb128 0x1
 13242 077b 52       		.byte	0x52
 13243 077c 9F       		.byte	0x9f
 13244 077d A6000000 		.4byte	.LVL260
 13245 0781 AE000000 		.4byte	.LVL261
 13246 0785 0100     		.2byte	0x1
 13247 0787 52       		.byte	0x52
 13248 0788 AE000000 		.4byte	.LVL261
 13249 078c CC000000 		.4byte	.LFE7
 13250 0790 0400     		.2byte	0x4
 13251 0792 F3       		.byte	0xf3
 13252 0793 01       		.uleb128 0x1
 13253 0794 52       		.byte	0x52
 13254 0795 9F       		.byte	0x9f
 13255 0796 00000000 		.4byte	0
 13256 079a 00000000 		.4byte	0
 13257              	.LLST29:
 13258 079e 28000000 		.4byte	.LVL240
 13259 07a2 2E000000 		.4byte	.LVL241
 13260 07a6 0100     		.2byte	0x1
 13261 07a8 50       		.byte	0x50
 13262 07a9 32000000 		.4byte	.LVL243
 13263 07ad 38000000 		.4byte	.LVL244
 13264 07b1 0100     		.2byte	0x1
 13265 07b3 50       		.byte	0x50
 13266 07b4 56000000 		.4byte	.LVL245
 13267 07b8 5C000000 		.4byte	.LVL246
 13268 07bc 0100     		.2byte	0x1
 13269 07be 50       		.byte	0x50
 13270 07bf 6E000000 		.4byte	.LVL252
 13271 07c3 74000000 		.4byte	.LVL253
 13272 07c7 0100     		.2byte	0x1
 13273 07c9 50       		.byte	0x50
 13274 07ca 78000000 		.4byte	.LVL255
 13275 07ce 9A000000 		.4byte	.LVL256
 13276 07d2 0100     		.2byte	0x1
 13277 07d4 50       		.byte	0x50
 13278 07d5 9C000000 		.4byte	.LVL257
 13279 07d9 A2000000 		.4byte	.LVL258
 13280 07dd 0100     		.2byte	0x1
 13281 07df 50       		.byte	0x50
 13282 07e0 AE000000 		.4byte	.LVL261
 13283 07e4 B4000000 		.4byte	.LVL262
 13284 07e8 0100     		.2byte	0x1
 13285 07ea 50       		.byte	0x50
 13286 07eb 00000000 		.4byte	0
 13287 07ef 00000000 		.4byte	0
 13288              	.LLST30:
 13289 07f3 00000000 		.4byte	.LVL263
 13290 07f7 24000000 		.4byte	.LVL266
ARM GAS  C:\Users\CHRONI~1\AppData\Local\Temp\cc7oUGua.s 			page 284


 13291 07fb 0100     		.2byte	0x1
 13292 07fd 50       		.byte	0x50
 13293 07fe 24000000 		.4byte	.LVL266
 13294 0802 42000000 		.4byte	.LVL271
 13295 0806 0100     		.2byte	0x1
 13296 0808 55       		.byte	0x55
 13297 0809 42000000 		.4byte	.LVL271
 13298 080d 4E000000 		.4byte	.LVL274
 13299 0811 0100     		.2byte	0x1
 13300 0813 50       		.byte	0x50
 13301 0814 4E000000 		.4byte	.LVL274
 13302 0818 6C000000 		.4byte	.LVL279
 13303 081c 0100     		.2byte	0x1
 13304 081e 55       		.byte	0x55
 13305 081f 6C000000 		.4byte	.LVL279
 13306 0823 72000000 		.4byte	.LVL280
 13307 0827 0100     		.2byte	0x1
 13308 0829 50       		.byte	0x50
 13309 082a 72000000 		.4byte	.LVL280
 13310 082e 84000000 		.4byte	.LFE8
 13311 0832 0400     		.2byte	0x4
 13312 0834 F3       		.byte	0xf3
 13313 0835 01       		.uleb128 0x1
 13314 0836 50       		.byte	0x50
 13315 0837 9F       		.byte	0x9f
 13316 0838 00000000 		.4byte	0
 13317 083c 00000000 		.4byte	0
 13318              	.LLST31:
 13319 0840 00000000 		.4byte	.LVL263
 13320 0844 22000000 		.4byte	.LVL265
 13321 0848 0100     		.2byte	0x1
 13322 084a 51       		.byte	0x51
 13323 084b 22000000 		.4byte	.LVL265
 13324 084f 42000000 		.4byte	.LVL271
 13325 0853 0400     		.2byte	0x4
 13326 0855 F3       		.byte	0xf3
 13327 0856 01       		.uleb128 0x1
 13328 0857 51       		.byte	0x51
 13329 0858 9F       		.byte	0x9f
 13330 0859 42000000 		.4byte	.LVL271
 13331 085d 4C000000 		.4byte	.LVL273
 13332 0861 0100     		.2byte	0x1
 13333 0863 51       		.byte	0x51
 13334 0864 4C000000 		.4byte	.LVL273
 13335 0868 6C000000 		.4byte	.LVL279
 13336 086c 0400     		.2byte	0x4
 13337 086e F3       		.byte	0xf3
 13338 086f 01       		.uleb128 0x1
 13339 0870 51       		.byte	0x51
 13340 0871 9F       		.byte	0x9f
 13341 0872 6C000000 		.4byte	.LVL279
 13342 0876 72000000 		.4byte	.LVL280
 13343 087a 0100     		.2byte	0x1
 13344 087c 51       		.byte	0x51
 13345 087d 72000000 		.4byte	.LVL280
 13346 0881 84000000 		.4byte	.LFE8
 13347 0885 0400     		.2byte	0x4
ARM GAS  C:\Users\CHRONI~1\AppData\Local\Temp\cc7oUGua.s 			page 285


 13348 0887 F3       		.byte	0xf3
 13349 0888 01       		.uleb128 0x1
 13350 0889 51       		.byte	0x51
 13351 088a 9F       		.byte	0x9f
 13352 088b 00000000 		.4byte	0
 13353 088f 00000000 		.4byte	0
 13354              	.LLST32:
 13355 0893 00000000 		.4byte	.LVL263
 13356 0897 20000000 		.4byte	.LVL264
 13357 089b 0100     		.2byte	0x1
 13358 089d 52       		.byte	0x52
 13359 089e 20000000 		.4byte	.LVL264
 13360 08a2 42000000 		.4byte	.LVL271
 13361 08a6 0100     		.2byte	0x1
 13362 08a8 58       		.byte	0x58
 13363 08a9 42000000 		.4byte	.LVL271
 13364 08ad 4A000000 		.4byte	.LVL272
 13365 08b1 0100     		.2byte	0x1
 13366 08b3 52       		.byte	0x52
 13367 08b4 4A000000 		.4byte	.LVL272
 13368 08b8 6C000000 		.4byte	.LVL279
 13369 08bc 0100     		.2byte	0x1
 13370 08be 58       		.byte	0x58
 13371 08bf 6C000000 		.4byte	.LVL279
 13372 08c3 72000000 		.4byte	.LVL280
 13373 08c7 0100     		.2byte	0x1
 13374 08c9 52       		.byte	0x52
 13375 08ca 72000000 		.4byte	.LVL280
 13376 08ce 84000000 		.4byte	.LFE8
 13377 08d2 0400     		.2byte	0x4
 13378 08d4 F3       		.byte	0xf3
 13379 08d5 01       		.uleb128 0x1
 13380 08d6 52       		.byte	0x52
 13381 08d7 9F       		.byte	0x9f
 13382 08d8 00000000 		.4byte	0
 13383 08dc 00000000 		.4byte	0
 13384              	.LLST33:
 13385 08e0 26000000 		.4byte	.LVL267
 13386 08e4 2C000000 		.4byte	.LVL268
 13387 08e8 0100     		.2byte	0x1
 13388 08ea 50       		.byte	0x50
 13389 08eb 30000000 		.4byte	.LVL270
 13390 08ef 42000000 		.4byte	.LVL271
 13391 08f3 0100     		.2byte	0x1
 13392 08f5 50       		.byte	0x50
 13393 08f6 50000000 		.4byte	.LVL275
 13394 08fa 56000000 		.4byte	.LVL276
 13395 08fe 0100     		.2byte	0x1
 13396 0900 50       		.byte	0x50
 13397 0901 5A000000 		.4byte	.LVL278
 13398 0905 6C000000 		.4byte	.LVL279
 13399 0909 0100     		.2byte	0x1
 13400 090b 50       		.byte	0x50
 13401 090c 00000000 		.4byte	0
 13402 0910 00000000 		.4byte	0
 13403              	.LLST34:
 13404 0914 00000000 		.4byte	.LVL281
ARM GAS  C:\Users\CHRONI~1\AppData\Local\Temp\cc7oUGua.s 			page 286


 13405 0918 16000000 		.4byte	.LVL282
 13406 091c 0100     		.2byte	0x1
 13407 091e 50       		.byte	0x50
 13408 091f 16000000 		.4byte	.LVL282
 13409 0923 1C000000 		.4byte	.LVL284
 13410 0927 0100     		.2byte	0x1
 13411 0929 55       		.byte	0x55
 13412 092a 1C000000 		.4byte	.LVL284
 13413 092e 2E000000 		.4byte	.LVL286
 13414 0932 0100     		.2byte	0x1
 13415 0934 50       		.byte	0x50
 13416 0935 2E000000 		.4byte	.LVL286
 13417 0939 3A000000 		.4byte	.LVL290
 13418 093d 0100     		.2byte	0x1
 13419 093f 55       		.byte	0x55
 13420 0940 3A000000 		.4byte	.LVL290
 13421 0944 42000000 		.4byte	.LVL291
 13422 0948 0100     		.2byte	0x1
 13423 094a 50       		.byte	0x50
 13424 094b 42000000 		.4byte	.LVL291
 13425 094f 44000000 		.4byte	.LVL292
 13426 0953 0100     		.2byte	0x1
 13427 0955 55       		.byte	0x55
 13428 0956 44000000 		.4byte	.LVL292
 13429 095a 54000000 		.4byte	.LFE9
 13430 095e 0400     		.2byte	0x4
 13431 0960 F3       		.byte	0xf3
 13432 0961 01       		.uleb128 0x1
 13433 0962 50       		.byte	0x50
 13434 0963 9F       		.byte	0x9f
 13435 0964 00000000 		.4byte	0
 13436 0968 00000000 		.4byte	0
 13437              	.LLST35:
 13438 096c 00000000 		.4byte	.LVL281
 13439 0970 17000000 		.4byte	.LVL283-1
 13440 0974 0100     		.2byte	0x1
 13441 0976 51       		.byte	0x51
 13442 0977 17000000 		.4byte	.LVL283-1
 13443 097b 1C000000 		.4byte	.LVL284
 13444 097f 0400     		.2byte	0x4
 13445 0981 F3       		.byte	0xf3
 13446 0982 01       		.uleb128 0x1
 13447 0983 51       		.byte	0x51
 13448 0984 9F       		.byte	0x9f
 13449 0985 1C000000 		.4byte	.LVL284
 13450 0989 20000000 		.4byte	.LVL285
 13451 098d 0100     		.2byte	0x1
 13452 098f 51       		.byte	0x51
 13453 0990 20000000 		.4byte	.LVL285
 13454 0994 3A000000 		.4byte	.LVL290
 13455 0998 0400     		.2byte	0x4
 13456 099a F3       		.byte	0xf3
 13457 099b 01       		.uleb128 0x1
 13458 099c 51       		.byte	0x51
 13459 099d 9F       		.byte	0x9f
 13460 099e 3A000000 		.4byte	.LVL290
 13461 09a2 42000000 		.4byte	.LVL291
ARM GAS  C:\Users\CHRONI~1\AppData\Local\Temp\cc7oUGua.s 			page 287


 13462 09a6 0100     		.2byte	0x1
 13463 09a8 51       		.byte	0x51
 13464 09a9 42000000 		.4byte	.LVL291
 13465 09ad 54000000 		.4byte	.LFE9
 13466 09b1 0400     		.2byte	0x4
 13467 09b3 F3       		.byte	0xf3
 13468 09b4 01       		.uleb128 0x1
 13469 09b5 51       		.byte	0x51
 13470 09b6 9F       		.byte	0x9f
 13471 09b7 00000000 		.4byte	0
 13472 09bb 00000000 		.4byte	0
 13473              	.LLST36:
 13474 09bf 30000000 		.4byte	.LVL287
 13475 09c3 36000000 		.4byte	.LVL288
 13476 09c7 0100     		.2byte	0x1
 13477 09c9 50       		.byte	0x50
 13478 09ca 42000000 		.4byte	.LVL291
 13479 09ce 44000000 		.4byte	.LVL292
 13480 09d2 0100     		.2byte	0x1
 13481 09d4 50       		.byte	0x50
 13482 09d5 00000000 		.4byte	0
 13483 09d9 00000000 		.4byte	0
 13484              	.LLST37:
 13485 09dd 00000000 		.4byte	.LVL293
 13486 09e1 1C000000 		.4byte	.LVL295
 13487 09e5 0100     		.2byte	0x1
 13488 09e7 50       		.byte	0x50
 13489 09e8 1C000000 		.4byte	.LVL295
 13490 09ec 36000000 		.4byte	.LVL300
 13491 09f0 0100     		.2byte	0x1
 13492 09f2 55       		.byte	0x55
 13493 09f3 36000000 		.4byte	.LVL300
 13494 09f7 3C000000 		.4byte	.LVL301
 13495 09fb 0100     		.2byte	0x1
 13496 09fd 50       		.byte	0x50
 13497 09fe 3C000000 		.4byte	.LVL301
 13498 0a02 48000000 		.4byte	.LFE10
 13499 0a06 0400     		.2byte	0x4
 13500 0a08 F3       		.byte	0xf3
 13501 0a09 01       		.uleb128 0x1
 13502 0a0a 50       		.byte	0x50
 13503 0a0b 9F       		.byte	0x9f
 13504 0a0c 00000000 		.4byte	0
 13505 0a10 00000000 		.4byte	0
 13506              	.LLST38:
 13507 0a14 00000000 		.4byte	.LVL293
 13508 0a18 1A000000 		.4byte	.LVL294
 13509 0a1c 0100     		.2byte	0x1
 13510 0a1e 51       		.byte	0x51
 13511 0a1f 1A000000 		.4byte	.LVL294
 13512 0a23 36000000 		.4byte	.LVL300
 13513 0a27 0100     		.2byte	0x1
 13514 0a29 56       		.byte	0x56
 13515 0a2a 36000000 		.4byte	.LVL300
 13516 0a2e 3C000000 		.4byte	.LVL301
 13517 0a32 0100     		.2byte	0x1
 13518 0a34 51       		.byte	0x51
ARM GAS  C:\Users\CHRONI~1\AppData\Local\Temp\cc7oUGua.s 			page 288


 13519 0a35 3C000000 		.4byte	.LVL301
 13520 0a39 48000000 		.4byte	.LFE10
 13521 0a3d 0400     		.2byte	0x4
 13522 0a3f F3       		.byte	0xf3
 13523 0a40 01       		.uleb128 0x1
 13524 0a41 51       		.byte	0x51
 13525 0a42 9F       		.byte	0x9f
 13526 0a43 00000000 		.4byte	0
 13527 0a47 00000000 		.4byte	0
 13528              	.LLST39:
 13529 0a4b 1E000000 		.4byte	.LVL296
 13530 0a4f 24000000 		.4byte	.LVL297
 13531 0a53 0100     		.2byte	0x1
 13532 0a55 50       		.byte	0x50
 13533 0a56 28000000 		.4byte	.LVL299
 13534 0a5a 36000000 		.4byte	.LVL300
 13535 0a5e 0100     		.2byte	0x1
 13536 0a60 50       		.byte	0x50
 13537 0a61 00000000 		.4byte	0
 13538 0a65 00000000 		.4byte	0
 13539              	.LLST40:
 13540 0a69 00000000 		.4byte	.LVL302
 13541 0a6d 16000000 		.4byte	.LVL303
 13542 0a71 0100     		.2byte	0x1
 13543 0a73 50       		.byte	0x50
 13544 0a74 16000000 		.4byte	.LVL303
 13545 0a78 1C000000 		.4byte	.LVL305
 13546 0a7c 0100     		.2byte	0x1
 13547 0a7e 55       		.byte	0x55
 13548 0a7f 1C000000 		.4byte	.LVL305
 13549 0a83 2E000000 		.4byte	.LVL307
 13550 0a87 0100     		.2byte	0x1
 13551 0a89 50       		.byte	0x50
 13552 0a8a 2E000000 		.4byte	.LVL307
 13553 0a8e 3A000000 		.4byte	.LVL311
 13554 0a92 0100     		.2byte	0x1
 13555 0a94 55       		.byte	0x55
 13556 0a95 3A000000 		.4byte	.LVL311
 13557 0a99 42000000 		.4byte	.LVL312
 13558 0a9d 0100     		.2byte	0x1
 13559 0a9f 50       		.byte	0x50
 13560 0aa0 42000000 		.4byte	.LVL312
 13561 0aa4 44000000 		.4byte	.LVL313
 13562 0aa8 0100     		.2byte	0x1
 13563 0aaa 55       		.byte	0x55
 13564 0aab 44000000 		.4byte	.LVL313
 13565 0aaf 54000000 		.4byte	.LFE11
 13566 0ab3 0400     		.2byte	0x4
 13567 0ab5 F3       		.byte	0xf3
 13568 0ab6 01       		.uleb128 0x1
 13569 0ab7 50       		.byte	0x50
 13570 0ab8 9F       		.byte	0x9f
 13571 0ab9 00000000 		.4byte	0
 13572 0abd 00000000 		.4byte	0
 13573              	.LLST41:
 13574 0ac1 00000000 		.4byte	.LVL302
 13575 0ac5 17000000 		.4byte	.LVL304-1
ARM GAS  C:\Users\CHRONI~1\AppData\Local\Temp\cc7oUGua.s 			page 289


 13576 0ac9 0100     		.2byte	0x1
 13577 0acb 51       		.byte	0x51
 13578 0acc 17000000 		.4byte	.LVL304-1
 13579 0ad0 1C000000 		.4byte	.LVL305
 13580 0ad4 0400     		.2byte	0x4
 13581 0ad6 F3       		.byte	0xf3
 13582 0ad7 01       		.uleb128 0x1
 13583 0ad8 51       		.byte	0x51
 13584 0ad9 9F       		.byte	0x9f
 13585 0ada 1C000000 		.4byte	.LVL305
 13586 0ade 20000000 		.4byte	.LVL306
 13587 0ae2 0100     		.2byte	0x1
 13588 0ae4 51       		.byte	0x51
 13589 0ae5 20000000 		.4byte	.LVL306
 13590 0ae9 3A000000 		.4byte	.LVL311
 13591 0aed 0400     		.2byte	0x4
 13592 0aef F3       		.byte	0xf3
 13593 0af0 01       		.uleb128 0x1
 13594 0af1 51       		.byte	0x51
 13595 0af2 9F       		.byte	0x9f
 13596 0af3 3A000000 		.4byte	.LVL311
 13597 0af7 42000000 		.4byte	.LVL312
 13598 0afb 0100     		.2byte	0x1
 13599 0afd 51       		.byte	0x51
 13600 0afe 42000000 		.4byte	.LVL312
 13601 0b02 54000000 		.4byte	.LFE11
 13602 0b06 0400     		.2byte	0x4
 13603 0b08 F3       		.byte	0xf3
 13604 0b09 01       		.uleb128 0x1
 13605 0b0a 51       		.byte	0x51
 13606 0b0b 9F       		.byte	0x9f
 13607 0b0c 00000000 		.4byte	0
 13608 0b10 00000000 		.4byte	0
 13609              	.LLST42:
 13610 0b14 30000000 		.4byte	.LVL308
 13611 0b18 36000000 		.4byte	.LVL309
 13612 0b1c 0100     		.2byte	0x1
 13613 0b1e 50       		.byte	0x50
 13614 0b1f 42000000 		.4byte	.LVL312
 13615 0b23 44000000 		.4byte	.LVL313
 13616 0b27 0100     		.2byte	0x1
 13617 0b29 50       		.byte	0x50
 13618 0b2a 00000000 		.4byte	0
 13619 0b2e 00000000 		.4byte	0
 13620              	.LLST43:
 13621 0b32 00000000 		.4byte	.LVL314
 13622 0b36 1C000000 		.4byte	.LVL316
 13623 0b3a 0100     		.2byte	0x1
 13624 0b3c 50       		.byte	0x50
 13625 0b3d 1C000000 		.4byte	.LVL316
 13626 0b41 36000000 		.4byte	.LVL321
 13627 0b45 0100     		.2byte	0x1
 13628 0b47 55       		.byte	0x55
 13629 0b48 36000000 		.4byte	.LVL321
 13630 0b4c 3C000000 		.4byte	.LVL322
 13631 0b50 0100     		.2byte	0x1
 13632 0b52 50       		.byte	0x50
ARM GAS  C:\Users\CHRONI~1\AppData\Local\Temp\cc7oUGua.s 			page 290


 13633 0b53 3C000000 		.4byte	.LVL322
 13634 0b57 48000000 		.4byte	.LFE12
 13635 0b5b 0400     		.2byte	0x4
 13636 0b5d F3       		.byte	0xf3
 13637 0b5e 01       		.uleb128 0x1
 13638 0b5f 50       		.byte	0x50
 13639 0b60 9F       		.byte	0x9f
 13640 0b61 00000000 		.4byte	0
 13641 0b65 00000000 		.4byte	0
 13642              	.LLST44:
 13643 0b69 00000000 		.4byte	.LVL314
 13644 0b6d 1A000000 		.4byte	.LVL315
 13645 0b71 0100     		.2byte	0x1
 13646 0b73 51       		.byte	0x51
 13647 0b74 1A000000 		.4byte	.LVL315
 13648 0b78 36000000 		.4byte	.LVL321
 13649 0b7c 0100     		.2byte	0x1
 13650 0b7e 56       		.byte	0x56
 13651 0b7f 36000000 		.4byte	.LVL321
 13652 0b83 3C000000 		.4byte	.LVL322
 13653 0b87 0100     		.2byte	0x1
 13654 0b89 51       		.byte	0x51
 13655 0b8a 3C000000 		.4byte	.LVL322
 13656 0b8e 48000000 		.4byte	.LFE12
 13657 0b92 0400     		.2byte	0x4
 13658 0b94 F3       		.byte	0xf3
 13659 0b95 01       		.uleb128 0x1
 13660 0b96 51       		.byte	0x51
 13661 0b97 9F       		.byte	0x9f
 13662 0b98 00000000 		.4byte	0
 13663 0b9c 00000000 		.4byte	0
 13664              	.LLST45:
 13665 0ba0 1E000000 		.4byte	.LVL317
 13666 0ba4 24000000 		.4byte	.LVL318
 13667 0ba8 0100     		.2byte	0x1
 13668 0baa 50       		.byte	0x50
 13669 0bab 28000000 		.4byte	.LVL320
 13670 0baf 36000000 		.4byte	.LVL321
 13671 0bb3 0100     		.2byte	0x1
 13672 0bb5 50       		.byte	0x50
 13673 0bb6 00000000 		.4byte	0
 13674 0bba 00000000 		.4byte	0
 13675              	.LLST46:
 13676 0bbe 00000000 		.4byte	.LVL323
 13677 0bc2 16000000 		.4byte	.LVL324
 13678 0bc6 0100     		.2byte	0x1
 13679 0bc8 50       		.byte	0x50
 13680 0bc9 16000000 		.4byte	.LVL324
 13681 0bcd 1C000000 		.4byte	.LVL326
 13682 0bd1 0100     		.2byte	0x1
 13683 0bd3 55       		.byte	0x55
 13684 0bd4 1C000000 		.4byte	.LVL326
 13685 0bd8 2E000000 		.4byte	.LVL328
 13686 0bdc 0100     		.2byte	0x1
 13687 0bde 50       		.byte	0x50
 13688 0bdf 2E000000 		.4byte	.LVL328
 13689 0be3 3A000000 		.4byte	.LVL332
ARM GAS  C:\Users\CHRONI~1\AppData\Local\Temp\cc7oUGua.s 			page 291


 13690 0be7 0100     		.2byte	0x1
 13691 0be9 55       		.byte	0x55
 13692 0bea 3A000000 		.4byte	.LVL332
 13693 0bee 42000000 		.4byte	.LVL333
 13694 0bf2 0100     		.2byte	0x1
 13695 0bf4 50       		.byte	0x50
 13696 0bf5 42000000 		.4byte	.LVL333
 13697 0bf9 44000000 		.4byte	.LVL334
 13698 0bfd 0100     		.2byte	0x1
 13699 0bff 55       		.byte	0x55
 13700 0c00 44000000 		.4byte	.LVL334
 13701 0c04 54000000 		.4byte	.LFE13
 13702 0c08 0400     		.2byte	0x4
 13703 0c0a F3       		.byte	0xf3
 13704 0c0b 01       		.uleb128 0x1
 13705 0c0c 50       		.byte	0x50
 13706 0c0d 9F       		.byte	0x9f
 13707 0c0e 00000000 		.4byte	0
 13708 0c12 00000000 		.4byte	0
 13709              	.LLST47:
 13710 0c16 00000000 		.4byte	.LVL323
 13711 0c1a 17000000 		.4byte	.LVL325-1
 13712 0c1e 0100     		.2byte	0x1
 13713 0c20 51       		.byte	0x51
 13714 0c21 17000000 		.4byte	.LVL325-1
 13715 0c25 1C000000 		.4byte	.LVL326
 13716 0c29 0400     		.2byte	0x4
 13717 0c2b F3       		.byte	0xf3
 13718 0c2c 01       		.uleb128 0x1
 13719 0c2d 51       		.byte	0x51
 13720 0c2e 9F       		.byte	0x9f
 13721 0c2f 1C000000 		.4byte	.LVL326
 13722 0c33 20000000 		.4byte	.LVL327
 13723 0c37 0100     		.2byte	0x1
 13724 0c39 51       		.byte	0x51
 13725 0c3a 20000000 		.4byte	.LVL327
 13726 0c3e 3A000000 		.4byte	.LVL332
 13727 0c42 0400     		.2byte	0x4
 13728 0c44 F3       		.byte	0xf3
 13729 0c45 01       		.uleb128 0x1
 13730 0c46 51       		.byte	0x51
 13731 0c47 9F       		.byte	0x9f
 13732 0c48 3A000000 		.4byte	.LVL332
 13733 0c4c 42000000 		.4byte	.LVL333
 13734 0c50 0100     		.2byte	0x1
 13735 0c52 51       		.byte	0x51
 13736 0c53 42000000 		.4byte	.LVL333
 13737 0c57 54000000 		.4byte	.LFE13
 13738 0c5b 0400     		.2byte	0x4
 13739 0c5d F3       		.byte	0xf3
 13740 0c5e 01       		.uleb128 0x1
 13741 0c5f 51       		.byte	0x51
 13742 0c60 9F       		.byte	0x9f
 13743 0c61 00000000 		.4byte	0
 13744 0c65 00000000 		.4byte	0
 13745              	.LLST48:
 13746 0c69 30000000 		.4byte	.LVL329
ARM GAS  C:\Users\CHRONI~1\AppData\Local\Temp\cc7oUGua.s 			page 292


 13747 0c6d 36000000 		.4byte	.LVL330
 13748 0c71 0100     		.2byte	0x1
 13749 0c73 50       		.byte	0x50
 13750 0c74 42000000 		.4byte	.LVL333
 13751 0c78 44000000 		.4byte	.LVL334
 13752 0c7c 0100     		.2byte	0x1
 13753 0c7e 50       		.byte	0x50
 13754 0c7f 00000000 		.4byte	0
 13755 0c83 00000000 		.4byte	0
 13756              	.LLST49:
 13757 0c87 00000000 		.4byte	.LVL335
 13758 0c8b 1C000000 		.4byte	.LVL337
 13759 0c8f 0100     		.2byte	0x1
 13760 0c91 50       		.byte	0x50
 13761 0c92 1C000000 		.4byte	.LVL337
 13762 0c96 36000000 		.4byte	.LVL342
 13763 0c9a 0100     		.2byte	0x1
 13764 0c9c 55       		.byte	0x55
 13765 0c9d 36000000 		.4byte	.LVL342
 13766 0ca1 3C000000 		.4byte	.LVL343
 13767 0ca5 0100     		.2byte	0x1
 13768 0ca7 50       		.byte	0x50
 13769 0ca8 3C000000 		.4byte	.LVL343
 13770 0cac 48000000 		.4byte	.LFE14
 13771 0cb0 0400     		.2byte	0x4
 13772 0cb2 F3       		.byte	0xf3
 13773 0cb3 01       		.uleb128 0x1
 13774 0cb4 50       		.byte	0x50
 13775 0cb5 9F       		.byte	0x9f
 13776 0cb6 00000000 		.4byte	0
 13777 0cba 00000000 		.4byte	0
 13778              	.LLST50:
 13779 0cbe 00000000 		.4byte	.LVL335
 13780 0cc2 1A000000 		.4byte	.LVL336
 13781 0cc6 0100     		.2byte	0x1
 13782 0cc8 51       		.byte	0x51
 13783 0cc9 1A000000 		.4byte	.LVL336
 13784 0ccd 36000000 		.4byte	.LVL342
 13785 0cd1 0100     		.2byte	0x1
 13786 0cd3 56       		.byte	0x56
 13787 0cd4 36000000 		.4byte	.LVL342
 13788 0cd8 3C000000 		.4byte	.LVL343
 13789 0cdc 0100     		.2byte	0x1
 13790 0cde 51       		.byte	0x51
 13791 0cdf 3C000000 		.4byte	.LVL343
 13792 0ce3 48000000 		.4byte	.LFE14
 13793 0ce7 0400     		.2byte	0x4
 13794 0ce9 F3       		.byte	0xf3
 13795 0cea 01       		.uleb128 0x1
 13796 0ceb 51       		.byte	0x51
 13797 0cec 9F       		.byte	0x9f
 13798 0ced 00000000 		.4byte	0
 13799 0cf1 00000000 		.4byte	0
 13800              	.LLST51:
 13801 0cf5 1E000000 		.4byte	.LVL338
 13802 0cf9 24000000 		.4byte	.LVL339
 13803 0cfd 0100     		.2byte	0x1
ARM GAS  C:\Users\CHRONI~1\AppData\Local\Temp\cc7oUGua.s 			page 293


 13804 0cff 50       		.byte	0x50
 13805 0d00 28000000 		.4byte	.LVL341
 13806 0d04 36000000 		.4byte	.LVL342
 13807 0d08 0100     		.2byte	0x1
 13808 0d0a 50       		.byte	0x50
 13809 0d0b 00000000 		.4byte	0
 13810 0d0f 00000000 		.4byte	0
 13811              	.LLST52:
 13812 0d13 00000000 		.4byte	.LVL344
 13813 0d17 1E000000 		.4byte	.LVL346
 13814 0d1b 0100     		.2byte	0x1
 13815 0d1d 50       		.byte	0x50
 13816 0d1e 1E000000 		.4byte	.LVL346
 13817 0d22 2A000000 		.4byte	.LVL350
 13818 0d26 0100     		.2byte	0x1
 13819 0d28 55       		.byte	0x55
 13820 0d29 2A000000 		.4byte	.LVL350
 13821 0d2d 32000000 		.4byte	.LVL351
 13822 0d31 0100     		.2byte	0x1
 13823 0d33 50       		.byte	0x50
 13824 0d34 32000000 		.4byte	.LVL351
 13825 0d38 34000000 		.4byte	.LVL352
 13826 0d3c 0100     		.2byte	0x1
 13827 0d3e 55       		.byte	0x55
 13828 0d3f 34000000 		.4byte	.LVL352
 13829 0d43 40000000 		.4byte	.LFE15
 13830 0d47 0400     		.2byte	0x4
 13831 0d49 F3       		.byte	0xf3
 13832 0d4a 01       		.uleb128 0x1
 13833 0d4b 50       		.byte	0x50
 13834 0d4c 9F       		.byte	0x9f
 13835 0d4d 00000000 		.4byte	0
 13836 0d51 00000000 		.4byte	0
 13837              	.LLST53:
 13838 0d55 00000000 		.4byte	.LVL344
 13839 0d59 1C000000 		.4byte	.LVL345
 13840 0d5d 0100     		.2byte	0x1
 13841 0d5f 51       		.byte	0x51
 13842 0d60 1C000000 		.4byte	.LVL345
 13843 0d64 1F000000 		.4byte	.LVL347-1
 13844 0d68 0200     		.2byte	0x2
 13845 0d6a 72       		.byte	0x72
 13846 0d6b 00       		.sleb128 0
 13847 0d6c 1F000000 		.4byte	.LVL347-1
 13848 0d70 2A000000 		.4byte	.LVL350
 13849 0d74 0200     		.2byte	0x2
 13850 0d76 91       		.byte	0x91
 13851 0d77 6F       		.sleb128 -17
 13852 0d78 2A000000 		.4byte	.LVL350
 13853 0d7c 32000000 		.4byte	.LVL351
 13854 0d80 0100     		.2byte	0x1
 13855 0d82 51       		.byte	0x51
 13856 0d83 32000000 		.4byte	.LVL351
 13857 0d87 3A000000 		.4byte	.LVL353
 13858 0d8b 0200     		.2byte	0x2
 13859 0d8d 91       		.byte	0x91
 13860 0d8e 6F       		.sleb128 -17
ARM GAS  C:\Users\CHRONI~1\AppData\Local\Temp\cc7oUGua.s 			page 294


 13861 0d8f 3A000000 		.4byte	.LVL353
 13862 0d93 40000000 		.4byte	.LFE15
 13863 0d97 0200     		.2byte	0x2
 13864 0d99 7D       		.byte	0x7d
 13865 0d9a 6F       		.sleb128 -17
 13866 0d9b 00000000 		.4byte	0
 13867 0d9f 00000000 		.4byte	0
 13868              	.LLST54:
 13869 0da3 20000000 		.4byte	.LVL347
 13870 0da7 26000000 		.4byte	.LVL348
 13871 0dab 0100     		.2byte	0x1
 13872 0dad 50       		.byte	0x50
 13873 0dae 32000000 		.4byte	.LVL351
 13874 0db2 34000000 		.4byte	.LVL352
 13875 0db6 0100     		.2byte	0x1
 13876 0db8 50       		.byte	0x50
 13877 0db9 00000000 		.4byte	0
 13878 0dbd 00000000 		.4byte	0
 13879              	.LLST55:
 13880 0dc1 00000000 		.4byte	.LVL354
 13881 0dc5 16000000 		.4byte	.LVL356
 13882 0dc9 0100     		.2byte	0x1
 13883 0dcb 50       		.byte	0x50
 13884 0dcc 16000000 		.4byte	.LVL356
 13885 0dd0 22000000 		.4byte	.LVL360
 13886 0dd4 0100     		.2byte	0x1
 13887 0dd6 55       		.byte	0x55
 13888 0dd7 22000000 		.4byte	.LVL360
 13889 0ddb 2A000000 		.4byte	.LVL361
 13890 0ddf 0100     		.2byte	0x1
 13891 0de1 50       		.byte	0x50
 13892 0de2 2A000000 		.4byte	.LVL361
 13893 0de6 2C000000 		.4byte	.LVL362
 13894 0dea 0100     		.2byte	0x1
 13895 0dec 55       		.byte	0x55
 13896 0ded 2C000000 		.4byte	.LVL362
 13897 0df1 34000000 		.4byte	.LFE16
 13898 0df5 0400     		.2byte	0x4
 13899 0df7 F3       		.byte	0xf3
 13900 0df8 01       		.uleb128 0x1
 13901 0df9 50       		.byte	0x50
 13902 0dfa 9F       		.byte	0x9f
 13903 0dfb 00000000 		.4byte	0
 13904 0dff 00000000 		.4byte	0
 13905              	.LLST56:
 13906 0e03 00000000 		.4byte	.LVL354
 13907 0e07 14000000 		.4byte	.LVL355
 13908 0e0b 0100     		.2byte	0x1
 13909 0e0d 51       		.byte	0x51
 13910 0e0e 14000000 		.4byte	.LVL355
 13911 0e12 17000000 		.4byte	.LVL357-1
 13912 0e16 0100     		.2byte	0x1
 13913 0e18 52       		.byte	0x52
 13914 0e19 17000000 		.4byte	.LVL357-1
 13915 0e1d 22000000 		.4byte	.LVL360
 13916 0e21 0400     		.2byte	0x4
 13917 0e23 F3       		.byte	0xf3
ARM GAS  C:\Users\CHRONI~1\AppData\Local\Temp\cc7oUGua.s 			page 295


 13918 0e24 01       		.uleb128 0x1
 13919 0e25 51       		.byte	0x51
 13920 0e26 9F       		.byte	0x9f
 13921 0e27 22000000 		.4byte	.LVL360
 13922 0e2b 2A000000 		.4byte	.LVL361
 13923 0e2f 0100     		.2byte	0x1
 13924 0e31 51       		.byte	0x51
 13925 0e32 2A000000 		.4byte	.LVL361
 13926 0e36 34000000 		.4byte	.LFE16
 13927 0e3a 0400     		.2byte	0x4
 13928 0e3c F3       		.byte	0xf3
 13929 0e3d 01       		.uleb128 0x1
 13930 0e3e 51       		.byte	0x51
 13931 0e3f 9F       		.byte	0x9f
 13932 0e40 00000000 		.4byte	0
 13933 0e44 00000000 		.4byte	0
 13934              	.LLST57:
 13935 0e48 18000000 		.4byte	.LVL357
 13936 0e4c 1E000000 		.4byte	.LVL358
 13937 0e50 0100     		.2byte	0x1
 13938 0e52 50       		.byte	0x50
 13939 0e53 2A000000 		.4byte	.LVL361
 13940 0e57 2C000000 		.4byte	.LVL362
 13941 0e5b 0100     		.2byte	0x1
 13942 0e5d 50       		.byte	0x50
 13943 0e5e 00000000 		.4byte	0
 13944 0e62 00000000 		.4byte	0
 13945              	.LLST58:
 13946 0e66 00000000 		.4byte	.LVL363
 13947 0e6a 1C000000 		.4byte	.LVL365
 13948 0e6e 0100     		.2byte	0x1
 13949 0e70 50       		.byte	0x50
 13950 0e71 1C000000 		.4byte	.LVL365
 13951 0e75 4E000000 		.4byte	.LVL374
 13952 0e79 0100     		.2byte	0x1
 13953 0e7b 55       		.byte	0x55
 13954 0e7c 4E000000 		.4byte	.LVL374
 13955 0e80 56000000 		.4byte	.LVL375
 13956 0e84 0100     		.2byte	0x1
 13957 0e86 50       		.byte	0x50
 13958 0e87 56000000 		.4byte	.LVL375
 13959 0e8b 58000000 		.4byte	.LVL376
 13960 0e8f 0100     		.2byte	0x1
 13961 0e91 55       		.byte	0x55
 13962 0e92 58000000 		.4byte	.LVL376
 13963 0e96 68000000 		.4byte	.LFE17
 13964 0e9a 0400     		.2byte	0x4
 13965 0e9c F3       		.byte	0xf3
 13966 0e9d 01       		.uleb128 0x1
 13967 0e9e 50       		.byte	0x50
 13968 0e9f 9F       		.byte	0x9f
 13969 0ea0 00000000 		.4byte	0
 13970 0ea4 00000000 		.4byte	0
 13971              	.LLST59:
 13972 0ea8 00000000 		.4byte	.LVL363
 13973 0eac 1A000000 		.4byte	.LVL364
 13974 0eb0 0100     		.2byte	0x1
ARM GAS  C:\Users\CHRONI~1\AppData\Local\Temp\cc7oUGua.s 			page 296


 13975 0eb2 51       		.byte	0x51
 13976 0eb3 1A000000 		.4byte	.LVL364
 13977 0eb7 4E000000 		.4byte	.LVL374
 13978 0ebb 0400     		.2byte	0x4
 13979 0ebd F3       		.byte	0xf3
 13980 0ebe 01       		.uleb128 0x1
 13981 0ebf 51       		.byte	0x51
 13982 0ec0 9F       		.byte	0x9f
 13983 0ec1 4E000000 		.4byte	.LVL374
 13984 0ec5 56000000 		.4byte	.LVL375
 13985 0ec9 0100     		.2byte	0x1
 13986 0ecb 51       		.byte	0x51
 13987 0ecc 56000000 		.4byte	.LVL375
 13988 0ed0 68000000 		.4byte	.LFE17
 13989 0ed4 0400     		.2byte	0x4
 13990 0ed6 F3       		.byte	0xf3
 13991 0ed7 01       		.uleb128 0x1
 13992 0ed8 51       		.byte	0x51
 13993 0ed9 9F       		.byte	0x9f
 13994 0eda 00000000 		.4byte	0
 13995 0ede 00000000 		.4byte	0
 13996              	.LLST60:
 13997 0ee2 1E000000 		.4byte	.LVL366
 13998 0ee6 24000000 		.4byte	.LVL367
 13999 0eea 0100     		.2byte	0x1
 14000 0eec 50       		.byte	0x50
 14001 0eed 28000000 		.4byte	.LVL369
 14002 0ef1 42000000 		.4byte	.LVL370
 14003 0ef5 0100     		.2byte	0x1
 14004 0ef7 50       		.byte	0x50
 14005 0ef8 44000000 		.4byte	.LVL371
 14006 0efc 4A000000 		.4byte	.LVL372
 14007 0f00 0100     		.2byte	0x1
 14008 0f02 50       		.byte	0x50
 14009 0f03 56000000 		.4byte	.LVL375
 14010 0f07 58000000 		.4byte	.LVL376
 14011 0f0b 0100     		.2byte	0x1
 14012 0f0d 50       		.byte	0x50
 14013 0f0e 00000000 		.4byte	0
 14014 0f12 00000000 		.4byte	0
 14015              	.LLST61:
 14016 0f16 00000000 		.4byte	.LVL377
 14017 0f1a 1C000000 		.4byte	.LVL379
 14018 0f1e 0100     		.2byte	0x1
 14019 0f20 50       		.byte	0x50
 14020 0f21 1C000000 		.4byte	.LVL379
 14021 0f25 34000000 		.4byte	.LVL384
 14022 0f29 0100     		.2byte	0x1
 14023 0f2b 55       		.byte	0x55
 14024 0f2c 34000000 		.4byte	.LVL384
 14025 0f30 3A000000 		.4byte	.LVL385
 14026 0f34 0100     		.2byte	0x1
 14027 0f36 50       		.byte	0x50
 14028 0f37 3A000000 		.4byte	.LVL385
 14029 0f3b 44000000 		.4byte	.LFE18
 14030 0f3f 0400     		.2byte	0x4
 14031 0f41 F3       		.byte	0xf3
ARM GAS  C:\Users\CHRONI~1\AppData\Local\Temp\cc7oUGua.s 			page 297


 14032 0f42 01       		.uleb128 0x1
 14033 0f43 50       		.byte	0x50
 14034 0f44 9F       		.byte	0x9f
 14035 0f45 00000000 		.4byte	0
 14036 0f49 00000000 		.4byte	0
 14037              	.LLST62:
 14038 0f4d 00000000 		.4byte	.LVL377
 14039 0f51 1A000000 		.4byte	.LVL378
 14040 0f55 0100     		.2byte	0x1
 14041 0f57 51       		.byte	0x51
 14042 0f58 1A000000 		.4byte	.LVL378
 14043 0f5c 34000000 		.4byte	.LVL384
 14044 0f60 0100     		.2byte	0x1
 14045 0f62 56       		.byte	0x56
 14046 0f63 34000000 		.4byte	.LVL384
 14047 0f67 3A000000 		.4byte	.LVL385
 14048 0f6b 0100     		.2byte	0x1
 14049 0f6d 51       		.byte	0x51
 14050 0f6e 3A000000 		.4byte	.LVL385
 14051 0f72 44000000 		.4byte	.LFE18
 14052 0f76 0400     		.2byte	0x4
 14053 0f78 F3       		.byte	0xf3
 14054 0f79 01       		.uleb128 0x1
 14055 0f7a 51       		.byte	0x51
 14056 0f7b 9F       		.byte	0x9f
 14057 0f7c 00000000 		.4byte	0
 14058 0f80 00000000 		.4byte	0
 14059              	.LLST63:
 14060 0f84 1E000000 		.4byte	.LVL380
 14061 0f88 24000000 		.4byte	.LVL381
 14062 0f8c 0100     		.2byte	0x1
 14063 0f8e 50       		.byte	0x50
 14064 0f8f 28000000 		.4byte	.LVL383
 14065 0f93 34000000 		.4byte	.LVL384
 14066 0f97 0100     		.2byte	0x1
 14067 0f99 50       		.byte	0x50
 14068 0f9a 00000000 		.4byte	0
 14069 0f9e 00000000 		.4byte	0
 14070              	.LLST64:
 14071 0fa2 00000000 		.4byte	.LVL386
 14072 0fa6 1C000000 		.4byte	.LVL388
 14073 0faa 0100     		.2byte	0x1
 14074 0fac 50       		.byte	0x50
 14075 0fad 1C000000 		.4byte	.LVL388
 14076 0fb1 4E000000 		.4byte	.LVL397
 14077 0fb5 0100     		.2byte	0x1
 14078 0fb7 55       		.byte	0x55
 14079 0fb8 4E000000 		.4byte	.LVL397
 14080 0fbc 56000000 		.4byte	.LVL398
 14081 0fc0 0100     		.2byte	0x1
 14082 0fc2 50       		.byte	0x50
 14083 0fc3 56000000 		.4byte	.LVL398
 14084 0fc7 58000000 		.4byte	.LVL399
 14085 0fcb 0100     		.2byte	0x1
 14086 0fcd 55       		.byte	0x55
 14087 0fce 58000000 		.4byte	.LVL399
 14088 0fd2 68000000 		.4byte	.LFE19
ARM GAS  C:\Users\CHRONI~1\AppData\Local\Temp\cc7oUGua.s 			page 298


 14089 0fd6 0400     		.2byte	0x4
 14090 0fd8 F3       		.byte	0xf3
 14091 0fd9 01       		.uleb128 0x1
 14092 0fda 50       		.byte	0x50
 14093 0fdb 9F       		.byte	0x9f
 14094 0fdc 00000000 		.4byte	0
 14095 0fe0 00000000 		.4byte	0
 14096              	.LLST65:
 14097 0fe4 00000000 		.4byte	.LVL386
 14098 0fe8 1A000000 		.4byte	.LVL387
 14099 0fec 0100     		.2byte	0x1
 14100 0fee 51       		.byte	0x51
 14101 0fef 1A000000 		.4byte	.LVL387
 14102 0ff3 4E000000 		.4byte	.LVL397
 14103 0ff7 0400     		.2byte	0x4
 14104 0ff9 F3       		.byte	0xf3
 14105 0ffa 01       		.uleb128 0x1
 14106 0ffb 51       		.byte	0x51
 14107 0ffc 9F       		.byte	0x9f
 14108 0ffd 4E000000 		.4byte	.LVL397
 14109 1001 56000000 		.4byte	.LVL398
 14110 1005 0100     		.2byte	0x1
 14111 1007 51       		.byte	0x51
 14112 1008 56000000 		.4byte	.LVL398
 14113 100c 68000000 		.4byte	.LFE19
 14114 1010 0400     		.2byte	0x4
 14115 1012 F3       		.byte	0xf3
 14116 1013 01       		.uleb128 0x1
 14117 1014 51       		.byte	0x51
 14118 1015 9F       		.byte	0x9f
 14119 1016 00000000 		.4byte	0
 14120 101a 00000000 		.4byte	0
 14121              	.LLST66:
 14122 101e 1E000000 		.4byte	.LVL389
 14123 1022 24000000 		.4byte	.LVL390
 14124 1026 0100     		.2byte	0x1
 14125 1028 50       		.byte	0x50
 14126 1029 28000000 		.4byte	.LVL392
 14127 102d 42000000 		.4byte	.LVL393
 14128 1031 0100     		.2byte	0x1
 14129 1033 50       		.byte	0x50
 14130 1034 44000000 		.4byte	.LVL394
 14131 1038 4A000000 		.4byte	.LVL395
 14132 103c 0100     		.2byte	0x1
 14133 103e 50       		.byte	0x50
 14134 103f 56000000 		.4byte	.LVL398
 14135 1043 58000000 		.4byte	.LVL399
 14136 1047 0100     		.2byte	0x1
 14137 1049 50       		.byte	0x50
 14138 104a 00000000 		.4byte	0
 14139 104e 00000000 		.4byte	0
 14140              	.LLST67:
 14141 1052 00000000 		.4byte	.LVL400
 14142 1056 1C000000 		.4byte	.LVL402
 14143 105a 0100     		.2byte	0x1
 14144 105c 50       		.byte	0x50
 14145 105d 1C000000 		.4byte	.LVL402
ARM GAS  C:\Users\CHRONI~1\AppData\Local\Temp\cc7oUGua.s 			page 299


 14146 1061 36000000 		.4byte	.LVL407
 14147 1065 0100     		.2byte	0x1
 14148 1067 55       		.byte	0x55
 14149 1068 36000000 		.4byte	.LVL407
 14150 106c 3C000000 		.4byte	.LVL408
 14151 1070 0100     		.2byte	0x1
 14152 1072 50       		.byte	0x50
 14153 1073 3C000000 		.4byte	.LVL408
 14154 1077 48000000 		.4byte	.LFE20
 14155 107b 0400     		.2byte	0x4
 14156 107d F3       		.byte	0xf3
 14157 107e 01       		.uleb128 0x1
 14158 107f 50       		.byte	0x50
 14159 1080 9F       		.byte	0x9f
 14160 1081 00000000 		.4byte	0
 14161 1085 00000000 		.4byte	0
 14162              	.LLST68:
 14163 1089 00000000 		.4byte	.LVL400
 14164 108d 1A000000 		.4byte	.LVL401
 14165 1091 0100     		.2byte	0x1
 14166 1093 51       		.byte	0x51
 14167 1094 1A000000 		.4byte	.LVL401
 14168 1098 36000000 		.4byte	.LVL407
 14169 109c 0100     		.2byte	0x1
 14170 109e 56       		.byte	0x56
 14171 109f 36000000 		.4byte	.LVL407
 14172 10a3 3C000000 		.4byte	.LVL408
 14173 10a7 0100     		.2byte	0x1
 14174 10a9 51       		.byte	0x51
 14175 10aa 3C000000 		.4byte	.LVL408
 14176 10ae 48000000 		.4byte	.LFE20
 14177 10b2 0400     		.2byte	0x4
 14178 10b4 F3       		.byte	0xf3
 14179 10b5 01       		.uleb128 0x1
 14180 10b6 51       		.byte	0x51
 14181 10b7 9F       		.byte	0x9f
 14182 10b8 00000000 		.4byte	0
 14183 10bc 00000000 		.4byte	0
 14184              	.LLST69:
 14185 10c0 1E000000 		.4byte	.LVL403
 14186 10c4 24000000 		.4byte	.LVL404
 14187 10c8 0100     		.2byte	0x1
 14188 10ca 50       		.byte	0x50
 14189 10cb 28000000 		.4byte	.LVL406
 14190 10cf 36000000 		.4byte	.LVL407
 14191 10d3 0100     		.2byte	0x1
 14192 10d5 50       		.byte	0x50
 14193 10d6 00000000 		.4byte	0
 14194 10da 00000000 		.4byte	0
 14195              	.LLST70:
 14196 10de 00000000 		.4byte	.LVL409
 14197 10e2 18000000 		.4byte	.LVL410
 14198 10e6 0100     		.2byte	0x1
 14199 10e8 50       		.byte	0x50
 14200 10e9 18000000 		.4byte	.LVL410
 14201 10ed 1E000000 		.4byte	.LVL412
 14202 10f1 0100     		.2byte	0x1
ARM GAS  C:\Users\CHRONI~1\AppData\Local\Temp\cc7oUGua.s 			page 300


 14203 10f3 55       		.byte	0x55
 14204 10f4 1E000000 		.4byte	.LVL412
 14205 10f8 2A000000 		.4byte	.LVL414
 14206 10fc 0100     		.2byte	0x1
 14207 10fe 50       		.byte	0x50
 14208 10ff 2A000000 		.4byte	.LVL414
 14209 1103 5A000000 		.4byte	.LVL423
 14210 1107 0100     		.2byte	0x1
 14211 1109 55       		.byte	0x55
 14212 110a 5A000000 		.4byte	.LVL423
 14213 110e 62000000 		.4byte	.LVL424
 14214 1112 0100     		.2byte	0x1
 14215 1114 50       		.byte	0x50
 14216 1115 62000000 		.4byte	.LVL424
 14217 1119 64000000 		.4byte	.LVL425
 14218 111d 0100     		.2byte	0x1
 14219 111f 55       		.byte	0x55
 14220 1120 64000000 		.4byte	.LVL425
 14221 1124 78000000 		.4byte	.LFE21
 14222 1128 0400     		.2byte	0x4
 14223 112a F3       		.byte	0xf3
 14224 112b 01       		.uleb128 0x1
 14225 112c 50       		.byte	0x50
 14226 112d 9F       		.byte	0x9f
 14227 112e 00000000 		.4byte	0
 14228 1132 00000000 		.4byte	0
 14229              	.LLST71:
 14230 1136 00000000 		.4byte	.LVL409
 14231 113a 19000000 		.4byte	.LVL411-1
 14232 113e 0100     		.2byte	0x1
 14233 1140 51       		.byte	0x51
 14234 1141 19000000 		.4byte	.LVL411-1
 14235 1145 1E000000 		.4byte	.LVL412
 14236 1149 0400     		.2byte	0x4
 14237 114b F3       		.byte	0xf3
 14238 114c 01       		.uleb128 0x1
 14239 114d 51       		.byte	0x51
 14240 114e 9F       		.byte	0x9f
 14241 114f 1E000000 		.4byte	.LVL412
 14242 1153 28000000 		.4byte	.LVL413
 14243 1157 0100     		.2byte	0x1
 14244 1159 51       		.byte	0x51
 14245 115a 28000000 		.4byte	.LVL413
 14246 115e 5A000000 		.4byte	.LVL423
 14247 1162 0400     		.2byte	0x4
 14248 1164 F3       		.byte	0xf3
 14249 1165 01       		.uleb128 0x1
 14250 1166 51       		.byte	0x51
 14251 1167 9F       		.byte	0x9f
 14252 1168 5A000000 		.4byte	.LVL423
 14253 116c 62000000 		.4byte	.LVL424
 14254 1170 0100     		.2byte	0x1
 14255 1172 51       		.byte	0x51
 14256 1173 62000000 		.4byte	.LVL424
 14257 1177 78000000 		.4byte	.LFE21
 14258 117b 0400     		.2byte	0x4
 14259 117d F3       		.byte	0xf3
ARM GAS  C:\Users\CHRONI~1\AppData\Local\Temp\cc7oUGua.s 			page 301


 14260 117e 01       		.uleb128 0x1
 14261 117f 51       		.byte	0x51
 14262 1180 9F       		.byte	0x9f
 14263 1181 00000000 		.4byte	0
 14264 1185 00000000 		.4byte	0
 14265              	.LLST72:
 14266 1189 2C000000 		.4byte	.LVL415
 14267 118d 32000000 		.4byte	.LVL416
 14268 1191 0100     		.2byte	0x1
 14269 1193 50       		.byte	0x50
 14270 1194 36000000 		.4byte	.LVL418
 14271 1198 4E000000 		.4byte	.LVL419
 14272 119c 0100     		.2byte	0x1
 14273 119e 50       		.byte	0x50
 14274 119f 50000000 		.4byte	.LVL420
 14275 11a3 56000000 		.4byte	.LVL421
 14276 11a7 0100     		.2byte	0x1
 14277 11a9 50       		.byte	0x50
 14278 11aa 62000000 		.4byte	.LVL424
 14279 11ae 64000000 		.4byte	.LVL425
 14280 11b2 0100     		.2byte	0x1
 14281 11b4 50       		.byte	0x50
 14282 11b5 00000000 		.4byte	0
 14283 11b9 00000000 		.4byte	0
 14284              	.LLST73:
 14285 11bd 00000000 		.4byte	.LVL426
 14286 11c1 1C000000 		.4byte	.LVL428
 14287 11c5 0100     		.2byte	0x1
 14288 11c7 50       		.byte	0x50
 14289 11c8 1C000000 		.4byte	.LVL428
 14290 11cc 36000000 		.4byte	.LVL433
 14291 11d0 0100     		.2byte	0x1
 14292 11d2 55       		.byte	0x55
 14293 11d3 36000000 		.4byte	.LVL433
 14294 11d7 3C000000 		.4byte	.LVL434
 14295 11db 0100     		.2byte	0x1
 14296 11dd 50       		.byte	0x50
 14297 11de 3C000000 		.4byte	.LVL434
 14298 11e2 48000000 		.4byte	.LFE22
 14299 11e6 0400     		.2byte	0x4
 14300 11e8 F3       		.byte	0xf3
 14301 11e9 01       		.uleb128 0x1
 14302 11ea 50       		.byte	0x50
 14303 11eb 9F       		.byte	0x9f
 14304 11ec 00000000 		.4byte	0
 14305 11f0 00000000 		.4byte	0
 14306              	.LLST74:
 14307 11f4 00000000 		.4byte	.LVL426
 14308 11f8 1A000000 		.4byte	.LVL427
 14309 11fc 0100     		.2byte	0x1
 14310 11fe 51       		.byte	0x51
 14311 11ff 1A000000 		.4byte	.LVL427
 14312 1203 36000000 		.4byte	.LVL433
 14313 1207 0100     		.2byte	0x1
 14314 1209 56       		.byte	0x56
 14315 120a 36000000 		.4byte	.LVL433
 14316 120e 3C000000 		.4byte	.LVL434
ARM GAS  C:\Users\CHRONI~1\AppData\Local\Temp\cc7oUGua.s 			page 302


 14317 1212 0100     		.2byte	0x1
 14318 1214 51       		.byte	0x51
 14319 1215 3C000000 		.4byte	.LVL434
 14320 1219 48000000 		.4byte	.LFE22
 14321 121d 0400     		.2byte	0x4
 14322 121f F3       		.byte	0xf3
 14323 1220 01       		.uleb128 0x1
 14324 1221 51       		.byte	0x51
 14325 1222 9F       		.byte	0x9f
 14326 1223 00000000 		.4byte	0
 14327 1227 00000000 		.4byte	0
 14328              	.LLST75:
 14329 122b 1E000000 		.4byte	.LVL429
 14330 122f 24000000 		.4byte	.LVL430
 14331 1233 0100     		.2byte	0x1
 14332 1235 50       		.byte	0x50
 14333 1236 28000000 		.4byte	.LVL432
 14334 123a 36000000 		.4byte	.LVL433
 14335 123e 0100     		.2byte	0x1
 14336 1240 50       		.byte	0x50
 14337 1241 00000000 		.4byte	0
 14338 1245 00000000 		.4byte	0
 14339              	.LLST76:
 14340 1249 00000000 		.4byte	.LVL435
 14341 124d 1C000000 		.4byte	.LVL437
 14342 1251 0100     		.2byte	0x1
 14343 1253 50       		.byte	0x50
 14344 1254 1C000000 		.4byte	.LVL437
 14345 1258 4E000000 		.4byte	.LVL446
 14346 125c 0100     		.2byte	0x1
 14347 125e 55       		.byte	0x55
 14348 125f 4E000000 		.4byte	.LVL446
 14349 1263 56000000 		.4byte	.LVL447
 14350 1267 0100     		.2byte	0x1
 14351 1269 50       		.byte	0x50
 14352 126a 56000000 		.4byte	.LVL447
 14353 126e 58000000 		.4byte	.LVL448
 14354 1272 0100     		.2byte	0x1
 14355 1274 55       		.byte	0x55
 14356 1275 58000000 		.4byte	.LVL448
 14357 1279 68000000 		.4byte	.LFE23
 14358 127d 0400     		.2byte	0x4
 14359 127f F3       		.byte	0xf3
 14360 1280 01       		.uleb128 0x1
 14361 1281 50       		.byte	0x50
 14362 1282 9F       		.byte	0x9f
 14363 1283 00000000 		.4byte	0
 14364 1287 00000000 		.4byte	0
 14365              	.LLST77:
 14366 128b 00000000 		.4byte	.LVL435
 14367 128f 1A000000 		.4byte	.LVL436
 14368 1293 0100     		.2byte	0x1
 14369 1295 51       		.byte	0x51
 14370 1296 1A000000 		.4byte	.LVL436
 14371 129a 4E000000 		.4byte	.LVL446
 14372 129e 0400     		.2byte	0x4
 14373 12a0 F3       		.byte	0xf3
ARM GAS  C:\Users\CHRONI~1\AppData\Local\Temp\cc7oUGua.s 			page 303


 14374 12a1 01       		.uleb128 0x1
 14375 12a2 51       		.byte	0x51
 14376 12a3 9F       		.byte	0x9f
 14377 12a4 4E000000 		.4byte	.LVL446
 14378 12a8 56000000 		.4byte	.LVL447
 14379 12ac 0100     		.2byte	0x1
 14380 12ae 51       		.byte	0x51
 14381 12af 56000000 		.4byte	.LVL447
 14382 12b3 68000000 		.4byte	.LFE23
 14383 12b7 0400     		.2byte	0x4
 14384 12b9 F3       		.byte	0xf3
 14385 12ba 01       		.uleb128 0x1
 14386 12bb 51       		.byte	0x51
 14387 12bc 9F       		.byte	0x9f
 14388 12bd 00000000 		.4byte	0
 14389 12c1 00000000 		.4byte	0
 14390              	.LLST78:
 14391 12c5 1E000000 		.4byte	.LVL438
 14392 12c9 24000000 		.4byte	.LVL439
 14393 12cd 0100     		.2byte	0x1
 14394 12cf 50       		.byte	0x50
 14395 12d0 28000000 		.4byte	.LVL441
 14396 12d4 42000000 		.4byte	.LVL442
 14397 12d8 0100     		.2byte	0x1
 14398 12da 50       		.byte	0x50
 14399 12db 44000000 		.4byte	.LVL443
 14400 12df 4A000000 		.4byte	.LVL444
 14401 12e3 0100     		.2byte	0x1
 14402 12e5 50       		.byte	0x50
 14403 12e6 56000000 		.4byte	.LVL447
 14404 12ea 58000000 		.4byte	.LVL448
 14405 12ee 0100     		.2byte	0x1
 14406 12f0 50       		.byte	0x50
 14407 12f1 00000000 		.4byte	0
 14408 12f5 00000000 		.4byte	0
 14409              	.LLST79:
 14410 12f9 00000000 		.4byte	.LVL449
 14411 12fd 1C000000 		.4byte	.LVL451
 14412 1301 0100     		.2byte	0x1
 14413 1303 50       		.byte	0x50
 14414 1304 1C000000 		.4byte	.LVL451
 14415 1308 34000000 		.4byte	.LVL456
 14416 130c 0100     		.2byte	0x1
 14417 130e 55       		.byte	0x55
 14418 130f 34000000 		.4byte	.LVL456
 14419 1313 3A000000 		.4byte	.LVL457
 14420 1317 0100     		.2byte	0x1
 14421 1319 50       		.byte	0x50
 14422 131a 3A000000 		.4byte	.LVL457
 14423 131e 44000000 		.4byte	.LFE24
 14424 1322 0400     		.2byte	0x4
 14425 1324 F3       		.byte	0xf3
 14426 1325 01       		.uleb128 0x1
 14427 1326 50       		.byte	0x50
 14428 1327 9F       		.byte	0x9f
 14429 1328 00000000 		.4byte	0
 14430 132c 00000000 		.4byte	0
ARM GAS  C:\Users\CHRONI~1\AppData\Local\Temp\cc7oUGua.s 			page 304


 14431              	.LLST80:
 14432 1330 00000000 		.4byte	.LVL449
 14433 1334 1A000000 		.4byte	.LVL450
 14434 1338 0100     		.2byte	0x1
 14435 133a 51       		.byte	0x51
 14436 133b 1A000000 		.4byte	.LVL450
 14437 133f 34000000 		.4byte	.LVL456
 14438 1343 0100     		.2byte	0x1
 14439 1345 56       		.byte	0x56
 14440 1346 34000000 		.4byte	.LVL456
 14441 134a 3A000000 		.4byte	.LVL457
 14442 134e 0100     		.2byte	0x1
 14443 1350 51       		.byte	0x51
 14444 1351 3A000000 		.4byte	.LVL457
 14445 1355 44000000 		.4byte	.LFE24
 14446 1359 0400     		.2byte	0x4
 14447 135b F3       		.byte	0xf3
 14448 135c 01       		.uleb128 0x1
 14449 135d 51       		.byte	0x51
 14450 135e 9F       		.byte	0x9f
 14451 135f 00000000 		.4byte	0
 14452 1363 00000000 		.4byte	0
 14453              	.LLST81:
 14454 1367 1E000000 		.4byte	.LVL452
 14455 136b 24000000 		.4byte	.LVL453
 14456 136f 0100     		.2byte	0x1
 14457 1371 50       		.byte	0x50
 14458 1372 28000000 		.4byte	.LVL455
 14459 1376 34000000 		.4byte	.LVL456
 14460 137a 0100     		.2byte	0x1
 14461 137c 50       		.byte	0x50
 14462 137d 00000000 		.4byte	0
 14463 1381 00000000 		.4byte	0
 14464              	.LLST82:
 14465 1385 00000000 		.4byte	.LVL458
 14466 1389 1A000000 		.4byte	.LVL459
 14467 138d 0100     		.2byte	0x1
 14468 138f 50       		.byte	0x50
 14469 1390 1A000000 		.4byte	.LVL459
 14470 1394 4C000000 		.4byte	.LVL468
 14471 1398 0100     		.2byte	0x1
 14472 139a 55       		.byte	0x55
 14473 139b 4C000000 		.4byte	.LVL468
 14474 139f 54000000 		.4byte	.LVL469
 14475 13a3 0100     		.2byte	0x1
 14476 13a5 50       		.byte	0x50
 14477 13a6 54000000 		.4byte	.LVL469
 14478 13aa 56000000 		.4byte	.LVL470
 14479 13ae 0100     		.2byte	0x1
 14480 13b0 55       		.byte	0x55
 14481 13b1 56000000 		.4byte	.LVL470
 14482 13b5 64000000 		.4byte	.LFE25
 14483 13b9 0400     		.2byte	0x4
 14484 13bb F3       		.byte	0xf3
 14485 13bc 01       		.uleb128 0x1
 14486 13bd 50       		.byte	0x50
 14487 13be 9F       		.byte	0x9f
ARM GAS  C:\Users\CHRONI~1\AppData\Local\Temp\cc7oUGua.s 			page 305


 14488 13bf 00000000 		.4byte	0
 14489 13c3 00000000 		.4byte	0
 14490              	.LLST83:
 14491 13c7 1C000000 		.4byte	.LVL460
 14492 13cb 22000000 		.4byte	.LVL461
 14493 13cf 0100     		.2byte	0x1
 14494 13d1 50       		.byte	0x50
 14495 13d2 26000000 		.4byte	.LVL463
 14496 13d6 40000000 		.4byte	.LVL464
 14497 13da 0100     		.2byte	0x1
 14498 13dc 50       		.byte	0x50
 14499 13dd 42000000 		.4byte	.LVL465
 14500 13e1 48000000 		.4byte	.LVL466
 14501 13e5 0100     		.2byte	0x1
 14502 13e7 50       		.byte	0x50
 14503 13e8 54000000 		.4byte	.LVL469
 14504 13ec 56000000 		.4byte	.LVL470
 14505 13f0 0100     		.2byte	0x1
 14506 13f2 50       		.byte	0x50
 14507 13f3 00000000 		.4byte	0
 14508 13f7 00000000 		.4byte	0
 14509              	.LLST84:
 14510 13fb 00000000 		.4byte	.LVL471
 14511 13ff 1C000000 		.4byte	.LVL473
 14512 1403 0100     		.2byte	0x1
 14513 1405 50       		.byte	0x50
 14514 1406 1C000000 		.4byte	.LVL473
 14515 140a 4C000000 		.4byte	.LVL482
 14516 140e 0100     		.2byte	0x1
 14517 1410 55       		.byte	0x55
 14518 1411 4C000000 		.4byte	.LVL482
 14519 1415 54000000 		.4byte	.LVL483
 14520 1419 0100     		.2byte	0x1
 14521 141b 50       		.byte	0x50
 14522 141c 54000000 		.4byte	.LVL483
 14523 1420 56000000 		.4byte	.LVL484
 14524 1424 0100     		.2byte	0x1
 14525 1426 55       		.byte	0x55
 14526 1427 56000000 		.4byte	.LVL484
 14527 142b 64000000 		.4byte	.LFE26
 14528 142f 0400     		.2byte	0x4
 14529 1431 F3       		.byte	0xf3
 14530 1432 01       		.uleb128 0x1
 14531 1433 50       		.byte	0x50
 14532 1434 9F       		.byte	0x9f
 14533 1435 00000000 		.4byte	0
 14534 1439 00000000 		.4byte	0
 14535              	.LLST85:
 14536 143d 00000000 		.4byte	.LVL471
 14537 1441 1A000000 		.4byte	.LVL472
 14538 1445 0100     		.2byte	0x1
 14539 1447 51       		.byte	0x51
 14540 1448 1A000000 		.4byte	.LVL472
 14541 144c 4C000000 		.4byte	.LVL482
 14542 1450 0400     		.2byte	0x4
 14543 1452 F3       		.byte	0xf3
 14544 1453 01       		.uleb128 0x1
ARM GAS  C:\Users\CHRONI~1\AppData\Local\Temp\cc7oUGua.s 			page 306


 14545 1454 51       		.byte	0x51
 14546 1455 9F       		.byte	0x9f
 14547 1456 4C000000 		.4byte	.LVL482
 14548 145a 54000000 		.4byte	.LVL483
 14549 145e 0100     		.2byte	0x1
 14550 1460 51       		.byte	0x51
 14551 1461 54000000 		.4byte	.LVL483
 14552 1465 64000000 		.4byte	.LFE26
 14553 1469 0400     		.2byte	0x4
 14554 146b F3       		.byte	0xf3
 14555 146c 01       		.uleb128 0x1
 14556 146d 51       		.byte	0x51
 14557 146e 9F       		.byte	0x9f
 14558 146f 00000000 		.4byte	0
 14559 1473 00000000 		.4byte	0
 14560              	.LLST86:
 14561 1477 1E000000 		.4byte	.LVL474
 14562 147b 24000000 		.4byte	.LVL475
 14563 147f 0100     		.2byte	0x1
 14564 1481 50       		.byte	0x50
 14565 1482 28000000 		.4byte	.LVL477
 14566 1486 40000000 		.4byte	.LVL478
 14567 148a 0100     		.2byte	0x1
 14568 148c 50       		.byte	0x50
 14569 148d 42000000 		.4byte	.LVL479
 14570 1491 48000000 		.4byte	.LVL480
 14571 1495 0100     		.2byte	0x1
 14572 1497 50       		.byte	0x50
 14573 1498 54000000 		.4byte	.LVL483
 14574 149c 56000000 		.4byte	.LVL484
 14575 14a0 0100     		.2byte	0x1
 14576 14a2 50       		.byte	0x50
 14577 14a3 00000000 		.4byte	0
 14578 14a7 00000000 		.4byte	0
 14579              	.LLST87:
 14580 14ab 00000000 		.4byte	.LVL485
 14581 14af 1C000000 		.4byte	.LVL487
 14582 14b3 0100     		.2byte	0x1
 14583 14b5 50       		.byte	0x50
 14584 14b6 1C000000 		.4byte	.LVL487
 14585 14ba 36000000 		.4byte	.LVL492
 14586 14be 0100     		.2byte	0x1
 14587 14c0 55       		.byte	0x55
 14588 14c1 36000000 		.4byte	.LVL492
 14589 14c5 3C000000 		.4byte	.LVL493
 14590 14c9 0100     		.2byte	0x1
 14591 14cb 50       		.byte	0x50
 14592 14cc 3C000000 		.4byte	.LVL493
 14593 14d0 48000000 		.4byte	.LFE27
 14594 14d4 0400     		.2byte	0x4
 14595 14d6 F3       		.byte	0xf3
 14596 14d7 01       		.uleb128 0x1
 14597 14d8 50       		.byte	0x50
 14598 14d9 9F       		.byte	0x9f
 14599 14da 00000000 		.4byte	0
 14600 14de 00000000 		.4byte	0
 14601              	.LLST88:
ARM GAS  C:\Users\CHRONI~1\AppData\Local\Temp\cc7oUGua.s 			page 307


 14602 14e2 00000000 		.4byte	.LVL485
 14603 14e6 1A000000 		.4byte	.LVL486
 14604 14ea 0100     		.2byte	0x1
 14605 14ec 51       		.byte	0x51
 14606 14ed 1A000000 		.4byte	.LVL486
 14607 14f1 36000000 		.4byte	.LVL492
 14608 14f5 0100     		.2byte	0x1
 14609 14f7 56       		.byte	0x56
 14610 14f8 36000000 		.4byte	.LVL492
 14611 14fc 3C000000 		.4byte	.LVL493
 14612 1500 0100     		.2byte	0x1
 14613 1502 51       		.byte	0x51
 14614 1503 3C000000 		.4byte	.LVL493
 14615 1507 48000000 		.4byte	.LFE27
 14616 150b 0400     		.2byte	0x4
 14617 150d F3       		.byte	0xf3
 14618 150e 01       		.uleb128 0x1
 14619 150f 51       		.byte	0x51
 14620 1510 9F       		.byte	0x9f
 14621 1511 00000000 		.4byte	0
 14622 1515 00000000 		.4byte	0
 14623              	.LLST89:
 14624 1519 1E000000 		.4byte	.LVL488
 14625 151d 24000000 		.4byte	.LVL489
 14626 1521 0100     		.2byte	0x1
 14627 1523 50       		.byte	0x50
 14628 1524 28000000 		.4byte	.LVL491
 14629 1528 36000000 		.4byte	.LVL492
 14630 152c 0100     		.2byte	0x1
 14631 152e 50       		.byte	0x50
 14632 152f 00000000 		.4byte	0
 14633 1533 00000000 		.4byte	0
 14634              	.LLST90:
 14635 1537 00000000 		.4byte	.LVL494
 14636 153b 1C000000 		.4byte	.LVL496
 14637 153f 0100     		.2byte	0x1
 14638 1541 50       		.byte	0x50
 14639 1542 1C000000 		.4byte	.LVL496
 14640 1546 4E000000 		.4byte	.LVL505
 14641 154a 0100     		.2byte	0x1
 14642 154c 55       		.byte	0x55
 14643 154d 4E000000 		.4byte	.LVL505
 14644 1551 56000000 		.4byte	.LVL506
 14645 1555 0100     		.2byte	0x1
 14646 1557 50       		.byte	0x50
 14647 1558 56000000 		.4byte	.LVL506
 14648 155c 58000000 		.4byte	.LVL507
 14649 1560 0100     		.2byte	0x1
 14650 1562 55       		.byte	0x55
 14651 1563 58000000 		.4byte	.LVL507
 14652 1567 68000000 		.4byte	.LFE28
 14653 156b 0400     		.2byte	0x4
 14654 156d F3       		.byte	0xf3
 14655 156e 01       		.uleb128 0x1
 14656 156f 50       		.byte	0x50
 14657 1570 9F       		.byte	0x9f
 14658 1571 00000000 		.4byte	0
ARM GAS  C:\Users\CHRONI~1\AppData\Local\Temp\cc7oUGua.s 			page 308


 14659 1575 00000000 		.4byte	0
 14660              	.LLST91:
 14661 1579 00000000 		.4byte	.LVL494
 14662 157d 1A000000 		.4byte	.LVL495
 14663 1581 0100     		.2byte	0x1
 14664 1583 51       		.byte	0x51
 14665 1584 1A000000 		.4byte	.LVL495
 14666 1588 4E000000 		.4byte	.LVL505
 14667 158c 0400     		.2byte	0x4
 14668 158e F3       		.byte	0xf3
 14669 158f 01       		.uleb128 0x1
 14670 1590 51       		.byte	0x51
 14671 1591 9F       		.byte	0x9f
 14672 1592 4E000000 		.4byte	.LVL505
 14673 1596 56000000 		.4byte	.LVL506
 14674 159a 0100     		.2byte	0x1
 14675 159c 51       		.byte	0x51
 14676 159d 56000000 		.4byte	.LVL506
 14677 15a1 68000000 		.4byte	.LFE28
 14678 15a5 0400     		.2byte	0x4
 14679 15a7 F3       		.byte	0xf3
 14680 15a8 01       		.uleb128 0x1
 14681 15a9 51       		.byte	0x51
 14682 15aa 9F       		.byte	0x9f
 14683 15ab 00000000 		.4byte	0
 14684 15af 00000000 		.4byte	0
 14685              	.LLST92:
 14686 15b3 1E000000 		.4byte	.LVL497
 14687 15b7 24000000 		.4byte	.LVL498
 14688 15bb 0100     		.2byte	0x1
 14689 15bd 50       		.byte	0x50
 14690 15be 28000000 		.4byte	.LVL500
 14691 15c2 42000000 		.4byte	.LVL501
 14692 15c6 0100     		.2byte	0x1
 14693 15c8 50       		.byte	0x50
 14694 15c9 44000000 		.4byte	.LVL502
 14695 15cd 4A000000 		.4byte	.LVL503
 14696 15d1 0100     		.2byte	0x1
 14697 15d3 50       		.byte	0x50
 14698 15d4 56000000 		.4byte	.LVL506
 14699 15d8 58000000 		.4byte	.LVL507
 14700 15dc 0100     		.2byte	0x1
 14701 15de 50       		.byte	0x50
 14702 15df 00000000 		.4byte	0
 14703 15e3 00000000 		.4byte	0
 14704              	.LLST93:
 14705 15e7 00000000 		.4byte	.LVL508
 14706 15eb 1C000000 		.4byte	.LVL510
 14707 15ef 0100     		.2byte	0x1
 14708 15f1 50       		.byte	0x50
 14709 15f2 1C000000 		.4byte	.LVL510
 14710 15f6 36000000 		.4byte	.LVL515
 14711 15fa 0100     		.2byte	0x1
 14712 15fc 55       		.byte	0x55
 14713 15fd 36000000 		.4byte	.LVL515
 14714 1601 3C000000 		.4byte	.LVL516
 14715 1605 0100     		.2byte	0x1
ARM GAS  C:\Users\CHRONI~1\AppData\Local\Temp\cc7oUGua.s 			page 309


 14716 1607 50       		.byte	0x50
 14717 1608 3C000000 		.4byte	.LVL516
 14718 160c 48000000 		.4byte	.LFE29
 14719 1610 0400     		.2byte	0x4
 14720 1612 F3       		.byte	0xf3
 14721 1613 01       		.uleb128 0x1
 14722 1614 50       		.byte	0x50
 14723 1615 9F       		.byte	0x9f
 14724 1616 00000000 		.4byte	0
 14725 161a 00000000 		.4byte	0
 14726              	.LLST94:
 14727 161e 00000000 		.4byte	.LVL508
 14728 1622 1A000000 		.4byte	.LVL509
 14729 1626 0100     		.2byte	0x1
 14730 1628 51       		.byte	0x51
 14731 1629 1A000000 		.4byte	.LVL509
 14732 162d 36000000 		.4byte	.LVL515
 14733 1631 0100     		.2byte	0x1
 14734 1633 56       		.byte	0x56
 14735 1634 36000000 		.4byte	.LVL515
 14736 1638 3C000000 		.4byte	.LVL516
 14737 163c 0100     		.2byte	0x1
 14738 163e 51       		.byte	0x51
 14739 163f 3C000000 		.4byte	.LVL516
 14740 1643 48000000 		.4byte	.LFE29
 14741 1647 0400     		.2byte	0x4
 14742 1649 F3       		.byte	0xf3
 14743 164a 01       		.uleb128 0x1
 14744 164b 51       		.byte	0x51
 14745 164c 9F       		.byte	0x9f
 14746 164d 00000000 		.4byte	0
 14747 1651 00000000 		.4byte	0
 14748              	.LLST95:
 14749 1655 1E000000 		.4byte	.LVL511
 14750 1659 24000000 		.4byte	.LVL512
 14751 165d 0100     		.2byte	0x1
 14752 165f 50       		.byte	0x50
 14753 1660 28000000 		.4byte	.LVL514
 14754 1664 36000000 		.4byte	.LVL515
 14755 1668 0100     		.2byte	0x1
 14756 166a 50       		.byte	0x50
 14757 166b 00000000 		.4byte	0
 14758 166f 00000000 		.4byte	0
 14759              	.LLST96:
 14760 1673 00000000 		.4byte	.LVL517
 14761 1677 1C000000 		.4byte	.LVL519
 14762 167b 0100     		.2byte	0x1
 14763 167d 50       		.byte	0x50
 14764 167e 1C000000 		.4byte	.LVL519
 14765 1682 4E000000 		.4byte	.LVL528
 14766 1686 0100     		.2byte	0x1
 14767 1688 55       		.byte	0x55
 14768 1689 4E000000 		.4byte	.LVL528
 14769 168d 56000000 		.4byte	.LVL529
 14770 1691 0100     		.2byte	0x1
 14771 1693 50       		.byte	0x50
 14772 1694 56000000 		.4byte	.LVL529
ARM GAS  C:\Users\CHRONI~1\AppData\Local\Temp\cc7oUGua.s 			page 310


 14773 1698 58000000 		.4byte	.LVL530
 14774 169c 0100     		.2byte	0x1
 14775 169e 55       		.byte	0x55
 14776 169f 58000000 		.4byte	.LVL530
 14777 16a3 68000000 		.4byte	.LFE30
 14778 16a7 0400     		.2byte	0x4
 14779 16a9 F3       		.byte	0xf3
 14780 16aa 01       		.uleb128 0x1
 14781 16ab 50       		.byte	0x50
 14782 16ac 9F       		.byte	0x9f
 14783 16ad 00000000 		.4byte	0
 14784 16b1 00000000 		.4byte	0
 14785              	.LLST97:
 14786 16b5 00000000 		.4byte	.LVL517
 14787 16b9 1A000000 		.4byte	.LVL518
 14788 16bd 0100     		.2byte	0x1
 14789 16bf 51       		.byte	0x51
 14790 16c0 1A000000 		.4byte	.LVL518
 14791 16c4 4E000000 		.4byte	.LVL528
 14792 16c8 0400     		.2byte	0x4
 14793 16ca F3       		.byte	0xf3
 14794 16cb 01       		.uleb128 0x1
 14795 16cc 51       		.byte	0x51
 14796 16cd 9F       		.byte	0x9f
 14797 16ce 4E000000 		.4byte	.LVL528
 14798 16d2 56000000 		.4byte	.LVL529
 14799 16d6 0100     		.2byte	0x1
 14800 16d8 51       		.byte	0x51
 14801 16d9 56000000 		.4byte	.LVL529
 14802 16dd 68000000 		.4byte	.LFE30
 14803 16e1 0400     		.2byte	0x4
 14804 16e3 F3       		.byte	0xf3
 14805 16e4 01       		.uleb128 0x1
 14806 16e5 51       		.byte	0x51
 14807 16e6 9F       		.byte	0x9f
 14808 16e7 00000000 		.4byte	0
 14809 16eb 00000000 		.4byte	0
 14810              	.LLST98:
 14811 16ef 1E000000 		.4byte	.LVL520
 14812 16f3 24000000 		.4byte	.LVL521
 14813 16f7 0100     		.2byte	0x1
 14814 16f9 50       		.byte	0x50
 14815 16fa 28000000 		.4byte	.LVL523
 14816 16fe 42000000 		.4byte	.LVL524
 14817 1702 0100     		.2byte	0x1
 14818 1704 50       		.byte	0x50
 14819 1705 44000000 		.4byte	.LVL525
 14820 1709 4A000000 		.4byte	.LVL526
 14821 170d 0100     		.2byte	0x1
 14822 170f 50       		.byte	0x50
 14823 1710 56000000 		.4byte	.LVL529
 14824 1714 58000000 		.4byte	.LVL530
 14825 1718 0100     		.2byte	0x1
 14826 171a 50       		.byte	0x50
 14827 171b 00000000 		.4byte	0
 14828 171f 00000000 		.4byte	0
 14829              	.LLST99:
ARM GAS  C:\Users\CHRONI~1\AppData\Local\Temp\cc7oUGua.s 			page 311


 14830 1723 00000000 		.4byte	.LVL531
 14831 1727 1C000000 		.4byte	.LVL533
 14832 172b 0100     		.2byte	0x1
 14833 172d 50       		.byte	0x50
 14834 172e 1C000000 		.4byte	.LVL533
 14835 1732 36000000 		.4byte	.LVL538
 14836 1736 0100     		.2byte	0x1
 14837 1738 55       		.byte	0x55
 14838 1739 36000000 		.4byte	.LVL538
 14839 173d 3C000000 		.4byte	.LVL539
 14840 1741 0100     		.2byte	0x1
 14841 1743 50       		.byte	0x50
 14842 1744 3C000000 		.4byte	.LVL539
 14843 1748 48000000 		.4byte	.LFE31
 14844 174c 0400     		.2byte	0x4
 14845 174e F3       		.byte	0xf3
 14846 174f 01       		.uleb128 0x1
 14847 1750 50       		.byte	0x50
 14848 1751 9F       		.byte	0x9f
 14849 1752 00000000 		.4byte	0
 14850 1756 00000000 		.4byte	0
 14851              	.LLST100:
 14852 175a 00000000 		.4byte	.LVL531
 14853 175e 1A000000 		.4byte	.LVL532
 14854 1762 0100     		.2byte	0x1
 14855 1764 51       		.byte	0x51
 14856 1765 1A000000 		.4byte	.LVL532
 14857 1769 36000000 		.4byte	.LVL538
 14858 176d 0100     		.2byte	0x1
 14859 176f 56       		.byte	0x56
 14860 1770 36000000 		.4byte	.LVL538
 14861 1774 3C000000 		.4byte	.LVL539
 14862 1778 0100     		.2byte	0x1
 14863 177a 51       		.byte	0x51
 14864 177b 3C000000 		.4byte	.LVL539
 14865 177f 48000000 		.4byte	.LFE31
 14866 1783 0400     		.2byte	0x4
 14867 1785 F3       		.byte	0xf3
 14868 1786 01       		.uleb128 0x1
 14869 1787 51       		.byte	0x51
 14870 1788 9F       		.byte	0x9f
 14871 1789 00000000 		.4byte	0
 14872 178d 00000000 		.4byte	0
 14873              	.LLST101:
 14874 1791 1E000000 		.4byte	.LVL534
 14875 1795 24000000 		.4byte	.LVL535
 14876 1799 0100     		.2byte	0x1
 14877 179b 50       		.byte	0x50
 14878 179c 28000000 		.4byte	.LVL537
 14879 17a0 36000000 		.4byte	.LVL538
 14880 17a4 0100     		.2byte	0x1
 14881 17a6 50       		.byte	0x50
 14882 17a7 00000000 		.4byte	0
 14883 17ab 00000000 		.4byte	0
 14884              	.LLST102:
 14885 17af 00000000 		.4byte	.LVL540
 14886 17b3 1C000000 		.4byte	.LVL542
ARM GAS  C:\Users\CHRONI~1\AppData\Local\Temp\cc7oUGua.s 			page 312


 14887 17b7 0100     		.2byte	0x1
 14888 17b9 50       		.byte	0x50
 14889 17ba 1C000000 		.4byte	.LVL542
 14890 17be 4C000000 		.4byte	.LVL551
 14891 17c2 0100     		.2byte	0x1
 14892 17c4 55       		.byte	0x55
 14893 17c5 4C000000 		.4byte	.LVL551
 14894 17c9 54000000 		.4byte	.LVL552
 14895 17cd 0100     		.2byte	0x1
 14896 17cf 50       		.byte	0x50
 14897 17d0 54000000 		.4byte	.LVL552
 14898 17d4 56000000 		.4byte	.LVL553
 14899 17d8 0100     		.2byte	0x1
 14900 17da 55       		.byte	0x55
 14901 17db 56000000 		.4byte	.LVL553
 14902 17df 64000000 		.4byte	.LFE32
 14903 17e3 0400     		.2byte	0x4
 14904 17e5 F3       		.byte	0xf3
 14905 17e6 01       		.uleb128 0x1
 14906 17e7 50       		.byte	0x50
 14907 17e8 9F       		.byte	0x9f
 14908 17e9 00000000 		.4byte	0
 14909 17ed 00000000 		.4byte	0
 14910              	.LLST103:
 14911 17f1 00000000 		.4byte	.LVL540
 14912 17f5 1A000000 		.4byte	.LVL541
 14913 17f9 0100     		.2byte	0x1
 14914 17fb 51       		.byte	0x51
 14915 17fc 1A000000 		.4byte	.LVL541
 14916 1800 4C000000 		.4byte	.LVL551
 14917 1804 0400     		.2byte	0x4
 14918 1806 F3       		.byte	0xf3
 14919 1807 01       		.uleb128 0x1
 14920 1808 51       		.byte	0x51
 14921 1809 9F       		.byte	0x9f
 14922 180a 4C000000 		.4byte	.LVL551
 14923 180e 54000000 		.4byte	.LVL552
 14924 1812 0100     		.2byte	0x1
 14925 1814 51       		.byte	0x51
 14926 1815 54000000 		.4byte	.LVL552
 14927 1819 64000000 		.4byte	.LFE32
 14928 181d 0400     		.2byte	0x4
 14929 181f F3       		.byte	0xf3
 14930 1820 01       		.uleb128 0x1
 14931 1821 51       		.byte	0x51
 14932 1822 9F       		.byte	0x9f
 14933 1823 00000000 		.4byte	0
 14934 1827 00000000 		.4byte	0
 14935              	.LLST104:
 14936 182b 1E000000 		.4byte	.LVL543
 14937 182f 24000000 		.4byte	.LVL544
 14938 1833 0100     		.2byte	0x1
 14939 1835 50       		.byte	0x50
 14940 1836 28000000 		.4byte	.LVL546
 14941 183a 40000000 		.4byte	.LVL547
 14942 183e 0100     		.2byte	0x1
 14943 1840 50       		.byte	0x50
ARM GAS  C:\Users\CHRONI~1\AppData\Local\Temp\cc7oUGua.s 			page 313


 14944 1841 42000000 		.4byte	.LVL548
 14945 1845 48000000 		.4byte	.LVL549
 14946 1849 0100     		.2byte	0x1
 14947 184b 50       		.byte	0x50
 14948 184c 54000000 		.4byte	.LVL552
 14949 1850 56000000 		.4byte	.LVL553
 14950 1854 0100     		.2byte	0x1
 14951 1856 50       		.byte	0x50
 14952 1857 00000000 		.4byte	0
 14953 185b 00000000 		.4byte	0
 14954              	.LLST105:
 14955 185f 00000000 		.4byte	.LVL554
 14956 1863 1C000000 		.4byte	.LVL556
 14957 1867 0100     		.2byte	0x1
 14958 1869 50       		.byte	0x50
 14959 186a 1C000000 		.4byte	.LVL556
 14960 186e 36000000 		.4byte	.LVL561
 14961 1872 0100     		.2byte	0x1
 14962 1874 55       		.byte	0x55
 14963 1875 36000000 		.4byte	.LVL561
 14964 1879 3C000000 		.4byte	.LVL562
 14965 187d 0100     		.2byte	0x1
 14966 187f 50       		.byte	0x50
 14967 1880 3C000000 		.4byte	.LVL562
 14968 1884 48000000 		.4byte	.LFE33
 14969 1888 0400     		.2byte	0x4
 14970 188a F3       		.byte	0xf3
 14971 188b 01       		.uleb128 0x1
 14972 188c 50       		.byte	0x50
 14973 188d 9F       		.byte	0x9f
 14974 188e 00000000 		.4byte	0
 14975 1892 00000000 		.4byte	0
 14976              	.LLST106:
 14977 1896 00000000 		.4byte	.LVL554
 14978 189a 1A000000 		.4byte	.LVL555
 14979 189e 0100     		.2byte	0x1
 14980 18a0 51       		.byte	0x51
 14981 18a1 1A000000 		.4byte	.LVL555
 14982 18a5 36000000 		.4byte	.LVL561
 14983 18a9 0100     		.2byte	0x1
 14984 18ab 56       		.byte	0x56
 14985 18ac 36000000 		.4byte	.LVL561
 14986 18b0 3C000000 		.4byte	.LVL562
 14987 18b4 0100     		.2byte	0x1
 14988 18b6 51       		.byte	0x51
 14989 18b7 3C000000 		.4byte	.LVL562
 14990 18bb 48000000 		.4byte	.LFE33
 14991 18bf 0400     		.2byte	0x4
 14992 18c1 F3       		.byte	0xf3
 14993 18c2 01       		.uleb128 0x1
 14994 18c3 51       		.byte	0x51
 14995 18c4 9F       		.byte	0x9f
 14996 18c5 00000000 		.4byte	0
 14997 18c9 00000000 		.4byte	0
 14998              	.LLST107:
 14999 18cd 1E000000 		.4byte	.LVL557
 15000 18d1 24000000 		.4byte	.LVL558
ARM GAS  C:\Users\CHRONI~1\AppData\Local\Temp\cc7oUGua.s 			page 314


 15001 18d5 0100     		.2byte	0x1
 15002 18d7 50       		.byte	0x50
 15003 18d8 28000000 		.4byte	.LVL560
 15004 18dc 36000000 		.4byte	.LVL561
 15005 18e0 0100     		.2byte	0x1
 15006 18e2 50       		.byte	0x50
 15007 18e3 00000000 		.4byte	0
 15008 18e7 00000000 		.4byte	0
 15009              	.LLST108:
 15010 18eb 00000000 		.4byte	.LVL563
 15011 18ef 1E000000 		.4byte	.LVL565
 15012 18f3 0100     		.2byte	0x1
 15013 18f5 50       		.byte	0x50
 15014 18f6 1E000000 		.4byte	.LVL565
 15015 18fa 2A000000 		.4byte	.LVL569
 15016 18fe 0100     		.2byte	0x1
 15017 1900 55       		.byte	0x55
 15018 1901 2A000000 		.4byte	.LVL569
 15019 1905 32000000 		.4byte	.LVL570
 15020 1909 0100     		.2byte	0x1
 15021 190b 50       		.byte	0x50
 15022 190c 32000000 		.4byte	.LVL570
 15023 1910 34000000 		.4byte	.LVL571
 15024 1914 0100     		.2byte	0x1
 15025 1916 55       		.byte	0x55
 15026 1917 34000000 		.4byte	.LVL571
 15027 191b 40000000 		.4byte	.LFE34
 15028 191f 0400     		.2byte	0x4
 15029 1921 F3       		.byte	0xf3
 15030 1922 01       		.uleb128 0x1
 15031 1923 50       		.byte	0x50
 15032 1924 9F       		.byte	0x9f
 15033 1925 00000000 		.4byte	0
 15034 1929 00000000 		.4byte	0
 15035              	.LLST109:
 15036 192d 00000000 		.4byte	.LVL563
 15037 1931 1C000000 		.4byte	.LVL564
 15038 1935 0100     		.2byte	0x1
 15039 1937 51       		.byte	0x51
 15040 1938 1C000000 		.4byte	.LVL564
 15041 193c 1F000000 		.4byte	.LVL566-1
 15042 1940 0200     		.2byte	0x2
 15043 1942 72       		.byte	0x72
 15044 1943 00       		.sleb128 0
 15045 1944 1F000000 		.4byte	.LVL566-1
 15046 1948 2A000000 		.4byte	.LVL569
 15047 194c 0200     		.2byte	0x2
 15048 194e 91       		.byte	0x91
 15049 194f 6F       		.sleb128 -17
 15050 1950 2A000000 		.4byte	.LVL569
 15051 1954 32000000 		.4byte	.LVL570
 15052 1958 0100     		.2byte	0x1
 15053 195a 51       		.byte	0x51
 15054 195b 32000000 		.4byte	.LVL570
 15055 195f 3A000000 		.4byte	.LVL572
 15056 1963 0200     		.2byte	0x2
 15057 1965 91       		.byte	0x91
ARM GAS  C:\Users\CHRONI~1\AppData\Local\Temp\cc7oUGua.s 			page 315


 15058 1966 6F       		.sleb128 -17
 15059 1967 3A000000 		.4byte	.LVL572
 15060 196b 40000000 		.4byte	.LFE34
 15061 196f 0200     		.2byte	0x2
 15062 1971 7D       		.byte	0x7d
 15063 1972 6F       		.sleb128 -17
 15064 1973 00000000 		.4byte	0
 15065 1977 00000000 		.4byte	0
 15066              	.LLST110:
 15067 197b 20000000 		.4byte	.LVL566
 15068 197f 26000000 		.4byte	.LVL567
 15069 1983 0100     		.2byte	0x1
 15070 1985 50       		.byte	0x50
 15071 1986 32000000 		.4byte	.LVL570
 15072 198a 34000000 		.4byte	.LVL571
 15073 198e 0100     		.2byte	0x1
 15074 1990 50       		.byte	0x50
 15075 1991 00000000 		.4byte	0
 15076 1995 00000000 		.4byte	0
 15077              	.LLST111:
 15078 1999 00000000 		.4byte	.LVL573
 15079 199d 16000000 		.4byte	.LVL575
 15080 19a1 0100     		.2byte	0x1
 15081 19a3 50       		.byte	0x50
 15082 19a4 16000000 		.4byte	.LVL575
 15083 19a8 22000000 		.4byte	.LVL579
 15084 19ac 0100     		.2byte	0x1
 15085 19ae 55       		.byte	0x55
 15086 19af 22000000 		.4byte	.LVL579
 15087 19b3 2A000000 		.4byte	.LVL580
 15088 19b7 0100     		.2byte	0x1
 15089 19b9 50       		.byte	0x50
 15090 19ba 2A000000 		.4byte	.LVL580
 15091 19be 2C000000 		.4byte	.LVL581
 15092 19c2 0100     		.2byte	0x1
 15093 19c4 55       		.byte	0x55
 15094 19c5 2C000000 		.4byte	.LVL581
 15095 19c9 34000000 		.4byte	.LFE35
 15096 19cd 0400     		.2byte	0x4
 15097 19cf F3       		.byte	0xf3
 15098 19d0 01       		.uleb128 0x1
 15099 19d1 50       		.byte	0x50
 15100 19d2 9F       		.byte	0x9f
 15101 19d3 00000000 		.4byte	0
 15102 19d7 00000000 		.4byte	0
 15103              	.LLST112:
 15104 19db 00000000 		.4byte	.LVL573
 15105 19df 14000000 		.4byte	.LVL574
 15106 19e3 0100     		.2byte	0x1
 15107 19e5 51       		.byte	0x51
 15108 19e6 14000000 		.4byte	.LVL574
 15109 19ea 17000000 		.4byte	.LVL576-1
 15110 19ee 0100     		.2byte	0x1
 15111 19f0 52       		.byte	0x52
 15112 19f1 17000000 		.4byte	.LVL576-1
 15113 19f5 22000000 		.4byte	.LVL579
 15114 19f9 0400     		.2byte	0x4
ARM GAS  C:\Users\CHRONI~1\AppData\Local\Temp\cc7oUGua.s 			page 316


 15115 19fb F3       		.byte	0xf3
 15116 19fc 01       		.uleb128 0x1
 15117 19fd 51       		.byte	0x51
 15118 19fe 9F       		.byte	0x9f
 15119 19ff 22000000 		.4byte	.LVL579
 15120 1a03 2A000000 		.4byte	.LVL580
 15121 1a07 0100     		.2byte	0x1
 15122 1a09 51       		.byte	0x51
 15123 1a0a 2A000000 		.4byte	.LVL580
 15124 1a0e 34000000 		.4byte	.LFE35
 15125 1a12 0400     		.2byte	0x4
 15126 1a14 F3       		.byte	0xf3
 15127 1a15 01       		.uleb128 0x1
 15128 1a16 51       		.byte	0x51
 15129 1a17 9F       		.byte	0x9f
 15130 1a18 00000000 		.4byte	0
 15131 1a1c 00000000 		.4byte	0
 15132              	.LLST113:
 15133 1a20 18000000 		.4byte	.LVL576
 15134 1a24 1E000000 		.4byte	.LVL577
 15135 1a28 0100     		.2byte	0x1
 15136 1a2a 50       		.byte	0x50
 15137 1a2b 2A000000 		.4byte	.LVL580
 15138 1a2f 2C000000 		.4byte	.LVL581
 15139 1a33 0100     		.2byte	0x1
 15140 1a35 50       		.byte	0x50
 15141 1a36 00000000 		.4byte	0
 15142 1a3a 00000000 		.4byte	0
 15143              	.LLST114:
 15144 1a3e 00000000 		.4byte	.LVL582
 15145 1a42 1E000000 		.4byte	.LVL584
 15146 1a46 0100     		.2byte	0x1
 15147 1a48 50       		.byte	0x50
 15148 1a49 1E000000 		.4byte	.LVL584
 15149 1a4d 2A000000 		.4byte	.LVL588
 15150 1a51 0100     		.2byte	0x1
 15151 1a53 55       		.byte	0x55
 15152 1a54 2A000000 		.4byte	.LVL588
 15153 1a58 32000000 		.4byte	.LVL589
 15154 1a5c 0100     		.2byte	0x1
 15155 1a5e 50       		.byte	0x50
 15156 1a5f 32000000 		.4byte	.LVL589
 15157 1a63 34000000 		.4byte	.LVL590
 15158 1a67 0100     		.2byte	0x1
 15159 1a69 55       		.byte	0x55
 15160 1a6a 34000000 		.4byte	.LVL590
 15161 1a6e 40000000 		.4byte	.LFE36
 15162 1a72 0400     		.2byte	0x4
 15163 1a74 F3       		.byte	0xf3
 15164 1a75 01       		.uleb128 0x1
 15165 1a76 50       		.byte	0x50
 15166 1a77 9F       		.byte	0x9f
 15167 1a78 00000000 		.4byte	0
 15168 1a7c 00000000 		.4byte	0
 15169              	.LLST115:
 15170 1a80 00000000 		.4byte	.LVL582
 15171 1a84 1C000000 		.4byte	.LVL583
ARM GAS  C:\Users\CHRONI~1\AppData\Local\Temp\cc7oUGua.s 			page 317


 15172 1a88 0100     		.2byte	0x1
 15173 1a8a 51       		.byte	0x51
 15174 1a8b 1C000000 		.4byte	.LVL583
 15175 1a8f 1F000000 		.4byte	.LVL585-1
 15176 1a93 0200     		.2byte	0x2
 15177 1a95 72       		.byte	0x72
 15178 1a96 00       		.sleb128 0
 15179 1a97 1F000000 		.4byte	.LVL585-1
 15180 1a9b 2A000000 		.4byte	.LVL588
 15181 1a9f 0200     		.2byte	0x2
 15182 1aa1 91       		.byte	0x91
 15183 1aa2 6F       		.sleb128 -17
 15184 1aa3 2A000000 		.4byte	.LVL588
 15185 1aa7 32000000 		.4byte	.LVL589
 15186 1aab 0100     		.2byte	0x1
 15187 1aad 51       		.byte	0x51
 15188 1aae 32000000 		.4byte	.LVL589
 15189 1ab2 3A000000 		.4byte	.LVL591
 15190 1ab6 0200     		.2byte	0x2
 15191 1ab8 91       		.byte	0x91
 15192 1ab9 6F       		.sleb128 -17
 15193 1aba 3A000000 		.4byte	.LVL591
 15194 1abe 40000000 		.4byte	.LFE36
 15195 1ac2 0200     		.2byte	0x2
 15196 1ac4 7D       		.byte	0x7d
 15197 1ac5 6F       		.sleb128 -17
 15198 1ac6 00000000 		.4byte	0
 15199 1aca 00000000 		.4byte	0
 15200              	.LLST116:
 15201 1ace 20000000 		.4byte	.LVL585
 15202 1ad2 26000000 		.4byte	.LVL586
 15203 1ad6 0100     		.2byte	0x1
 15204 1ad8 50       		.byte	0x50
 15205 1ad9 32000000 		.4byte	.LVL589
 15206 1add 34000000 		.4byte	.LVL590
 15207 1ae1 0100     		.2byte	0x1
 15208 1ae3 50       		.byte	0x50
 15209 1ae4 00000000 		.4byte	0
 15210 1ae8 00000000 		.4byte	0
 15211              	.LLST117:
 15212 1aec 00000000 		.4byte	.LVL592
 15213 1af0 16000000 		.4byte	.LVL594
 15214 1af4 0100     		.2byte	0x1
 15215 1af6 50       		.byte	0x50
 15216 1af7 16000000 		.4byte	.LVL594
 15217 1afb 22000000 		.4byte	.LVL598
 15218 1aff 0100     		.2byte	0x1
 15219 1b01 55       		.byte	0x55
 15220 1b02 22000000 		.4byte	.LVL598
 15221 1b06 2A000000 		.4byte	.LVL599
 15222 1b0a 0100     		.2byte	0x1
 15223 1b0c 50       		.byte	0x50
 15224 1b0d 2A000000 		.4byte	.LVL599
 15225 1b11 2C000000 		.4byte	.LVL600
 15226 1b15 0100     		.2byte	0x1
 15227 1b17 55       		.byte	0x55
 15228 1b18 2C000000 		.4byte	.LVL600
ARM GAS  C:\Users\CHRONI~1\AppData\Local\Temp\cc7oUGua.s 			page 318


 15229 1b1c 34000000 		.4byte	.LFE37
 15230 1b20 0400     		.2byte	0x4
 15231 1b22 F3       		.byte	0xf3
 15232 1b23 01       		.uleb128 0x1
 15233 1b24 50       		.byte	0x50
 15234 1b25 9F       		.byte	0x9f
 15235 1b26 00000000 		.4byte	0
 15236 1b2a 00000000 		.4byte	0
 15237              	.LLST118:
 15238 1b2e 00000000 		.4byte	.LVL592
 15239 1b32 14000000 		.4byte	.LVL593
 15240 1b36 0100     		.2byte	0x1
 15241 1b38 51       		.byte	0x51
 15242 1b39 14000000 		.4byte	.LVL593
 15243 1b3d 17000000 		.4byte	.LVL595-1
 15244 1b41 0100     		.2byte	0x1
 15245 1b43 52       		.byte	0x52
 15246 1b44 17000000 		.4byte	.LVL595-1
 15247 1b48 22000000 		.4byte	.LVL598
 15248 1b4c 0400     		.2byte	0x4
 15249 1b4e F3       		.byte	0xf3
 15250 1b4f 01       		.uleb128 0x1
 15251 1b50 51       		.byte	0x51
 15252 1b51 9F       		.byte	0x9f
 15253 1b52 22000000 		.4byte	.LVL598
 15254 1b56 2A000000 		.4byte	.LVL599
 15255 1b5a 0100     		.2byte	0x1
 15256 1b5c 51       		.byte	0x51
 15257 1b5d 2A000000 		.4byte	.LVL599
 15258 1b61 34000000 		.4byte	.LFE37
 15259 1b65 0400     		.2byte	0x4
 15260 1b67 F3       		.byte	0xf3
 15261 1b68 01       		.uleb128 0x1
 15262 1b69 51       		.byte	0x51
 15263 1b6a 9F       		.byte	0x9f
 15264 1b6b 00000000 		.4byte	0
 15265 1b6f 00000000 		.4byte	0
 15266              	.LLST119:
 15267 1b73 18000000 		.4byte	.LVL595
 15268 1b77 1E000000 		.4byte	.LVL596
 15269 1b7b 0100     		.2byte	0x1
 15270 1b7d 50       		.byte	0x50
 15271 1b7e 2A000000 		.4byte	.LVL599
 15272 1b82 2C000000 		.4byte	.LVL600
 15273 1b86 0100     		.2byte	0x1
 15274 1b88 50       		.byte	0x50
 15275 1b89 00000000 		.4byte	0
 15276 1b8d 00000000 		.4byte	0
 15277              	.LLST120:
 15278 1b91 00000000 		.4byte	.LVL601
 15279 1b95 24000000 		.4byte	.LVL604
 15280 1b99 0100     		.2byte	0x1
 15281 1b9b 50       		.byte	0x50
 15282 1b9c 24000000 		.4byte	.LVL604
 15283 1ba0 56000000 		.4byte	.LVL613
 15284 1ba4 0100     		.2byte	0x1
 15285 1ba6 55       		.byte	0x55
ARM GAS  C:\Users\CHRONI~1\AppData\Local\Temp\cc7oUGua.s 			page 319


 15286 1ba7 56000000 		.4byte	.LVL613
 15287 1bab 66000000 		.4byte	.LVL616
 15288 1baf 0100     		.2byte	0x1
 15289 1bb1 50       		.byte	0x50
 15290 1bb2 66000000 		.4byte	.LVL616
 15291 1bb6 9A000000 		.4byte	.LVL625
 15292 1bba 0100     		.2byte	0x1
 15293 1bbc 55       		.byte	0x55
 15294 1bbd 9A000000 		.4byte	.LVL625
 15295 1bc1 AA000000 		.4byte	.LVL628
 15296 1bc5 0100     		.2byte	0x1
 15297 1bc7 50       		.byte	0x50
 15298 1bc8 AA000000 		.4byte	.LVL628
 15299 1bcc DC000000 		.4byte	.LVL637
 15300 1bd0 0100     		.2byte	0x1
 15301 1bd2 55       		.byte	0x55
 15302 1bd3 DC000000 		.4byte	.LVL637
 15303 1bd7 EC000000 		.4byte	.LVL640
 15304 1bdb 0100     		.2byte	0x1
 15305 1bdd 50       		.byte	0x50
 15306 1bde EC000000 		.4byte	.LVL640
 15307 1be2 1E010000 		.4byte	.LVL649
 15308 1be6 0100     		.2byte	0x1
 15309 1be8 55       		.byte	0x55
 15310 1be9 1E010000 		.4byte	.LVL649
 15311 1bed 22010000 		.4byte	.LVL650
 15312 1bf1 0100     		.2byte	0x1
 15313 1bf3 50       		.byte	0x50
 15314 1bf4 22010000 		.4byte	.LVL650
 15315 1bf8 26010000 		.4byte	.LVL652
 15316 1bfc 0100     		.2byte	0x1
 15317 1bfe 55       		.byte	0x55
 15318 1bff 26010000 		.4byte	.LVL652
 15319 1c03 2E010000 		.4byte	.LVL653
 15320 1c07 0100     		.2byte	0x1
 15321 1c09 50       		.byte	0x50
 15322 1c0a 2E010000 		.4byte	.LVL653
 15323 1c0e 3C010000 		.4byte	.LVL654
 15324 1c12 0100     		.2byte	0x1
 15325 1c14 55       		.byte	0x55
 15326 1c15 3C010000 		.4byte	.LVL654
 15327 1c19 50010000 		.4byte	.LFE38
 15328 1c1d 0400     		.2byte	0x4
 15329 1c1f F3       		.byte	0xf3
 15330 1c20 01       		.uleb128 0x1
 15331 1c21 50       		.byte	0x50
 15332 1c22 9F       		.byte	0x9f
 15333 1c23 00000000 		.4byte	0
 15334 1c27 00000000 		.4byte	0
 15335              	.LLST121:
 15336 1c2b 00000000 		.4byte	.LVL601
 15337 1c2f 22000000 		.4byte	.LVL603
 15338 1c33 0100     		.2byte	0x1
 15339 1c35 51       		.byte	0x51
 15340 1c36 22000000 		.4byte	.LVL603
 15341 1c3a 56000000 		.4byte	.LVL613
 15342 1c3e 0400     		.2byte	0x4
ARM GAS  C:\Users\CHRONI~1\AppData\Local\Temp\cc7oUGua.s 			page 320


 15343 1c40 F3       		.byte	0xf3
 15344 1c41 01       		.uleb128 0x1
 15345 1c42 51       		.byte	0x51
 15346 1c43 9F       		.byte	0x9f
 15347 1c44 56000000 		.4byte	.LVL613
 15348 1c48 64000000 		.4byte	.LVL615
 15349 1c4c 0100     		.2byte	0x1
 15350 1c4e 51       		.byte	0x51
 15351 1c4f 64000000 		.4byte	.LVL615
 15352 1c53 9A000000 		.4byte	.LVL625
 15353 1c57 0400     		.2byte	0x4
 15354 1c59 F3       		.byte	0xf3
 15355 1c5a 01       		.uleb128 0x1
 15356 1c5b 51       		.byte	0x51
 15357 1c5c 9F       		.byte	0x9f
 15358 1c5d 9A000000 		.4byte	.LVL625
 15359 1c61 A8000000 		.4byte	.LVL627
 15360 1c65 0100     		.2byte	0x1
 15361 1c67 51       		.byte	0x51
 15362 1c68 A8000000 		.4byte	.LVL627
 15363 1c6c DC000000 		.4byte	.LVL637
 15364 1c70 0400     		.2byte	0x4
 15365 1c72 F3       		.byte	0xf3
 15366 1c73 01       		.uleb128 0x1
 15367 1c74 51       		.byte	0x51
 15368 1c75 9F       		.byte	0x9f
 15369 1c76 DC000000 		.4byte	.LVL637
 15370 1c7a EA000000 		.4byte	.LVL639
 15371 1c7e 0100     		.2byte	0x1
 15372 1c80 51       		.byte	0x51
 15373 1c81 EA000000 		.4byte	.LVL639
 15374 1c85 1E010000 		.4byte	.LVL649
 15375 1c89 0400     		.2byte	0x4
 15376 1c8b F3       		.byte	0xf3
 15377 1c8c 01       		.uleb128 0x1
 15378 1c8d 51       		.byte	0x51
 15379 1c8e 9F       		.byte	0x9f
 15380 1c8f 1E010000 		.4byte	.LVL649
 15381 1c93 23010000 		.4byte	.LVL651-1
 15382 1c97 0100     		.2byte	0x1
 15383 1c99 51       		.byte	0x51
 15384 1c9a 23010000 		.4byte	.LVL651-1
 15385 1c9e 26010000 		.4byte	.LVL652
 15386 1ca2 0400     		.2byte	0x4
 15387 1ca4 F3       		.byte	0xf3
 15388 1ca5 01       		.uleb128 0x1
 15389 1ca6 51       		.byte	0x51
 15390 1ca7 9F       		.byte	0x9f
 15391 1ca8 26010000 		.4byte	.LVL652
 15392 1cac 2E010000 		.4byte	.LVL653
 15393 1cb0 0100     		.2byte	0x1
 15394 1cb2 51       		.byte	0x51
 15395 1cb3 2E010000 		.4byte	.LVL653
 15396 1cb7 50010000 		.4byte	.LFE38
 15397 1cbb 0400     		.2byte	0x4
 15398 1cbd F3       		.byte	0xf3
 15399 1cbe 01       		.uleb128 0x1
ARM GAS  C:\Users\CHRONI~1\AppData\Local\Temp\cc7oUGua.s 			page 321


 15400 1cbf 51       		.byte	0x51
 15401 1cc0 9F       		.byte	0x9f
 15402 1cc1 00000000 		.4byte	0
 15403 1cc5 00000000 		.4byte	0
 15404              	.LLST122:
 15405 1cc9 00000000 		.4byte	.LVL601
 15406 1ccd 20000000 		.4byte	.LVL602
 15407 1cd1 0100     		.2byte	0x1
 15408 1cd3 52       		.byte	0x52
 15409 1cd4 20000000 		.4byte	.LVL602
 15410 1cd8 56000000 		.4byte	.LVL613
 15411 1cdc 0400     		.2byte	0x4
 15412 1cde F3       		.byte	0xf3
 15413 1cdf 01       		.uleb128 0x1
 15414 1ce0 52       		.byte	0x52
 15415 1ce1 9F       		.byte	0x9f
 15416 1ce2 56000000 		.4byte	.LVL613
 15417 1ce6 62000000 		.4byte	.LVL614
 15418 1cea 0100     		.2byte	0x1
 15419 1cec 52       		.byte	0x52
 15420 1ced 62000000 		.4byte	.LVL614
 15421 1cf1 9A000000 		.4byte	.LVL625
 15422 1cf5 0400     		.2byte	0x4
 15423 1cf7 F3       		.byte	0xf3
 15424 1cf8 01       		.uleb128 0x1
 15425 1cf9 52       		.byte	0x52
 15426 1cfa 9F       		.byte	0x9f
 15427 1cfb 9A000000 		.4byte	.LVL625
 15428 1cff A6000000 		.4byte	.LVL626
 15429 1d03 0100     		.2byte	0x1
 15430 1d05 52       		.byte	0x52
 15431 1d06 A6000000 		.4byte	.LVL626
 15432 1d0a DC000000 		.4byte	.LVL637
 15433 1d0e 0400     		.2byte	0x4
 15434 1d10 F3       		.byte	0xf3
 15435 1d11 01       		.uleb128 0x1
 15436 1d12 52       		.byte	0x52
 15437 1d13 9F       		.byte	0x9f
 15438 1d14 DC000000 		.4byte	.LVL637
 15439 1d18 E8000000 		.4byte	.LVL638
 15440 1d1c 0100     		.2byte	0x1
 15441 1d1e 52       		.byte	0x52
 15442 1d1f E8000000 		.4byte	.LVL638
 15443 1d23 1E010000 		.4byte	.LVL649
 15444 1d27 0400     		.2byte	0x4
 15445 1d29 F3       		.byte	0xf3
 15446 1d2a 01       		.uleb128 0x1
 15447 1d2b 52       		.byte	0x52
 15448 1d2c 9F       		.byte	0x9f
 15449 1d2d 1E010000 		.4byte	.LVL649
 15450 1d31 23010000 		.4byte	.LVL651-1
 15451 1d35 0100     		.2byte	0x1
 15452 1d37 52       		.byte	0x52
 15453 1d38 23010000 		.4byte	.LVL651-1
 15454 1d3c 26010000 		.4byte	.LVL652
 15455 1d40 0400     		.2byte	0x4
 15456 1d42 F3       		.byte	0xf3
ARM GAS  C:\Users\CHRONI~1\AppData\Local\Temp\cc7oUGua.s 			page 322


 15457 1d43 01       		.uleb128 0x1
 15458 1d44 52       		.byte	0x52
 15459 1d45 9F       		.byte	0x9f
 15460 1d46 26010000 		.4byte	.LVL652
 15461 1d4a 2E010000 		.4byte	.LVL653
 15462 1d4e 0100     		.2byte	0x1
 15463 1d50 52       		.byte	0x52
 15464 1d51 2E010000 		.4byte	.LVL653
 15465 1d55 50010000 		.4byte	.LFE38
 15466 1d59 0400     		.2byte	0x4
 15467 1d5b F3       		.byte	0xf3
 15468 1d5c 01       		.uleb128 0x1
 15469 1d5d 52       		.byte	0x52
 15470 1d5e 9F       		.byte	0x9f
 15471 1d5f 00000000 		.4byte	0
 15472 1d63 00000000 		.4byte	0
 15473              	.LLST123:
 15474 1d67 26000000 		.4byte	.LVL605
 15475 1d6b 2C000000 		.4byte	.LVL606
 15476 1d6f 0100     		.2byte	0x1
 15477 1d71 50       		.byte	0x50
 15478 1d72 30000000 		.4byte	.LVL608
 15479 1d76 48000000 		.4byte	.LVL609
 15480 1d7a 0100     		.2byte	0x1
 15481 1d7c 50       		.byte	0x50
 15482 1d7d 4A000000 		.4byte	.LVL610
 15483 1d81 52000000 		.4byte	.LVL611
 15484 1d85 0100     		.2byte	0x1
 15485 1d87 50       		.byte	0x50
 15486 1d88 68000000 		.4byte	.LVL617
 15487 1d8c 6E000000 		.4byte	.LVL618
 15488 1d90 0100     		.2byte	0x1
 15489 1d92 50       		.byte	0x50
 15490 1d93 72000000 		.4byte	.LVL620
 15491 1d97 8C000000 		.4byte	.LVL621
 15492 1d9b 0100     		.2byte	0x1
 15493 1d9d 50       		.byte	0x50
 15494 1d9e 8E000000 		.4byte	.LVL622
 15495 1da2 96000000 		.4byte	.LVL623
 15496 1da6 0100     		.2byte	0x1
 15497 1da8 50       		.byte	0x50
 15498 1da9 AC000000 		.4byte	.LVL629
 15499 1dad B2000000 		.4byte	.LVL630
 15500 1db1 0100     		.2byte	0x1
 15501 1db3 50       		.byte	0x50
 15502 1db4 B6000000 		.4byte	.LVL632
 15503 1db8 CE000000 		.4byte	.LVL633
 15504 1dbc 0100     		.2byte	0x1
 15505 1dbe 50       		.byte	0x50
 15506 1dbf D0000000 		.4byte	.LVL634
 15507 1dc3 D8000000 		.4byte	.LVL635
 15508 1dc7 0100     		.2byte	0x1
 15509 1dc9 50       		.byte	0x50
 15510 1dca EE000000 		.4byte	.LVL641
 15511 1dce F4000000 		.4byte	.LVL642
 15512 1dd2 0100     		.2byte	0x1
 15513 1dd4 50       		.byte	0x50
ARM GAS  C:\Users\CHRONI~1\AppData\Local\Temp\cc7oUGua.s 			page 323


 15514 1dd5 F8000000 		.4byte	.LVL644
 15515 1dd9 12010000 		.4byte	.LVL645
 15516 1ddd 0100     		.2byte	0x1
 15517 1ddf 50       		.byte	0x50
 15518 1de0 14010000 		.4byte	.LVL646
 15519 1de4 1A010000 		.4byte	.LVL647
 15520 1de8 0100     		.2byte	0x1
 15521 1dea 50       		.byte	0x50
 15522 1deb 2E010000 		.4byte	.LVL653
 15523 1def 3C010000 		.4byte	.LVL654
 15524 1df3 0100     		.2byte	0x1
 15525 1df5 50       		.byte	0x50
 15526 1df6 00000000 		.4byte	0
 15527 1dfa 00000000 		.4byte	0
 15528              	.LLST124:
 15529 1dfe 00000000 		.4byte	.LVL655
 15530 1e02 20000000 		.4byte	.LVL658
 15531 1e06 0100     		.2byte	0x1
 15532 1e08 50       		.byte	0x50
 15533 1e09 20000000 		.4byte	.LVL658
 15534 1e0d 3A000000 		.4byte	.LVL663
 15535 1e11 0100     		.2byte	0x1
 15536 1e13 55       		.byte	0x55
 15537 1e14 3A000000 		.4byte	.LVL663
 15538 1e18 4A000000 		.4byte	.LVL666
 15539 1e1c 0100     		.2byte	0x1
 15540 1e1e 50       		.byte	0x50
 15541 1e1f 4A000000 		.4byte	.LVL666
 15542 1e23 64000000 		.4byte	.LVL671
 15543 1e27 0100     		.2byte	0x1
 15544 1e29 55       		.byte	0x55
 15545 1e2a 64000000 		.4byte	.LVL671
 15546 1e2e 74000000 		.4byte	.LVL674
 15547 1e32 0100     		.2byte	0x1
 15548 1e34 50       		.byte	0x50
 15549 1e35 74000000 		.4byte	.LVL674
 15550 1e39 8E000000 		.4byte	.LVL679
 15551 1e3d 0100     		.2byte	0x1
 15552 1e3f 55       		.byte	0x55
 15553 1e40 8E000000 		.4byte	.LVL679
 15554 1e44 9E000000 		.4byte	.LVL682
 15555 1e48 0100     		.2byte	0x1
 15556 1e4a 50       		.byte	0x50
 15557 1e4b 9E000000 		.4byte	.LVL682
 15558 1e4f B8000000 		.4byte	.LVL687
 15559 1e53 0100     		.2byte	0x1
 15560 1e55 55       		.byte	0x55
 15561 1e56 B8000000 		.4byte	.LVL687
 15562 1e5a BC000000 		.4byte	.LVL688
 15563 1e5e 0100     		.2byte	0x1
 15564 1e60 50       		.byte	0x50
 15565 1e61 BC000000 		.4byte	.LVL688
 15566 1e65 C0000000 		.4byte	.LVL690
 15567 1e69 0100     		.2byte	0x1
 15568 1e6b 55       		.byte	0x55
 15569 1e6c C0000000 		.4byte	.LVL690
 15570 1e70 C6000000 		.4byte	.LVL691
ARM GAS  C:\Users\CHRONI~1\AppData\Local\Temp\cc7oUGua.s 			page 324


 15571 1e74 0100     		.2byte	0x1
 15572 1e76 50       		.byte	0x50
 15573 1e77 C6000000 		.4byte	.LVL691
 15574 1e7b D4000000 		.4byte	.LFE39
 15575 1e7f 0400     		.2byte	0x4
 15576 1e81 F3       		.byte	0xf3
 15577 1e82 01       		.uleb128 0x1
 15578 1e83 50       		.byte	0x50
 15579 1e84 9F       		.byte	0x9f
 15580 1e85 00000000 		.4byte	0
 15581 1e89 00000000 		.4byte	0
 15582              	.LLST125:
 15583 1e8d 00000000 		.4byte	.LVL655
 15584 1e91 1E000000 		.4byte	.LVL657
 15585 1e95 0100     		.2byte	0x1
 15586 1e97 51       		.byte	0x51
 15587 1e98 1E000000 		.4byte	.LVL657
 15588 1e9c 3A000000 		.4byte	.LVL663
 15589 1ea0 0400     		.2byte	0x4
 15590 1ea2 F3       		.byte	0xf3
 15591 1ea3 01       		.uleb128 0x1
 15592 1ea4 51       		.byte	0x51
 15593 1ea5 9F       		.byte	0x9f
 15594 1ea6 3A000000 		.4byte	.LVL663
 15595 1eaa 48000000 		.4byte	.LVL665
 15596 1eae 0100     		.2byte	0x1
 15597 1eb0 51       		.byte	0x51
 15598 1eb1 48000000 		.4byte	.LVL665
 15599 1eb5 64000000 		.4byte	.LVL671
 15600 1eb9 0400     		.2byte	0x4
 15601 1ebb F3       		.byte	0xf3
 15602 1ebc 01       		.uleb128 0x1
 15603 1ebd 51       		.byte	0x51
 15604 1ebe 9F       		.byte	0x9f
 15605 1ebf 64000000 		.4byte	.LVL671
 15606 1ec3 72000000 		.4byte	.LVL673
 15607 1ec7 0100     		.2byte	0x1
 15608 1ec9 51       		.byte	0x51
 15609 1eca 72000000 		.4byte	.LVL673
 15610 1ece 8E000000 		.4byte	.LVL679
 15611 1ed2 0400     		.2byte	0x4
 15612 1ed4 F3       		.byte	0xf3
 15613 1ed5 01       		.uleb128 0x1
 15614 1ed6 51       		.byte	0x51
 15615 1ed7 9F       		.byte	0x9f
 15616 1ed8 8E000000 		.4byte	.LVL679
 15617 1edc 9C000000 		.4byte	.LVL681
 15618 1ee0 0100     		.2byte	0x1
 15619 1ee2 51       		.byte	0x51
 15620 1ee3 9C000000 		.4byte	.LVL681
 15621 1ee7 B8000000 		.4byte	.LVL687
 15622 1eeb 0400     		.2byte	0x4
 15623 1eed F3       		.byte	0xf3
 15624 1eee 01       		.uleb128 0x1
 15625 1eef 51       		.byte	0x51
 15626 1ef0 9F       		.byte	0x9f
 15627 1ef1 B8000000 		.4byte	.LVL687
ARM GAS  C:\Users\CHRONI~1\AppData\Local\Temp\cc7oUGua.s 			page 325


 15628 1ef5 BD000000 		.4byte	.LVL689-1
 15629 1ef9 0100     		.2byte	0x1
 15630 1efb 51       		.byte	0x51
 15631 1efc BD000000 		.4byte	.LVL689-1
 15632 1f00 C0000000 		.4byte	.LVL690
 15633 1f04 0400     		.2byte	0x4
 15634 1f06 F3       		.byte	0xf3
 15635 1f07 01       		.uleb128 0x1
 15636 1f08 51       		.byte	0x51
 15637 1f09 9F       		.byte	0x9f
 15638 1f0a C0000000 		.4byte	.LVL690
 15639 1f0e C6000000 		.4byte	.LVL691
 15640 1f12 0100     		.2byte	0x1
 15641 1f14 51       		.byte	0x51
 15642 1f15 C6000000 		.4byte	.LVL691
 15643 1f19 D4000000 		.4byte	.LFE39
 15644 1f1d 0400     		.2byte	0x4
 15645 1f1f F3       		.byte	0xf3
 15646 1f20 01       		.uleb128 0x1
 15647 1f21 51       		.byte	0x51
 15648 1f22 9F       		.byte	0x9f
 15649 1f23 00000000 		.4byte	0
 15650 1f27 00000000 		.4byte	0
 15651              	.LLST126:
 15652 1f2b 00000000 		.4byte	.LVL655
 15653 1f2f 1C000000 		.4byte	.LVL656
 15654 1f33 0100     		.2byte	0x1
 15655 1f35 52       		.byte	0x52
 15656 1f36 1C000000 		.4byte	.LVL656
 15657 1f3a 3A000000 		.4byte	.LVL663
 15658 1f3e 0100     		.2byte	0x1
 15659 1f40 56       		.byte	0x56
 15660 1f41 3A000000 		.4byte	.LVL663
 15661 1f45 46000000 		.4byte	.LVL664
 15662 1f49 0100     		.2byte	0x1
 15663 1f4b 52       		.byte	0x52
 15664 1f4c 46000000 		.4byte	.LVL664
 15665 1f50 64000000 		.4byte	.LVL671
 15666 1f54 0100     		.2byte	0x1
 15667 1f56 56       		.byte	0x56
 15668 1f57 64000000 		.4byte	.LVL671
 15669 1f5b 70000000 		.4byte	.LVL672
 15670 1f5f 0100     		.2byte	0x1
 15671 1f61 52       		.byte	0x52
 15672 1f62 70000000 		.4byte	.LVL672
 15673 1f66 8E000000 		.4byte	.LVL679
 15674 1f6a 0100     		.2byte	0x1
 15675 1f6c 56       		.byte	0x56
 15676 1f6d 8E000000 		.4byte	.LVL679
 15677 1f71 9A000000 		.4byte	.LVL680
 15678 1f75 0100     		.2byte	0x1
 15679 1f77 52       		.byte	0x52
 15680 1f78 9A000000 		.4byte	.LVL680
 15681 1f7c B8000000 		.4byte	.LVL687
 15682 1f80 0100     		.2byte	0x1
 15683 1f82 56       		.byte	0x56
 15684 1f83 B8000000 		.4byte	.LVL687
ARM GAS  C:\Users\CHRONI~1\AppData\Local\Temp\cc7oUGua.s 			page 326


 15685 1f87 BD000000 		.4byte	.LVL689-1
 15686 1f8b 0100     		.2byte	0x1
 15687 1f8d 52       		.byte	0x52
 15688 1f8e BD000000 		.4byte	.LVL689-1
 15689 1f92 C0000000 		.4byte	.LVL690
 15690 1f96 0100     		.2byte	0x1
 15691 1f98 56       		.byte	0x56
 15692 1f99 C0000000 		.4byte	.LVL690
 15693 1f9d C6000000 		.4byte	.LVL691
 15694 1fa1 0100     		.2byte	0x1
 15695 1fa3 52       		.byte	0x52
 15696 1fa4 C6000000 		.4byte	.LVL691
 15697 1fa8 D4000000 		.4byte	.LFE39
 15698 1fac 0400     		.2byte	0x4
 15699 1fae F3       		.byte	0xf3
 15700 1faf 01       		.uleb128 0x1
 15701 1fb0 52       		.byte	0x52
 15702 1fb1 9F       		.byte	0x9f
 15703 1fb2 00000000 		.4byte	0
 15704 1fb6 00000000 		.4byte	0
 15705              	.LLST127:
 15706 1fba 22000000 		.4byte	.LVL659
 15707 1fbe 28000000 		.4byte	.LVL660
 15708 1fc2 0100     		.2byte	0x1
 15709 1fc4 50       		.byte	0x50
 15710 1fc5 2C000000 		.4byte	.LVL662
 15711 1fc9 3A000000 		.4byte	.LVL663
 15712 1fcd 0100     		.2byte	0x1
 15713 1fcf 50       		.byte	0x50
 15714 1fd0 4C000000 		.4byte	.LVL667
 15715 1fd4 52000000 		.4byte	.LVL668
 15716 1fd8 0100     		.2byte	0x1
 15717 1fda 50       		.byte	0x50
 15718 1fdb 56000000 		.4byte	.LVL670
 15719 1fdf 64000000 		.4byte	.LVL671
 15720 1fe3 0100     		.2byte	0x1
 15721 1fe5 50       		.byte	0x50
 15722 1fe6 76000000 		.4byte	.LVL675
 15723 1fea 7C000000 		.4byte	.LVL676
 15724 1fee 0100     		.2byte	0x1
 15725 1ff0 50       		.byte	0x50
 15726 1ff1 80000000 		.4byte	.LVL678
 15727 1ff5 8E000000 		.4byte	.LVL679
 15728 1ff9 0100     		.2byte	0x1
 15729 1ffb 50       		.byte	0x50
 15730 1ffc A0000000 		.4byte	.LVL683
 15731 2000 A6000000 		.4byte	.LVL684
 15732 2004 0100     		.2byte	0x1
 15733 2006 50       		.byte	0x50
 15734 2007 AA000000 		.4byte	.LVL686
 15735 200b B8000000 		.4byte	.LVL687
 15736 200f 0100     		.2byte	0x1
 15737 2011 50       		.byte	0x50
 15738 2012 00000000 		.4byte	0
 15739 2016 00000000 		.4byte	0
 15740              	.LLST128:
 15741 201a 00000000 		.4byte	.LVL692
ARM GAS  C:\Users\CHRONI~1\AppData\Local\Temp\cc7oUGua.s 			page 327


 15742 201e 1C000000 		.4byte	.LVL694
 15743 2022 0100     		.2byte	0x1
 15744 2024 50       		.byte	0x50
 15745 2025 1C000000 		.4byte	.LVL694
 15746 2029 4C000000 		.4byte	.LVL703
 15747 202d 0100     		.2byte	0x1
 15748 202f 55       		.byte	0x55
 15749 2030 4C000000 		.4byte	.LVL703
 15750 2034 54000000 		.4byte	.LVL704
 15751 2038 0100     		.2byte	0x1
 15752 203a 50       		.byte	0x50
 15753 203b 54000000 		.4byte	.LVL704
 15754 203f 56000000 		.4byte	.LVL705
 15755 2043 0100     		.2byte	0x1
 15756 2045 55       		.byte	0x55
 15757 2046 56000000 		.4byte	.LVL705
 15758 204a 64000000 		.4byte	.LFE40
 15759 204e 0400     		.2byte	0x4
 15760 2050 F3       		.byte	0xf3
 15761 2051 01       		.uleb128 0x1
 15762 2052 50       		.byte	0x50
 15763 2053 9F       		.byte	0x9f
 15764 2054 00000000 		.4byte	0
 15765 2058 00000000 		.4byte	0
 15766              	.LLST129:
 15767 205c 00000000 		.4byte	.LVL692
 15768 2060 1A000000 		.4byte	.LVL693
 15769 2064 0100     		.2byte	0x1
 15770 2066 51       		.byte	0x51
 15771 2067 1A000000 		.4byte	.LVL693
 15772 206b 4C000000 		.4byte	.LVL703
 15773 206f 0400     		.2byte	0x4
 15774 2071 F3       		.byte	0xf3
 15775 2072 01       		.uleb128 0x1
 15776 2073 51       		.byte	0x51
 15777 2074 9F       		.byte	0x9f
 15778 2075 4C000000 		.4byte	.LVL703
 15779 2079 54000000 		.4byte	.LVL704
 15780 207d 0100     		.2byte	0x1
 15781 207f 51       		.byte	0x51
 15782 2080 54000000 		.4byte	.LVL704
 15783 2084 64000000 		.4byte	.LFE40
 15784 2088 0400     		.2byte	0x4
 15785 208a F3       		.byte	0xf3
 15786 208b 01       		.uleb128 0x1
 15787 208c 51       		.byte	0x51
 15788 208d 9F       		.byte	0x9f
 15789 208e 00000000 		.4byte	0
 15790 2092 00000000 		.4byte	0
 15791              	.LLST130:
 15792 2096 1E000000 		.4byte	.LVL695
 15793 209a 24000000 		.4byte	.LVL696
 15794 209e 0100     		.2byte	0x1
 15795 20a0 50       		.byte	0x50
 15796 20a1 28000000 		.4byte	.LVL698
 15797 20a5 40000000 		.4byte	.LVL699
 15798 20a9 0100     		.2byte	0x1
ARM GAS  C:\Users\CHRONI~1\AppData\Local\Temp\cc7oUGua.s 			page 328


 15799 20ab 50       		.byte	0x50
 15800 20ac 42000000 		.4byte	.LVL700
 15801 20b0 48000000 		.4byte	.LVL701
 15802 20b4 0100     		.2byte	0x1
 15803 20b6 50       		.byte	0x50
 15804 20b7 54000000 		.4byte	.LVL704
 15805 20bb 56000000 		.4byte	.LVL705
 15806 20bf 0100     		.2byte	0x1
 15807 20c1 50       		.byte	0x50
 15808 20c2 00000000 		.4byte	0
 15809 20c6 00000000 		.4byte	0
 15810              	.LLST131:
 15811 20ca 00000000 		.4byte	.LVL706
 15812 20ce 1C000000 		.4byte	.LVL708
 15813 20d2 0100     		.2byte	0x1
 15814 20d4 50       		.byte	0x50
 15815 20d5 1C000000 		.4byte	.LVL708
 15816 20d9 36000000 		.4byte	.LVL713
 15817 20dd 0100     		.2byte	0x1
 15818 20df 55       		.byte	0x55
 15819 20e0 36000000 		.4byte	.LVL713
 15820 20e4 3C000000 		.4byte	.LVL714
 15821 20e8 0100     		.2byte	0x1
 15822 20ea 50       		.byte	0x50
 15823 20eb 3C000000 		.4byte	.LVL714
 15824 20ef 48000000 		.4byte	.LFE41
 15825 20f3 0400     		.2byte	0x4
 15826 20f5 F3       		.byte	0xf3
 15827 20f6 01       		.uleb128 0x1
 15828 20f7 50       		.byte	0x50
 15829 20f8 9F       		.byte	0x9f
 15830 20f9 00000000 		.4byte	0
 15831 20fd 00000000 		.4byte	0
 15832              	.LLST132:
 15833 2101 00000000 		.4byte	.LVL706
 15834 2105 1A000000 		.4byte	.LVL707
 15835 2109 0100     		.2byte	0x1
 15836 210b 51       		.byte	0x51
 15837 210c 1A000000 		.4byte	.LVL707
 15838 2110 36000000 		.4byte	.LVL713
 15839 2114 0100     		.2byte	0x1
 15840 2116 56       		.byte	0x56
 15841 2117 36000000 		.4byte	.LVL713
 15842 211b 3C000000 		.4byte	.LVL714
 15843 211f 0100     		.2byte	0x1
 15844 2121 51       		.byte	0x51
 15845 2122 3C000000 		.4byte	.LVL714
 15846 2126 48000000 		.4byte	.LFE41
 15847 212a 0400     		.2byte	0x4
 15848 212c F3       		.byte	0xf3
 15849 212d 01       		.uleb128 0x1
 15850 212e 51       		.byte	0x51
 15851 212f 9F       		.byte	0x9f
 15852 2130 00000000 		.4byte	0
 15853 2134 00000000 		.4byte	0
 15854              	.LLST133:
 15855 2138 1E000000 		.4byte	.LVL709
ARM GAS  C:\Users\CHRONI~1\AppData\Local\Temp\cc7oUGua.s 			page 329


 15856 213c 24000000 		.4byte	.LVL710
 15857 2140 0100     		.2byte	0x1
 15858 2142 50       		.byte	0x50
 15859 2143 28000000 		.4byte	.LVL712
 15860 2147 36000000 		.4byte	.LVL713
 15861 214b 0100     		.2byte	0x1
 15862 214d 50       		.byte	0x50
 15863 214e 00000000 		.4byte	0
 15864 2152 00000000 		.4byte	0
 15865              	.LLST134:
 15866 2156 00000000 		.4byte	.LVL715
 15867 215a 18000000 		.4byte	.LVL718
 15868 215e 0100     		.2byte	0x1
 15869 2160 50       		.byte	0x50
 15870 2161 18000000 		.4byte	.LVL718
 15871 2165 3A000000 		.4byte	.LVL727
 15872 2169 0100     		.2byte	0x1
 15873 216b 55       		.byte	0x55
 15874 216c 3A000000 		.4byte	.LVL727
 15875 2170 42000000 		.4byte	.LVL728
 15876 2174 0100     		.2byte	0x1
 15877 2176 50       		.byte	0x50
 15878 2177 42000000 		.4byte	.LVL728
 15879 217b 44000000 		.4byte	.LVL729
 15880 217f 0100     		.2byte	0x1
 15881 2181 55       		.byte	0x55
 15882 2182 44000000 		.4byte	.LVL729
 15883 2186 50000000 		.4byte	.LFE42
 15884 218a 0400     		.2byte	0x4
 15885 218c F3       		.byte	0xf3
 15886 218d 01       		.uleb128 0x1
 15887 218e 50       		.byte	0x50
 15888 218f 9F       		.byte	0x9f
 15889 2190 00000000 		.4byte	0
 15890 2194 00000000 		.4byte	0
 15891              	.LLST135:
 15892 2198 00000000 		.4byte	.LVL715
 15893 219c 16000000 		.4byte	.LVL717
 15894 21a0 0100     		.2byte	0x1
 15895 21a2 51       		.byte	0x51
 15896 21a3 16000000 		.4byte	.LVL717
 15897 21a7 19000000 		.4byte	.LVL719-1
 15898 21ab 0100     		.2byte	0x1
 15899 21ad 52       		.byte	0x52
 15900 21ae 19000000 		.4byte	.LVL719-1
 15901 21b2 3A000000 		.4byte	.LVL727
 15902 21b6 0400     		.2byte	0x4
 15903 21b8 F3       		.byte	0xf3
 15904 21b9 01       		.uleb128 0x1
 15905 21ba 51       		.byte	0x51
 15906 21bb 9F       		.byte	0x9f
 15907 21bc 3A000000 		.4byte	.LVL727
 15908 21c0 42000000 		.4byte	.LVL728
 15909 21c4 0100     		.2byte	0x1
 15910 21c6 51       		.byte	0x51
 15911 21c7 42000000 		.4byte	.LVL728
 15912 21cb 50000000 		.4byte	.LFE42
ARM GAS  C:\Users\CHRONI~1\AppData\Local\Temp\cc7oUGua.s 			page 330


 15913 21cf 0400     		.2byte	0x4
 15914 21d1 F3       		.byte	0xf3
 15915 21d2 01       		.uleb128 0x1
 15916 21d3 51       		.byte	0x51
 15917 21d4 9F       		.byte	0x9f
 15918 21d5 00000000 		.4byte	0
 15919 21d9 00000000 		.4byte	0
 15920              	.LLST136:
 15921 21dd 00000000 		.4byte	.LVL715
 15922 21e1 10000000 		.4byte	.LVL716
 15923 21e5 0100     		.2byte	0x1
 15924 21e7 52       		.byte	0x52
 15925 21e8 10000000 		.4byte	.LVL716
 15926 21ec 3A000000 		.4byte	.LVL727
 15927 21f0 0100     		.2byte	0x1
 15928 21f2 57       		.byte	0x57
 15929 21f3 3A000000 		.4byte	.LVL727
 15930 21f7 42000000 		.4byte	.LVL728
 15931 21fb 0100     		.2byte	0x1
 15932 21fd 52       		.byte	0x52
 15933 21fe 42000000 		.4byte	.LVL728
 15934 2202 44000000 		.4byte	.LVL729
 15935 2206 0100     		.2byte	0x1
 15936 2208 57       		.byte	0x57
 15937 2209 44000000 		.4byte	.LVL729
 15938 220d 50000000 		.4byte	.LFE42
 15939 2211 0400     		.2byte	0x4
 15940 2213 F3       		.byte	0xf3
 15941 2214 01       		.uleb128 0x1
 15942 2215 52       		.byte	0x52
 15943 2216 9F       		.byte	0x9f
 15944 2217 00000000 		.4byte	0
 15945 221b 00000000 		.4byte	0
 15946              	.LLST137:
 15947 221f 1A000000 		.4byte	.LVL719
 15948 2223 20000000 		.4byte	.LVL720
 15949 2227 0100     		.2byte	0x1
 15950 2229 50       		.byte	0x50
 15951 222a 24000000 		.4byte	.LVL722
 15952 222e 2E000000 		.4byte	.LVL723
 15953 2232 0100     		.2byte	0x1
 15954 2234 50       		.byte	0x50
 15955 2235 30000000 		.4byte	.LVL724
 15956 2239 36000000 		.4byte	.LVL725
 15957 223d 0100     		.2byte	0x1
 15958 223f 50       		.byte	0x50
 15959 2240 42000000 		.4byte	.LVL728
 15960 2244 44000000 		.4byte	.LVL729
 15961 2248 0100     		.2byte	0x1
 15962 224a 50       		.byte	0x50
 15963 224b 00000000 		.4byte	0
 15964 224f 00000000 		.4byte	0
 15965              	.LLST138:
 15966 2253 00000000 		.4byte	.LVL730
 15967 2257 0E000000 		.4byte	.LVL731
 15968 225b 0100     		.2byte	0x1
 15969 225d 50       		.byte	0x50
ARM GAS  C:\Users\CHRONI~1\AppData\Local\Temp\cc7oUGua.s 			page 331


 15970 225e 0E000000 		.4byte	.LVL731
 15971 2262 18000000 		.4byte	.LVL733
 15972 2266 0400     		.2byte	0x4
 15973 2268 F3       		.byte	0xf3
 15974 2269 01       		.uleb128 0x1
 15975 226a 50       		.byte	0x50
 15976 226b 9F       		.byte	0x9f
 15977 226c 18000000 		.4byte	.LVL733
 15978 2270 1E000000 		.4byte	.LVL736
 15979 2274 0100     		.2byte	0x1
 15980 2276 50       		.byte	0x50
 15981 2277 1E000000 		.4byte	.LVL736
 15982 227b 22000000 		.4byte	.LFE43
 15983 227f 0400     		.2byte	0x4
 15984 2281 F3       		.byte	0xf3
 15985 2282 01       		.uleb128 0x1
 15986 2283 50       		.byte	0x50
 15987 2284 9F       		.byte	0x9f
 15988 2285 00000000 		.4byte	0
 15989 2289 00000000 		.4byte	0
 15990              	.LLST139:
 15991 228d 00000000 		.4byte	.LVL730
 15992 2291 0F000000 		.4byte	.LVL732-1
 15993 2295 0100     		.2byte	0x1
 15994 2297 51       		.byte	0x51
 15995 2298 0F000000 		.4byte	.LVL732-1
 15996 229c 18000000 		.4byte	.LVL733
 15997 22a0 0400     		.2byte	0x4
 15998 22a2 F3       		.byte	0xf3
 15999 22a3 01       		.uleb128 0x1
 16000 22a4 51       		.byte	0x51
 16001 22a5 9F       		.byte	0x9f
 16002 22a6 18000000 		.4byte	.LVL733
 16003 22aa 1E000000 		.4byte	.LVL736
 16004 22ae 0100     		.2byte	0x1
 16005 22b0 51       		.byte	0x51
 16006 22b1 1E000000 		.4byte	.LVL736
 16007 22b5 22000000 		.4byte	.LFE43
 16008 22b9 0400     		.2byte	0x4
 16009 22bb F3       		.byte	0xf3
 16010 22bc 01       		.uleb128 0x1
 16011 22bd 51       		.byte	0x51
 16012 22be 9F       		.byte	0x9f
 16013 22bf 00000000 		.4byte	0
 16014 22c3 00000000 		.4byte	0
 16015              	.LLST140:
 16016 22c7 00000000 		.4byte	.LVL730
 16017 22cb 0F000000 		.4byte	.LVL732-1
 16018 22cf 0100     		.2byte	0x1
 16019 22d1 52       		.byte	0x52
 16020 22d2 0F000000 		.4byte	.LVL732-1
 16021 22d6 18000000 		.4byte	.LVL733
 16022 22da 0400     		.2byte	0x4
 16023 22dc F3       		.byte	0xf3
 16024 22dd 01       		.uleb128 0x1
 16025 22de 52       		.byte	0x52
 16026 22df 9F       		.byte	0x9f
ARM GAS  C:\Users\CHRONI~1\AppData\Local\Temp\cc7oUGua.s 			page 332


 16027 22e0 18000000 		.4byte	.LVL733
 16028 22e4 1E000000 		.4byte	.LVL736
 16029 22e8 0100     		.2byte	0x1
 16030 22ea 52       		.byte	0x52
 16031 22eb 1E000000 		.4byte	.LVL736
 16032 22ef 22000000 		.4byte	.LFE43
 16033 22f3 0400     		.2byte	0x4
 16034 22f5 F3       		.byte	0xf3
 16035 22f6 01       		.uleb128 0x1
 16036 22f7 52       		.byte	0x52
 16037 22f8 9F       		.byte	0x9f
 16038 22f9 00000000 		.4byte	0
 16039 22fd 00000000 		.4byte	0
 16040              	.LLST141:
 16041 2301 00000000 		.4byte	.LVL730
 16042 2305 0F000000 		.4byte	.LVL732-1
 16043 2309 0100     		.2byte	0x1
 16044 230b 53       		.byte	0x53
 16045 230c 0F000000 		.4byte	.LVL732-1
 16046 2310 18000000 		.4byte	.LVL733
 16047 2314 0400     		.2byte	0x4
 16048 2316 F3       		.byte	0xf3
 16049 2317 01       		.uleb128 0x1
 16050 2318 53       		.byte	0x53
 16051 2319 9F       		.byte	0x9f
 16052 231a 18000000 		.4byte	.LVL733
 16053 231e 1A000000 		.4byte	.LVL734
 16054 2322 0100     		.2byte	0x1
 16055 2324 53       		.byte	0x53
 16056 2325 1A000000 		.4byte	.LVL734
 16057 2329 1C000000 		.4byte	.LVL735
 16058 232d 0400     		.2byte	0x4
 16059 232f F3       		.byte	0xf3
 16060 2330 01       		.uleb128 0x1
 16061 2331 53       		.byte	0x53
 16062 2332 9F       		.byte	0x9f
 16063 2333 1C000000 		.4byte	.LVL735
 16064 2337 1E000000 		.4byte	.LVL736
 16065 233b 0100     		.2byte	0x1
 16066 233d 53       		.byte	0x53
 16067 233e 1E000000 		.4byte	.LVL736
 16068 2342 22000000 		.4byte	.LFE43
 16069 2346 0400     		.2byte	0x4
 16070 2348 F3       		.byte	0xf3
 16071 2349 01       		.uleb128 0x1
 16072 234a 53       		.byte	0x53
 16073 234b 9F       		.byte	0x9f
 16074 234c 00000000 		.4byte	0
 16075 2350 00000000 		.4byte	0
 16076              	.LLST142:
 16077 2354 00000000 		.4byte	.LVL737
 16078 2358 0E000000 		.4byte	.LVL738
 16079 235c 0100     		.2byte	0x1
 16080 235e 50       		.byte	0x50
 16081 235f 0E000000 		.4byte	.LVL738
 16082 2363 18000000 		.4byte	.LVL740
 16083 2367 0400     		.2byte	0x4
ARM GAS  C:\Users\CHRONI~1\AppData\Local\Temp\cc7oUGua.s 			page 333


 16084 2369 F3       		.byte	0xf3
 16085 236a 01       		.uleb128 0x1
 16086 236b 50       		.byte	0x50
 16087 236c 9F       		.byte	0x9f
 16088 236d 18000000 		.4byte	.LVL740
 16089 2371 1E000000 		.4byte	.LVL743
 16090 2375 0100     		.2byte	0x1
 16091 2377 50       		.byte	0x50
 16092 2378 1E000000 		.4byte	.LVL743
 16093 237c 22000000 		.4byte	.LFE44
 16094 2380 0400     		.2byte	0x4
 16095 2382 F3       		.byte	0xf3
 16096 2383 01       		.uleb128 0x1
 16097 2384 50       		.byte	0x50
 16098 2385 9F       		.byte	0x9f
 16099 2386 00000000 		.4byte	0
 16100 238a 00000000 		.4byte	0
 16101              	.LLST143:
 16102 238e 00000000 		.4byte	.LVL737
 16103 2392 0F000000 		.4byte	.LVL739-1
 16104 2396 0100     		.2byte	0x1
 16105 2398 51       		.byte	0x51
 16106 2399 0F000000 		.4byte	.LVL739-1
 16107 239d 18000000 		.4byte	.LVL740
 16108 23a1 0400     		.2byte	0x4
 16109 23a3 F3       		.byte	0xf3
 16110 23a4 01       		.uleb128 0x1
 16111 23a5 51       		.byte	0x51
 16112 23a6 9F       		.byte	0x9f
 16113 23a7 18000000 		.4byte	.LVL740
 16114 23ab 1E000000 		.4byte	.LVL743
 16115 23af 0100     		.2byte	0x1
 16116 23b1 51       		.byte	0x51
 16117 23b2 1E000000 		.4byte	.LVL743
 16118 23b6 22000000 		.4byte	.LFE44
 16119 23ba 0400     		.2byte	0x4
 16120 23bc F3       		.byte	0xf3
 16121 23bd 01       		.uleb128 0x1
 16122 23be 51       		.byte	0x51
 16123 23bf 9F       		.byte	0x9f
 16124 23c0 00000000 		.4byte	0
 16125 23c4 00000000 		.4byte	0
 16126              	.LLST144:
 16127 23c8 00000000 		.4byte	.LVL737
 16128 23cc 0F000000 		.4byte	.LVL739-1
 16129 23d0 0100     		.2byte	0x1
 16130 23d2 52       		.byte	0x52
 16131 23d3 0F000000 		.4byte	.LVL739-1
 16132 23d7 18000000 		.4byte	.LVL740
 16133 23db 0400     		.2byte	0x4
 16134 23dd F3       		.byte	0xf3
 16135 23de 01       		.uleb128 0x1
 16136 23df 52       		.byte	0x52
 16137 23e0 9F       		.byte	0x9f
 16138 23e1 18000000 		.4byte	.LVL740
 16139 23e5 1E000000 		.4byte	.LVL743
 16140 23e9 0100     		.2byte	0x1
ARM GAS  C:\Users\CHRONI~1\AppData\Local\Temp\cc7oUGua.s 			page 334


 16141 23eb 52       		.byte	0x52
 16142 23ec 1E000000 		.4byte	.LVL743
 16143 23f0 22000000 		.4byte	.LFE44
 16144 23f4 0400     		.2byte	0x4
 16145 23f6 F3       		.byte	0xf3
 16146 23f7 01       		.uleb128 0x1
 16147 23f8 52       		.byte	0x52
 16148 23f9 9F       		.byte	0x9f
 16149 23fa 00000000 		.4byte	0
 16150 23fe 00000000 		.4byte	0
 16151              	.LLST145:
 16152 2402 00000000 		.4byte	.LVL737
 16153 2406 0F000000 		.4byte	.LVL739-1
 16154 240a 0100     		.2byte	0x1
 16155 240c 53       		.byte	0x53
 16156 240d 0F000000 		.4byte	.LVL739-1
 16157 2411 18000000 		.4byte	.LVL740
 16158 2415 0400     		.2byte	0x4
 16159 2417 F3       		.byte	0xf3
 16160 2418 01       		.uleb128 0x1
 16161 2419 53       		.byte	0x53
 16162 241a 9F       		.byte	0x9f
 16163 241b 18000000 		.4byte	.LVL740
 16164 241f 1A000000 		.4byte	.LVL741
 16165 2423 0100     		.2byte	0x1
 16166 2425 53       		.byte	0x53
 16167 2426 1A000000 		.4byte	.LVL741
 16168 242a 1C000000 		.4byte	.LVL742
 16169 242e 0400     		.2byte	0x4
 16170 2430 F3       		.byte	0xf3
 16171 2431 01       		.uleb128 0x1
 16172 2432 53       		.byte	0x53
 16173 2433 9F       		.byte	0x9f
 16174 2434 1C000000 		.4byte	.LVL742
 16175 2438 1E000000 		.4byte	.LVL743
 16176 243c 0100     		.2byte	0x1
 16177 243e 53       		.byte	0x53
 16178 243f 1E000000 		.4byte	.LVL743
 16179 2443 22000000 		.4byte	.LFE44
 16180 2447 0400     		.2byte	0x4
 16181 2449 F3       		.byte	0xf3
 16182 244a 01       		.uleb128 0x1
 16183 244b 53       		.byte	0x53
 16184 244c 9F       		.byte	0x9f
 16185 244d 00000000 		.4byte	0
 16186 2451 00000000 		.4byte	0
 16187              	.LLST146:
 16188 2455 00000000 		.4byte	.LVL744
 16189 2459 0D000000 		.4byte	.LVL745-1
 16190 245d 0100     		.2byte	0x1
 16191 245f 50       		.byte	0x50
 16192 2460 0D000000 		.4byte	.LVL745-1
 16193 2464 4E000000 		.4byte	.LVL749
 16194 2468 0100     		.2byte	0x1
 16195 246a 54       		.byte	0x54
 16196 246b 4E000000 		.4byte	.LVL749
 16197 246f 50000000 		.4byte	.LVL750
ARM GAS  C:\Users\CHRONI~1\AppData\Local\Temp\cc7oUGua.s 			page 335


 16198 2473 0100     		.2byte	0x1
 16199 2475 50       		.byte	0x50
 16200 2476 50000000 		.4byte	.LVL750
 16201 247a 70000000 		.4byte	.LFE45
 16202 247e 0400     		.2byte	0x4
 16203 2480 F3       		.byte	0xf3
 16204 2481 01       		.uleb128 0x1
 16205 2482 50       		.byte	0x50
 16206 2483 9F       		.byte	0x9f
 16207 2484 00000000 		.4byte	0
 16208 2488 00000000 		.4byte	0
 16209              		.section	.debug_aranges,"",%progbits
 16210 0000 7C010000 		.4byte	0x17c
 16211 0004 0200     		.2byte	0x2
 16212 0006 00000000 		.4byte	.Ldebug_info0
 16213 000a 04       		.byte	0x4
 16214 000b 00       		.byte	0
 16215 000c 0000     		.2byte	0
 16216 000e 0000     		.2byte	0
 16217 0010 00000000 		.4byte	.LFB1
 16218 0014 B0020000 		.4byte	.LFE1-.LFB1
 16219 0018 00000000 		.4byte	.LFB2
 16220 001c 80000000 		.4byte	.LFE2-.LFB2
 16221 0020 00000000 		.4byte	.LFB3
 16222 0024 30010000 		.4byte	.LFE3-.LFB3
 16223 0028 00000000 		.4byte	.LFB4
 16224 002c F8010000 		.4byte	.LFE4-.LFB4
 16225 0030 00000000 		.4byte	.LFB5
 16226 0034 F0000000 		.4byte	.LFE5-.LFB5
 16227 0038 00000000 		.4byte	.LFB6
 16228 003c 84000000 		.4byte	.LFE6-.LFB6
 16229 0040 00000000 		.4byte	.LFB7
 16230 0044 CC000000 		.4byte	.LFE7-.LFB7
 16231 0048 00000000 		.4byte	.LFB8
 16232 004c 84000000 		.4byte	.LFE8-.LFB8
 16233 0050 00000000 		.4byte	.LFB9
 16234 0054 54000000 		.4byte	.LFE9-.LFB9
 16235 0058 00000000 		.4byte	.LFB10
 16236 005c 48000000 		.4byte	.LFE10-.LFB10
 16237 0060 00000000 		.4byte	.LFB11
 16238 0064 54000000 		.4byte	.LFE11-.LFB11
 16239 0068 00000000 		.4byte	.LFB12
 16240 006c 48000000 		.4byte	.LFE12-.LFB12
 16241 0070 00000000 		.4byte	.LFB13
 16242 0074 54000000 		.4byte	.LFE13-.LFB13
 16243 0078 00000000 		.4byte	.LFB14
 16244 007c 48000000 		.4byte	.LFE14-.LFB14
 16245 0080 00000000 		.4byte	.LFB15
 16246 0084 40000000 		.4byte	.LFE15-.LFB15
 16247 0088 00000000 		.4byte	.LFB16
 16248 008c 34000000 		.4byte	.LFE16-.LFB16
 16249 0090 00000000 		.4byte	.LFB17
 16250 0094 68000000 		.4byte	.LFE17-.LFB17
 16251 0098 00000000 		.4byte	.LFB18
 16252 009c 44000000 		.4byte	.LFE18-.LFB18
 16253 00a0 00000000 		.4byte	.LFB19
 16254 00a4 68000000 		.4byte	.LFE19-.LFB19
ARM GAS  C:\Users\CHRONI~1\AppData\Local\Temp\cc7oUGua.s 			page 336


 16255 00a8 00000000 		.4byte	.LFB20
 16256 00ac 48000000 		.4byte	.LFE20-.LFB20
 16257 00b0 00000000 		.4byte	.LFB21
 16258 00b4 78000000 		.4byte	.LFE21-.LFB21
 16259 00b8 00000000 		.4byte	.LFB22
 16260 00bc 48000000 		.4byte	.LFE22-.LFB22
 16261 00c0 00000000 		.4byte	.LFB23
 16262 00c4 68000000 		.4byte	.LFE23-.LFB23
 16263 00c8 00000000 		.4byte	.LFB24
 16264 00cc 44000000 		.4byte	.LFE24-.LFB24
 16265 00d0 00000000 		.4byte	.LFB25
 16266 00d4 64000000 		.4byte	.LFE25-.LFB25
 16267 00d8 00000000 		.4byte	.LFB26
 16268 00dc 64000000 		.4byte	.LFE26-.LFB26
 16269 00e0 00000000 		.4byte	.LFB27
 16270 00e4 48000000 		.4byte	.LFE27-.LFB27
 16271 00e8 00000000 		.4byte	.LFB28
 16272 00ec 68000000 		.4byte	.LFE28-.LFB28
 16273 00f0 00000000 		.4byte	.LFB29
 16274 00f4 48000000 		.4byte	.LFE29-.LFB29
 16275 00f8 00000000 		.4byte	.LFB30
 16276 00fc 68000000 		.4byte	.LFE30-.LFB30
 16277 0100 00000000 		.4byte	.LFB31
 16278 0104 48000000 		.4byte	.LFE31-.LFB31
 16279 0108 00000000 		.4byte	.LFB32
 16280 010c 64000000 		.4byte	.LFE32-.LFB32
 16281 0110 00000000 		.4byte	.LFB33
 16282 0114 48000000 		.4byte	.LFE33-.LFB33
 16283 0118 00000000 		.4byte	.LFB34
 16284 011c 40000000 		.4byte	.LFE34-.LFB34
 16285 0120 00000000 		.4byte	.LFB35
 16286 0124 34000000 		.4byte	.LFE35-.LFB35
 16287 0128 00000000 		.4byte	.LFB36
 16288 012c 40000000 		.4byte	.LFE36-.LFB36
 16289 0130 00000000 		.4byte	.LFB37
 16290 0134 34000000 		.4byte	.LFE37-.LFB37
 16291 0138 00000000 		.4byte	.LFB38
 16292 013c 50010000 		.4byte	.LFE38-.LFB38
 16293 0140 00000000 		.4byte	.LFB39
 16294 0144 D4000000 		.4byte	.LFE39-.LFB39
 16295 0148 00000000 		.4byte	.LFB40
 16296 014c 64000000 		.4byte	.LFE40-.LFB40
 16297 0150 00000000 		.4byte	.LFB41
 16298 0154 48000000 		.4byte	.LFE41-.LFB41
 16299 0158 00000000 		.4byte	.LFB42
 16300 015c 50000000 		.4byte	.LFE42-.LFB42
 16301 0160 00000000 		.4byte	.LFB43
 16302 0164 22000000 		.4byte	.LFE43-.LFB43
 16303 0168 00000000 		.4byte	.LFB44
 16304 016c 22000000 		.4byte	.LFE44-.LFB44
 16305 0170 00000000 		.4byte	.LFB45
 16306 0174 70000000 		.4byte	.LFE45-.LFB45
 16307 0178 00000000 		.4byte	0
 16308 017c 00000000 		.4byte	0
 16309              		.section	.debug_ranges,"",%progbits
 16310              	.Ldebug_ranges0:
 16311 0000 9E000000 		.4byte	.LBB2
ARM GAS  C:\Users\CHRONI~1\AppData\Local\Temp\cc7oUGua.s 			page 337


 16312 0004 0E010000 		.4byte	.LBE2
 16313 0008 10010000 		.4byte	.LBB3
 16314 000c 16010000 		.4byte	.LBE3
 16315 0010 00000000 		.4byte	0
 16316 0014 00000000 		.4byte	0
 16317 0018 00000000 		.4byte	.LFB1
 16318 001c B0020000 		.4byte	.LFE1
 16319 0020 00000000 		.4byte	.LFB2
 16320 0024 80000000 		.4byte	.LFE2
 16321 0028 00000000 		.4byte	.LFB3
 16322 002c 30010000 		.4byte	.LFE3
 16323 0030 00000000 		.4byte	.LFB4
 16324 0034 F8010000 		.4byte	.LFE4
 16325 0038 00000000 		.4byte	.LFB5
 16326 003c F0000000 		.4byte	.LFE5
 16327 0040 00000000 		.4byte	.LFB6
 16328 0044 84000000 		.4byte	.LFE6
 16329 0048 00000000 		.4byte	.LFB7
 16330 004c CC000000 		.4byte	.LFE7
 16331 0050 00000000 		.4byte	.LFB8
 16332 0054 84000000 		.4byte	.LFE8
 16333 0058 00000000 		.4byte	.LFB9
 16334 005c 54000000 		.4byte	.LFE9
 16335 0060 00000000 		.4byte	.LFB10
 16336 0064 48000000 		.4byte	.LFE10
 16337 0068 00000000 		.4byte	.LFB11
 16338 006c 54000000 		.4byte	.LFE11
 16339 0070 00000000 		.4byte	.LFB12
 16340 0074 48000000 		.4byte	.LFE12
 16341 0078 00000000 		.4byte	.LFB13
 16342 007c 54000000 		.4byte	.LFE13
 16343 0080 00000000 		.4byte	.LFB14
 16344 0084 48000000 		.4byte	.LFE14
 16345 0088 00000000 		.4byte	.LFB15
 16346 008c 40000000 		.4byte	.LFE15
 16347 0090 00000000 		.4byte	.LFB16
 16348 0094 34000000 		.4byte	.LFE16
 16349 0098 00000000 		.4byte	.LFB17
 16350 009c 68000000 		.4byte	.LFE17
 16351 00a0 00000000 		.4byte	.LFB18
 16352 00a4 44000000 		.4byte	.LFE18
 16353 00a8 00000000 		.4byte	.LFB19
 16354 00ac 68000000 		.4byte	.LFE19
 16355 00b0 00000000 		.4byte	.LFB20
 16356 00b4 48000000 		.4byte	.LFE20
 16357 00b8 00000000 		.4byte	.LFB21
 16358 00bc 78000000 		.4byte	.LFE21
 16359 00c0 00000000 		.4byte	.LFB22
 16360 00c4 48000000 		.4byte	.LFE22
 16361 00c8 00000000 		.4byte	.LFB23
 16362 00cc 68000000 		.4byte	.LFE23
 16363 00d0 00000000 		.4byte	.LFB24
 16364 00d4 44000000 		.4byte	.LFE24
 16365 00d8 00000000 		.4byte	.LFB25
 16366 00dc 64000000 		.4byte	.LFE25
 16367 00e0 00000000 		.4byte	.LFB26
 16368 00e4 64000000 		.4byte	.LFE26
ARM GAS  C:\Users\CHRONI~1\AppData\Local\Temp\cc7oUGua.s 			page 338


 16369 00e8 00000000 		.4byte	.LFB27
 16370 00ec 48000000 		.4byte	.LFE27
 16371 00f0 00000000 		.4byte	.LFB28
 16372 00f4 68000000 		.4byte	.LFE28
 16373 00f8 00000000 		.4byte	.LFB29
 16374 00fc 48000000 		.4byte	.LFE29
 16375 0100 00000000 		.4byte	.LFB30
 16376 0104 68000000 		.4byte	.LFE30
 16377 0108 00000000 		.4byte	.LFB31
 16378 010c 48000000 		.4byte	.LFE31
 16379 0110 00000000 		.4byte	.LFB32
 16380 0114 64000000 		.4byte	.LFE32
 16381 0118 00000000 		.4byte	.LFB33
 16382 011c 48000000 		.4byte	.LFE33
 16383 0120 00000000 		.4byte	.LFB34
 16384 0124 40000000 		.4byte	.LFE34
 16385 0128 00000000 		.4byte	.LFB35
 16386 012c 34000000 		.4byte	.LFE35
 16387 0130 00000000 		.4byte	.LFB36
 16388 0134 40000000 		.4byte	.LFE36
 16389 0138 00000000 		.4byte	.LFB37
 16390 013c 34000000 		.4byte	.LFE37
 16391 0140 00000000 		.4byte	.LFB38
 16392 0144 50010000 		.4byte	.LFE38
 16393 0148 00000000 		.4byte	.LFB39
 16394 014c D4000000 		.4byte	.LFE39
 16395 0150 00000000 		.4byte	.LFB40
 16396 0154 64000000 		.4byte	.LFE40
 16397 0158 00000000 		.4byte	.LFB41
 16398 015c 48000000 		.4byte	.LFE41
 16399 0160 00000000 		.4byte	.LFB42
 16400 0164 50000000 		.4byte	.LFE42
 16401 0168 00000000 		.4byte	.LFB43
 16402 016c 22000000 		.4byte	.LFE43
 16403 0170 00000000 		.4byte	.LFB44
 16404 0174 22000000 		.4byte	.LFE44
 16405 0178 00000000 		.4byte	.LFB45
 16406 017c 70000000 		.4byte	.LFE45
 16407 0180 00000000 		.4byte	0
 16408 0184 00000000 		.4byte	0
 16409              		.section	.debug_line,"",%progbits
 16410              	.Ldebug_line0:
 16411 0000 DF080000 		.section	.debug_str,"MS",%progbits,1
 16411      0200C101 
 16411      00000201 
 16411      FB0E0D00 
 16411      01010101 
 16412              	.LASF89:
 16413 0000 73757070 		.ascii	"supply_voltage_max_v\000"
 16413      6C795F76 
 16413      6F6C7461 
 16413      67655F6D 
 16413      61785F76 
 16414              	.LASF104:
 16415 0015 7261775F 		.ascii	"raw_ir\000"
 16415      697200
 16416              	.LASF133:
ARM GAS  C:\Users\CHRONI~1\AppData\Local\Temp\cc7oUGua.s 			page 339


 16417 001c 6D617833 		.ascii	"max30102_set_fifo_almost_full\000"
 16417      30313032 
 16417      5F736574 
 16417      5F666966 
 16417      6F5F616C 
 16418              	.LASF78:
 16419 003a 696E6974 		.ascii	"inited\000"
 16419      656400
 16420              	.LASF93:
 16421 0041 64726976 		.ascii	"driver_version\000"
 16421      65725F76 
 16421      65727369 
 16421      6F6E00
 16422              	.LASF53:
 16423 0050 4D415833 		.ascii	"MAX30102_SPO2_SAMPLE_RATE_1000_HZ\000"
 16423      30313032 
 16423      5F53504F 
 16423      325F5341 
 16423      4D504C45 
 16424              	.LASF38:
 16425 0072 4D415833 		.ascii	"MAX30102_INTERRUPT_FIFO_FULL_EN\000"
 16425      30313032 
 16425      5F494E54 
 16425      45525255 
 16425      50545F46 
 16426              	.LASF80:
 16427 0092 74656D70 		.ascii	"temperature\000"
 16427      65726174 
 16427      75726500 
 16428              	.LASF155:
 16429 009e 736C6F74 		.ascii	"slot\000"
 16429      00
 16430              	.LASF159:
 16431 00a3 6D617833 		.ascii	"max30102_get_id\000"
 16431      30313032 
 16431      5F676574 
 16431      5F696400 
 16432              	.LASF162:
 16433 00b3 6D617833 		.ascii	"max30102_get_reg\000"
 16433      30313032 
 16433      5F676574 
 16433      5F726567 
 16433      00
 16434              	.LASF87:
 16435 00c4 696E7465 		.ascii	"interface\000"
 16435      72666163 
 16435      6500
 16436              	.LASF124:
 16437 00ce 6D617833 		.ascii	"max30102_get_fifo_read_pointer\000"
 16437      30313032 
 16437      5F676574 
 16437      5F666966 
 16437      6F5F7265 
 16438              	.LASF149:
 16439 00ed 6D617833 		.ascii	"max30102_get_adc_resolution\000"
 16439      30313032 
 16439      5F676574 
ARM GAS  C:\Users\CHRONI~1\AppData\Local\Temp\cc7oUGua.s 			page 340


 16439      5F616463 
 16439      5F726573 
 16440              	.LASF11:
 16441 0109 756E7369 		.ascii	"unsigned int\000"
 16441      676E6564 
 16441      20696E74 
 16441      00
 16442              	.LASF125:
 16443 0116 6D617833 		.ascii	"max30102_set_fifo_data\000"
 16443      30313032 
 16443      5F736574 
 16443      5F666966 
 16443      6F5F6461 
 16444              	.LASF63:
 16445 012d 4D415833 		.ascii	"MAX30102_LED_RED\000"
 16445      30313032 
 16445      5F4C4544 
 16445      5F524544 
 16445      00
 16446              	.LASF167:
 16447 013e 433A5C55 		.ascii	"C:\\Users\\Chronikle\\Downloads\\UniOld\\esw_uCOS3_"
 16447      73657273 
 16447      5C436872 
 16447      6F6E696B 
 16447      6C655C44 
 16448 016c 63796B69 		.ascii	"cykit.cydsn\000"
 16448      742E6379 
 16448      64736E00 
 16449              	.LASF91:
 16450 0178 74656D70 		.ascii	"temperature_min\000"
 16450      65726174 
 16450      7572655F 
 16450      6D696E00 
 16451              	.LASF35:
 16452 0188 4D415833 		.ascii	"MAX30102_INTERRUPT_STATUS_PWR_RDY\000"
 16452      30313032 
 16452      5F494E54 
 16452      45525255 
 16452      50545F53 
 16453              	.LASF130:
 16454 01aa 6D617833 		.ascii	"max30102_get_fifo_sample_averaging\000"
 16454      30313032 
 16454      5F676574 
 16454      5F666966 
 16454      6F5F7361 
 16455              	.LASF79:
 16456 01cd 66696E69 		.ascii	"finished_flag\000"
 16456      73686564 
 16456      5F666C61 
 16456      6700
 16457              	.LASF19:
 16458 01db 4D415833 		.ascii	"MAX30102_BOOL_TRUE\000"
 16458      30313032 
 16458      5F424F4F 
 16458      4C5F5452 
 16458      554500
 16459              	.LASF71:
ARM GAS  C:\Users\CHRONI~1\AppData\Local\Temp\cc7oUGua.s 			page 341


 16460 01ee 6969635F 		.ascii	"iic_init\000"
 16460      696E6974 
 16460      00
 16461              	.LASF45:
 16462 01f7 4D415833 		.ascii	"MAX30102_SPO2_ADC_RANGE_8192\000"
 16462      30313032 
 16462      5F53504F 
 16462      325F4144 
 16462      435F5241 
 16463              	.LASF29:
 16464 0214 4D415833 		.ascii	"MAX30102_MODE_SPO2\000"
 16464      30313032 
 16464      5F4D4F44 
 16464      455F5350 
 16464      4F3200
 16465              	.LASF105:
 16466 0227 6D6F6465 		.ascii	"mode\000"
 16466      00
 16467              	.LASF127:
 16468 022c 6D617833 		.ascii	"max30102_get_fifo_data\000"
 16468      30313032 
 16468      5F676574 
 16468      5F666966 
 16468      6F5F6461 
 16469              	.LASF95:
 16470 0243 70726576 		.ascii	"prev\000"
 16470      00
 16471              	.LASF117:
 16472 0248 6D617833 		.ascii	"max30102_set_fifo_write_pointer\000"
 16472      30313032 
 16472      5F736574 
 16472      5F666966 
 16472      6F5F7772 
 16473              	.LASF163:
 16474 0268 6D617833 		.ascii	"max30102_info\000"
 16474      30313032 
 16474      5F696E66 
 16474      6F00
 16475              	.LASF151:
 16476 0276 6D617833 		.ascii	"max30102_get_led_red_pulse_amplitude\000"
 16476      30313032 
 16476      5F676574 
 16476      5F6C6564 
 16476      5F726564 
 16477              	.LASF52:
 16478 029b 4D415833 		.ascii	"MAX30102_SPO2_SAMPLE_RATE_800_HZ\000"
 16478      30313032 
 16478      5F53504F 
 16478      325F5341 
 16478      4D504C45 
 16479              	.LASF137:
 16480 02bc 6D617833 		.ascii	"max30102_get_shutdown\000"
 16480      30313032 
 16480      5F676574 
 16480      5F736875 
 16480      74646F77 
 16481              	.LASF160:
ARM GAS  C:\Users\CHRONI~1\AppData\Local\Temp\cc7oUGua.s 			page 342


 16482 02d2 72657669 		.ascii	"revision_id\000"
 16482      73696F6E 
 16482      5F696400 
 16483              	.LASF131:
 16484 02de 6D617833 		.ascii	"max30102_set_fifo_roll\000"
 16484      30313032 
 16484      5F736574 
 16484      5F666966 
 16484      6F5F726F 
 16485              	.LASF17:
 16486 02f5 75696E74 		.ascii	"uint32_t\000"
 16486      33325F74 
 16486      00
 16487              	.LASF48:
 16488 02fe 4D415833 		.ascii	"MAX30102_SPO2_SAMPLE_RATE_50_HZ\000"
 16488      30313032 
 16488      5F53504F 
 16488      325F5341 
 16488      4D504C45 
 16489              	.LASF41:
 16490 031e 4D415833 		.ascii	"MAX30102_INTERRUPT_DIE_TEMP_RDY_EN\000"
 16490      30313032 
 16490      5F494E54 
 16490      45525255 
 16490      50545F44 
 16491              	.LASF20:
 16492 0341 6D617833 		.ascii	"max30102_bool_t\000"
 16492      30313032 
 16492      5F626F6F 
 16492      6C5F7400 
 16493              	.LASF73:
 16494 0351 6969635F 		.ascii	"iic_read\000"
 16494      72656164 
 16494      00
 16495              	.LASF81:
 16496 035a 666C6F61 		.ascii	"float\000"
 16496      7400
 16497              	.LASF153:
 16498 0360 6D617833 		.ascii	"max30102_get_led_ir_pulse_amplitude\000"
 16498      30313032 
 16498      5F676574 
 16498      5F6C6564 
 16498      5F69725F 
 16499              	.LASF47:
 16500 0384 6D617833 		.ascii	"max30102_spo2_adc_range_t\000"
 16500      30313032 
 16500      5F73706F 
 16500      325F6164 
 16500      635F7261 
 16501              	.LASF119:
 16502 039e 6D617833 		.ascii	"max30102_get_fifo_write_pointer\000"
 16502      30313032 
 16502      5F676574 
 16502      5F666966 
 16502      6F5F7772 
 16503              	.LASF10:
 16504 03be 6C6F6E67 		.ascii	"long long unsigned int\000"
ARM GAS  C:\Users\CHRONI~1\AppData\Local\Temp\cc7oUGua.s 			page 343


 16504      206C6F6E 
 16504      6720756E 
 16504      7369676E 
 16504      65642069 
 16505              	.LASF128:
 16506 03d5 6D617833 		.ascii	"max30102_set_fifo_sample_averaging\000"
 16506      30313032 
 16506      5F736574 
 16506      5F666966 
 16506      6F5F7361 
 16507              	.LASF169:
 16508 03f8 7374726E 		.ascii	"strncpy\000"
 16508      63707900 
 16509              	.LASF132:
 16510 0400 6D617833 		.ascii	"max30102_get_fifo_roll\000"
 16510      30313032 
 16510      5F676574 
 16510      5F666966 
 16510      6F5F726F 
 16511              	.LASF4:
 16512 0417 5F5F7569 		.ascii	"__uint16_t\000"
 16512      6E743136 
 16512      5F7400
 16513              	.LASF113:
 16514 0422 656E6162 		.ascii	"enable\000"
 16514      6C6500
 16515              	.LASF27:
 16516 0429 6D617833 		.ascii	"max30102_sample_averaging_t\000"
 16516      30313032 
 16516      5F73616D 
 16516      706C655F 
 16516      61766572 
 16517              	.LASF58:
 16518 0445 4D415833 		.ascii	"MAX30102_ADC_RESOLUTION_16_BIT\000"
 16518      30313032 
 16518      5F414443 
 16518      5F524553 
 16518      4F4C5554 
 16519              	.LASF134:
 16520 0464 76616C75 		.ascii	"value\000"
 16520      6500
 16521              	.LASF37:
 16522 046a 6D617833 		.ascii	"max30102_interrupt_status_t\000"
 16522      30313032 
 16522      5F696E74 
 16522      65727275 
 16522      70745F73 
 16523              	.LASF107:
 16524 0486 77726974 		.ascii	"write_point\000"
 16524      655F706F 
 16524      696E7400 
 16525              	.LASF165:
 16526 0492 474E5520 		.ascii	"GNU C11 5.4.1 20160609 (release) [ARM/embedded-5-br"
 16526      43313120 
 16526      352E342E 
 16526      31203230 
 16526      31363036 
ARM GAS  C:\Users\CHRONI~1\AppData\Local\Temp\cc7oUGua.s 			page 344


 16527 04c5 616E6368 		.ascii	"anch revision 237715] -mcpu=cortex-m3 -mthumb -g -O"
 16527      20726576 
 16527      6973696F 
 16527      6E203233 
 16527      37373135 
 16528 04f8 67202D66 		.ascii	"g -ffunction-sections -ffat-lto-objects\000"
 16528      66756E63 
 16528      74696F6E 
 16528      2D736563 
 16528      74696F6E 
 16529              	.LASF83:
 16530 0520 6D617833 		.ascii	"max30102_handle_s\000"
 16530      30313032 
 16530      5F68616E 
 16530      646C655F 
 16530      7300
 16531              	.LASF82:
 16532 0532 6D617833 		.ascii	"max30102_handle_t\000"
 16532      30313032 
 16532      5F68616E 
 16532      646C655F 
 16532      7400
 16533              	.LASF121:
 16534 0544 636F756E 		.ascii	"counter\000"
 16534      74657200 
 16535              	.LASF141:
 16536 054c 6D617833 		.ascii	"max30102_set_spo2_adc_range\000"
 16536      30313032 
 16536      5F736574 
 16536      5F73706F 
 16536      325F6164 
 16537              	.LASF55:
 16538 0568 4D415833 		.ascii	"MAX30102_SPO2_SAMPLE_RATE_3200_HZ\000"
 16538      30313032 
 16538      5F53504F 
 16538      325F5341 
 16538      4D504C45 
 16539              	.LASF75:
 16540 058a 72656365 		.ascii	"receive_callback\000"
 16540      6976655F 
 16540      63616C6C 
 16540      6261636B 
 16540      00
 16541              	.LASF97:
 16542 059b 6D617833 		.ascii	"max30102_init\000"
 16542      30313032 
 16542      5F696E69 
 16542      7400
 16543              	.LASF76:
 16544 05a9 64656C61 		.ascii	"delay_ms\000"
 16544      795F6D73 
 16544      00
 16545              	.LASF40:
 16546 05b2 4D415833 		.ascii	"MAX30102_INTERRUPT_ALC_OVF_EN\000"
 16546      30313032 
 16546      5F494E54 
 16546      45525255 
ARM GAS  C:\Users\CHRONI~1\AppData\Local\Temp\cc7oUGua.s 			page 345


 16546      50545F41 
 16547              	.LASF36:
 16548 05d0 4D415833 		.ascii	"MAX30102_INTERRUPT_STATUS_DIE_TEMP_RDY\000"
 16548      30313032 
 16548      5F494E54 
 16548      45525255 
 16548      50545F53 
 16549              	.LASF32:
 16550 05f7 4D415833 		.ascii	"MAX30102_INTERRUPT_STATUS_FIFO_FULL\000"
 16550      30313032 
 16550      5F494E54 
 16550      45525255 
 16550      50545F53 
 16551              	.LASF33:
 16552 061b 4D415833 		.ascii	"MAX30102_INTERRUPT_STATUS_PPG_RDY\000"
 16552      30313032 
 16552      5F494E54 
 16552      45525255 
 16552      50545F53 
 16553              	.LASF140:
 16554 063d 6D617833 		.ascii	"max30102_get_mode\000"
 16554      30313032 
 16554      5F676574 
 16554      5F6D6F64 
 16554      6500
 16555              	.LASF14:
 16556 064f 63686172 		.ascii	"char\000"
 16556      00
 16557              	.LASF145:
 16558 0654 72617465 		.ascii	"rate\000"
 16558      00
 16559              	.LASF156:
 16560 0659 6D617833 		.ascii	"max30102_get_slot\000"
 16560      30313032 
 16560      5F676574 
 16560      5F736C6F 
 16560      7400
 16561              	.LASF44:
 16562 066b 4D415833 		.ascii	"MAX30102_SPO2_ADC_RANGE_4096\000"
 16562      30313032 
 16562      5F53504F 
 16562      325F4144 
 16562      435F5241 
 16563              	.LASF102:
 16564 0688 6D617833 		.ascii	"max30102_read\000"
 16564      30313032 
 16564      5F726561 
 16564      6400
 16565              	.LASF28:
 16566 0696 4D415833 		.ascii	"MAX30102_MODE_HEART_RATE\000"
 16566      30313032 
 16566      5F4D4F44 
 16566      455F4845 
 16566      4152545F 
 16567              	.LASF148:
 16568 06af 7265736F 		.ascii	"resolution\000"
 16568      6C757469 
ARM GAS  C:\Users\CHRONI~1\AppData\Local\Temp\cc7oUGua.s 			page 346


 16568      6F6E00
 16569              	.LASF15:
 16570 06ba 75696E74 		.ascii	"uint8_t\000"
 16570      385F7400 
 16571              	.LASF112:
 16572 06c2 73746174 		.ascii	"status\000"
 16572      757300
 16573              	.LASF136:
 16574 06c9 6D617833 		.ascii	"max30102_set_shutdown\000"
 16574      30313032 
 16574      5F736574 
 16574      5F736875 
 16574      74646F77 
 16575              	.LASF122:
 16576 06df 6D617833 		.ascii	"max30102_get_fifo_overflow_counter\000"
 16576      30313032 
 16576      5F676574 
 16576      5F666966 
 16576      6F5F6F76 
 16577              	.LASF158:
 16578 0702 6D617833 		.ascii	"max30102_get_die_temperature\000"
 16578      30313032 
 16578      5F676574 
 16578      5F646965 
 16578      5F74656D 
 16579              	.LASF9:
 16580 071f 6C6F6E67 		.ascii	"long long int\000"
 16580      206C6F6E 
 16580      6720696E 
 16580      7400
 16581              	.LASF30:
 16582 072d 4D415833 		.ascii	"MAX30102_MODE_MULTI_LED\000"
 16582      30313032 
 16582      5F4D4F44 
 16582      455F4D55 
 16582      4C54495F 
 16583              	.LASF46:
 16584 0745 4D415833 		.ascii	"MAX30102_SPO2_ADC_RANGE_16384\000"
 16584      30313032 
 16584      5F53504F 
 16584      325F4144 
 16584      435F5241 
 16585              	.LASF108:
 16586 0763 6D617833 		.ascii	"max30102_read_temperature\000"
 16586      30313032 
 16586      5F726561 
 16586      645F7465 
 16586      6D706572 
 16587              	.LASF101:
 16588 077d 70726576 		.ascii	"prev1\000"
 16588      3100
 16589              	.LASF168:
 16590 0783 6D656D73 		.ascii	"memset\000"
 16590      657400
 16591              	.LASF50:
 16592 078a 4D415833 		.ascii	"MAX30102_SPO2_SAMPLE_RATE_200_HZ\000"
 16592      30313032 
ARM GAS  C:\Users\CHRONI~1\AppData\Local\Temp\cc7oUGua.s 			page 347


 16592      5F53504F 
 16592      325F5341 
 16592      4D504C45 
 16593              	.LASF96:
 16594 07ab 70617274 		.ascii	"part_id\000"
 16594      5F696400 
 16595              	.LASF142:
 16596 07b3 72616E67 		.ascii	"range\000"
 16596      6500
 16597              	.LASF146:
 16598 07b9 6D617833 		.ascii	"max30102_get_spo2_sample_rate\000"
 16598      30313032 
 16598      5F676574 
 16598      5F73706F 
 16598      325F7361 
 16599              	.LASF164:
 16600 07d7 696E666F 		.ascii	"info\000"
 16600      00
 16601              	.LASF92:
 16602 07dc 74656D70 		.ascii	"temperature_max\000"
 16602      65726174 
 16602      7572655F 
 16602      6D617800 
 16603              	.LASF39:
 16604 07ec 4D415833 		.ascii	"MAX30102_INTERRUPT_PPG_RDY_EN\000"
 16604      30313032 
 16604      5F494E54 
 16604      45525255 
 16604      50545F50 
 16605              	.LASF85:
 16606 080a 63686970 		.ascii	"chip_name\000"
 16606      5F6E616D 
 16606      6500
 16607              	.LASF34:
 16608 0814 4D415833 		.ascii	"MAX30102_INTERRUPT_STATUS_ALC_OVF\000"
 16608      30313032 
 16608      5F494E54 
 16608      45525255 
 16608      50545F53 
 16609              	.LASF56:
 16610 0836 6D617833 		.ascii	"max30102_spo2_sample_rate_t\000"
 16610      30313032 
 16610      5F73706F 
 16610      325F7361 
 16610      6D706C65 
 16611              	.LASF126:
 16612 0852 64617461 		.ascii	"data\000"
 16612      00
 16613              	.LASF12:
 16614 0857 6C6F6E67 		.ascii	"long double\000"
 16614      20646F75 
 16614      626C6500 
 16615              	.LASF16:
 16616 0863 75696E74 		.ascii	"uint16_t\000"
 16616      31365F74 
 16616      00
 16617              	.LASF57:
ARM GAS  C:\Users\CHRONI~1\AppData\Local\Temp\cc7oUGua.s 			page 348


 16618 086c 4D415833 		.ascii	"MAX30102_ADC_RESOLUTION_15_BIT\000"
 16618      30313032 
 16618      5F414443 
 16618      5F524553 
 16618      4F4C5554 
 16619              	.LASF70:
 16620 088b 6D617833 		.ascii	"max30102_slot_t\000"
 16620      30313032 
 16620      5F736C6F 
 16620      745F7400 
 16621              	.LASF143:
 16622 089b 6D617833 		.ascii	"max30102_get_spo2_adc_range\000"
 16622      30313032 
 16622      5F676574 
 16622      5F73706F 
 16622      325F6164 
 16623              	.LASF64:
 16624 08b7 4D415833 		.ascii	"MAX30102_LED_IR\000"
 16624      30313032 
 16624      5F4C4544 
 16624      5F495200 
 16625              	.LASF74:
 16626 08c7 6969635F 		.ascii	"iic_write\000"
 16626      77726974 
 16626      6500
 16627              	.LASF54:
 16628 08d1 4D415833 		.ascii	"MAX30102_SPO2_SAMPLE_RATE_1600_HZ\000"
 16628      30313032 
 16628      5F53504F 
 16628      325F5341 
 16628      4D504C45 
 16629              	.LASF61:
 16630 08f3 6D617833 		.ascii	"max30102_adc_resolution_t\000"
 16630      30313032 
 16630      5F616463 
 16630      5F726573 
 16630      6F6C7574 
 16631              	.LASF65:
 16632 090d 6D617833 		.ascii	"max30102_led_t\000"
 16632      30313032 
 16632      5F6C6564 
 16632      5F7400
 16633              	.LASF2:
 16634 091c 73686F72 		.ascii	"short int\000"
 16634      7420696E 
 16634      7400
 16635              	.LASF77:
 16636 0926 64656275 		.ascii	"debug_print\000"
 16636      675F7072 
 16636      696E7400 
 16637              	.LASF114:
 16638 0932 6D617833 		.ascii	"max30102_set_interrupt\000"
 16638      30313032 
 16638      5F736574 
 16638      5F696E74 
 16638      65727275 
 16639              	.LASF6:
ARM GAS  C:\Users\CHRONI~1\AppData\Local\Temp\cc7oUGua.s 			page 349


 16640 0949 6C6F6E67 		.ascii	"long int\000"
 16640      20696E74 
 16640      00
 16641              	.LASF166:
 16642 0952 53656E73 		.ascii	"SensorLib\\max30102\\driver_max30102.c\000"
 16642      6F724C69 
 16642      625C6D61 
 16642      78333031 
 16642      30325C64 
 16643              	.LASF31:
 16644 0977 6D617833 		.ascii	"max30102_mode_t\000"
 16644      30313032 
 16644      5F6D6F64 
 16644      655F7400 
 16645              	.LASF62:
 16646 0987 4D415833 		.ascii	"MAX30102_LED_NONE\000"
 16646      30313032 
 16646      5F4C4544 
 16646      5F4E4F4E 
 16646      4500
 16647              	.LASF139:
 16648 0999 6D617833 		.ascii	"max30102_set_mode\000"
 16648      30313032 
 16648      5F736574 
 16648      5F6D6F64 
 16648      6500
 16649              	.LASF138:
 16650 09ab 6D617833 		.ascii	"max30102_reset\000"
 16650      30313032 
 16650      5F726573 
 16650      657400
 16651              	.LASF90:
 16652 09ba 6D61785F 		.ascii	"max_current_ma\000"
 16652      63757272 
 16652      656E745F 
 16652      6D6100
 16653              	.LASF154:
 16654 09c9 6D617833 		.ascii	"max30102_set_slot\000"
 16654      30313032 
 16654      5F736574 
 16654      5F736C6F 
 16654      7400
 16655              	.LASF109:
 16656 09db 74656D70 		.ascii	"temp\000"
 16656      00
 16657              	.LASF120:
 16658 09e0 6D617833 		.ascii	"max30102_set_fifo_overflow_counter\000"
 16658      30313032 
 16658      5F736574 
 16658      5F666966 
 16658      6F5F6F76 
 16659              	.LASF100:
 16660 0a03 6D617833 		.ascii	"max30102_irq_handler\000"
 16660      30313032 
 16660      5F697271 
 16660      5F68616E 
 16660      646C6572 
ARM GAS  C:\Users\CHRONI~1\AppData\Local\Temp\cc7oUGua.s 			page 350


 16661              	.LASF51:
 16662 0a18 4D415833 		.ascii	"MAX30102_SPO2_SAMPLE_RATE_400_HZ\000"
 16662      30313032 
 16662      5F53504F 
 16662      325F5341 
 16662      4D504C45 
 16663              	.LASF161:
 16664 0a39 6D617833 		.ascii	"max30102_set_reg\000"
 16664      30313032 
 16664      5F736574 
 16664      5F726567 
 16664      00
 16665              	.LASF118:
 16666 0a4a 706F696E 		.ascii	"pointer\000"
 16666      74657200 
 16667              	.LASF106:
 16668 0a52 72656164 		.ascii	"read_point\000"
 16668      5F706F69 
 16668      6E7400
 16669              	.LASF116:
 16670 0a5d 6D617833 		.ascii	"max30102_get_interrupt\000"
 16670      30313032 
 16670      5F676574 
 16670      5F696E74 
 16670      65727275 
 16671              	.LASF147:
 16672 0a74 6D617833 		.ascii	"max30102_set_adc_resolution\000"
 16672      30313032 
 16672      5F736574 
 16672      5F616463 
 16672      5F726573 
 16673              	.LASF3:
 16674 0a90 5F5F7569 		.ascii	"__uint8_t\000"
 16674      6E74385F 
 16674      7400
 16675              	.LASF86:
 16676 0a9a 6D616E75 		.ascii	"manufacturer_name\000"
 16676      66616374 
 16676      75726572 
 16676      5F6E616D 
 16676      6500
 16677              	.LASF157:
 16678 0aac 6D617833 		.ascii	"max30102_set_die_temperature\000"
 16678      30313032 
 16678      5F736574 
 16678      5F646965 
 16678      5F74656D 
 16679              	.LASF72:
 16680 0ac9 6969635F 		.ascii	"iic_deinit\000"
 16680      6465696E 
 16680      697400
 16681              	.LASF13:
 16682 0ad4 73697A65 		.ascii	"sizetype\000"
 16682      74797065 
 16682      00
 16683              	.LASF8:
 16684 0add 6C6F6E67 		.ascii	"long unsigned int\000"
ARM GAS  C:\Users\CHRONI~1\AppData\Local\Temp\cc7oUGua.s 			page 351


 16684      20756E73 
 16684      69676E65 
 16684      6420696E 
 16684      7400
 16685              	.LASF129:
 16686 0aef 73616D70 		.ascii	"sample\000"
 16686      6C6500
 16687              	.LASF84:
 16688 0af6 6D617833 		.ascii	"max30102_info_s\000"
 16688      30313032 
 16688      5F696E66 
 16688      6F5F7300 
 16689              	.LASF94:
 16690 0b06 6D617833 		.ascii	"max30102_info_t\000"
 16690      30313032 
 16690      5F696E66 
 16690      6F5F7400 
 16691              	.LASF115:
 16692 0b16 74797065 		.ascii	"type\000"
 16692      00
 16693              	.LASF1:
 16694 0b1b 756E7369 		.ascii	"unsigned char\000"
 16694      676E6564 
 16694      20636861 
 16694      7200
 16695              	.LASF150:
 16696 0b29 6D617833 		.ascii	"max30102_set_led_red_pulse_amplitude\000"
 16696      30313032 
 16696      5F736574 
 16696      5F6C6564 
 16696      5F726564 
 16697              	.LASF7:
 16698 0b4e 5F5F7569 		.ascii	"__uint32_t\000"
 16698      6E743332 
 16698      5F7400
 16699              	.LASF25:
 16700 0b59 4D415833 		.ascii	"MAX30102_SAMPLE_AVERAGING_16\000"
 16700      30313032 
 16700      5F53414D 
 16700      504C455F 
 16700      41564552 
 16701              	.LASF135:
 16702 0b76 6D617833 		.ascii	"max30102_get_fifo_almost_full\000"
 16702      30313032 
 16702      5F676574 
 16702      5F666966 
 16702      6F5F616C 
 16703              	.LASF110:
 16704 0b94 74696D65 		.ascii	"timeout\000"
 16704      6F757400 
 16705              	.LASF98:
 16706 0b9c 6D617833 		.ascii	"max30102_deinit\000"
 16706      30313032 
 16706      5F646569 
 16706      6E697400 
 16707              	.LASF111:
 16708 0bac 6D617833 		.ascii	"max30102_get_interrupt_status\000"
ARM GAS  C:\Users\CHRONI~1\AppData\Local\Temp\cc7oUGua.s 			page 352


 16708      30313032 
 16708      5F676574 
 16708      5F696E74 
 16708      65727275 
 16709              	.LASF144:
 16710 0bca 6D617833 		.ascii	"max30102_set_spo2_sample_rate\000"
 16710      30313032 
 16710      5F736574 
 16710      5F73706F 
 16710      325F7361 
 16711              	.LASF66:
 16712 0be8 4D415833 		.ascii	"MAX30102_SLOT_1\000"
 16712      30313032 
 16712      5F534C4F 
 16712      545F3100 
 16713              	.LASF67:
 16714 0bf8 4D415833 		.ascii	"MAX30102_SLOT_2\000"
 16714      30313032 
 16714      5F534C4F 
 16714      545F3200 
 16715              	.LASF68:
 16716 0c08 4D415833 		.ascii	"MAX30102_SLOT_3\000"
 16716      30313032 
 16716      5F534C4F 
 16716      545F3300 
 16717              	.LASF69:
 16718 0c18 4D415833 		.ascii	"MAX30102_SLOT_4\000"
 16718      30313032 
 16718      5F534C4F 
 16718      545F3400 
 16719              	.LASF152:
 16720 0c28 6D617833 		.ascii	"max30102_set_led_ir_pulse_amplitude\000"
 16720      30313032 
 16720      5F736574 
 16720      5F6C6564 
 16720      5F69725F 
 16721              	.LASF21:
 16722 0c4c 4D415833 		.ascii	"MAX30102_SAMPLE_AVERAGING_1\000"
 16722      30313032 
 16722      5F53414D 
 16722      504C455F 
 16722      41564552 
 16723              	.LASF22:
 16724 0c68 4D415833 		.ascii	"MAX30102_SAMPLE_AVERAGING_2\000"
 16724      30313032 
 16724      5F53414D 
 16724      504C455F 
 16724      41564552 
 16725              	.LASF23:
 16726 0c84 4D415833 		.ascii	"MAX30102_SAMPLE_AVERAGING_4\000"
 16726      30313032 
 16726      5F53414D 
 16726      504C455F 
 16726      41564552 
 16727              	.LASF24:
 16728 0ca0 4D415833 		.ascii	"MAX30102_SAMPLE_AVERAGING_8\000"
 16728      30313032 
ARM GAS  C:\Users\CHRONI~1\AppData\Local\Temp\cc7oUGua.s 			page 353


 16728      5F53414D 
 16728      504C455F 
 16728      41564552 
 16729              	.LASF123:
 16730 0cbc 6D617833 		.ascii	"max30102_set_fifo_read_pointer\000"
 16730      30313032 
 16730      5F736574 
 16730      5F666966 
 16730      6F5F7265 
 16731              	.LASF0:
 16732 0cdb 7369676E 		.ascii	"signed char\000"
 16732      65642063 
 16732      68617200 
 16733              	.LASF49:
 16734 0ce7 4D415833 		.ascii	"MAX30102_SPO2_SAMPLE_RATE_100_HZ\000"
 16734      30313032 
 16734      5F53504F 
 16734      325F5341 
 16734      4D504C45 
 16735              	.LASF60:
 16736 0d08 4D415833 		.ascii	"MAX30102_ADC_RESOLUTION_18_BIT\000"
 16736      30313032 
 16736      5F414443 
 16736      5F524553 
 16736      4F4C5554 
 16737              	.LASF5:
 16738 0d27 73686F72 		.ascii	"short unsigned int\000"
 16738      7420756E 
 16738      7369676E 
 16738      65642069 
 16738      6E7400
 16739              	.LASF18:
 16740 0d3a 4D415833 		.ascii	"MAX30102_BOOL_FALSE\000"
 16740      30313032 
 16740      5F424F4F 
 16740      4C5F4641 
 16740      4C534500 
 16741              	.LASF99:
 16742 0d4e 68616E64 		.ascii	"handle\000"
 16742      6C6500
 16743              	.LASF88:
 16744 0d55 73757070 		.ascii	"supply_voltage_min_v\000"
 16744      6C795F76 
 16744      6F6C7461 
 16744      67655F6D 
 16744      696E5F76 
 16745              	.LASF42:
 16746 0d6a 6D617833 		.ascii	"max30102_interrupt_t\000"
 16746      30313032 
 16746      5F696E74 
 16746      65727275 
 16746      70745F74 
 16747              	.LASF59:
 16748 0d7f 4D415833 		.ascii	"MAX30102_ADC_RESOLUTION_17_BIT\000"
 16748      30313032 
 16748      5F414443 
 16748      5F524553 
ARM GAS  C:\Users\CHRONI~1\AppData\Local\Temp\cc7oUGua.s 			page 354


 16748      4F4C5554 
 16749              	.LASF43:
 16750 0d9e 4D415833 		.ascii	"MAX30102_SPO2_ADC_RANGE_2048\000"
 16750      30313032 
 16750      5F53504F 
 16750      325F4144 
 16750      435F5241 
 16751              	.LASF26:
 16752 0dbb 4D415833 		.ascii	"MAX30102_SAMPLE_AVERAGING_32\000"
 16752      30313032 
 16752      5F53414D 
 16752      504C455F 
 16752      41564552 
 16753              	.LASF103:
 16754 0dd8 7261775F 		.ascii	"raw_red\000"
 16754      72656400 
 16755              		.ident	"GCC: (GNU Tools for ARM Embedded Processors) 5.4.1 20160609 (release) [ARM/embedded-5-bran
