ARM GAS  C:\Users\CHRONI~1\AppData\Local\Temp\cc7oUGua.s 			page 1


   1              		.syntax unified
   2              		.cpu cortex-m3
   3              		.fpu softvfp
   4              		.eabi_attribute 20, 1
   5              		.eabi_attribute 21, 1
   6              		.eabi_attribute 23, 3
   7              		.eabi_attribute 24, 1
   8              		.eabi_attribute 25, 1
   9              		.eabi_attribute 26, 1
  10              		.eabi_attribute 30, 1
  11              		.eabi_attribute 34, 1
  12              		.eabi_attribute 18, 4
  13              		.thumb
  14              		.syntax unified
  15              		.file	"driver_max30102.c"
  16              		.text
  17              	.Ltext0:
  18              		.cfi_sections	.debug_frame
  19              		.section	.text.max30102_init,"ax",%progbits
  20              		.align	2
  21              		.global	max30102_init
  22              		.thumb
  23              		.thumb_func
  24              		.type	max30102_init, %function
  25              	max30102_init:
  26              	.LFB1:
  27              		.file 1 "SensorLib\\max30102\\driver_max30102.c"
   1:SensorLib\max30102/driver_max30102.c **** /**
   2:SensorLib\max30102/driver_max30102.c ****  * Copyright (c) 2015 - present LibDriver All rights reserved
   3:SensorLib\max30102/driver_max30102.c ****  * 
   4:SensorLib\max30102/driver_max30102.c ****  * The MIT License (MIT)
   5:SensorLib\max30102/driver_max30102.c ****  *
   6:SensorLib\max30102/driver_max30102.c ****  * Permission is hereby granted, free of charge, to any person obtaining a copy
   7:SensorLib\max30102/driver_max30102.c ****  * of this software and associated documentation files (the "Software"), to deal
   8:SensorLib\max30102/driver_max30102.c ****  * in the Software without restriction, including without limitation the rights
   9:SensorLib\max30102/driver_max30102.c ****  * to use, copy, modify, merge, publish, distribute, sublicense, and/or sell
  10:SensorLib\max30102/driver_max30102.c ****  * copies of the Software, and to permit persons to whom the Software is
  11:SensorLib\max30102/driver_max30102.c ****  * furnished to do so, subject to the following conditions:
  12:SensorLib\max30102/driver_max30102.c ****  *
  13:SensorLib\max30102/driver_max30102.c ****  * The above copyright notice and this permission notice shall be included in all
  14:SensorLib\max30102/driver_max30102.c ****  * copies or substantial portions of the Software.
  15:SensorLib\max30102/driver_max30102.c ****  *
  16:SensorLib\max30102/driver_max30102.c ****  * THE SOFTWARE IS PROVIDED "AS IS", WITHOUT WARRANTY OF ANY KIND, EXPRESS OR
  17:SensorLib\max30102/driver_max30102.c ****  * IMPLIED, INCLUDING BUT NOT LIMITED TO THE WARRANTIES OF MERCHANTABILITY,
  18:SensorLib\max30102/driver_max30102.c ****  * FITNESS FOR A PARTICULAR PURPOSE AND NONINFRINGEMENT. IN NO EVENT SHALL THE
  19:SensorLib\max30102/driver_max30102.c ****  * AUTHORS OR COPYRIGHT HOLDERS BE LIABLE FOR ANY CLAIM, DAMAGES OR OTHER
  20:SensorLib\max30102/driver_max30102.c ****  * LIABILITY, WHETHER IN AN ACTION OF CONTRACT, TORT OR OTHERWISE, ARISING FROM,
  21:SensorLib\max30102/driver_max30102.c ****  * OUT OF OR IN CONNECTION WITH THE SOFTWARE OR THE USE OR OTHER DEALINGS IN THE
  22:SensorLib\max30102/driver_max30102.c ****  * SOFTWARE. 
  23:SensorLib\max30102/driver_max30102.c ****  *
  24:SensorLib\max30102/driver_max30102.c ****  * @file      driver_max30102.c
  25:SensorLib\max30102/driver_max30102.c ****  * @brief     driver max30102 source file
  26:SensorLib\max30102/driver_max30102.c ****  * @version   1.0.0
  27:SensorLib\max30102/driver_max30102.c ****  * @author    Shifeng Li
  28:SensorLib\max30102/driver_max30102.c ****  * @date      2021-11-13
  29:SensorLib\max30102/driver_max30102.c ****  *
  30:SensorLib\max30102/driver_max30102.c ****  * <h3>history</h3>
ARM GAS  C:\Users\CHRONI~1\AppData\Local\Temp\cc7oUGua.s 			page 2


  31:SensorLib\max30102/driver_max30102.c ****  * <table>
  32:SensorLib\max30102/driver_max30102.c ****  * <tr><th>Date        <th>Version  <th>Author      <th>Description
  33:SensorLib\max30102/driver_max30102.c ****  * <tr><td>2021/11/13  <td>1.0      <td>Shifeng Li  <td>first upload
  34:SensorLib\max30102/driver_max30102.c ****  * </table>
  35:SensorLib\max30102/driver_max30102.c ****  */
  36:SensorLib\max30102/driver_max30102.c **** 
  37:SensorLib\max30102/driver_max30102.c **** #include "driver_max30102.h"
  38:SensorLib\max30102/driver_max30102.c **** 
  39:SensorLib\max30102/driver_max30102.c **** /**
  40:SensorLib\max30102/driver_max30102.c ****  * @brief chip information definition
  41:SensorLib\max30102/driver_max30102.c ****  */
  42:SensorLib\max30102/driver_max30102.c **** #define CHIP_NAME                 "Maxim Integrated MAX30102"        /**< chip name */
  43:SensorLib\max30102/driver_max30102.c **** #define MANUFACTURER_NAME         "Maxim Integrated"                 /**< manufacturer name */
  44:SensorLib\max30102/driver_max30102.c **** #define SUPPLY_VOLTAGE_MIN        1.7f                               /**< chip min supply voltage *
  45:SensorLib\max30102/driver_max30102.c **** #define SUPPLY_VOLTAGE_MAX        2.0f                               /**< chip max supply voltage *
  46:SensorLib\max30102/driver_max30102.c **** #define MAX_CURRENT               20.0f                              /**< chip max current */
  47:SensorLib\max30102/driver_max30102.c **** #define TEMPERATURE_MIN           -40.0f                             /**< chip min operating temper
  48:SensorLib\max30102/driver_max30102.c **** #define TEMPERATURE_MAX           85.0f                              /**< chip max operating temper
  49:SensorLib\max30102/driver_max30102.c **** #define DRIVER_VERSION            1000                               /**< driver version */
  50:SensorLib\max30102/driver_max30102.c **** 
  51:SensorLib\max30102/driver_max30102.c **** /**
  52:SensorLib\max30102/driver_max30102.c ****  * @brief iic address definition
  53:SensorLib\max30102/driver_max30102.c ****  */
  54:SensorLib\max30102/driver_max30102.c **** #define MAX30102_ADDRESS        0x57        /**< iic address */
  55:SensorLib\max30102/driver_max30102.c **** 
  56:SensorLib\max30102/driver_max30102.c **** /**
  57:SensorLib\max30102/driver_max30102.c ****  * @brief chip register definition
  58:SensorLib\max30102/driver_max30102.c ****  */
  59:SensorLib\max30102/driver_max30102.c **** #define MAX30102_REG_INTERRUPT_STATUS_1          0x00        /**< interrupt status 1 register */
  60:SensorLib\max30102/driver_max30102.c **** #define MAX30102_REG_INTERRUPT_STATUS_2          0x01        /**< interrupt status 2 register */
  61:SensorLib\max30102/driver_max30102.c **** #define MAX30102_REG_INTERRUPT_ENABLE_1          0x02        /**< interrupt enable 1 register */
  62:SensorLib\max30102/driver_max30102.c **** #define MAX30102_REG_INTERRUPT_ENABLE_2          0x03        /**< interrupt enable 2 register */
  63:SensorLib\max30102/driver_max30102.c **** #define MAX30102_REG_FIFO_WRITE_POINTER          0x04        /**< fifo write pointer register */
  64:SensorLib\max30102/driver_max30102.c **** #define MAX30102_REG_OVERFLOW_COUNTER            0x05        /**< overflow counter register */
  65:SensorLib\max30102/driver_max30102.c **** #define MAX30102_REG_FIFO_READ_POINTER           0x06        /**< fifo read pointer register */
  66:SensorLib\max30102/driver_max30102.c **** #define MAX30102_REG_FIFO_DATA_REGISTER          0x07        /**< fifo data register */
  67:SensorLib\max30102/driver_max30102.c **** #define MAX30102_REG_FIFO_CONFIG                 0x08        /**< fifo config register */
  68:SensorLib\max30102/driver_max30102.c **** #define MAX30102_REG_MODE_CONFIG                 0x09        /**< mode config register */
  69:SensorLib\max30102/driver_max30102.c **** #define MAX30102_REG_SPO2_CONFIG                 0x0A        /**< spo2 config register */
  70:SensorLib\max30102/driver_max30102.c **** #define MAX30102_REG_LED_PULSE_1                 0x0C        /**< led pulse amplitude 1 register */
  71:SensorLib\max30102/driver_max30102.c **** #define MAX30102_REG_LED_PULSE_2                 0x0D        /**< led pulse amplitude 2 register */
  72:SensorLib\max30102/driver_max30102.c **** #define MAX30102_REG_MULTI_LED_MODE_CONTROL_1    0x11        /**< multi led mode control 1 register
  73:SensorLib\max30102/driver_max30102.c **** #define MAX30102_REG_MULTI_LED_MODE_CONTROL_2    0x12        /**< multi led mode control 2 register
  74:SensorLib\max30102/driver_max30102.c **** #define MAX30102_REG_DIE_TEMP_INTEGER            0x1F        /**< die temperature integer register 
  75:SensorLib\max30102/driver_max30102.c **** #define MAX30102_REG_DIE_TEMP_FRACTION           0x20        /**< die temperature fraction register
  76:SensorLib\max30102/driver_max30102.c **** #define MAX30102_REG_DIE_TEMP_CONFIG             0x21        /**< die temperature config register *
  77:SensorLib\max30102/driver_max30102.c **** #define MAX30102_REG_REVISION_ID                 0xFE        /**< revision id register */
  78:SensorLib\max30102/driver_max30102.c **** #define MAX30102_REG_PART_ID                     0xFF        /**< part id register */
  79:SensorLib\max30102/driver_max30102.c **** 
  80:SensorLib\max30102/driver_max30102.c **** /**
  81:SensorLib\max30102/driver_max30102.c ****  * @brief     initialize the chip
  82:SensorLib\max30102/driver_max30102.c ****  * @param[in] *handle points to a max30102 handle structure
  83:SensorLib\max30102/driver_max30102.c ****  * @return    status code
  84:SensorLib\max30102/driver_max30102.c ****  *            - 0 success
  85:SensorLib\max30102/driver_max30102.c ****  *            - 1 iic initialization failed
  86:SensorLib\max30102/driver_max30102.c ****  *            - 2 handle is NULL
  87:SensorLib\max30102/driver_max30102.c ****  *            - 3 linked functions is NULL
ARM GAS  C:\Users\CHRONI~1\AppData\Local\Temp\cc7oUGua.s 			page 3


  88:SensorLib\max30102/driver_max30102.c ****  *            - 4 id is invalid
  89:SensorLib\max30102/driver_max30102.c ****  *            - 5 reset failed
  90:SensorLib\max30102/driver_max30102.c ****  *            - 6 reset fifo failed
  91:SensorLib\max30102/driver_max30102.c ****  * @note      none
  92:SensorLib\max30102/driver_max30102.c ****  */
  93:SensorLib\max30102/driver_max30102.c **** 
  94:SensorLib\max30102/driver_max30102.c **** uint8_t max30102_init(max30102_handle_t *handle)
  95:SensorLib\max30102/driver_max30102.c **** {
  28              		.loc 1 95 0
  29              		.cfi_startproc
  30              		@ args = 0, pretend = 0, frame = 8
  31              		@ frame_needed = 0, uses_anonymous_args = 0
  32              	.LVL0:
  33 0000 F0B5     		push	{r4, r5, r6, r7, lr}
  34              		.cfi_def_cfa_offset 20
  35              		.cfi_offset 4, -20
  36              		.cfi_offset 5, -16
  37              		.cfi_offset 6, -12
  38              		.cfi_offset 7, -8
  39              		.cfi_offset 14, -4
  40 0002 83B0     		sub	sp, sp, #12
  41              		.cfi_def_cfa_offset 32
  96:SensorLib\max30102/driver_max30102.c ****     uint8_t res;
  97:SensorLib\max30102/driver_max30102.c ****     uint8_t prev;
  98:SensorLib\max30102/driver_max30102.c ****     uint8_t part_id;
  99:SensorLib\max30102/driver_max30102.c **** 
 100:SensorLib\max30102/driver_max30102.c ****     if (handle == NULL) {
  42              		.loc 1 100 0
  43 0004 0446     		mov	r4, r0
  44 0006 20B9     		cbnz	r0, .L2
 101:SensorLib\max30102/driver_max30102.c ****         handle->debug_print("max30102: handle is null.\n");
  45              		.loc 1 101 0
  46 0008 8369     		ldr	r3, [r0, #24]
  47 000a 8448     		ldr	r0, .L22
  48              	.LVL1:
  49 000c 9847     		blx	r3
  50              	.LVL2:
 102:SensorLib\max30102/driver_max30102.c ****         return 2;
  51              		.loc 1 102 0
  52 000e 0225     		movs	r5, #2
  53 0010 01E1     		b	.L3
  54              	.LVL3:
  55              	.L2:
 103:SensorLib\max30102/driver_max30102.c ****     }
 104:SensorLib\max30102/driver_max30102.c ****     handle->debug_print("max30102: Initializing...\n");
  56              		.loc 1 104 0
  57 0012 8369     		ldr	r3, [r0, #24]
  58 0014 8248     		ldr	r0, .L22+4
  59              	.LVL4:
  60 0016 9847     		blx	r3
  61              	.LVL5:
 105:SensorLib\max30102/driver_max30102.c **** 
 106:SensorLib\max30102/driver_max30102.c ****     if (handle->debug_print == NULL) {
  62              		.loc 1 106 0
  63 0018 A369     		ldr	r3, [r4, #24]
  64 001a 1BB9     		cbnz	r3, .L4
 107:SensorLib\max30102/driver_max30102.c ****         handle->debug_print("max30102: debug_print is null.\n");
ARM GAS  C:\Users\CHRONI~1\AppData\Local\Temp\cc7oUGua.s 			page 4


  65              		.loc 1 107 0
  66 001c 8148     		ldr	r0, .L22+8
  67 001e 9847     		blx	r3
  68              	.LVL6:
 108:SensorLib\max30102/driver_max30102.c ****         return 3;
  69              		.loc 1 108 0
  70 0020 0325     		movs	r5, #3
  71 0022 F8E0     		b	.L3
  72              	.L4:
 109:SensorLib\max30102/driver_max30102.c ****     }
 110:SensorLib\max30102/driver_max30102.c **** 
 111:SensorLib\max30102/driver_max30102.c ****     if (handle->iic_init == NULL) {
  73              		.loc 1 111 0
  74 0024 2268     		ldr	r2, [r4]
  75 0026 1AB9     		cbnz	r2, .L5
 112:SensorLib\max30102/driver_max30102.c ****         handle->debug_print("max30102: iic_init is null.\n");
  76              		.loc 1 112 0
  77 0028 7F48     		ldr	r0, .L22+12
  78 002a 9847     		blx	r3
  79              	.LVL7:
 113:SensorLib\max30102/driver_max30102.c ****         return 3;
  80              		.loc 1 113 0
  81 002c 0325     		movs	r5, #3
  82 002e F2E0     		b	.L3
  83              	.L5:
 114:SensorLib\max30102/driver_max30102.c ****     }
 115:SensorLib\max30102/driver_max30102.c **** 
 116:SensorLib\max30102/driver_max30102.c ****     if (handle->iic_deinit == NULL) {
  84              		.loc 1 116 0
  85 0030 6268     		ldr	r2, [r4, #4]
  86 0032 1AB9     		cbnz	r2, .L6
 117:SensorLib\max30102/driver_max30102.c ****         handle->debug_print("max30102: iic_deinit is null.\n");
  87              		.loc 1 117 0
  88 0034 7D48     		ldr	r0, .L22+16
  89 0036 9847     		blx	r3
  90              	.LVL8:
 118:SensorLib\max30102/driver_max30102.c ****         return 3;
  91              		.loc 1 118 0
  92 0038 0325     		movs	r5, #3
  93 003a ECE0     		b	.L3
  94              	.L6:
 119:SensorLib\max30102/driver_max30102.c ****     }
 120:SensorLib\max30102/driver_max30102.c **** 
 121:SensorLib\max30102/driver_max30102.c ****     if (handle->iic_read == NULL) {
  95              		.loc 1 121 0
  96 003c A268     		ldr	r2, [r4, #8]
  97 003e 1AB9     		cbnz	r2, .L7
 122:SensorLib\max30102/driver_max30102.c ****         handle->debug_print("max30102: iic_read is null.\n");
  98              		.loc 1 122 0
  99 0040 7B48     		ldr	r0, .L22+20
 100 0042 9847     		blx	r3
 101              	.LVL9:
 123:SensorLib\max30102/driver_max30102.c ****         return 3;
 102              		.loc 1 123 0
 103 0044 0325     		movs	r5, #3
 104 0046 E6E0     		b	.L3
 105              	.L7:
ARM GAS  C:\Users\CHRONI~1\AppData\Local\Temp\cc7oUGua.s 			page 5


 124:SensorLib\max30102/driver_max30102.c ****     }
 125:SensorLib\max30102/driver_max30102.c **** 
 126:SensorLib\max30102/driver_max30102.c ****     if (handle->iic_write == NULL) {
 106              		.loc 1 126 0
 107 0048 E268     		ldr	r2, [r4, #12]
 108 004a 1AB9     		cbnz	r2, .L8
 127:SensorLib\max30102/driver_max30102.c ****         handle->debug_print("max30102: iic_write is null.\n");
 109              		.loc 1 127 0
 110 004c 7948     		ldr	r0, .L22+24
 111 004e 9847     		blx	r3
 112              	.LVL10:
 128:SensorLib\max30102/driver_max30102.c ****         return 3;
 113              		.loc 1 128 0
 114 0050 0325     		movs	r5, #3
 115 0052 E0E0     		b	.L3
 116              	.L8:
 129:SensorLib\max30102/driver_max30102.c ****     }
 130:SensorLib\max30102/driver_max30102.c **** 
 131:SensorLib\max30102/driver_max30102.c ****     if (handle->receive_callback == NULL) {
 117              		.loc 1 131 0
 118 0054 2269     		ldr	r2, [r4, #16]
 119 0056 1AB9     		cbnz	r2, .L9
 132:SensorLib\max30102/driver_max30102.c ****         handle->debug_print("max30102: receive_callback is null.\n");
 120              		.loc 1 132 0
 121 0058 7748     		ldr	r0, .L22+28
 122 005a 9847     		blx	r3
 123              	.LVL11:
 133:SensorLib\max30102/driver_max30102.c ****         return 3;
 124              		.loc 1 133 0
 125 005c 0325     		movs	r5, #3
 126 005e DAE0     		b	.L3
 127              	.L9:
 134:SensorLib\max30102/driver_max30102.c ****     }
 135:SensorLib\max30102/driver_max30102.c **** 
 136:SensorLib\max30102/driver_max30102.c ****     if (handle->delay_ms == NULL) {
 128              		.loc 1 136 0
 129 0060 6269     		ldr	r2, [r4, #20]
 130 0062 1AB9     		cbnz	r2, .L10
 137:SensorLib\max30102/driver_max30102.c ****         handle->debug_print("max30102: delay_ms is null.\n");
 131              		.loc 1 137 0
 132 0064 7548     		ldr	r0, .L22+32
 133 0066 9847     		blx	r3
 134              	.LVL12:
 138:SensorLib\max30102/driver_max30102.c ****         return 3;
 135              		.loc 1 138 0
 136 0068 0325     		movs	r5, #3
 137 006a D4E0     		b	.L3
 138              	.L10:
 139:SensorLib\max30102/driver_max30102.c ****     }
 140:SensorLib\max30102/driver_max30102.c **** 
 141:SensorLib\max30102/driver_max30102.c ****     handle->debug_print("max30102: Initializing I2C...\n");
 139              		.loc 1 141 0
 140 006c 7448     		ldr	r0, .L22+36
 141 006e 9847     		blx	r3
 142              	.LVL13:
 142:SensorLib\max30102/driver_max30102.c ****     if (handle->iic_init() != 0) {
 143              		.loc 1 142 0
ARM GAS  C:\Users\CHRONI~1\AppData\Local\Temp\cc7oUGua.s 			page 6


 144 0070 2368     		ldr	r3, [r4]
 145 0072 9847     		blx	r3
 146              	.LVL14:
 147 0074 20B1     		cbz	r0, .L11
 143:SensorLib\max30102/driver_max30102.c ****         handle->debug_print("max30102: I2C initialization failed.\n");
 148              		.loc 1 143 0
 149 0076 A369     		ldr	r3, [r4, #24]
 150 0078 7248     		ldr	r0, .L22+40
 151 007a 9847     		blx	r3
 152              	.LVL15:
 144:SensorLib\max30102/driver_max30102.c ****         return 1;
 153              		.loc 1 144 0
 154 007c 0125     		movs	r5, #1
 155 007e CAE0     		b	.L3
 156              	.L11:
 145:SensorLib\max30102/driver_max30102.c ****     }
 146:SensorLib\max30102/driver_max30102.c ****     handle->debug_print("max30102: I2C initialization succeeded.\n");
 157              		.loc 1 146 0
 158 0080 A369     		ldr	r3, [r4, #24]
 159 0082 7148     		ldr	r0, .L22+44
 160 0084 9847     		blx	r3
 161              	.LVL16:
 147:SensorLib\max30102/driver_max30102.c ****     handle->debug_print("max30102: Reading Part ID...\n");
 162              		.loc 1 147 0
 163 0086 A369     		ldr	r3, [r4, #24]
 164 0088 7048     		ldr	r0, .L22+48
 165 008a 9847     		blx	r3
 166              	.LVL17:
 148:SensorLib\max30102/driver_max30102.c ****     res = handle->iic_read(MAX30102_ADDRESS, MAX30102_REG_PART_ID, &part_id, 1);
 167              		.loc 1 148 0
 168 008c A568     		ldr	r5, [r4, #8]
 169 008e 0123     		movs	r3, #1
 170 0090 0DF10602 		add	r2, sp, #6
 171 0094 FF21     		movs	r1, #255
 172 0096 5720     		movs	r0, #87
 173 0098 A847     		blx	r5
 174              	.LVL18:
 149:SensorLib\max30102/driver_max30102.c ****     if (res != 0) {
 175              		.loc 1 149 0
 176 009a 30B1     		cbz	r0, .L12
 150:SensorLib\max30102/driver_max30102.c ****         handle->debug_print("max30102: Failed to read Part ID.\n");
 177              		.loc 1 150 0
 178 009c A369     		ldr	r3, [r4, #24]
 179 009e 6C48     		ldr	r0, .L22+52
 180              	.LVL19:
 181 00a0 9847     		blx	r3
 182              	.LVL20:
 151:SensorLib\max30102/driver_max30102.c ****         handle->iic_deinit();
 183              		.loc 1 151 0
 184 00a2 6368     		ldr	r3, [r4, #4]
 185 00a4 9847     		blx	r3
 186              	.LVL21:
 152:SensorLib\max30102/driver_max30102.c ****         return 4;
 187              		.loc 1 152 0
 188 00a6 0425     		movs	r5, #4
 189 00a8 B5E0     		b	.L3
 190              	.LVL22:
ARM GAS  C:\Users\CHRONI~1\AppData\Local\Temp\cc7oUGua.s 			page 7


 191              	.L12:
 153:SensorLib\max30102/driver_max30102.c ****     }
 154:SensorLib\max30102/driver_max30102.c ****     handle->debug_print("max30102: Part ID read successfully. Value: 0x%X\n", part_id);
 192              		.loc 1 154 0
 193 00aa A369     		ldr	r3, [r4, #24]
 194 00ac 9DF80610 		ldrb	r1, [sp, #6]	@ zero_extendqisi2
 195 00b0 6848     		ldr	r0, .L22+56
 196              	.LVL23:
 197 00b2 9847     		blx	r3
 198              	.LVL24:
 155:SensorLib\max30102/driver_max30102.c **** 
 156:SensorLib\max30102/driver_max30102.c ****     if (part_id != 0x15) {
 199              		.loc 1 156 0
 200 00b4 9DF80610 		ldrb	r1, [sp, #6]	@ zero_extendqisi2
 201 00b8 1529     		cmp	r1, #21
 202 00ba 06D0     		beq	.L13
 157:SensorLib\max30102/driver_max30102.c ****         handle->debug_print("max30102: Incorrect Part ID. Expected 0x15 but got 0x%X.\n", part_id);
 203              		.loc 1 157 0
 204 00bc A369     		ldr	r3, [r4, #24]
 205 00be 6648     		ldr	r0, .L22+60
 206 00c0 9847     		blx	r3
 207              	.LVL25:
 158:SensorLib\max30102/driver_max30102.c ****         handle->iic_deinit();
 208              		.loc 1 158 0
 209 00c2 6368     		ldr	r3, [r4, #4]
 210 00c4 9847     		blx	r3
 211              	.LVL26:
 159:SensorLib\max30102/driver_max30102.c ****         return 4;
 212              		.loc 1 159 0
 213 00c6 0425     		movs	r5, #4
 214 00c8 A5E0     		b	.L3
 215              	.L13:
 160:SensorLib\max30102/driver_max30102.c ****     }
 161:SensorLib\max30102/driver_max30102.c ****     handle->debug_print("max30102: Correct Part ID detected.\n");
 216              		.loc 1 161 0
 217 00ca A369     		ldr	r3, [r4, #24]
 218 00cc 6348     		ldr	r0, .L22+64
 219 00ce 9847     		blx	r3
 220              	.LVL27:
 162:SensorLib\max30102/driver_max30102.c **** 
 163:SensorLib\max30102/driver_max30102.c ****     handle->debug_print("max30102: Reading Mode Config...\n");
 221              		.loc 1 163 0
 222 00d0 A369     		ldr	r3, [r4, #24]
 223 00d2 6348     		ldr	r0, .L22+68
 224 00d4 9847     		blx	r3
 225              	.LVL28:
 164:SensorLib\max30102/driver_max30102.c ****     res = handle->iic_read(MAX30102_ADDRESS, MAX30102_REG_MODE_CONFIG, &prev, 1);
 226              		.loc 1 164 0
 227 00d6 A568     		ldr	r5, [r4, #8]
 228 00d8 0123     		movs	r3, #1
 229 00da 0DF10702 		add	r2, sp, #7
 230 00de 0921     		movs	r1, #9
 231 00e0 5720     		movs	r0, #87
 232 00e2 A847     		blx	r5
 233              	.LVL29:
 165:SensorLib\max30102/driver_max30102.c ****     if (res != 0) {
 234              		.loc 1 165 0
ARM GAS  C:\Users\CHRONI~1\AppData\Local\Temp\cc7oUGua.s 			page 8


 235 00e4 30B1     		cbz	r0, .L14
 166:SensorLib\max30102/driver_max30102.c ****         handle->debug_print("max30102: Failed to read Mode Config.\n");
 236              		.loc 1 166 0
 237 00e6 A369     		ldr	r3, [r4, #24]
 238 00e8 5E48     		ldr	r0, .L22+72
 239              	.LVL30:
 240 00ea 9847     		blx	r3
 241              	.LVL31:
 167:SensorLib\max30102/driver_max30102.c ****         handle->iic_deinit();
 242              		.loc 1 167 0
 243 00ec 6368     		ldr	r3, [r4, #4]
 244 00ee 9847     		blx	r3
 245              	.LVL32:
 168:SensorLib\max30102/driver_max30102.c ****         return 5;
 246              		.loc 1 168 0
 247 00f0 0525     		movs	r5, #5
 248 00f2 90E0     		b	.L3
 249              	.LVL33:
 250              	.L14:
 169:SensorLib\max30102/driver_max30102.c ****     }
 170:SensorLib\max30102/driver_max30102.c ****     handle->debug_print("max30102: Mode Config read successfully. Value: 0x%X\n", prev);
 251              		.loc 1 170 0
 252 00f4 A369     		ldr	r3, [r4, #24]
 253 00f6 9DF80710 		ldrb	r1, [sp, #7]	@ zero_extendqisi2
 254 00fa 5B48     		ldr	r0, .L22+76
 255              	.LVL34:
 256 00fc 9847     		blx	r3
 257              	.LVL35:
 171:SensorLib\max30102/driver_max30102.c **** 
 172:SensorLib\max30102/driver_max30102.c ****     prev &= ~(1 << 6);
 258              		.loc 1 172 0
 259 00fe 9DF80730 		ldrb	r3, [sp, #7]	@ zero_extendqisi2
 260 0102 03F0BF03 		and	r3, r3, #191
 173:SensorLib\max30102/driver_max30102.c ****     prev |= 1 << 6;
 261              		.loc 1 173 0
 262 0106 43F04003 		orr	r3, r3, #64
 263 010a 02AD     		add	r5, sp, #8
 264 010c 05F8013D 		strb	r3, [r5, #-1]!
 174:SensorLib\max30102/driver_max30102.c ****     handle->debug_print("max30102: Writing Mode Config with reset (bit 6 set)...\n");
 265              		.loc 1 174 0
 266 0110 A369     		ldr	r3, [r4, #24]
 267 0112 5648     		ldr	r0, .L22+80
 268 0114 9847     		blx	r3
 269              	.LVL36:
 175:SensorLib\max30102/driver_max30102.c ****     res = handle->iic_write(MAX30102_ADDRESS, MAX30102_REG_MODE_CONFIG, &prev, 1);
 270              		.loc 1 175 0
 271 0116 E668     		ldr	r6, [r4, #12]
 272 0118 0123     		movs	r3, #1
 273 011a 2A46     		mov	r2, r5
 274 011c 0921     		movs	r1, #9
 275 011e 5720     		movs	r0, #87
 276 0120 B047     		blx	r6
 277              	.LVL37:
 176:SensorLib\max30102/driver_max30102.c ****     if (res != 0) {
 278              		.loc 1 176 0
 279 0122 30B1     		cbz	r0, .L15
 177:SensorLib\max30102/driver_max30102.c ****         handle->debug_print("max30102: Failed to write Mode Config.\n");
ARM GAS  C:\Users\CHRONI~1\AppData\Local\Temp\cc7oUGua.s 			page 9


 280              		.loc 1 177 0
 281 0124 A369     		ldr	r3, [r4, #24]
 282 0126 5248     		ldr	r0, .L22+84
 283              	.LVL38:
 284 0128 9847     		blx	r3
 285              	.LVL39:
 178:SensorLib\max30102/driver_max30102.c ****         handle->iic_deinit();
 286              		.loc 1 178 0
 287 012a 6368     		ldr	r3, [r4, #4]
 288 012c 9847     		blx	r3
 289              	.LVL40:
 179:SensorLib\max30102/driver_max30102.c ****         return 5;
 290              		.loc 1 179 0
 291 012e 0525     		movs	r5, #5
 292 0130 71E0     		b	.L3
 293              	.LVL41:
 294              	.L15:
 180:SensorLib\max30102/driver_max30102.c ****     }
 181:SensorLib\max30102/driver_max30102.c ****     handle->debug_print("max30102: Mode Config written successfully. Initiating reset...\n");
 295              		.loc 1 181 0
 296 0132 A369     		ldr	r3, [r4, #24]
 297 0134 4F48     		ldr	r0, .L22+88
 298              	.LVL42:
 299 0136 9847     		blx	r3
 300              	.LVL43:
 182:SensorLib\max30102/driver_max30102.c **** 
 183:SensorLib\max30102/driver_max30102.c ****     handle->delay_ms(10);
 301              		.loc 1 183 0
 302 0138 6369     		ldr	r3, [r4, #20]
 303 013a 0A20     		movs	r0, #10
 304 013c 9847     		blx	r3
 305              	.LVL44:
 184:SensorLib\max30102/driver_max30102.c ****     handle->debug_print("max30102: Delay of 10ms after reset command.\n");
 306              		.loc 1 184 0
 307 013e A369     		ldr	r3, [r4, #24]
 308 0140 4D48     		ldr	r0, .L22+92
 309 0142 9847     		blx	r3
 310              	.LVL45:
 185:SensorLib\max30102/driver_max30102.c **** 
 186:SensorLib\max30102/driver_max30102.c ****     handle->debug_print("max30102: Reading Mode Config again to confirm reset...\n");
 311              		.loc 1 186 0
 312 0144 A369     		ldr	r3, [r4, #24]
 313 0146 4D48     		ldr	r0, .L22+96
 314 0148 9847     		blx	r3
 315              	.LVL46:
 187:SensorLib\max30102/driver_max30102.c ****     res = handle->iic_read(MAX30102_ADDRESS, MAX30102_REG_MODE_CONFIG, &prev, 1);
 316              		.loc 1 187 0
 317 014a A568     		ldr	r5, [r4, #8]
 318 014c 0123     		movs	r3, #1
 319 014e 0DF10702 		add	r2, sp, #7
 320 0152 0921     		movs	r1, #9
 321 0154 5720     		movs	r0, #87
 322 0156 A847     		blx	r5
 323              	.LVL47:
 188:SensorLib\max30102/driver_max30102.c ****     if (res != 0) {
 324              		.loc 1 188 0
 325 0158 30B1     		cbz	r0, .L16
ARM GAS  C:\Users\CHRONI~1\AppData\Local\Temp\cc7oUGua.s 			page 10


 189:SensorLib\max30102/driver_max30102.c ****         handle->debug_print("max30102: Failed to read Mode Config after reset.\n");
 326              		.loc 1 189 0
 327 015a A369     		ldr	r3, [r4, #24]
 328 015c 4848     		ldr	r0, .L22+100
 329              	.LVL48:
 330 015e 9847     		blx	r3
 331              	.LVL49:
 190:SensorLib\max30102/driver_max30102.c ****         handle->iic_deinit();
 332              		.loc 1 190 0
 333 0160 6368     		ldr	r3, [r4, #4]
 334 0162 9847     		blx	r3
 335              	.LVL50:
 191:SensorLib\max30102/driver_max30102.c ****         return 5;
 336              		.loc 1 191 0
 337 0164 0525     		movs	r5, #5
 338 0166 56E0     		b	.L3
 339              	.LVL51:
 340              	.L16:
 192:SensorLib\max30102/driver_max30102.c ****     }
 193:SensorLib\max30102/driver_max30102.c ****     handle->debug_print("max30102: Mode Config after reset: 0x%X\n", prev);
 341              		.loc 1 193 0
 342 0168 A369     		ldr	r3, [r4, #24]
 343 016a 9DF80710 		ldrb	r1, [sp, #7]	@ zero_extendqisi2
 344 016e 4548     		ldr	r0, .L22+104
 345              	.LVL52:
 346 0170 9847     		blx	r3
 347              	.LVL53:
 194:SensorLib\max30102/driver_max30102.c **** 
 195:SensorLib\max30102/driver_max30102.c ****     if ((prev & (1 << 6)) != 0) {
 348              		.loc 1 195 0
 349 0172 9DF80730 		ldrb	r3, [sp, #7]	@ zero_extendqisi2
 350 0176 03F04003 		and	r3, r3, #64
 351 017a 03F0FF05 		and	r5, r3, #255
 352 017e 33B1     		cbz	r3, .L17
 196:SensorLib\max30102/driver_max30102.c ****         handle->debug_print("max30102: Reset failed. Bit 6 is still set.\n");
 353              		.loc 1 196 0
 354 0180 A369     		ldr	r3, [r4, #24]
 355 0182 4148     		ldr	r0, .L22+108
 356 0184 9847     		blx	r3
 357              	.LVL54:
 197:SensorLib\max30102/driver_max30102.c ****         handle->iic_deinit();
 358              		.loc 1 197 0
 359 0186 6368     		ldr	r3, [r4, #4]
 360 0188 9847     		blx	r3
 361              	.LVL55:
 198:SensorLib\max30102/driver_max30102.c ****         return 5;
 362              		.loc 1 198 0
 363 018a 0525     		movs	r5, #5
 364 018c 43E0     		b	.L3
 365              	.L17:
 199:SensorLib\max30102/driver_max30102.c ****     }
 200:SensorLib\max30102/driver_max30102.c ****     handle->debug_print("max30102: Reset successful. Bit 6 cleared.\n");
 366              		.loc 1 200 0
 367 018e A369     		ldr	r3, [r4, #24]
 368 0190 3E48     		ldr	r0, .L22+112
 369 0192 9847     		blx	r3
 370              	.LVL56:
ARM GAS  C:\Users\CHRONI~1\AppData\Local\Temp\cc7oUGua.s 			page 11


 201:SensorLib\max30102/driver_max30102.c **** 
 202:SensorLib\max30102/driver_max30102.c ****     prev = 0;
 371              		.loc 1 202 0
 372 0194 02AE     		add	r6, sp, #8
 373 0196 0023     		movs	r3, #0
 374 0198 06F8013D 		strb	r3, [r6, #-1]!
 203:SensorLib\max30102/driver_max30102.c ****     handle->debug_print("max30102: Clearing FIFO pointers...\n");
 375              		.loc 1 203 0
 376 019c A369     		ldr	r3, [r4, #24]
 377 019e 3C48     		ldr	r0, .L22+116
 378 01a0 9847     		blx	r3
 379              	.LVL57:
 204:SensorLib\max30102/driver_max30102.c ****     res = handle->iic_write(MAX30102_ADDRESS, MAX30102_REG_FIFO_READ_POINTER, &prev, 1);
 380              		.loc 1 204 0
 381 01a2 E768     		ldr	r7, [r4, #12]
 382 01a4 0123     		movs	r3, #1
 383 01a6 3246     		mov	r2, r6
 384 01a8 0621     		movs	r1, #6
 385 01aa 5720     		movs	r0, #87
 386 01ac B847     		blx	r7
 387              	.LVL58:
 205:SensorLib\max30102/driver_max30102.c ****     if (res != 0) {
 388              		.loc 1 205 0
 389 01ae 30B1     		cbz	r0, .L18
 206:SensorLib\max30102/driver_max30102.c ****         handle->debug_print("max30102: Failed to write FIFO Read Pointer.\n");
 390              		.loc 1 206 0
 391 01b0 A369     		ldr	r3, [r4, #24]
 392 01b2 3848     		ldr	r0, .L22+120
 393              	.LVL59:
 394 01b4 9847     		blx	r3
 395              	.LVL60:
 207:SensorLib\max30102/driver_max30102.c ****         handle->iic_deinit();
 396              		.loc 1 207 0
 397 01b6 6368     		ldr	r3, [r4, #4]
 398 01b8 9847     		blx	r3
 399              	.LVL61:
 208:SensorLib\max30102/driver_max30102.c ****         return 6;
 400              		.loc 1 208 0
 401 01ba 0625     		movs	r5, #6
 402 01bc 2BE0     		b	.L3
 403              	.LVL62:
 404              	.L18:
 209:SensorLib\max30102/driver_max30102.c ****     }
 210:SensorLib\max30102/driver_max30102.c ****     handle->debug_print("max30102: FIFO Read Pointer cleared.\n");
 405              		.loc 1 210 0
 406 01be A369     		ldr	r3, [r4, #24]
 407 01c0 3548     		ldr	r0, .L22+124
 408              	.LVL63:
 409 01c2 9847     		blx	r3
 410              	.LVL64:
 211:SensorLib\max30102/driver_max30102.c **** 
 212:SensorLib\max30102/driver_max30102.c ****     res = handle->iic_write(MAX30102_ADDRESS, MAX30102_REG_FIFO_WRITE_POINTER, &prev, 1);
 411              		.loc 1 212 0
 412 01c4 E668     		ldr	r6, [r4, #12]
 413 01c6 0123     		movs	r3, #1
 414 01c8 0DF10702 		add	r2, sp, #7
 415 01cc 0421     		movs	r1, #4
ARM GAS  C:\Users\CHRONI~1\AppData\Local\Temp\cc7oUGua.s 			page 12


 416 01ce 5720     		movs	r0, #87
 417 01d0 B047     		blx	r6
 418              	.LVL65:
 213:SensorLib\max30102/driver_max30102.c ****     if (res != 0) {
 419              		.loc 1 213 0
 420 01d2 30B1     		cbz	r0, .L19
 214:SensorLib\max30102/driver_max30102.c ****         handle->debug_print("max30102: Failed to write FIFO Write Pointer.\n");
 421              		.loc 1 214 0
 422 01d4 A369     		ldr	r3, [r4, #24]
 423 01d6 3148     		ldr	r0, .L22+128
 424              	.LVL66:
 425 01d8 9847     		blx	r3
 426              	.LVL67:
 215:SensorLib\max30102/driver_max30102.c ****         handle->iic_deinit();
 427              		.loc 1 215 0
 428 01da 6368     		ldr	r3, [r4, #4]
 429 01dc 9847     		blx	r3
 430              	.LVL68:
 216:SensorLib\max30102/driver_max30102.c ****         return 6;
 431              		.loc 1 216 0
 432 01de 0625     		movs	r5, #6
 433 01e0 19E0     		b	.L3
 434              	.LVL69:
 435              	.L19:
 217:SensorLib\max30102/driver_max30102.c ****     }
 218:SensorLib\max30102/driver_max30102.c ****     handle->debug_print("max30102: FIFO Write Pointer cleared.\n");
 436              		.loc 1 218 0
 437 01e2 A369     		ldr	r3, [r4, #24]
 438 01e4 2E48     		ldr	r0, .L22+132
 439              	.LVL70:
 440 01e6 9847     		blx	r3
 441              	.LVL71:
 219:SensorLib\max30102/driver_max30102.c **** 
 220:SensorLib\max30102/driver_max30102.c ****     res = handle->iic_write(MAX30102_ADDRESS, MAX30102_REG_OVERFLOW_COUNTER, &prev, 1);
 442              		.loc 1 220 0
 443 01e8 E668     		ldr	r6, [r4, #12]
 444 01ea 0123     		movs	r3, #1
 445 01ec 0DF10702 		add	r2, sp, #7
 446 01f0 0521     		movs	r1, #5
 447 01f2 5720     		movs	r0, #87
 448 01f4 B047     		blx	r6
 449              	.LVL72:
 221:SensorLib\max30102/driver_max30102.c ****     if (res != 0) {
 450              		.loc 1 221 0
 451 01f6 30B1     		cbz	r0, .L20
 222:SensorLib\max30102/driver_max30102.c ****         handle->debug_print("max30102: Failed to write Overflow Counter.\n");
 452              		.loc 1 222 0
 453 01f8 A369     		ldr	r3, [r4, #24]
 454 01fa 2A48     		ldr	r0, .L22+136
 455              	.LVL73:
 456 01fc 9847     		blx	r3
 457              	.LVL74:
 223:SensorLib\max30102/driver_max30102.c ****         handle->iic_deinit();
 458              		.loc 1 223 0
 459 01fe 6368     		ldr	r3, [r4, #4]
 460 0200 9847     		blx	r3
 461              	.LVL75:
ARM GAS  C:\Users\CHRONI~1\AppData\Local\Temp\cc7oUGua.s 			page 13


 224:SensorLib\max30102/driver_max30102.c ****         return 6;
 462              		.loc 1 224 0
 463 0202 0625     		movs	r5, #6
 464 0204 07E0     		b	.L3
 465              	.LVL76:
 466              	.L20:
 225:SensorLib\max30102/driver_max30102.c ****     }
 226:SensorLib\max30102/driver_max30102.c ****     handle->debug_print("max30102: Overflow Counter cleared.\n");
 467              		.loc 1 226 0
 468 0206 A369     		ldr	r3, [r4, #24]
 469 0208 2748     		ldr	r0, .L22+140
 470              	.LVL77:
 471 020a 9847     		blx	r3
 472              	.LVL78:
 227:SensorLib\max30102/driver_max30102.c **** 
 228:SensorLib\max30102/driver_max30102.c ****     handle->inited = 1;
 473              		.loc 1 228 0
 474 020c 0123     		movs	r3, #1
 475 020e 2377     		strb	r3, [r4, #28]
 229:SensorLib\max30102/driver_max30102.c ****     handle->debug_print("max30102: Sensor initialized successfully.\n");
 476              		.loc 1 229 0
 477 0210 A369     		ldr	r3, [r4, #24]
 478 0212 2648     		ldr	r0, .L22+144
 479 0214 9847     		blx	r3
 480              	.LVL79:
 481              	.L3:
 230:SensorLib\max30102/driver_max30102.c **** 
 231:SensorLib\max30102/driver_max30102.c ****     return 0;
 232:SensorLib\max30102/driver_max30102.c **** }
 482              		.loc 1 232 0
 483 0216 2846     		mov	r0, r5
 484 0218 03B0     		add	sp, sp, #12
 485              		.cfi_def_cfa_offset 20
 486              		@ sp needed
 487 021a F0BD     		pop	{r4, r5, r6, r7, pc}
 488              	.LVL80:
 489              	.L23:
 490              		.align	2
 491              	.L22:
 492 021c 00000000 		.word	.LC0
 493 0220 1C000000 		.word	.LC1
 494 0224 38000000 		.word	.LC2
 495 0228 58000000 		.word	.LC3
 496 022c 78000000 		.word	.LC4
 497 0230 98000000 		.word	.LC5
 498 0234 B8000000 		.word	.LC6
 499 0238 D8000000 		.word	.LC7
 500 023c 00010000 		.word	.LC8
 501 0240 20010000 		.word	.LC9
 502 0244 40010000 		.word	.LC10
 503 0248 68010000 		.word	.LC11
 504 024c 94010000 		.word	.LC12
 505 0250 B4010000 		.word	.LC13
 506 0254 D8010000 		.word	.LC14
 507 0258 0C020000 		.word	.LC15
 508 025c 48020000 		.word	.LC16
 509 0260 70020000 		.word	.LC17
ARM GAS  C:\Users\CHRONI~1\AppData\Local\Temp\cc7oUGua.s 			page 14


 510 0264 94020000 		.word	.LC18
 511 0268 BC020000 		.word	.LC19
 512 026c F4020000 		.word	.LC20
 513 0270 30030000 		.word	.LC21
 514 0274 58030000 		.word	.LC22
 515 0278 9C030000 		.word	.LC23
 516 027c CC030000 		.word	.LC24
 517 0280 08040000 		.word	.LC25
 518 0284 3C040000 		.word	.LC26
 519 0288 68040000 		.word	.LC27
 520 028c 98040000 		.word	.LC28
 521 0290 C4040000 		.word	.LC29
 522 0294 EC040000 		.word	.LC30
 523 0298 1C050000 		.word	.LC31
 524 029c 44050000 		.word	.LC32
 525 02a0 74050000 		.word	.LC33
 526 02a4 9C050000 		.word	.LC34
 527 02a8 CC050000 		.word	.LC35
 528 02ac F4050000 		.word	.LC36
 529              		.cfi_endproc
 530              	.LFE1:
 531              		.size	max30102_init, .-max30102_init
 532              		.section	.text.max30102_deinit,"ax",%progbits
 533              		.align	2
 534              		.global	max30102_deinit
 535              		.thumb
 536              		.thumb_func
 537              		.type	max30102_deinit, %function
 538              	max30102_deinit:
 539              	.LFB2:
 233:SensorLib\max30102/driver_max30102.c **** 
 234:SensorLib\max30102/driver_max30102.c **** 
 235:SensorLib\max30102/driver_max30102.c **** 
 236:SensorLib\max30102/driver_max30102.c **** /**
 237:SensorLib\max30102/driver_max30102.c ****  * @brief     close the chip
 238:SensorLib\max30102/driver_max30102.c ****  * @param[in] *handle points to a max30102 handle structure
 239:SensorLib\max30102/driver_max30102.c ****  * @return    status code
 240:SensorLib\max30102/driver_max30102.c ****  *            - 0 success
 241:SensorLib\max30102/driver_max30102.c ****  *            - 1 iic deinit failed
 242:SensorLib\max30102/driver_max30102.c ****  *            - 2 handle is NULL
 243:SensorLib\max30102/driver_max30102.c ****  *            - 3 handle is not initialized
 244:SensorLib\max30102/driver_max30102.c ****  *            - 4 power down failed
 245:SensorLib\max30102/driver_max30102.c ****  * @note      none
 246:SensorLib\max30102/driver_max30102.c ****  */
 247:SensorLib\max30102/driver_max30102.c **** uint8_t max30102_deinit(max30102_handle_t *handle)
 248:SensorLib\max30102/driver_max30102.c **** {
 540              		.loc 1 248 0
 541              		.cfi_startproc
 542              		@ args = 0, pretend = 0, frame = 8
 543              		@ frame_needed = 0, uses_anonymous_args = 0
 544              	.LVL81:
 249:SensorLib\max30102/driver_max30102.c ****     uint8_t res;
 250:SensorLib\max30102/driver_max30102.c ****     uint8_t prev;
 251:SensorLib\max30102/driver_max30102.c ****     
 252:SensorLib\max30102/driver_max30102.c ****     if (handle == NULL)                                                                            
 545              		.loc 1 252 0
 546 0000 0028     		cmp	r0, #0
ARM GAS  C:\Users\CHRONI~1\AppData\Local\Temp\cc7oUGua.s 			page 15


 547 0002 30D0     		beq	.L29
 248:SensorLib\max30102/driver_max30102.c ****     uint8_t res;
 548              		.loc 1 248 0
 549 0004 70B5     		push	{r4, r5, r6, lr}
 550              		.cfi_def_cfa_offset 16
 551              		.cfi_offset 4, -16
 552              		.cfi_offset 5, -12
 553              		.cfi_offset 6, -8
 554              		.cfi_offset 14, -4
 555 0006 82B0     		sub	sp, sp, #8
 556              		.cfi_def_cfa_offset 24
 253:SensorLib\max30102/driver_max30102.c ****     {
 254:SensorLib\max30102/driver_max30102.c ****         return 2;                                                                                  
 255:SensorLib\max30102/driver_max30102.c ****     }
 256:SensorLib\max30102/driver_max30102.c ****     if (handle->inited != 1)                                                                       
 557              		.loc 1 256 0
 558 0008 057F     		ldrb	r5, [r0, #28]	@ zero_extendqisi2
 559 000a 012D     		cmp	r5, #1
 560 000c 2ED1     		bne	.L30
 561 000e 0446     		mov	r4, r0
 257:SensorLib\max30102/driver_max30102.c ****     {
 258:SensorLib\max30102/driver_max30102.c ****         return 3;                                                                                  
 259:SensorLib\max30102/driver_max30102.c ****     }
 260:SensorLib\max30102/driver_max30102.c ****     
 261:SensorLib\max30102/driver_max30102.c ****     res = handle->iic_read(MAX30102_ADDRESS, MAX30102_REG_MODE_CONFIG, (uint8_t *)&prev, 1);       
 562              		.loc 1 261 0
 563 0010 8668     		ldr	r6, [r0, #8]
 564 0012 0123     		movs	r3, #1
 565 0014 0DF10702 		add	r2, sp, #7
 566 0018 0921     		movs	r1, #9
 567 001a 5720     		movs	r0, #87
 568              	.LVL82:
 569 001c B047     		blx	r6
 570              	.LVL83:
 262:SensorLib\max30102/driver_max30102.c ****     if (res != 0)                                                                                  
 571              		.loc 1 262 0
 572 001e 20B1     		cbz	r0, .L26
 263:SensorLib\max30102/driver_max30102.c ****     {
 264:SensorLib\max30102/driver_max30102.c ****         handle->debug_print("max30102: read mode config failed.\n");                               
 573              		.loc 1 264 0
 574 0020 A369     		ldr	r3, [r4, #24]
 575 0022 1448     		ldr	r0, .L32
 576              	.LVL84:
 577 0024 9847     		blx	r3
 578              	.LVL85:
 265:SensorLib\max30102/driver_max30102.c ****        
 266:SensorLib\max30102/driver_max30102.c ****         return 4;                                                                                  
 579              		.loc 1 266 0
 580 0026 0423     		movs	r3, #4
 581 0028 21E0     		b	.L25
 582              	.LVL86:
 583              	.L26:
 267:SensorLib\max30102/driver_max30102.c ****     }
 268:SensorLib\max30102/driver_max30102.c ****     prev &= ~(1 << 7);                                                                             
 584              		.loc 1 268 0
 585 002a 9DF80730 		ldrb	r3, [sp, #7]	@ zero_extendqisi2
 269:SensorLib\max30102/driver_max30102.c ****     prev |= 1 << 7;                                                                                
ARM GAS  C:\Users\CHRONI~1\AppData\Local\Temp\cc7oUGua.s 			page 16


 586              		.loc 1 269 0
 587 002e 63F07F03 		orn	r3, r3, #127
 588 0032 02AA     		add	r2, sp, #8
 589 0034 02F8013D 		strb	r3, [r2, #-1]!
 270:SensorLib\max30102/driver_max30102.c ****     res = handle->iic_write(MAX30102_ADDRESS, MAX30102_REG_MODE_CONFIG, (uint8_t *)&prev, 1);      
 590              		.loc 1 270 0
 591 0038 E668     		ldr	r6, [r4, #12]
 592 003a 0123     		movs	r3, #1
 593 003c 0921     		movs	r1, #9
 594 003e 5720     		movs	r0, #87
 595              	.LVL87:
 596 0040 B047     		blx	r6
 597              	.LVL88:
 271:SensorLib\max30102/driver_max30102.c ****     if (res != 0)                                                                                  
 598              		.loc 1 271 0
 599 0042 20B1     		cbz	r0, .L27
 272:SensorLib\max30102/driver_max30102.c ****     {
 273:SensorLib\max30102/driver_max30102.c ****         handle->debug_print("max30102: write mode config failed.\n");                              
 600              		.loc 1 273 0
 601 0044 A369     		ldr	r3, [r4, #24]
 602 0046 0C48     		ldr	r0, .L32+4
 603              	.LVL89:
 604 0048 9847     		blx	r3
 605              	.LVL90:
 274:SensorLib\max30102/driver_max30102.c ****        
 275:SensorLib\max30102/driver_max30102.c ****         return 4;                                                                                  
 606              		.loc 1 275 0
 607 004a 0423     		movs	r3, #4
 608 004c 0FE0     		b	.L25
 609              	.LVL91:
 610              	.L27:
 276:SensorLib\max30102/driver_max30102.c ****     }
 277:SensorLib\max30102/driver_max30102.c ****     if (handle->iic_deinit() != 0)                                                                 
 611              		.loc 1 277 0
 612 004e 6368     		ldr	r3, [r4, #4]
 613 0050 9847     		blx	r3
 614              	.LVL92:
 615 0052 0346     		mov	r3, r0
 616 0054 20B1     		cbz	r0, .L28
 278:SensorLib\max30102/driver_max30102.c ****     {
 279:SensorLib\max30102/driver_max30102.c ****         handle->debug_print("max30102: iic deinit failed.\n");                                     
 617              		.loc 1 279 0
 618 0056 A369     		ldr	r3, [r4, #24]
 619 0058 0848     		ldr	r0, .L32+8
 620 005a 9847     		blx	r3
 621              	.LVL93:
 280:SensorLib\max30102/driver_max30102.c ****         
 281:SensorLib\max30102/driver_max30102.c ****         return 1;                                                                                  
 622              		.loc 1 281 0
 623 005c 2B46     		mov	r3, r5
 624 005e 06E0     		b	.L25
 625              	.L28:
 282:SensorLib\max30102/driver_max30102.c ****     }
 283:SensorLib\max30102/driver_max30102.c ****     
 284:SensorLib\max30102/driver_max30102.c ****     handle->inited = 0;                                                                            
 626              		.loc 1 284 0
 627 0060 0022     		movs	r2, #0
ARM GAS  C:\Users\CHRONI~1\AppData\Local\Temp\cc7oUGua.s 			page 17


 628 0062 2277     		strb	r2, [r4, #28]
 285:SensorLib\max30102/driver_max30102.c ****     
 286:SensorLib\max30102/driver_max30102.c ****     return 0;                                                                                      
 629              		.loc 1 286 0
 630 0064 03E0     		b	.L25
 631              	.LVL94:
 632              	.L29:
 633              		.cfi_def_cfa_offset 0
 634              		.cfi_restore 4
 635              		.cfi_restore 5
 636              		.cfi_restore 6
 637              		.cfi_restore 14
 254:SensorLib\max30102/driver_max30102.c ****     }
 638              		.loc 1 254 0
 639 0066 0223     		movs	r3, #2
 287:SensorLib\max30102/driver_max30102.c **** }
 640              		.loc 1 287 0
 641 0068 1846     		mov	r0, r3
 642              	.LVL95:
 643 006a 7047     		bx	lr
 644              	.LVL96:
 645              	.L30:
 646              		.cfi_def_cfa_offset 24
 647              		.cfi_offset 4, -16
 648              		.cfi_offset 5, -12
 649              		.cfi_offset 6, -8
 650              		.cfi_offset 14, -4
 258:SensorLib\max30102/driver_max30102.c ****     }
 651              		.loc 1 258 0
 652 006c 0323     		movs	r3, #3
 653              	.LVL97:
 654              	.L25:
 655              		.loc 1 287 0
 656 006e 1846     		mov	r0, r3
 657 0070 02B0     		add	sp, sp, #8
 658              		.cfi_def_cfa_offset 16
 659              		@ sp needed
 660 0072 70BD     		pop	{r4, r5, r6, pc}
 661              	.L33:
 662              		.align	2
 663              	.L32:
 664 0074 20060000 		.word	.LC37
 665 0078 44060000 		.word	.LC38
 666 007c 6C060000 		.word	.LC39
 667              		.cfi_endproc
 668              	.LFE2:
 669              		.size	max30102_deinit, .-max30102_deinit
 670              		.global	__aeabi_ui2f
 671              		.global	__aeabi_fmul
 672              		.global	__aeabi_fadd
 673              		.section	.text.max30102_irq_handler,"ax",%progbits
 674              		.align	2
 675              		.global	max30102_irq_handler
 676              		.thumb
 677              		.thumb_func
 678              		.type	max30102_irq_handler, %function
 679              	max30102_irq_handler:
ARM GAS  C:\Users\CHRONI~1\AppData\Local\Temp\cc7oUGua.s 			page 18


 680              	.LFB3:
 288:SensorLib\max30102/driver_max30102.c **** 
 289:SensorLib\max30102/driver_max30102.c **** /**
 290:SensorLib\max30102/driver_max30102.c ****  * @brief     irq handler
 291:SensorLib\max30102/driver_max30102.c ****  * @param[in] *handle points to a max30102 handle structure
 292:SensorLib\max30102/driver_max30102.c ****  * @return    status code
 293:SensorLib\max30102/driver_max30102.c ****  *            - 0 success
 294:SensorLib\max30102/driver_max30102.c ****  *            - 1 run failed
 295:SensorLib\max30102/driver_max30102.c ****  *            - 2 handle is NULL
 296:SensorLib\max30102/driver_max30102.c ****  *            - 3 handle is not initialized
 297:SensorLib\max30102/driver_max30102.c ****  * @note      none
 298:SensorLib\max30102/driver_max30102.c ****  */
 299:SensorLib\max30102/driver_max30102.c **** uint8_t max30102_irq_handler(max30102_handle_t *handle)
 300:SensorLib\max30102/driver_max30102.c **** {
 681              		.loc 1 300 0
 682              		.cfi_startproc
 683              		@ args = 0, pretend = 0, frame = 8
 684              		@ frame_needed = 0, uses_anonymous_args = 0
 685              	.LVL98:
 301:SensorLib\max30102/driver_max30102.c ****     uint8_t res;
 302:SensorLib\max30102/driver_max30102.c ****     uint8_t prev;
 303:SensorLib\max30102/driver_max30102.c ****     
 304:SensorLib\max30102/driver_max30102.c ****     if (handle == NULL)                                                                            
 686              		.loc 1 304 0
 687 0000 0028     		cmp	r0, #0
 688 0002 00F08880 		beq	.L46
 300:SensorLib\max30102/driver_max30102.c ****     uint8_t res;
 689              		.loc 1 300 0
 690 0006 70B5     		push	{r4, r5, r6, lr}
 691              		.cfi_def_cfa_offset 16
 692              		.cfi_offset 4, -16
 693              		.cfi_offset 5, -12
 694              		.cfi_offset 6, -8
 695              		.cfi_offset 14, -4
 696 0008 82B0     		sub	sp, sp, #8
 697              		.cfi_def_cfa_offset 24
 305:SensorLib\max30102/driver_max30102.c ****     {
 306:SensorLib\max30102/driver_max30102.c ****         return 2;                                                                                  
 307:SensorLib\max30102/driver_max30102.c ****     }
 308:SensorLib\max30102/driver_max30102.c ****     if (handle->inited != 1)                                                                       
 698              		.loc 1 308 0
 699 000a 057F     		ldrb	r5, [r0, #28]	@ zero_extendqisi2
 700 000c 012D     		cmp	r5, #1
 701 000e 40F08480 		bne	.L47
 702 0012 0446     		mov	r4, r0
 309:SensorLib\max30102/driver_max30102.c ****     {
 310:SensorLib\max30102/driver_max30102.c ****         return 3;                                                                                  
 311:SensorLib\max30102/driver_max30102.c ****     }
 312:SensorLib\max30102/driver_max30102.c ****     
 313:SensorLib\max30102/driver_max30102.c ****     res = handle->iic_read(MAX30102_ADDRESS, MAX30102_REG_INTERRUPT_STATUS_1, (uint8_t *)&prev, 1);
 703              		.loc 1 313 0
 704 0014 8668     		ldr	r6, [r0, #8]
 705 0016 0123     		movs	r3, #1
 706 0018 0DF10702 		add	r2, sp, #7
 707 001c 0021     		movs	r1, #0
 708 001e 5720     		movs	r0, #87
 709              	.LVL99:
ARM GAS  C:\Users\CHRONI~1\AppData\Local\Temp\cc7oUGua.s 			page 19


 710 0020 B047     		blx	r6
 711              	.LVL100:
 314:SensorLib\max30102/driver_max30102.c ****     if (res != 0)                                                                                  
 712              		.loc 1 314 0
 713 0022 20B1     		cbz	r0, .L36
 315:SensorLib\max30102/driver_max30102.c ****     {
 316:SensorLib\max30102/driver_max30102.c ****         handle->debug_print("max30102: read interrupt status1 failed.\n");                         
 714              		.loc 1 316 0
 715 0024 A369     		ldr	r3, [r4, #24]
 716 0026 3E48     		ldr	r0, .L49
 717              	.LVL101:
 718 0028 9847     		blx	r3
 719              	.LVL102:
 317:SensorLib\max30102/driver_max30102.c ****        
 318:SensorLib\max30102/driver_max30102.c ****         return 1;                                                                                  
 720              		.loc 1 318 0
 721 002a 2846     		mov	r0, r5
 722 002c 76E0     		b	.L35
 723              	.LVL103:
 724              	.L36:
 319:SensorLib\max30102/driver_max30102.c ****     }
 320:SensorLib\max30102/driver_max30102.c ****     if ((prev & (1 << MAX30102_INTERRUPT_STATUS_FIFO_FULL)) != 0)                                  
 725              		.loc 1 320 0
 726 002e 9DF90730 		ldrsb	r3, [sp, #7]
 727 0032 002B     		cmp	r3, #0
 728 0034 03DA     		bge	.L37
 321:SensorLib\max30102/driver_max30102.c ****     {
 322:SensorLib\max30102/driver_max30102.c ****         if (handle->receive_callback != NULL)                                                      
 729              		.loc 1 322 0
 730 0036 2369     		ldr	r3, [r4, #16]
 731 0038 0BB1     		cbz	r3, .L37
 323:SensorLib\max30102/driver_max30102.c ****         {
 324:SensorLib\max30102/driver_max30102.c ****             handle->receive_callback(MAX30102_INTERRUPT_STATUS_FIFO_FULL);                         
 732              		.loc 1 324 0
 733 003a 0720     		movs	r0, #7
 734              	.LVL104:
 735 003c 9847     		blx	r3
 736              	.LVL105:
 737              	.L37:
 325:SensorLib\max30102/driver_max30102.c ****         }
 326:SensorLib\max30102/driver_max30102.c ****     }
 327:SensorLib\max30102/driver_max30102.c ****     if ((prev & (1 << MAX30102_INTERRUPT_STATUS_PPG_RDY)) != 0)                                    
 738              		.loc 1 327 0
 739 003e 9DF80730 		ldrb	r3, [sp, #7]	@ zero_extendqisi2
 740 0042 13F0400F 		tst	r3, #64
 741 0046 03D0     		beq	.L38
 328:SensorLib\max30102/driver_max30102.c ****     {
 329:SensorLib\max30102/driver_max30102.c ****         if (handle->receive_callback != NULL)                                                      
 742              		.loc 1 329 0
 743 0048 2369     		ldr	r3, [r4, #16]
 744 004a 0BB1     		cbz	r3, .L38
 330:SensorLib\max30102/driver_max30102.c ****         {
 331:SensorLib\max30102/driver_max30102.c ****             handle->receive_callback(MAX30102_INTERRUPT_STATUS_PPG_RDY);                           
 745              		.loc 1 331 0
 746 004c 0620     		movs	r0, #6
 747 004e 9847     		blx	r3
 748              	.LVL106:
ARM GAS  C:\Users\CHRONI~1\AppData\Local\Temp\cc7oUGua.s 			page 20


 749              	.L38:
 332:SensorLib\max30102/driver_max30102.c ****         }
 333:SensorLib\max30102/driver_max30102.c ****     }
 334:SensorLib\max30102/driver_max30102.c ****     if ((prev & (1 << MAX30102_INTERRUPT_STATUS_ALC_OVF)) != 0)                                    
 750              		.loc 1 334 0
 751 0050 9DF80730 		ldrb	r3, [sp, #7]	@ zero_extendqisi2
 752 0054 13F0200F 		tst	r3, #32
 753 0058 03D0     		beq	.L39
 335:SensorLib\max30102/driver_max30102.c ****     {
 336:SensorLib\max30102/driver_max30102.c ****         if (handle->receive_callback != NULL)                                                      
 754              		.loc 1 336 0
 755 005a 2369     		ldr	r3, [r4, #16]
 756 005c 0BB1     		cbz	r3, .L39
 337:SensorLib\max30102/driver_max30102.c ****         {
 338:SensorLib\max30102/driver_max30102.c ****             handle->receive_callback(MAX30102_INTERRUPT_STATUS_ALC_OVF);                           
 757              		.loc 1 338 0
 758 005e 0520     		movs	r0, #5
 759 0060 9847     		blx	r3
 760              	.LVL107:
 761              	.L39:
 339:SensorLib\max30102/driver_max30102.c ****         }
 340:SensorLib\max30102/driver_max30102.c ****     }
 341:SensorLib\max30102/driver_max30102.c ****     if ((prev & (1 << MAX30102_INTERRUPT_STATUS_PWR_RDY)) != 0)                                    
 762              		.loc 1 341 0
 763 0062 9DF80730 		ldrb	r3, [sp, #7]	@ zero_extendqisi2
 764 0066 13F0010F 		tst	r3, #1
 765 006a 03D0     		beq	.L40
 342:SensorLib\max30102/driver_max30102.c ****     {
 343:SensorLib\max30102/driver_max30102.c ****         if (handle->receive_callback != NULL)                                                      
 766              		.loc 1 343 0
 767 006c 2369     		ldr	r3, [r4, #16]
 768 006e 0BB1     		cbz	r3, .L40
 344:SensorLib\max30102/driver_max30102.c ****         {
 345:SensorLib\max30102/driver_max30102.c ****             handle->receive_callback(MAX30102_INTERRUPT_STATUS_PWR_RDY);                           
 769              		.loc 1 345 0
 770 0070 0020     		movs	r0, #0
 771 0072 9847     		blx	r3
 772              	.LVL108:
 773              	.L40:
 346:SensorLib\max30102/driver_max30102.c ****         }
 347:SensorLib\max30102/driver_max30102.c ****     }
 348:SensorLib\max30102/driver_max30102.c ****     res = handle->iic_read(MAX30102_ADDRESS, MAX30102_REG_INTERRUPT_STATUS_2, (uint8_t *)&prev, 1);
 774              		.loc 1 348 0
 775 0074 A668     		ldr	r6, [r4, #8]
 776 0076 0123     		movs	r3, #1
 777 0078 0DF10702 		add	r2, sp, #7
 778 007c 1946     		mov	r1, r3
 779 007e 5720     		movs	r0, #87
 780 0080 B047     		blx	r6
 781              	.LVL109:
 349:SensorLib\max30102/driver_max30102.c ****     if (res != 0)                                                                                  
 782              		.loc 1 349 0
 783 0082 20B1     		cbz	r0, .L41
 350:SensorLib\max30102/driver_max30102.c ****     {
 351:SensorLib\max30102/driver_max30102.c ****         handle->debug_print("max30102: read interrupt status2 failed.\n");                         
 784              		.loc 1 351 0
 785 0084 A369     		ldr	r3, [r4, #24]
ARM GAS  C:\Users\CHRONI~1\AppData\Local\Temp\cc7oUGua.s 			page 21


 786 0086 2748     		ldr	r0, .L49+4
 787              	.LVL110:
 788 0088 9847     		blx	r3
 789              	.LVL111:
 352:SensorLib\max30102/driver_max30102.c ****        
 353:SensorLib\max30102/driver_max30102.c ****         return 1;                                                                                  
 790              		.loc 1 353 0
 791 008a 2846     		mov	r0, r5
 792 008c 46E0     		b	.L35
 793              	.LVL112:
 794              	.L41:
 354:SensorLib\max30102/driver_max30102.c ****     }
 355:SensorLib\max30102/driver_max30102.c ****     if ((prev & (1 << MAX30102_INTERRUPT_STATUS_DIE_TEMP_RDY)) != 0)                               
 795              		.loc 1 355 0
 796 008e 9DF80730 		ldrb	r3, [sp, #7]	@ zero_extendqisi2
 797 0092 03F00203 		and	r3, r3, #2
 798 0096 03F0FF00 		and	r0, r3, #255
 799              	.LVL113:
 800 009a 002B     		cmp	r3, #0
 801 009c 3ED0     		beq	.L35
 802              	.LBB2:
 356:SensorLib\max30102/driver_max30102.c ****     {
 357:SensorLib\max30102/driver_max30102.c ****         uint8_t prev1;
 358:SensorLib\max30102/driver_max30102.c ****         
 359:SensorLib\max30102/driver_max30102.c ****         res = handle->iic_read(MAX30102_ADDRESS, MAX30102_REG_DIE_TEMP_INTEGER, (uint8_t *)&prev, 1
 803              		.loc 1 359 0
 804 009e A668     		ldr	r6, [r4, #8]
 805 00a0 0123     		movs	r3, #1
 806 00a2 0DF10702 		add	r2, sp, #7
 807 00a6 1F21     		movs	r1, #31
 808 00a8 5720     		movs	r0, #87
 809 00aa B047     		blx	r6
 810              	.LVL114:
 360:SensorLib\max30102/driver_max30102.c ****         if (res != 0)                                                                              
 811              		.loc 1 360 0
 812 00ac 18B1     		cbz	r0, .L42
 361:SensorLib\max30102/driver_max30102.c ****         {
 362:SensorLib\max30102/driver_max30102.c ****             handle->debug_print("max30102: read die temp integer failed.\n");                      
 813              		.loc 1 362 0
 814 00ae A369     		ldr	r3, [r4, #24]
 815 00b0 1D48     		ldr	r0, .L49+8
 816              	.LVL115:
 817 00b2 9847     		blx	r3
 818              	.LVL116:
 363:SensorLib\max30102/driver_max30102.c ****            
 364:SensorLib\max30102/driver_max30102.c ****             return 1;                                                                              
 819              		.loc 1 364 0
 820 00b4 2DE0     		b	.L43
 821              	.LVL117:
 822              	.L42:
 365:SensorLib\max30102/driver_max30102.c ****         }
 366:SensorLib\max30102/driver_max30102.c ****         handle->raw = (uint16_t)prev << 4;                                                         
 823              		.loc 1 366 0
 824 00b6 9DF80730 		ldrb	r3, [sp, #7]	@ zero_extendqisi2
 825 00ba 1B01     		lsls	r3, r3, #4
 826 00bc E383     		strh	r3, [r4, #30]	@ movhi
 367:SensorLib\max30102/driver_max30102.c ****         res = handle->iic_read(MAX30102_ADDRESS, MAX30102_REG_DIE_TEMP_FRACTION, (uint8_t *)&prev1,
ARM GAS  C:\Users\CHRONI~1\AppData\Local\Temp\cc7oUGua.s 			page 22


 827              		.loc 1 367 0
 828 00be A668     		ldr	r6, [r4, #8]
 829 00c0 0123     		movs	r3, #1
 830 00c2 0DF10602 		add	r2, sp, #6
 831 00c6 2021     		movs	r1, #32
 832 00c8 5720     		movs	r0, #87
 833              	.LVL118:
 834 00ca B047     		blx	r6
 835              	.LVL119:
 368:SensorLib\max30102/driver_max30102.c ****         if (res != 0)                                                                              
 836              		.loc 1 368 0
 837 00cc 18B1     		cbz	r0, .L44
 369:SensorLib\max30102/driver_max30102.c ****         {
 370:SensorLib\max30102/driver_max30102.c ****             handle->debug_print("max30102: read die temp fraction failed.\n");                     
 838              		.loc 1 370 0
 839 00ce A369     		ldr	r3, [r4, #24]
 840 00d0 1648     		ldr	r0, .L49+12
 841              	.LVL120:
 842 00d2 9847     		blx	r3
 843              	.LVL121:
 371:SensorLib\max30102/driver_max30102.c ****            
 372:SensorLib\max30102/driver_max30102.c ****             return 1;                                                                              
 844              		.loc 1 372 0
 845 00d4 1DE0     		b	.L43
 846              	.LVL122:
 847              	.L44:
 373:SensorLib\max30102/driver_max30102.c ****         }
 374:SensorLib\max30102/driver_max30102.c ****         handle->raw = handle->raw | prev1;                                                         
 848              		.loc 1 374 0
 849 00d6 E38B     		ldrh	r3, [r4, #30]
 850 00d8 9DF80650 		ldrb	r5, [sp, #6]	@ zero_extendqisi2
 851 00dc 2B43     		orrs	r3, r3, r5
 852 00de E383     		strh	r3, [r4, #30]	@ movhi
 375:SensorLib\max30102/driver_max30102.c ****         handle->temperature = (float)(prev) + (float)(prev1) * 0.0625f;                            
 853              		.loc 1 375 0
 854 00e0 9DF80700 		ldrb	r0, [sp, #7]	@ zero_extendqisi2
 855              	.LVL123:
 856 00e4 FFF7FEFF 		bl	__aeabi_ui2f
 857              	.LVL124:
 858 00e8 0646     		mov	r6, r0
 859 00ea 2846     		mov	r0, r5
 860 00ec FFF7FEFF 		bl	__aeabi_ui2f
 861              	.LVL125:
 862 00f0 4FF07651 		mov	r1, #1031798784
 863 00f4 FFF7FEFF 		bl	__aeabi_fmul
 864              	.LVL126:
 865 00f8 0146     		mov	r1, r0
 866 00fa 3046     		mov	r0, r6
 867 00fc FFF7FEFF 		bl	__aeabi_fadd
 868              	.LVL127:
 869 0100 2062     		str	r0, [r4, #32]	@ float
 376:SensorLib\max30102/driver_max30102.c ****         handle->finished_flag = 1;                                                                 
 870              		.loc 1 376 0
 871 0102 0123     		movs	r3, #1
 872 0104 6377     		strb	r3, [r4, #29]
 377:SensorLib\max30102/driver_max30102.c ****         
 378:SensorLib\max30102/driver_max30102.c ****         if (handle->receive_callback != NULL)                                                      
ARM GAS  C:\Users\CHRONI~1\AppData\Local\Temp\cc7oUGua.s 			page 23


 873              		.loc 1 378 0
 874 0106 2369     		ldr	r3, [r4, #16]
 875 0108 0BB1     		cbz	r3, .L45
 379:SensorLib\max30102/driver_max30102.c ****         {
 380:SensorLib\max30102/driver_max30102.c ****             handle->receive_callback(MAX30102_INTERRUPT_STATUS_DIE_TEMP_RDY);                      
 876              		.loc 1 380 0
 877 010a 0120     		movs	r0, #1
 878 010c 9847     		blx	r3
 879              	.LVL128:
 880              	.L45:
 881              	.LBE2:
 381:SensorLib\max30102/driver_max30102.c ****         }
 382:SensorLib\max30102/driver_max30102.c ****     }
 383:SensorLib\max30102/driver_max30102.c ****     
 384:SensorLib\max30102/driver_max30102.c ****     return 0;                                                                                      
 882              		.loc 1 384 0
 883 010e 0020     		movs	r0, #0
 884              	.LBB3:
 885 0110 04E0     		b	.L35
 886              	.L43:
 364:SensorLib\max30102/driver_max30102.c ****         }
 887              		.loc 1 364 0 discriminator 1
 888 0112 2846     		mov	r0, r5
 889 0114 02E0     		b	.L35
 890              	.LVL129:
 891              	.L46:
 892              		.cfi_def_cfa_offset 0
 893              		.cfi_restore 4
 894              		.cfi_restore 5
 895              		.cfi_restore 6
 896              		.cfi_restore 14
 897              	.LBE3:
 306:SensorLib\max30102/driver_max30102.c ****     }
 898              		.loc 1 306 0
 899 0116 0220     		movs	r0, #2
 900              	.LVL130:
 385:SensorLib\max30102/driver_max30102.c **** }
 901              		.loc 1 385 0
 902 0118 7047     		bx	lr
 903              	.LVL131:
 904              	.L47:
 905              		.cfi_def_cfa_offset 24
 906              		.cfi_offset 4, -16
 907              		.cfi_offset 5, -12
 908              		.cfi_offset 6, -8
 909              		.cfi_offset 14, -4
 310:SensorLib\max30102/driver_max30102.c ****     }
 910              		.loc 1 310 0
 911 011a 0320     		movs	r0, #3
 912              	.LVL132:
 913              	.L35:
 914              		.loc 1 385 0
 915 011c 02B0     		add	sp, sp, #8
 916              		.cfi_def_cfa_offset 16
 917              		@ sp needed
 918 011e 70BD     		pop	{r4, r5, r6, pc}
 919              	.L50:
ARM GAS  C:\Users\CHRONI~1\AppData\Local\Temp\cc7oUGua.s 			page 24


 920              		.align	2
 921              	.L49:
 922 0120 8C060000 		.word	.LC40
 923 0124 B8060000 		.word	.LC41
 924 0128 E4060000 		.word	.LC42
 925 012c 10070000 		.word	.LC43
 926              		.cfi_endproc
 927              	.LFE3:
 928              		.size	max30102_irq_handler, .-max30102_irq_handler
 929              		.section	.text.max30102_read,"ax",%progbits
 930              		.align	2
 931              		.global	max30102_read
 932              		.thumb
 933              		.thumb_func
 934              		.type	max30102_read, %function
 935              	max30102_read:
 936              	.LFB4:
 386:SensorLib\max30102/driver_max30102.c **** 
 387:SensorLib\max30102/driver_max30102.c **** /**
 388:SensorLib\max30102/driver_max30102.c ****  * @brief         read the data
 389:SensorLib\max30102/driver_max30102.c ****  * @param[in]     *handle points to a max30102 handle structure
 390:SensorLib\max30102/driver_max30102.c ****  * @param[out]    *raw_red points to a red raw data buffer
 391:SensorLib\max30102/driver_max30102.c ****  * @param[out]    *raw_ir points to an ir raw data buffer
 392:SensorLib\max30102/driver_max30102.c ****  * @param[in,out] *len points to a length buffer
 393:SensorLib\max30102/driver_max30102.c ****  * @return        status code
 394:SensorLib\max30102/driver_max30102.c ****  *                - 0 success
 395:SensorLib\max30102/driver_max30102.c ****  *                - 1 read failed
 396:SensorLib\max30102/driver_max30102.c ****  *                - 2 handle is NULL
 397:SensorLib\max30102/driver_max30102.c ****  *                - 3 handle is not initialized
 398:SensorLib\max30102/driver_max30102.c ****  *                - 4 fifo overrun
 399:SensorLib\max30102/driver_max30102.c ****  *                - 5 mode is invalid
 400:SensorLib\max30102/driver_max30102.c ****  * @note          none
 401:SensorLib\max30102/driver_max30102.c ****  */
 402:SensorLib\max30102/driver_max30102.c **** uint8_t max30102_read(max30102_handle_t *handle, uint32_t *raw_red, uint32_t *raw_ir, uint8_t *len)
 403:SensorLib\max30102/driver_max30102.c **** {
 937              		.loc 1 403 0
 938              		.cfi_startproc
 939              		@ args = 0, pretend = 0, frame = 8
 940              		@ frame_needed = 0, uses_anonymous_args = 0
 941              	.LVL133:
 942 0000 2DE9F04F 		push	{r4, r5, r6, r7, r8, r9, r10, fp, lr}
 943              		.cfi_def_cfa_offset 36
 944              		.cfi_offset 4, -36
 945              		.cfi_offset 5, -32
 946              		.cfi_offset 6, -28
 947              		.cfi_offset 7, -24
 948              		.cfi_offset 8, -20
 949              		.cfi_offset 9, -16
 950              		.cfi_offset 10, -12
 951              		.cfi_offset 11, -8
 952              		.cfi_offset 14, -4
 953 0004 83B0     		sub	sp, sp, #12
 954              		.cfi_def_cfa_offset 48
 404:SensorLib\max30102/driver_max30102.c ****     uint8_t res;
 405:SensorLib\max30102/driver_max30102.c ****     uint8_t prev;
 406:SensorLib\max30102/driver_max30102.c ****     uint8_t mode;
 407:SensorLib\max30102/driver_max30102.c ****     uint8_t k;
ARM GAS  C:\Users\CHRONI~1\AppData\Local\Temp\cc7oUGua.s 			page 25


 408:SensorLib\max30102/driver_max30102.c ****     uint8_t read_point;
 409:SensorLib\max30102/driver_max30102.c ****     uint8_t write_point;
 410:SensorLib\max30102/driver_max30102.c ****     uint8_t l;
 411:SensorLib\max30102/driver_max30102.c ****     uint8_t bit;
 412:SensorLib\max30102/driver_max30102.c ****     uint8_t i;
 413:SensorLib\max30102/driver_max30102.c ****     uint8_t r;
 414:SensorLib\max30102/driver_max30102.c ****     
 415:SensorLib\max30102/driver_max30102.c ****     if (handle == NULL)                                                                            
 955              		.loc 1 415 0
 956 0006 0028     		cmp	r0, #0
 957 0008 00F0DE80 		beq	.L68
 958 000c 0546     		mov	r5, r0
 416:SensorLib\max30102/driver_max30102.c ****     {
 417:SensorLib\max30102/driver_max30102.c ****         return 2;                                                                                  
 418:SensorLib\max30102/driver_max30102.c ****     }
 419:SensorLib\max30102/driver_max30102.c ****     if (handle->inited != 1)                                                                       
 959              		.loc 1 419 0
 960 000e 047F     		ldrb	r4, [r0, #28]	@ zero_extendqisi2
 961 0010 012C     		cmp	r4, #1
 962 0012 40F0DB80 		bne	.L69
 963 0016 1E46     		mov	r6, r3
 964 0018 9146     		mov	r9, r2
 965 001a 8846     		mov	r8, r1
 420:SensorLib\max30102/driver_max30102.c ****     {
 421:SensorLib\max30102/driver_max30102.c ****         return 3;                                                                                  
 422:SensorLib\max30102/driver_max30102.c ****     }
 423:SensorLib\max30102/driver_max30102.c ****     
 424:SensorLib\max30102/driver_max30102.c ****     res = handle->iic_read(MAX30102_ADDRESS, MAX30102_REG_OVERFLOW_COUNTER, (uint8_t *)&prev, 1);  
 966              		.loc 1 424 0
 967 001c 8768     		ldr	r7, [r0, #8]
 968 001e 0123     		movs	r3, #1
 969              	.LVL134:
 970 0020 0DF10702 		add	r2, sp, #7
 971              	.LVL135:
 972 0024 0521     		movs	r1, #5
 973              	.LVL136:
 974 0026 5720     		movs	r0, #87
 975              	.LVL137:
 976 0028 B847     		blx	r7
 977              	.LVL138:
 425:SensorLib\max30102/driver_max30102.c ****     if (res != 0)                                                                                  
 978              		.loc 1 425 0
 979 002a 18B1     		cbz	r0, .L53
 426:SensorLib\max30102/driver_max30102.c ****     {
 427:SensorLib\max30102/driver_max30102.c ****         handle->debug_print("max30102: read overflow counter failed.\n");                          
 980              		.loc 1 427 0
 981 002c AB69     		ldr	r3, [r5, #24]
 982 002e 6A48     		ldr	r0, .L78
 983              	.LVL139:
 984 0030 9847     		blx	r3
 985              	.LVL140:
 428:SensorLib\max30102/driver_max30102.c ****        
 429:SensorLib\max30102/driver_max30102.c ****         return 1;                                                                                  
 986              		.loc 1 429 0
 987 0032 CCE0     		b	.L52
 988              	.LVL141:
 989              	.L53:
ARM GAS  C:\Users\CHRONI~1\AppData\Local\Temp\cc7oUGua.s 			page 26


 430:SensorLib\max30102/driver_max30102.c ****     }
 431:SensorLib\max30102/driver_max30102.c ****     r = 0;                                                                                         
 432:SensorLib\max30102/driver_max30102.c ****     if (prev != 0)                                                                                 
 990              		.loc 1 432 0
 991 0034 9DF80730 		ldrb	r3, [sp, #7]	@ zero_extendqisi2
 992 0038 2BB1     		cbz	r3, .L70
 993              	.LVL142:
 433:SensorLib\max30102/driver_max30102.c ****     {
 434:SensorLib\max30102/driver_max30102.c ****         r = 4;                                                                                     
 435:SensorLib\max30102/driver_max30102.c ****         
 436:SensorLib\max30102/driver_max30102.c ****         handle->debug_print("max30102: fifo overrun.\n");                                          
 994              		.loc 1 436 0
 995 003a AB69     		ldr	r3, [r5, #24]
 996 003c 6748     		ldr	r0, .L78+4
 997              	.LVL143:
 998 003e 9847     		blx	r3
 999              	.LVL144:
 434:SensorLib\max30102/driver_max30102.c ****         
 1000              		.loc 1 434 0
 1001 0040 4FF0040B 		mov	fp, #4
 1002 0044 01E0     		b	.L54
 1003              	.LVL145:
 1004              	.L70:
 431:SensorLib\max30102/driver_max30102.c ****     if (prev != 0)                                                                                 
 1005              		.loc 1 431 0
 1006 0046 4FF0000B 		mov	fp, #0
 1007              	.LVL146:
 1008              	.L54:
 437:SensorLib\max30102/driver_max30102.c ****     }
 438:SensorLib\max30102/driver_max30102.c ****     res = handle->iic_read(MAX30102_ADDRESS, MAX30102_REG_FIFO_READ_POINTER, (uint8_t *)&read_point
 1009              		.loc 1 438 0
 1010 004a AF68     		ldr	r7, [r5, #8]
 1011 004c 0123     		movs	r3, #1
 1012 004e 0DF10602 		add	r2, sp, #6
 1013 0052 0621     		movs	r1, #6
 1014 0054 5720     		movs	r0, #87
 1015 0056 B847     		blx	r7
 1016              	.LVL147:
 439:SensorLib\max30102/driver_max30102.c ****     if (res != 0)                                                                                  
 1017              		.loc 1 439 0
 1018 0058 18B1     		cbz	r0, .L55
 440:SensorLib\max30102/driver_max30102.c ****     {
 441:SensorLib\max30102/driver_max30102.c ****         handle->debug_print("max30102: read fifo read point failed.\n");                           
 1019              		.loc 1 441 0
 1020 005a AB69     		ldr	r3, [r5, #24]
 1021 005c 6048     		ldr	r0, .L78+8
 1022              	.LVL148:
 1023 005e 9847     		blx	r3
 1024              	.LVL149:
 442:SensorLib\max30102/driver_max30102.c ****        
 443:SensorLib\max30102/driver_max30102.c ****         return 1;                                                                                  
 1025              		.loc 1 443 0
 1026 0060 B5E0     		b	.L52
 1027              	.LVL150:
 1028              	.L55:
 444:SensorLib\max30102/driver_max30102.c ****     }
 445:SensorLib\max30102/driver_max30102.c ****     res = handle->iic_read(MAX30102_ADDRESS, MAX30102_REG_FIFO_WRITE_POINTER, (uint8_t *)&write_poi
ARM GAS  C:\Users\CHRONI~1\AppData\Local\Temp\cc7oUGua.s 			page 27


 1029              		.loc 1 445 0
 1030 0062 AF68     		ldr	r7, [r5, #8]
 1031 0064 0123     		movs	r3, #1
 1032 0066 0DF10502 		add	r2, sp, #5
 1033 006a 0421     		movs	r1, #4
 1034 006c 5720     		movs	r0, #87
 1035              	.LVL151:
 1036 006e B847     		blx	r7
 1037              	.LVL152:
 446:SensorLib\max30102/driver_max30102.c ****     if (res != 0)                                                                                  
 1038              		.loc 1 446 0
 1039 0070 18B1     		cbz	r0, .L56
 447:SensorLib\max30102/driver_max30102.c ****     {
 448:SensorLib\max30102/driver_max30102.c ****         handle->debug_print("max30102: read fifo write point failed.\n");                          
 1040              		.loc 1 448 0
 1041 0072 AB69     		ldr	r3, [r5, #24]
 1042 0074 5B48     		ldr	r0, .L78+12
 1043              	.LVL153:
 1044 0076 9847     		blx	r3
 1045              	.LVL154:
 449:SensorLib\max30102/driver_max30102.c ****        
 450:SensorLib\max30102/driver_max30102.c ****         return 1;                                                                                  
 1046              		.loc 1 450 0
 1047 0078 A9E0     		b	.L52
 1048              	.LVL155:
 1049              	.L56:
 451:SensorLib\max30102/driver_max30102.c ****     }
 452:SensorLib\max30102/driver_max30102.c ****     
 453:SensorLib\max30102/driver_max30102.c ****     if (write_point > read_point)                                                                  
 1050              		.loc 1 453 0
 1051 007a 9DF80530 		ldrb	r3, [sp, #5]	@ zero_extendqisi2
 1052 007e 9DF80620 		ldrb	r2, [sp, #6]	@ zero_extendqisi2
 1053 0082 9342     		cmp	r3, r2
 1054 0084 02D9     		bls	.L57
 454:SensorLib\max30102/driver_max30102.c ****     {
 455:SensorLib\max30102/driver_max30102.c ****         l = write_point - read_point;                                                              
 1055              		.loc 1 455 0
 1056 0086 9B1A     		subs	r3, r3, r2
 1057 0088 DBB2     		uxtb	r3, r3
 1058              	.LVL156:
 1059 008a 02E0     		b	.L58
 1060              	.LVL157:
 1061              	.L57:
 456:SensorLib\max30102/driver_max30102.c ****     }
 457:SensorLib\max30102/driver_max30102.c ****     else
 458:SensorLib\max30102/driver_max30102.c ****     {
 459:SensorLib\max30102/driver_max30102.c ****         l = 32 + write_point - read_point;                                                         
 1062              		.loc 1 459 0
 1063 008c 9B1A     		subs	r3, r3, r2
 1064 008e 2033     		adds	r3, r3, #32
 1065 0090 DBB2     		uxtb	r3, r3
 1066              	.LVL158:
 1067              	.L58:
 460:SensorLib\max30102/driver_max30102.c ****     }
 461:SensorLib\max30102/driver_max30102.c ****     *len = ((*len) > l) ? l : (*len);                                                              
 1068              		.loc 1 461 0
 1069 0092 3278     		ldrb	r2, [r6]	@ zero_extendqisi2
ARM GAS  C:\Users\CHRONI~1\AppData\Local\Temp\cc7oUGua.s 			page 28


 1070 0094 9342     		cmp	r3, r2
 1071 0096 28BF     		it	cs
 1072 0098 1346     		movcs	r3, r2
 1073              	.LVL159:
 1074 009a 3370     		strb	r3, [r6]
 462:SensorLib\max30102/driver_max30102.c ****     res = handle->iic_read(MAX30102_ADDRESS, MAX30102_REG_MODE_CONFIG, (uint8_t *)&prev, 1);       
 1075              		.loc 1 462 0
 1076 009c AF68     		ldr	r7, [r5, #8]
 1077 009e 0123     		movs	r3, #1
 1078 00a0 0DF10702 		add	r2, sp, #7
 1079 00a4 0921     		movs	r1, #9
 1080 00a6 5720     		movs	r0, #87
 1081              	.LVL160:
 1082 00a8 B847     		blx	r7
 1083              	.LVL161:
 463:SensorLib\max30102/driver_max30102.c ****     if (res != 0)                                                                                  
 1084              		.loc 1 463 0
 1085 00aa 18B1     		cbz	r0, .L59
 464:SensorLib\max30102/driver_max30102.c ****     {
 465:SensorLib\max30102/driver_max30102.c ****         handle->debug_print("max30102: read mode config failed.\n");                               
 1086              		.loc 1 465 0
 1087 00ac AB69     		ldr	r3, [r5, #24]
 1088 00ae 4E48     		ldr	r0, .L78+16
 1089              	.LVL162:
 1090 00b0 9847     		blx	r3
 1091              	.LVL163:
 466:SensorLib\max30102/driver_max30102.c ****        
 467:SensorLib\max30102/driver_max30102.c ****         return 1;                                                                                  
 1092              		.loc 1 467 0
 1093 00b2 8CE0     		b	.L52
 1094              	.LVL164:
 1095              	.L59:
 468:SensorLib\max30102/driver_max30102.c ****     }
 469:SensorLib\max30102/driver_max30102.c ****     mode = (max30102_mode_t)(prev & 0x7);                                                          
 1096              		.loc 1 469 0
 1097 00b4 9DF807A0 		ldrb	r10, [sp, #7]	@ zero_extendqisi2
 1098 00b8 0AF0070A 		and	r10, r10, #7
 1099              	.LVL165:
 470:SensorLib\max30102/driver_max30102.c ****     if (mode == MAX30102_MODE_HEART_RATE)                                                          
 1100              		.loc 1 470 0
 1101 00bc BAF1020F 		cmp	r10, #2
 1102 00c0 0AD0     		beq	.L71
 471:SensorLib\max30102/driver_max30102.c ****     {
 472:SensorLib\max30102/driver_max30102.c ****         k = 3;                                                                                     
 473:SensorLib\max30102/driver_max30102.c ****     }
 474:SensorLib\max30102/driver_max30102.c ****     else if (mode == MAX30102_MODE_SPO2)                                                           
 1103              		.loc 1 474 0
 1104 00c2 BAF1030F 		cmp	r10, #3
 1105 00c6 09D0     		beq	.L72
 475:SensorLib\max30102/driver_max30102.c ****     {
 476:SensorLib\max30102/driver_max30102.c ****         k = 6;                                                                                     
 477:SensorLib\max30102/driver_max30102.c ****     }
 478:SensorLib\max30102/driver_max30102.c ****     else if (mode == MAX30102_MODE_MULTI_LED)                                                      
 1106              		.loc 1 478 0
 1107 00c8 BAF1070F 		cmp	r10, #7
 1108 00cc 08D0     		beq	.L73
 479:SensorLib\max30102/driver_max30102.c ****     {
ARM GAS  C:\Users\CHRONI~1\AppData\Local\Temp\cc7oUGua.s 			page 29


 480:SensorLib\max30102/driver_max30102.c ****         k = 6;                                                                                     
 481:SensorLib\max30102/driver_max30102.c ****     }
 482:SensorLib\max30102/driver_max30102.c ****     else
 483:SensorLib\max30102/driver_max30102.c ****     {
 484:SensorLib\max30102/driver_max30102.c ****         handle->debug_print("max30105: mode is invalid.\n");                                       
 1109              		.loc 1 484 0
 1110 00ce AB69     		ldr	r3, [r5, #24]
 1111 00d0 4648     		ldr	r0, .L78+20
 1112              	.LVL166:
 1113 00d2 9847     		blx	r3
 1114              	.LVL167:
 485:SensorLib\max30102/driver_max30102.c ****        
 486:SensorLib\max30102/driver_max30102.c ****         return 5;                                                                                  
 1115              		.loc 1 486 0
 1116 00d4 0524     		movs	r4, #5
 1117 00d6 7AE0     		b	.L52
 1118              	.LVL168:
 1119              	.L71:
 472:SensorLib\max30102/driver_max30102.c ****     }
 1120              		.loc 1 472 0
 1121 00d8 0322     		movs	r2, #3
 1122 00da 02E0     		b	.L60
 1123              	.L72:
 476:SensorLib\max30102/driver_max30102.c ****     }
 1124              		.loc 1 476 0
 1125 00dc 0622     		movs	r2, #6
 1126 00de 00E0     		b	.L60
 1127              	.L73:
 480:SensorLib\max30102/driver_max30102.c ****     }
 1128              		.loc 1 480 0
 1129 00e0 0622     		movs	r2, #6
 1130              	.L60:
 1131              	.LVL169:
 487:SensorLib\max30102/driver_max30102.c ****     }
 488:SensorLib\max30102/driver_max30102.c ****     
 489:SensorLib\max30102/driver_max30102.c ****     res = handle->iic_read(MAX30102_ADDRESS, MAX30102_REG_FIFO_DATA_REGISTER, handle->buf, (*len) *
 1132              		.loc 1 489 0
 1133 00e2 AF68     		ldr	r7, [r5, #8]
 1134 00e4 3378     		ldrb	r3, [r6]	@ zero_extendqisi2
 1135 00e6 03FB02F3 		mul	r3, r3, r2
 1136 00ea 05F12402 		add	r2, r5, #36
 1137              	.LVL170:
 1138 00ee 0721     		movs	r1, #7
 1139 00f0 5720     		movs	r0, #87
 1140              	.LVL171:
 1141 00f2 B847     		blx	r7
 1142              	.LVL172:
 490:SensorLib\max30102/driver_max30102.c ****     if (res != 0)                                                                                  
 1143              		.loc 1 490 0
 1144 00f4 18B1     		cbz	r0, .L61
 491:SensorLib\max30102/driver_max30102.c ****     {
 492:SensorLib\max30102/driver_max30102.c ****         handle->debug_print("max30102: read fifo data register failed.\n");                        
 1145              		.loc 1 492 0
 1146 00f6 AB69     		ldr	r3, [r5, #24]
 1147 00f8 3D48     		ldr	r0, .L78+24
 1148              	.LVL173:
 1149 00fa 9847     		blx	r3
ARM GAS  C:\Users\CHRONI~1\AppData\Local\Temp\cc7oUGua.s 			page 30


 1150              	.LVL174:
 493:SensorLib\max30102/driver_max30102.c ****        
 494:SensorLib\max30102/driver_max30102.c ****         return 1;                                                                                  
 1151              		.loc 1 494 0
 1152 00fc 67E0     		b	.L52
 1153              	.LVL175:
 1154              	.L61:
 495:SensorLib\max30102/driver_max30102.c ****     }
 496:SensorLib\max30102/driver_max30102.c ****     res = handle->iic_read(MAX30102_ADDRESS, MAX30102_REG_SPO2_CONFIG, (uint8_t *)&prev, 1);       
 1155              		.loc 1 496 0
 1156 00fe AF68     		ldr	r7, [r5, #8]
 1157 0100 0123     		movs	r3, #1
 1158 0102 0DF10702 		add	r2, sp, #7
 1159 0106 0A21     		movs	r1, #10
 1160 0108 5720     		movs	r0, #87
 1161              	.LVL176:
 1162 010a B847     		blx	r7
 1163              	.LVL177:
 497:SensorLib\max30102/driver_max30102.c ****     if (res != 0)                                                                                  
 1164              		.loc 1 497 0
 1165 010c 18B1     		cbz	r0, .L62
 498:SensorLib\max30102/driver_max30102.c ****     {
 499:SensorLib\max30102/driver_max30102.c ****         handle->debug_print("max30102: read spo2 config failed.\n");                               
 1166              		.loc 1 499 0
 1167 010e AB69     		ldr	r3, [r5, #24]
 1168 0110 3848     		ldr	r0, .L78+28
 1169              	.LVL178:
 1170 0112 9847     		blx	r3
 1171              	.LVL179:
 500:SensorLib\max30102/driver_max30102.c ****        
 501:SensorLib\max30102/driver_max30102.c ****         return 1;                                                                                  
 1172              		.loc 1 501 0
 1173 0114 5BE0     		b	.L52
 1174              	.LVL180:
 1175              	.L62:
 502:SensorLib\max30102/driver_max30102.c ****     }
 503:SensorLib\max30102/driver_max30102.c ****     prev = prev & 0x3;                                                                             
 1176              		.loc 1 503 0
 1177 0116 9DF80730 		ldrb	r3, [sp, #7]	@ zero_extendqisi2
 504:SensorLib\max30102/driver_max30102.c ****     if (prev == 0)                                                                                 
 1178              		.loc 1 504 0
 1179 011a 13F00303 		ands	r3, r3, #3
 1180 011e 05D0     		beq	.L74
 505:SensorLib\max30102/driver_max30102.c ****     {
 506:SensorLib\max30102/driver_max30102.c ****         bit = 3;                                                                                   
 507:SensorLib\max30102/driver_max30102.c ****     }
 508:SensorLib\max30102/driver_max30102.c ****     else if (prev == 1)                                                                            
 1181              		.loc 1 508 0
 1182 0120 012B     		cmp	r3, #1
 1183 0122 05D0     		beq	.L75
 509:SensorLib\max30102/driver_max30102.c ****     {
 510:SensorLib\max30102/driver_max30102.c ****         bit = 2;                                                                                   
 511:SensorLib\max30102/driver_max30102.c ****     }
 512:SensorLib\max30102/driver_max30102.c ****     else if (prev == 2)                                                                            
 1184              		.loc 1 512 0
 1185 0124 022B     		cmp	r3, #2
 1186 0126 05D1     		bne	.L76
ARM GAS  C:\Users\CHRONI~1\AppData\Local\Temp\cc7oUGua.s 			page 31


 513:SensorLib\max30102/driver_max30102.c ****     {
 514:SensorLib\max30102/driver_max30102.c ****         bit = 1;                                                                                   
 1187              		.loc 1 514 0
 1188 0128 0121     		movs	r1, #1
 1189 012a 04E0     		b	.L63
 1190              	.L74:
 506:SensorLib\max30102/driver_max30102.c ****     }
 1191              		.loc 1 506 0
 1192 012c 0321     		movs	r1, #3
 1193 012e 02E0     		b	.L63
 1194              	.L75:
 510:SensorLib\max30102/driver_max30102.c ****     }
 1195              		.loc 1 510 0
 1196 0130 0221     		movs	r1, #2
 1197 0132 00E0     		b	.L63
 1198              	.L76:
 515:SensorLib\max30102/driver_max30102.c ****     }
 516:SensorLib\max30102/driver_max30102.c ****     else                                                                                           
 517:SensorLib\max30102/driver_max30102.c ****     {
 518:SensorLib\max30102/driver_max30102.c ****         bit = 0;                                                                                   
 1199              		.loc 1 518 0
 1200 0134 0021     		movs	r1, #0
 1201              	.L63:
 1202              	.LVL181:
 519:SensorLib\max30102/driver_max30102.c ****     }
 520:SensorLib\max30102/driver_max30102.c ****     
 521:SensorLib\max30102/driver_max30102.c ****     for (i = 0; i < (*len); i++)                                                                   
 1203              		.loc 1 521 0
 1204 0136 0022     		movs	r2, #0
 1205 0138 41E0     		b	.L64
 1206              	.LVL182:
 1207              	.L67:
 522:SensorLib\max30102/driver_max30102.c ****     {
 523:SensorLib\max30102/driver_max30102.c ****         if (mode == MAX30102_MODE_HEART_RATE)                                                      
 1208              		.loc 1 523 0
 1209 013a BAF1020F 		cmp	r10, #2
 1210 013e 14D1     		bne	.L65
 524:SensorLib\max30102/driver_max30102.c ****         {
 525:SensorLib\max30102/driver_max30102.c ****             raw_red[i] = ((uint32_t)handle->buf[i * 3 + 0] << 16) |                                
 1211              		.loc 1 525 0
 1212 0140 02EB4203 		add	r3, r2, r2, lsl #1
 1213 0144 E818     		adds	r0, r5, r3
 1214 0146 90F82470 		ldrb	r7, [r0, #36]	@ zero_extendqisi2
 526:SensorLib\max30102/driver_max30102.c ****                          ((uint32_t)handle->buf[i * 3 + 1] << 8) |                                 
 1215              		.loc 1 526 0
 1216 014a 5C1C     		adds	r4, r3, #1
 1217 014c 2C44     		add	r4, r4, r5
 1218 014e 94F82400 		ldrb	r0, [r4, #36]	@ zero_extendqisi2
 1219 0152 0002     		lsls	r0, r0, #8
 525:SensorLib\max30102/driver_max30102.c ****                          ((uint32_t)handle->buf[i * 3 + 1] << 8) |                                 
 1220              		.loc 1 525 0
 1221 0154 40EA0740 		orr	r0, r0, r7, lsl #16
 527:SensorLib\max30102/driver_max30102.c ****                          ((uint32_t)handle->buf[i * 3 + 2] << 0);                                  
 1222              		.loc 1 527 0
 1223 0158 0233     		adds	r3, r3, #2
 1224 015a 2B44     		add	r3, r3, r5
 1225 015c 93F82430 		ldrb	r3, [r3, #36]	@ zero_extendqisi2
ARM GAS  C:\Users\CHRONI~1\AppData\Local\Temp\cc7oUGua.s 			page 32


 526:SensorLib\max30102/driver_max30102.c ****                          ((uint32_t)handle->buf[i * 3 + 1] << 8) |                                 
 1226              		.loc 1 526 0
 1227 0160 0343     		orrs	r3, r3, r0
 528:SensorLib\max30102/driver_max30102.c ****             raw_red[i] = raw_red[i] >> bit;                                                        
 1228              		.loc 1 528 0
 1229 0162 CB40     		lsrs	r3, r3, r1
 1230 0164 48F82230 		str	r3, [r8, r2, lsl #2]
 1231 0168 27E0     		b	.L66
 1232              	.L65:
 529:SensorLib\max30102/driver_max30102.c ****         }
 530:SensorLib\max30102/driver_max30102.c ****         else
 531:SensorLib\max30102/driver_max30102.c ****         {
 532:SensorLib\max30102/driver_max30102.c ****             raw_red[i] = ((uint32_t)handle->buf[i * 6 + 0] << 16) |                                
 1233              		.loc 1 532 0
 1234 016a 02EB4203 		add	r3, r2, r2, lsl #1
 1235 016e 5B00     		lsls	r3, r3, #1
 1236 0170 E818     		adds	r0, r5, r3
 1237 0172 90F824E0 		ldrb	lr, [r0, #36]	@ zero_extendqisi2
 533:SensorLib\max30102/driver_max30102.c ****                          ((uint32_t)handle->buf[i * 6 + 1] << 8) |                                 
 1238              		.loc 1 533 0
 1239 0176 5F1C     		adds	r7, r3, #1
 1240 0178 2F44     		add	r7, r7, r5
 1241 017a 97F82440 		ldrb	r4, [r7, #36]	@ zero_extendqisi2
 1242 017e 2002     		lsls	r0, r4, #8
 532:SensorLib\max30102/driver_max30102.c ****                          ((uint32_t)handle->buf[i * 6 + 1] << 8) |                                 
 1243              		.loc 1 532 0
 1244 0180 40EA0E44 		orr	r4, r0, lr, lsl #16
 534:SensorLib\max30102/driver_max30102.c ****                          ((uint32_t)handle->buf[i * 6 + 2] << 0);                                  
 1245              		.loc 1 534 0
 1246 0184 981C     		adds	r0, r3, #2
 1247 0186 2844     		add	r0, r0, r5
 1248 0188 90F82400 		ldrb	r0, [r0, #36]	@ zero_extendqisi2
 533:SensorLib\max30102/driver_max30102.c ****                          ((uint32_t)handle->buf[i * 6 + 1] << 8) |                                 
 1249              		.loc 1 533 0
 1250 018c 2043     		orrs	r0, r0, r4
 535:SensorLib\max30102/driver_max30102.c ****             raw_red[i] = raw_red[i] >> bit;                                                        
 1251              		.loc 1 535 0
 1252 018e C840     		lsrs	r0, r0, r1
 1253 0190 48F82200 		str	r0, [r8, r2, lsl #2]
 536:SensorLib\max30102/driver_max30102.c ****             raw_ir[i] = ((uint32_t)handle->buf[i * 6 + 3] << 16) |                                 
 1254              		.loc 1 536 0
 1255 0194 D81C     		adds	r0, r3, #3
 1256 0196 2844     		add	r0, r0, r5
 1257 0198 90F82470 		ldrb	r7, [r0, #36]	@ zero_extendqisi2
 537:SensorLib\max30102/driver_max30102.c ****                         ((uint32_t)handle->buf[i * 6 + 4] << 8) |                                  
 1258              		.loc 1 537 0
 1259 019c 1C1D     		adds	r4, r3, #4
 1260 019e 2C44     		add	r4, r4, r5
 1261 01a0 94F82400 		ldrb	r0, [r4, #36]	@ zero_extendqisi2
 1262 01a4 0002     		lsls	r0, r0, #8
 536:SensorLib\max30102/driver_max30102.c ****             raw_ir[i] = ((uint32_t)handle->buf[i * 6 + 3] << 16) |                                 
 1263              		.loc 1 536 0
 1264 01a6 40EA0740 		orr	r0, r0, r7, lsl #16
 538:SensorLib\max30102/driver_max30102.c ****                         ((uint32_t)handle->buf[i * 6 + 5] << 0);                                   
 1265              		.loc 1 538 0
 1266 01aa 0533     		adds	r3, r3, #5
 1267 01ac 2B44     		add	r3, r3, r5
ARM GAS  C:\Users\CHRONI~1\AppData\Local\Temp\cc7oUGua.s 			page 33


 1268 01ae 93F82430 		ldrb	r3, [r3, #36]	@ zero_extendqisi2
 537:SensorLib\max30102/driver_max30102.c ****                         ((uint32_t)handle->buf[i * 6 + 4] << 8) |                                  
 1269              		.loc 1 537 0
 1270 01b2 0343     		orrs	r3, r3, r0
 539:SensorLib\max30102/driver_max30102.c ****             raw_ir[i] = raw_ir[i] >> bit;                                                          
 1271              		.loc 1 539 0
 1272 01b4 CB40     		lsrs	r3, r3, r1
 1273 01b6 49F82230 		str	r3, [r9, r2, lsl #2]
 1274              	.L66:
 521:SensorLib\max30102/driver_max30102.c ****     {
 1275              		.loc 1 521 0 discriminator 2
 1276 01ba 0132     		adds	r2, r2, #1
 1277              	.LVL183:
 1278 01bc D2B2     		uxtb	r2, r2
 1279              	.LVL184:
 1280              	.L64:
 521:SensorLib\max30102/driver_max30102.c ****     {
 1281              		.loc 1 521 0 is_stmt 0 discriminator 1
 1282 01be 3378     		ldrb	r3, [r6]	@ zero_extendqisi2
 1283 01c0 9A42     		cmp	r2, r3
 1284 01c2 BAD3     		bcc	.L67
 540:SensorLib\max30102/driver_max30102.c ****         }
 541:SensorLib\max30102/driver_max30102.c ****     }
 542:SensorLib\max30102/driver_max30102.c ****     
 543:SensorLib\max30102/driver_max30102.c ****     return r;                                                                                      
 1285              		.loc 1 543 0 is_stmt 1
 1286 01c4 5C46     		mov	r4, fp
 1287 01c6 02E0     		b	.L52
 1288              	.LVL185:
 1289              	.L68:
 417:SensorLib\max30102/driver_max30102.c ****     }
 1290              		.loc 1 417 0
 1291 01c8 0224     		movs	r4, #2
 1292 01ca 00E0     		b	.L52
 1293              	.L69:
 421:SensorLib\max30102/driver_max30102.c ****     }
 1294              		.loc 1 421 0
 1295 01cc 0324     		movs	r4, #3
 1296              	.LVL186:
 1297              	.L52:
 544:SensorLib\max30102/driver_max30102.c **** }
 1298              		.loc 1 544 0
 1299 01ce 2046     		mov	r0, r4
 1300 01d0 03B0     		add	sp, sp, #12
 1301              		.cfi_def_cfa_offset 36
 1302              		@ sp needed
 1303 01d2 BDE8F08F 		pop	{r4, r5, r6, r7, r8, r9, r10, fp, pc}
 1304              	.L79:
 1305 01d6 00BF     		.align	2
 1306              	.L78:
 1307 01d8 3C070000 		.word	.LC44
 1308 01dc 68070000 		.word	.LC45
 1309 01e0 84070000 		.word	.LC46
 1310 01e4 AC070000 		.word	.LC47
 1311 01e8 20060000 		.word	.LC37
 1312 01ec D8070000 		.word	.LC48
 1313 01f0 F4070000 		.word	.LC49
ARM GAS  C:\Users\CHRONI~1\AppData\Local\Temp\cc7oUGua.s 			page 34


 1314 01f4 20080000 		.word	.LC50
 1315              		.cfi_endproc
 1316              	.LFE4:
 1317              		.size	max30102_read, .-max30102_read
 1318              		.section	.text.max30102_read_temperature,"ax",%progbits
 1319              		.align	2
 1320              		.global	max30102_read_temperature
 1321              		.thumb
 1322              		.thumb_func
 1323              		.type	max30102_read_temperature, %function
 1324              	max30102_read_temperature:
 1325              	.LFB5:
 545:SensorLib\max30102/driver_max30102.c **** 
 546:SensorLib\max30102/driver_max30102.c **** /**
 547:SensorLib\max30102/driver_max30102.c ****  * @brief      read the temperature
 548:SensorLib\max30102/driver_max30102.c ****  * @param[in]  *handle points to a max30102 handle structure
 549:SensorLib\max30102/driver_max30102.c ****  * @param[out] *raw points to a raw data buffer
 550:SensorLib\max30102/driver_max30102.c ****  * @param[out] *temp points to a converted temperature buffer
 551:SensorLib\max30102/driver_max30102.c ****  * @return     status code
 552:SensorLib\max30102/driver_max30102.c ****  *             - 0 success
 553:SensorLib\max30102/driver_max30102.c ****  *             - 1 read temperature failed
 554:SensorLib\max30102/driver_max30102.c ****  *             - 2 handle is NULL
 555:SensorLib\max30102/driver_max30102.c ****  *             - 3 handle is not initialized
 556:SensorLib\max30102/driver_max30102.c ****  * @note       none
 557:SensorLib\max30102/driver_max30102.c ****  */
 558:SensorLib\max30102/driver_max30102.c **** uint8_t max30102_read_temperature(max30102_handle_t *handle, uint16_t *raw, float *temp)
 559:SensorLib\max30102/driver_max30102.c **** {
 1326              		.loc 1 559 0
 1327              		.cfi_startproc
 1328              		@ args = 0, pretend = 0, frame = 8
 1329              		@ frame_needed = 0, uses_anonymous_args = 0
 1330              	.LVL187:
 1331 0000 2DE9F041 		push	{r4, r5, r6, r7, r8, lr}
 1332              		.cfi_def_cfa_offset 24
 1333              		.cfi_offset 4, -24
 1334              		.cfi_offset 5, -20
 1335              		.cfi_offset 6, -16
 1336              		.cfi_offset 7, -12
 1337              		.cfi_offset 8, -8
 1338              		.cfi_offset 14, -4
 1339 0004 82B0     		sub	sp, sp, #8
 1340              		.cfi_def_cfa_offset 32
 560:SensorLib\max30102/driver_max30102.c ****     uint8_t res;
 561:SensorLib\max30102/driver_max30102.c ****     uint8_t prev;
 562:SensorLib\max30102/driver_max30102.c ****     uint16_t timeout;
 563:SensorLib\max30102/driver_max30102.c ****     
 564:SensorLib\max30102/driver_max30102.c ****     if (handle == NULL)                                                                            
 1341              		.loc 1 564 0
 1342 0006 0028     		cmp	r0, #0
 1343 0008 60D0     		beq	.L90
 565:SensorLib\max30102/driver_max30102.c ****     {
 566:SensorLib\max30102/driver_max30102.c ****         return 2;                                                                                  
 567:SensorLib\max30102/driver_max30102.c ****     }
 568:SensorLib\max30102/driver_max30102.c ****     if (handle->inited != 1)                                                                       
 1344              		.loc 1 568 0
 1345 000a 047F     		ldrb	r4, [r0, #28]	@ zero_extendqisi2
 1346 000c 012C     		cmp	r4, #1
ARM GAS  C:\Users\CHRONI~1\AppData\Local\Temp\cc7oUGua.s 			page 35


 1347 000e 5FD1     		bne	.L91
 1348 0010 0546     		mov	r5, r0
 1349 0012 1646     		mov	r6, r2
 1350 0014 8846     		mov	r8, r1
 569:SensorLib\max30102/driver_max30102.c ****     {
 570:SensorLib\max30102/driver_max30102.c ****         return 3;                                                                                  
 571:SensorLib\max30102/driver_max30102.c ****     }
 572:SensorLib\max30102/driver_max30102.c **** 
 573:SensorLib\max30102/driver_max30102.c ****     res = handle->iic_read(MAX30102_ADDRESS, MAX30102_REG_INTERRUPT_ENABLE_2, (uint8_t *)&prev, 1);
 1351              		.loc 1 573 0
 1352 0016 8768     		ldr	r7, [r0, #8]
 1353 0018 0123     		movs	r3, #1
 1354 001a 0DF10702 		add	r2, sp, #7
 1355              	.LVL188:
 1356 001e 0321     		movs	r1, #3
 1357              	.LVL189:
 1358 0020 5720     		movs	r0, #87
 1359              	.LVL190:
 1360 0022 B847     		blx	r7
 1361              	.LVL191:
 574:SensorLib\max30102/driver_max30102.c ****     if (res != 0)                                                                                  
 1362              		.loc 1 574 0
 1363 0024 18B1     		cbz	r0, .L82
 575:SensorLib\max30102/driver_max30102.c ****     {
 576:SensorLib\max30102/driver_max30102.c ****         handle->debug_print("max30102: read interrupt enable2 failed.\n");                         
 1364              		.loc 1 576 0
 1365 0026 AB69     		ldr	r3, [r5, #24]
 1366 0028 2C48     		ldr	r0, .L93
 1367              	.LVL192:
 1368 002a 9847     		blx	r3
 1369              	.LVL193:
 577:SensorLib\max30102/driver_max30102.c ****        
 578:SensorLib\max30102/driver_max30102.c ****         return 1;                                                                                  
 1370              		.loc 1 578 0
 1371 002c 51E0     		b	.L81
 1372              	.LVL194:
 1373              	.L82:
 579:SensorLib\max30102/driver_max30102.c ****     }
 580:SensorLib\max30102/driver_max30102.c ****     if ((prev & (1 << 1)) == 0)                                                                    
 1374              		.loc 1 580 0
 1375 002e 9DF80730 		ldrb	r3, [sp, #7]	@ zero_extendqisi2
 1376 0032 13F0020F 		tst	r3, #2
 1377 0036 10D1     		bne	.L83
 581:SensorLib\max30102/driver_max30102.c ****     {
 582:SensorLib\max30102/driver_max30102.c ****         prev &= ~(1 << 1);                                                                         
 1378              		.loc 1 582 0
 1379 0038 03F0FD03 		and	r3, r3, #253
 583:SensorLib\max30102/driver_max30102.c ****         prev |= 1 << 1;                                                                            
 1380              		.loc 1 583 0
 1381 003c 43F00203 		orr	r3, r3, #2
 1382 0040 02AA     		add	r2, sp, #8
 1383 0042 02F8013D 		strb	r3, [r2, #-1]!
 584:SensorLib\max30102/driver_max30102.c ****         res = handle->iic_write(MAX30102_ADDRESS, MAX30102_REG_INTERRUPT_ENABLE_2, (uint8_t *)&prev
 1384              		.loc 1 584 0
 1385 0046 EF68     		ldr	r7, [r5, #12]
 1386 0048 0123     		movs	r3, #1
 1387 004a 0321     		movs	r1, #3
ARM GAS  C:\Users\CHRONI~1\AppData\Local\Temp\cc7oUGua.s 			page 36


 1388 004c 5720     		movs	r0, #87
 1389              	.LVL195:
 1390 004e B847     		blx	r7
 1391              	.LVL196:
 585:SensorLib\max30102/driver_max30102.c ****         if (res != 0)                                                                              
 1392              		.loc 1 585 0
 1393 0050 18B1     		cbz	r0, .L83
 586:SensorLib\max30102/driver_max30102.c ****         {
 587:SensorLib\max30102/driver_max30102.c ****             handle->debug_print("max30102: write interrupt enable2 failed.\n");                    
 1394              		.loc 1 587 0
 1395 0052 AB69     		ldr	r3, [r5, #24]
 1396 0054 2248     		ldr	r0, .L93+4
 1397              	.LVL197:
 1398 0056 9847     		blx	r3
 1399              	.LVL198:
 588:SensorLib\max30102/driver_max30102.c ****            
 589:SensorLib\max30102/driver_max30102.c ****             return 1;                                                                              
 1400              		.loc 1 589 0
 1401 0058 3BE0     		b	.L81
 1402              	.LVL199:
 1403              	.L83:
 590:SensorLib\max30102/driver_max30102.c ****         }
 591:SensorLib\max30102/driver_max30102.c ****     }
 592:SensorLib\max30102/driver_max30102.c ****     
 593:SensorLib\max30102/driver_max30102.c ****     res = handle->iic_read(MAX30102_ADDRESS, MAX30102_REG_DIE_TEMP_CONFIG, (uint8_t *)&prev, 1);   
 1404              		.loc 1 593 0
 1405 005a AF68     		ldr	r7, [r5, #8]
 1406 005c 0123     		movs	r3, #1
 1407 005e 0DF10702 		add	r2, sp, #7
 1408 0062 2121     		movs	r1, #33
 1409 0064 5720     		movs	r0, #87
 1410              	.LVL200:
 1411 0066 B847     		blx	r7
 1412              	.LVL201:
 594:SensorLib\max30102/driver_max30102.c ****     if (res != 0)                                                                                  
 1413              		.loc 1 594 0
 1414 0068 18B1     		cbz	r0, .L84
 595:SensorLib\max30102/driver_max30102.c ****     {
 596:SensorLib\max30102/driver_max30102.c ****         handle->debug_print("max30102: read die temp config failed.\n");                           
 1415              		.loc 1 596 0
 1416 006a AB69     		ldr	r3, [r5, #24]
 1417 006c 1D48     		ldr	r0, .L93+8
 1418              	.LVL202:
 1419 006e 9847     		blx	r3
 1420              	.LVL203:
 597:SensorLib\max30102/driver_max30102.c ****        
 598:SensorLib\max30102/driver_max30102.c ****         return 1;                                                                                  
 1421              		.loc 1 598 0
 1422 0070 2FE0     		b	.L81
 1423              	.LVL204:
 1424              	.L84:
 599:SensorLib\max30102/driver_max30102.c ****     }
 600:SensorLib\max30102/driver_max30102.c ****     prev &= ~(1 << 0);                                                                             
 1425              		.loc 1 600 0
 1426 0072 9DF80730 		ldrb	r3, [sp, #7]	@ zero_extendqisi2
 1427 0076 03F0FE03 		and	r3, r3, #254
 601:SensorLib\max30102/driver_max30102.c ****     prev |= (1 << 0);                                                                              
ARM GAS  C:\Users\CHRONI~1\AppData\Local\Temp\cc7oUGua.s 			page 37


 1428              		.loc 1 601 0
 1429 007a 43F00103 		orr	r3, r3, #1
 1430 007e 02AA     		add	r2, sp, #8
 1431 0080 02F8013D 		strb	r3, [r2, #-1]!
 602:SensorLib\max30102/driver_max30102.c ****     res = handle->iic_write(MAX30102_ADDRESS, MAX30102_REG_DIE_TEMP_CONFIG, (uint8_t *)&prev, 1);  
 1432              		.loc 1 602 0
 1433 0084 EF68     		ldr	r7, [r5, #12]
 1434 0086 0123     		movs	r3, #1
 1435 0088 2121     		movs	r1, #33
 1436 008a 5720     		movs	r0, #87
 1437              	.LVL205:
 1438 008c B847     		blx	r7
 1439              	.LVL206:
 603:SensorLib\max30102/driver_max30102.c ****     if (res != 0)                                                                                  
 1440              		.loc 1 603 0
 1441 008e 18B1     		cbz	r0, .L85
 604:SensorLib\max30102/driver_max30102.c ****     {
 605:SensorLib\max30102/driver_max30102.c ****         handle->debug_print("max30102: write die temp config failed.\n");                          
 1442              		.loc 1 605 0
 1443 0090 AB69     		ldr	r3, [r5, #24]
 1444 0092 1548     		ldr	r0, .L93+12
 1445              	.LVL207:
 1446 0094 9847     		blx	r3
 1447              	.LVL208:
 606:SensorLib\max30102/driver_max30102.c ****        
 607:SensorLib\max30102/driver_max30102.c ****         return 1;                                                                                  
 1448              		.loc 1 607 0
 1449 0096 1CE0     		b	.L81
 1450              	.LVL209:
 1451              	.L85:
 608:SensorLib\max30102/driver_max30102.c ****     }
 609:SensorLib\max30102/driver_max30102.c ****     
 610:SensorLib\max30102/driver_max30102.c ****     timeout = 5000;                                                                                
 611:SensorLib\max30102/driver_max30102.c ****     handle->finished_flag = 0;                                                                     
 1452              		.loc 1 611 0
 1453 0098 0023     		movs	r3, #0
 1454 009a 6B77     		strb	r3, [r5, #29]
 610:SensorLib\max30102/driver_max30102.c ****     handle->finished_flag = 0;                                                                     
 1455              		.loc 1 610 0
 1456 009c 41F28837 		movw	r7, #5000
 612:SensorLib\max30102/driver_max30102.c ****     while (timeout != 0)                                                                           
 1457              		.loc 1 612 0
 1458 00a0 06E0     		b	.L86
 1459              	.LVL210:
 1460              	.L88:
 613:SensorLib\max30102/driver_max30102.c ****     {
 614:SensorLib\max30102/driver_max30102.c ****         handle->delay_ms(1);                                                                       
 1461              		.loc 1 614 0
 1462 00a2 6B69     		ldr	r3, [r5, #20]
 1463 00a4 0120     		movs	r0, #1
 1464 00a6 9847     		blx	r3
 1465              	.LVL211:
 615:SensorLib\max30102/driver_max30102.c ****         timeout--;                                                                                 
 1466              		.loc 1 615 0
 1467 00a8 013F     		subs	r7, r7, #1
 1468              	.LVL212:
 1469 00aa BFB2     		uxth	r7, r7
ARM GAS  C:\Users\CHRONI~1\AppData\Local\Temp\cc7oUGua.s 			page 38


 1470              	.LVL213:
 616:SensorLib\max30102/driver_max30102.c ****         if (handle->finished_flag != 0)                                                            
 1471              		.loc 1 616 0
 1472 00ac 6B7F     		ldrb	r3, [r5, #29]	@ zero_extendqisi2
 1473 00ae 0BB9     		cbnz	r3, .L87
 1474              	.LVL214:
 1475              	.L86:
 612:SensorLib\max30102/driver_max30102.c ****     {
 1476              		.loc 1 612 0
 1477 00b0 002F     		cmp	r7, #0
 1478 00b2 F6D1     		bne	.L88
 1479              	.L87:
 617:SensorLib\max30102/driver_max30102.c ****         {
 618:SensorLib\max30102/driver_max30102.c ****             break;                                                                                 
 619:SensorLib\max30102/driver_max30102.c ****         }
 620:SensorLib\max30102/driver_max30102.c ****     }
 621:SensorLib\max30102/driver_max30102.c ****     if (timeout == 0)                                                                              
 1480              		.loc 1 621 0
 1481 00b4 1FB9     		cbnz	r7, .L89
 622:SensorLib\max30102/driver_max30102.c ****     {
 623:SensorLib\max30102/driver_max30102.c ****         handle->debug_print("max30102: read timeout.\n");                                          
 1482              		.loc 1 623 0
 1483 00b6 AB69     		ldr	r3, [r5, #24]
 1484 00b8 0C48     		ldr	r0, .L93+16
 1485 00ba 9847     		blx	r3
 1486              	.LVL215:
 624:SensorLib\max30102/driver_max30102.c ****        
 625:SensorLib\max30102/driver_max30102.c ****         return 1;                                                                                  
 1487              		.loc 1 625 0
 1488 00bc 09E0     		b	.L81
 1489              	.L89:
 626:SensorLib\max30102/driver_max30102.c ****     }
 627:SensorLib\max30102/driver_max30102.c ****     *raw = handle->raw;                                                                            
 1490              		.loc 1 627 0
 1491 00be EB8B     		ldrh	r3, [r5, #30]
 1492 00c0 A8F80030 		strh	r3, [r8]	@ movhi
 628:SensorLib\max30102/driver_max30102.c ****     *temp = handle->temperature;                                                                   
 1493              		.loc 1 628 0
 1494 00c4 2B6A     		ldr	r3, [r5, #32]	@ float
 1495 00c6 3360     		str	r3, [r6]	@ float
 629:SensorLib\max30102/driver_max30102.c ****     
 630:SensorLib\max30102/driver_max30102.c ****     return 0;                                                                                      
 1496              		.loc 1 630 0
 1497 00c8 0024     		movs	r4, #0
 1498 00ca 02E0     		b	.L81
 1499              	.LVL216:
 1500              	.L90:
 566:SensorLib\max30102/driver_max30102.c ****     }
 1501              		.loc 1 566 0
 1502 00cc 0224     		movs	r4, #2
 1503 00ce 00E0     		b	.L81
 1504              	.L91:
 570:SensorLib\max30102/driver_max30102.c ****     }
 1505              		.loc 1 570 0
 1506 00d0 0324     		movs	r4, #3
 1507              	.LVL217:
 1508              	.L81:
ARM GAS  C:\Users\CHRONI~1\AppData\Local\Temp\cc7oUGua.s 			page 39


 631:SensorLib\max30102/driver_max30102.c **** }
 1509              		.loc 1 631 0
 1510 00d2 2046     		mov	r0, r4
 1511 00d4 02B0     		add	sp, sp, #8
 1512              		.cfi_def_cfa_offset 24
 1513              		@ sp needed
 1514 00d6 BDE8F081 		pop	{r4, r5, r6, r7, r8, pc}
 1515              	.L94:
 1516 00da 00BF     		.align	2
 1517              	.L93:
 1518 00dc 44080000 		.word	.LC51
 1519 00e0 70080000 		.word	.LC52
 1520 00e4 9C080000 		.word	.LC53
 1521 00e8 C4080000 		.word	.LC54
 1522 00ec F0080000 		.word	.LC55
 1523              		.cfi_endproc
 1524              	.LFE5:
 1525              		.size	max30102_read_temperature, .-max30102_read_temperature
 1526              		.section	.text.max30102_get_interrupt_status,"ax",%progbits
 1527              		.align	2
 1528              		.global	max30102_get_interrupt_status
 1529              		.thumb
 1530              		.thumb_func
 1531              		.type	max30102_get_interrupt_status, %function
 1532              	max30102_get_interrupt_status:
 1533              	.LFB6:
 632:SensorLib\max30102/driver_max30102.c **** 
 633:SensorLib\max30102/driver_max30102.c **** /**
 634:SensorLib\max30102/driver_max30102.c ****  * @brief      get the interrupt status
 635:SensorLib\max30102/driver_max30102.c ****  * @param[in]  *handle points to a max30102 handle structure
 636:SensorLib\max30102/driver_max30102.c ****  * @param[in]  status is the interrupt status
 637:SensorLib\max30102/driver_max30102.c ****  * @param[out] *enable points to a bool value buffer
 638:SensorLib\max30102/driver_max30102.c ****  * @return     status code
 639:SensorLib\max30102/driver_max30102.c ****  *             - 0 success
 640:SensorLib\max30102/driver_max30102.c ****  *             - 1 get interrupt status failed
 641:SensorLib\max30102/driver_max30102.c ****  *             - 2 handle is NULL
 642:SensorLib\max30102/driver_max30102.c ****  *             - 3 handle is not initialized
 643:SensorLib\max30102/driver_max30102.c ****  * @note       none
 644:SensorLib\max30102/driver_max30102.c ****  */
 645:SensorLib\max30102/driver_max30102.c **** uint8_t max30102_get_interrupt_status(max30102_handle_t *handle, max30102_interrupt_status_t status
 646:SensorLib\max30102/driver_max30102.c **** {
 1534              		.loc 1 646 0
 1535              		.cfi_startproc
 1536              		@ args = 0, pretend = 0, frame = 8
 1537              		@ frame_needed = 0, uses_anonymous_args = 0
 1538              	.LVL218:
 1539 0000 2DE9F041 		push	{r4, r5, r6, r7, r8, lr}
 1540              		.cfi_def_cfa_offset 24
 1541              		.cfi_offset 4, -24
 1542              		.cfi_offset 5, -20
 1543              		.cfi_offset 6, -16
 1544              		.cfi_offset 7, -12
 1545              		.cfi_offset 8, -8
 1546              		.cfi_offset 14, -4
 1547 0004 82B0     		sub	sp, sp, #8
 1548              		.cfi_def_cfa_offset 32
 647:SensorLib\max30102/driver_max30102.c ****     uint8_t res;
ARM GAS  C:\Users\CHRONI~1\AppData\Local\Temp\cc7oUGua.s 			page 40


 648:SensorLib\max30102/driver_max30102.c ****     uint8_t prev;
 649:SensorLib\max30102/driver_max30102.c ****     
 650:SensorLib\max30102/driver_max30102.c ****     if (handle == NULL)                                                                            
 1549              		.loc 1 650 0
 1550 0006 88B3     		cbz	r0, .L100
 651:SensorLib\max30102/driver_max30102.c ****     {
 652:SensorLib\max30102/driver_max30102.c ****         return 2;                                                                                  
 653:SensorLib\max30102/driver_max30102.c ****     }
 654:SensorLib\max30102/driver_max30102.c ****     if (handle->inited != 1)                                                                       
 1551              		.loc 1 654 0
 1552 0008 047F     		ldrb	r4, [r0, #28]	@ zero_extendqisi2
 1553 000a 012C     		cmp	r4, #1
 1554 000c 30D1     		bne	.L101
 1555 000e 0546     		mov	r5, r0
 1556 0010 9046     		mov	r8, r2
 1557 0012 0E46     		mov	r6, r1
 655:SensorLib\max30102/driver_max30102.c ****     {
 656:SensorLib\max30102/driver_max30102.c ****         return 3;                                                                                  
 657:SensorLib\max30102/driver_max30102.c ****     }
 658:SensorLib\max30102/driver_max30102.c **** 
 659:SensorLib\max30102/driver_max30102.c ****     if (status == MAX30102_INTERRUPT_STATUS_DIE_TEMP_RDY)                                          
 1558              		.loc 1 659 0
 1559 0014 0129     		cmp	r1, #1
 1560 0016 14D1     		bne	.L97
 660:SensorLib\max30102/driver_max30102.c ****     {
 661:SensorLib\max30102/driver_max30102.c ****         res = handle->iic_read(MAX30102_ADDRESS, MAX30102_REG_INTERRUPT_STATUS_2, (uint8_t *)&prev,
 1561              		.loc 1 661 0
 1562 0018 8768     		ldr	r7, [r0, #8]
 1563 001a 0123     		movs	r3, #1
 1564 001c 0DF10702 		add	r2, sp, #7
 1565              	.LVL219:
 1566 0020 1946     		mov	r1, r3
 1567              	.LVL220:
 1568 0022 5720     		movs	r0, #87
 1569              	.LVL221:
 1570 0024 B847     		blx	r7
 1571              	.LVL222:
 662:SensorLib\max30102/driver_max30102.c ****         if (res != 0)                                                                              
 1572              		.loc 1 662 0
 1573 0026 18B1     		cbz	r0, .L98
 663:SensorLib\max30102/driver_max30102.c ****         {
 664:SensorLib\max30102/driver_max30102.c ****             handle->debug_print("max30102: read interrupt status2 failed.\n");                     
 1574              		.loc 1 664 0
 1575 0028 AB69     		ldr	r3, [r5, #24]
 1576 002a 1448     		ldr	r0, .L103
 1577              	.LVL223:
 1578 002c 9847     		blx	r3
 1579              	.LVL224:
 665:SensorLib\max30102/driver_max30102.c ****            
 666:SensorLib\max30102/driver_max30102.c ****             return 1;                                                                              
 1580              		.loc 1 666 0
 1581 002e 20E0     		b	.L96
 1582              	.LVL225:
 1583              	.L98:
 667:SensorLib\max30102/driver_max30102.c ****         }
 668:SensorLib\max30102/driver_max30102.c ****         *enable = (max30102_bool_t)((prev >> status) & 0x01);                                      
 1584              		.loc 1 668 0
ARM GAS  C:\Users\CHRONI~1\AppData\Local\Temp\cc7oUGua.s 			page 41


 1585 0030 9DF80710 		ldrb	r1, [sp, #7]	@ zero_extendqisi2
 1586 0034 3141     		asrs	r1, r1, r6
 1587 0036 01F00101 		and	r1, r1, #1
 1588 003a 88F80010 		strb	r1, [r8]
 669:SensorLib\max30102/driver_max30102.c ****     
 670:SensorLib\max30102/driver_max30102.c ****         return 0;                                                                                  
 1589              		.loc 1 670 0
 1590 003e 0024     		movs	r4, #0
 1591 0040 17E0     		b	.L96
 1592              	.LVL226:
 1593              	.L97:
 671:SensorLib\max30102/driver_max30102.c ****     }
 672:SensorLib\max30102/driver_max30102.c ****     else
 673:SensorLib\max30102/driver_max30102.c ****     {
 674:SensorLib\max30102/driver_max30102.c ****         res = handle->iic_read(MAX30102_ADDRESS, MAX30102_REG_INTERRUPT_STATUS_1, (uint8_t *)&prev,
 1594              		.loc 1 674 0
 1595 0042 8768     		ldr	r7, [r0, #8]
 1596 0044 0123     		movs	r3, #1
 1597 0046 0DF10702 		add	r2, sp, #7
 1598              	.LVL227:
 1599 004a 0021     		movs	r1, #0
 1600              	.LVL228:
 1601 004c 5720     		movs	r0, #87
 1602              	.LVL229:
 1603 004e B847     		blx	r7
 1604              	.LVL230:
 675:SensorLib\max30102/driver_max30102.c ****         if (res != 0)                                                                              
 1605              		.loc 1 675 0
 1606 0050 18B1     		cbz	r0, .L99
 676:SensorLib\max30102/driver_max30102.c ****         {
 677:SensorLib\max30102/driver_max30102.c ****             handle->debug_print("max30102: read interrupt status1 failed.\n");                     
 1607              		.loc 1 677 0
 1608 0052 AB69     		ldr	r3, [r5, #24]
 1609 0054 0A48     		ldr	r0, .L103+4
 1610              	.LVL231:
 1611 0056 9847     		blx	r3
 1612              	.LVL232:
 678:SensorLib\max30102/driver_max30102.c ****            
 679:SensorLib\max30102/driver_max30102.c ****             return 1;                                                                              
 1613              		.loc 1 679 0
 1614 0058 0BE0     		b	.L96
 1615              	.LVL233:
 1616              	.L99:
 680:SensorLib\max30102/driver_max30102.c ****         }
 681:SensorLib\max30102/driver_max30102.c ****         *enable = (max30102_bool_t)((prev >> status) & 0x01);                                      
 1617              		.loc 1 681 0
 1618 005a 9DF80710 		ldrb	r1, [sp, #7]	@ zero_extendqisi2
 1619 005e 3141     		asrs	r1, r1, r6
 1620 0060 01F00101 		and	r1, r1, #1
 1621 0064 88F80010 		strb	r1, [r8]
 682:SensorLib\max30102/driver_max30102.c ****     
 683:SensorLib\max30102/driver_max30102.c ****         return 0;                                                                                  
 1622              		.loc 1 683 0
 1623 0068 0024     		movs	r4, #0
 1624 006a 02E0     		b	.L96
 1625              	.LVL234:
 1626              	.L100:
ARM GAS  C:\Users\CHRONI~1\AppData\Local\Temp\cc7oUGua.s 			page 42


 652:SensorLib\max30102/driver_max30102.c ****     }
 1627              		.loc 1 652 0
 1628 006c 0224     		movs	r4, #2
 1629 006e 00E0     		b	.L96
 1630              	.L101:
 656:SensorLib\max30102/driver_max30102.c ****     }
 1631              		.loc 1 656 0
 1632 0070 0324     		movs	r4, #3
 1633              	.LVL235:
 1634              	.L96:
 684:SensorLib\max30102/driver_max30102.c ****     }
 685:SensorLib\max30102/driver_max30102.c **** }
 1635              		.loc 1 685 0
 1636 0072 2046     		mov	r0, r4
 1637 0074 02B0     		add	sp, sp, #8
 1638              		.cfi_def_cfa_offset 24
 1639              		@ sp needed
 1640 0076 BDE8F081 		pop	{r4, r5, r6, r7, r8, pc}
 1641              	.L104:
 1642 007a 00BF     		.align	2
 1643              	.L103:
 1644 007c B8060000 		.word	.LC41
 1645 0080 8C060000 		.word	.LC40
 1646              		.cfi_endproc
 1647              	.LFE6:
 1648              		.size	max30102_get_interrupt_status, .-max30102_get_interrupt_status
 1649              		.section	.text.max30102_set_interrupt,"ax",%progbits
 1650              		.align	2
 1651              		.global	max30102_set_interrupt
 1652              		.thumb
 1653              		.thumb_func
 1654              		.type	max30102_set_interrupt, %function
 1655              	max30102_set_interrupt:
 1656              	.LFB7:
 686:SensorLib\max30102/driver_max30102.c **** 
 687:SensorLib\max30102/driver_max30102.c **** /**
 688:SensorLib\max30102/driver_max30102.c ****  * @brief     set the interrupt bool
 689:SensorLib\max30102/driver_max30102.c ****  * @param[in] *handle points to a max30102 handle structure
 690:SensorLib\max30102/driver_max30102.c ****  * @param[in] type is the interrupt type
 691:SensorLib\max30102/driver_max30102.c ****  * @param[in] enable is a bool value
 692:SensorLib\max30102/driver_max30102.c ****  * @return    status code
 693:SensorLib\max30102/driver_max30102.c ****  *            - 0 success
 694:SensorLib\max30102/driver_max30102.c ****  *            - 1 set interrupt failed
 695:SensorLib\max30102/driver_max30102.c ****  *            - 2 handle is NULL
 696:SensorLib\max30102/driver_max30102.c ****  *            - 3 handle is not initialized
 697:SensorLib\max30102/driver_max30102.c ****  * @note      none
 698:SensorLib\max30102/driver_max30102.c ****  */
 699:SensorLib\max30102/driver_max30102.c **** uint8_t max30102_set_interrupt(max30102_handle_t *handle, max30102_interrupt_t type, max30102_bool_
 700:SensorLib\max30102/driver_max30102.c **** {
 1657              		.loc 1 700 0
 1658              		.cfi_startproc
 1659              		@ args = 0, pretend = 0, frame = 8
 1660              		@ frame_needed = 0, uses_anonymous_args = 0
 1661              	.LVL236:
 1662 0000 2DE9F041 		push	{r4, r5, r6, r7, r8, lr}
 1663              		.cfi_def_cfa_offset 24
 1664              		.cfi_offset 4, -24
ARM GAS  C:\Users\CHRONI~1\AppData\Local\Temp\cc7oUGua.s 			page 43


 1665              		.cfi_offset 5, -20
 1666              		.cfi_offset 6, -16
 1667              		.cfi_offset 7, -12
 1668              		.cfi_offset 8, -8
 1669              		.cfi_offset 14, -4
 1670 0004 82B0     		sub	sp, sp, #8
 1671              		.cfi_def_cfa_offset 32
 701:SensorLib\max30102/driver_max30102.c ****     uint8_t res;
 702:SensorLib\max30102/driver_max30102.c ****     uint8_t prev;
 703:SensorLib\max30102/driver_max30102.c ****     
 704:SensorLib\max30102/driver_max30102.c ****     if (handle == NULL)                                                                            
 1672              		.loc 1 704 0
 1673 0006 0028     		cmp	r0, #0
 1674 0008 4DD0     		beq	.L110
 705:SensorLib\max30102/driver_max30102.c ****     {
 706:SensorLib\max30102/driver_max30102.c ****         return 2;                                                                                  
 707:SensorLib\max30102/driver_max30102.c ****     }
 708:SensorLib\max30102/driver_max30102.c ****     if (handle->inited != 1)                                                                       
 1675              		.loc 1 708 0
 1676 000a 047F     		ldrb	r4, [r0, #28]	@ zero_extendqisi2
 1677 000c 012C     		cmp	r4, #1
 1678 000e 4CD1     		bne	.L111
 1679 0010 0546     		mov	r5, r0
 1680 0012 9046     		mov	r8, r2
 1681 0014 0E46     		mov	r6, r1
 709:SensorLib\max30102/driver_max30102.c ****     {
 710:SensorLib\max30102/driver_max30102.c ****         return 3;                                                                                  
 711:SensorLib\max30102/driver_max30102.c ****     }
 712:SensorLib\max30102/driver_max30102.c **** 
 713:SensorLib\max30102/driver_max30102.c ****     if (type == MAX30102_INTERRUPT_DIE_TEMP_RDY_EN)                                                
 1682              		.loc 1 713 0
 1683 0016 0129     		cmp	r1, #1
 1684 0018 22D1     		bne	.L107
 714:SensorLib\max30102/driver_max30102.c ****     {
 715:SensorLib\max30102/driver_max30102.c ****         res = handle->iic_read(MAX30102_ADDRESS, MAX30102_REG_INTERRUPT_ENABLE_2, (uint8_t *)&prev,
 1685              		.loc 1 715 0
 1686 001a 8768     		ldr	r7, [r0, #8]
 1687 001c 0123     		movs	r3, #1
 1688 001e 0DF10702 		add	r2, sp, #7
 1689              	.LVL237:
 1690 0022 0321     		movs	r1, #3
 1691              	.LVL238:
 1692 0024 5720     		movs	r0, #87
 1693              	.LVL239:
 1694 0026 B847     		blx	r7
 1695              	.LVL240:
 716:SensorLib\max30102/driver_max30102.c ****         if (res != 0)                                                                              
 1696              		.loc 1 716 0
 1697 0028 18B1     		cbz	r0, .L108
 717:SensorLib\max30102/driver_max30102.c ****         {
 718:SensorLib\max30102/driver_max30102.c ****             handle->debug_print("max30102: read interrupt enable2 failed.\n");                     
 1698              		.loc 1 718 0
 1699 002a AB69     		ldr	r3, [r5, #24]
 1700 002c 2348     		ldr	r0, .L115
 1701              	.LVL241:
 1702 002e 9847     		blx	r3
 1703              	.LVL242:
ARM GAS  C:\Users\CHRONI~1\AppData\Local\Temp\cc7oUGua.s 			page 44


 719:SensorLib\max30102/driver_max30102.c ****            
 720:SensorLib\max30102/driver_max30102.c ****             return 1;                                                                              
 1704              		.loc 1 720 0
 1705 0030 40E0     		b	.L106
 1706              	.LVL243:
 1707              	.L108:
 721:SensorLib\max30102/driver_max30102.c ****         }
 722:SensorLib\max30102/driver_max30102.c ****         prev &= ~(1 << type);                                                                      
 1708              		.loc 1 722 0
 1709 0032 0123     		movs	r3, #1
 1710 0034 03FA06F0 		lsl	r0, r3, r6
 1711              	.LVL244:
 1712 0038 9DF80720 		ldrb	r2, [sp, #7]	@ zero_extendqisi2
 1713 003c 22EA0000 		bic	r0, r2, r0
 1714 0040 40B2     		sxtb	r0, r0
 723:SensorLib\max30102/driver_max30102.c ****         prev |= enable << type;                                                                    
 1715              		.loc 1 723 0
 1716 0042 08FA06F6 		lsl	r6, r8, r6
 1717 0046 3043     		orrs	r0, r0, r6
 1718 0048 02AA     		add	r2, sp, #8
 1719 004a 02F8010D 		strb	r0, [r2, #-1]!
 724:SensorLib\max30102/driver_max30102.c ****         res = handle->iic_write(MAX30102_ADDRESS, MAX30102_REG_INTERRUPT_ENABLE_2, (uint8_t *)&prev
 1720              		.loc 1 724 0
 1721 004e EE68     		ldr	r6, [r5, #12]
 1722 0050 0321     		movs	r1, #3
 1723 0052 5720     		movs	r0, #87
 1724 0054 B047     		blx	r6
 1725              	.LVL245:
 725:SensorLib\max30102/driver_max30102.c ****         if (res != 0)                                                                              
 1726              		.loc 1 725 0
 1727 0056 50B3     		cbz	r0, .L112
 726:SensorLib\max30102/driver_max30102.c ****         {
 727:SensorLib\max30102/driver_max30102.c ****             handle->debug_print("max30102: write interrupt enable2 failed.\n");                    
 1728              		.loc 1 727 0
 1729 0058 AB69     		ldr	r3, [r5, #24]
 1730 005a 1948     		ldr	r0, .L115+4
 1731              	.LVL246:
 1732 005c 9847     		blx	r3
 1733              	.LVL247:
 728:SensorLib\max30102/driver_max30102.c ****            
 729:SensorLib\max30102/driver_max30102.c ****             return 1;                                                                              
 1734              		.loc 1 729 0
 1735 005e 29E0     		b	.L106
 1736              	.LVL248:
 1737              	.L107:
 730:SensorLib\max30102/driver_max30102.c ****         }
 731:SensorLib\max30102/driver_max30102.c ****         
 732:SensorLib\max30102/driver_max30102.c ****         return 0;                                                                                  
 733:SensorLib\max30102/driver_max30102.c ****     }
 734:SensorLib\max30102/driver_max30102.c ****     else
 735:SensorLib\max30102/driver_max30102.c ****     {
 736:SensorLib\max30102/driver_max30102.c ****         res = handle->iic_read(MAX30102_ADDRESS, MAX30102_REG_INTERRUPT_ENABLE_1, (uint8_t *)&prev,
 1738              		.loc 1 736 0
 1739 0060 8768     		ldr	r7, [r0, #8]
 1740 0062 0123     		movs	r3, #1
 1741 0064 0DF10702 		add	r2, sp, #7
 1742              	.LVL249:
ARM GAS  C:\Users\CHRONI~1\AppData\Local\Temp\cc7oUGua.s 			page 45


 1743 0068 0221     		movs	r1, #2
 1744              	.LVL250:
 1745 006a 5720     		movs	r0, #87
 1746              	.LVL251:
 1747 006c B847     		blx	r7
 1748              	.LVL252:
 737:SensorLib\max30102/driver_max30102.c ****         if (res != 0)                                                                              
 1749              		.loc 1 737 0
 1750 006e 18B1     		cbz	r0, .L109
 738:SensorLib\max30102/driver_max30102.c ****         {
 739:SensorLib\max30102/driver_max30102.c ****             handle->debug_print("max30102: read interrupt enable1 failed.\n");                     
 1751              		.loc 1 739 0
 1752 0070 AB69     		ldr	r3, [r5, #24]
 1753 0072 1448     		ldr	r0, .L115+8
 1754              	.LVL253:
 1755 0074 9847     		blx	r3
 1756              	.LVL254:
 740:SensorLib\max30102/driver_max30102.c ****            
 741:SensorLib\max30102/driver_max30102.c ****             return 1;                                                                              
 1757              		.loc 1 741 0
 1758 0076 1DE0     		b	.L106
 1759              	.LVL255:
 1760              	.L109:
 742:SensorLib\max30102/driver_max30102.c ****         }
 743:SensorLib\max30102/driver_max30102.c ****         prev &= ~(1 << type);                                                                      
 1761              		.loc 1 743 0
 1762 0078 0123     		movs	r3, #1
 1763 007a 03FA06F1 		lsl	r1, r3, r6
 1764 007e 9DF80720 		ldrb	r2, [sp, #7]	@ zero_extendqisi2
 1765 0082 22EA0101 		bic	r1, r2, r1
 1766 0086 49B2     		sxtb	r1, r1
 744:SensorLib\max30102/driver_max30102.c ****         prev |= enable << type;                                                                    
 1767              		.loc 1 744 0
 1768 0088 08FA06F2 		lsl	r2, r8, r6
 1769 008c 1143     		orrs	r1, r1, r2
 1770 008e 02AA     		add	r2, sp, #8
 1771 0090 02F8011D 		strb	r1, [r2, #-1]!
 745:SensorLib\max30102/driver_max30102.c ****         res = handle->iic_write(MAX30102_ADDRESS, MAX30102_REG_INTERRUPT_ENABLE_1, (uint8_t *)&prev
 1772              		.loc 1 745 0
 1773 0094 EE68     		ldr	r6, [r5, #12]
 1774 0096 0221     		movs	r1, #2
 1775 0098 5720     		movs	r0, #87
 1776              	.LVL256:
 1777 009a B047     		blx	r6
 1778              	.LVL257:
 746:SensorLib\max30102/driver_max30102.c ****         if (res != 0)                                                                              
 1779              		.loc 1 746 0
 1780 009c 48B1     		cbz	r0, .L113
 747:SensorLib\max30102/driver_max30102.c ****         {
 748:SensorLib\max30102/driver_max30102.c ****             handle->debug_print("max30102: write interrupt enable1 failed.\n");                    
 1781              		.loc 1 748 0
 1782 009e AB69     		ldr	r3, [r5, #24]
 1783 00a0 0948     		ldr	r0, .L115+12
 1784              	.LVL258:
 1785 00a2 9847     		blx	r3
 1786              	.LVL259:
 749:SensorLib\max30102/driver_max30102.c ****            
ARM GAS  C:\Users\CHRONI~1\AppData\Local\Temp\cc7oUGua.s 			page 46


 750:SensorLib\max30102/driver_max30102.c ****             return 1;                                                                              
 1787              		.loc 1 750 0
 1788 00a4 06E0     		b	.L106
 1789              	.LVL260:
 1790              	.L110:
 706:SensorLib\max30102/driver_max30102.c ****     }
 1791              		.loc 1 706 0
 1792 00a6 0224     		movs	r4, #2
 1793 00a8 04E0     		b	.L106
 1794              	.L111:
 710:SensorLib\max30102/driver_max30102.c ****     }
 1795              		.loc 1 710 0
 1796 00aa 0324     		movs	r4, #3
 1797 00ac 02E0     		b	.L106
 1798              	.LVL261:
 1799              	.L112:
 732:SensorLib\max30102/driver_max30102.c ****     }
 1800              		.loc 1 732 0
 1801 00ae 0024     		movs	r4, #0
 1802 00b0 00E0     		b	.L106
 1803              	.L113:
 751:SensorLib\max30102/driver_max30102.c ****         }
 752:SensorLib\max30102/driver_max30102.c ****     
 753:SensorLib\max30102/driver_max30102.c ****         return 0;                                                                                  
 1804              		.loc 1 753 0
 1805 00b2 0024     		movs	r4, #0
 1806              	.LVL262:
 1807              	.L106:
 754:SensorLib\max30102/driver_max30102.c ****     }
 755:SensorLib\max30102/driver_max30102.c **** }
 1808              		.loc 1 755 0
 1809 00b4 2046     		mov	r0, r4
 1810 00b6 02B0     		add	sp, sp, #8
 1811              		.cfi_def_cfa_offset 24
 1812              		@ sp needed
 1813 00b8 BDE8F081 		pop	{r4, r5, r6, r7, r8, pc}
 1814              	.L116:
 1815              		.align	2
 1816              	.L115:
 1817 00bc 44080000 		.word	.LC51
 1818 00c0 70080000 		.word	.LC52
 1819 00c4 0C090000 		.word	.LC56
 1820 00c8 38090000 		.word	.LC57
 1821              		.cfi_endproc
 1822              	.LFE7:
 1823              		.size	max30102_set_interrupt, .-max30102_set_interrupt
 1824              		.section	.text.max30102_get_interrupt,"ax",%progbits
 1825              		.align	2
 1826              		.global	max30102_get_interrupt
 1827              		.thumb
 1828              		.thumb_func
 1829              		.type	max30102_get_interrupt, %function
 1830              	max30102_get_interrupt:
 1831              	.LFB8:
 756:SensorLib\max30102/driver_max30102.c **** 
 757:SensorLib\max30102/driver_max30102.c **** /**
 758:SensorLib\max30102/driver_max30102.c ****  * @brief      get the interrupt bool
ARM GAS  C:\Users\CHRONI~1\AppData\Local\Temp\cc7oUGua.s 			page 47


 759:SensorLib\max30102/driver_max30102.c ****  * @param[in]  *handle points to a max30102 handle structure
 760:SensorLib\max30102/driver_max30102.c ****  * @param[in]  type is the interrupt type
 761:SensorLib\max30102/driver_max30102.c ****  * @param[out] *enable points to a bool value buffer
 762:SensorLib\max30102/driver_max30102.c ****  * @return     status code
 763:SensorLib\max30102/driver_max30102.c ****  *             - 0 success
 764:SensorLib\max30102/driver_max30102.c ****  *             - 1 get interrupt failed
 765:SensorLib\max30102/driver_max30102.c ****  *             - 2 handle is NULL
 766:SensorLib\max30102/driver_max30102.c ****  *             - 3 handle is not initialized
 767:SensorLib\max30102/driver_max30102.c ****  * @note       none
 768:SensorLib\max30102/driver_max30102.c ****  */
 769:SensorLib\max30102/driver_max30102.c **** uint8_t max30102_get_interrupt(max30102_handle_t *handle, max30102_interrupt_t type, max30102_bool_
 770:SensorLib\max30102/driver_max30102.c **** {
 1832              		.loc 1 770 0
 1833              		.cfi_startproc
 1834              		@ args = 0, pretend = 0, frame = 8
 1835              		@ frame_needed = 0, uses_anonymous_args = 0
 1836              	.LVL263:
 1837 0000 2DE9F041 		push	{r4, r5, r6, r7, r8, lr}
 1838              		.cfi_def_cfa_offset 24
 1839              		.cfi_offset 4, -24
 1840              		.cfi_offset 5, -20
 1841              		.cfi_offset 6, -16
 1842              		.cfi_offset 7, -12
 1843              		.cfi_offset 8, -8
 1844              		.cfi_offset 14, -4
 1845 0004 82B0     		sub	sp, sp, #8
 1846              		.cfi_def_cfa_offset 32
 771:SensorLib\max30102/driver_max30102.c ****     uint8_t res;
 772:SensorLib\max30102/driver_max30102.c ****     uint8_t prev;
 773:SensorLib\max30102/driver_max30102.c ****     
 774:SensorLib\max30102/driver_max30102.c ****     if (handle == NULL)                                                                            
 1847              		.loc 1 774 0
 1848 0006 88B3     		cbz	r0, .L122
 775:SensorLib\max30102/driver_max30102.c ****     {
 776:SensorLib\max30102/driver_max30102.c ****         return 2;                                                                                  
 777:SensorLib\max30102/driver_max30102.c ****     }
 778:SensorLib\max30102/driver_max30102.c ****     if (handle->inited != 1)                                                                       
 1849              		.loc 1 778 0
 1850 0008 047F     		ldrb	r4, [r0, #28]	@ zero_extendqisi2
 1851 000a 012C     		cmp	r4, #1
 1852 000c 30D1     		bne	.L123
 1853 000e 0546     		mov	r5, r0
 1854 0010 9046     		mov	r8, r2
 1855 0012 0E46     		mov	r6, r1
 779:SensorLib\max30102/driver_max30102.c ****     {
 780:SensorLib\max30102/driver_max30102.c ****         return 3;                                                                                  
 781:SensorLib\max30102/driver_max30102.c ****     }
 782:SensorLib\max30102/driver_max30102.c **** 
 783:SensorLib\max30102/driver_max30102.c ****     if (type == MAX30102_INTERRUPT_DIE_TEMP_RDY_EN)                                                
 1856              		.loc 1 783 0
 1857 0014 0129     		cmp	r1, #1
 1858 0016 14D1     		bne	.L119
 784:SensorLib\max30102/driver_max30102.c ****     {
 785:SensorLib\max30102/driver_max30102.c ****         res = handle->iic_read(MAX30102_ADDRESS, MAX30102_REG_INTERRUPT_ENABLE_2, (uint8_t *)&prev,
 1859              		.loc 1 785 0
 1860 0018 8768     		ldr	r7, [r0, #8]
 1861 001a 0123     		movs	r3, #1
ARM GAS  C:\Users\CHRONI~1\AppData\Local\Temp\cc7oUGua.s 			page 48


 1862 001c 0DF10702 		add	r2, sp, #7
 1863              	.LVL264:
 1864 0020 0321     		movs	r1, #3
 1865              	.LVL265:
 1866 0022 5720     		movs	r0, #87
 1867              	.LVL266:
 1868 0024 B847     		blx	r7
 1869              	.LVL267:
 786:SensorLib\max30102/driver_max30102.c ****         if (res != 0)                                                                              
 1870              		.loc 1 786 0
 1871 0026 18B1     		cbz	r0, .L120
 787:SensorLib\max30102/driver_max30102.c ****         {
 788:SensorLib\max30102/driver_max30102.c ****             handle->debug_print("max30102: read interrupt enable2 failed.\n");                     
 1872              		.loc 1 788 0
 1873 0028 AB69     		ldr	r3, [r5, #24]
 1874 002a 1448     		ldr	r0, .L125
 1875              	.LVL268:
 1876 002c 9847     		blx	r3
 1877              	.LVL269:
 789:SensorLib\max30102/driver_max30102.c ****            
 790:SensorLib\max30102/driver_max30102.c ****             return 1;                                                                              
 1878              		.loc 1 790 0
 1879 002e 20E0     		b	.L118
 1880              	.LVL270:
 1881              	.L120:
 791:SensorLib\max30102/driver_max30102.c ****         }
 792:SensorLib\max30102/driver_max30102.c ****         *enable = (max30102_bool_t)((prev >> type) & 0x01);                                        
 1882              		.loc 1 792 0
 1883 0030 9DF80710 		ldrb	r1, [sp, #7]	@ zero_extendqisi2
 1884 0034 3141     		asrs	r1, r1, r6
 1885 0036 01F00101 		and	r1, r1, #1
 1886 003a 88F80010 		strb	r1, [r8]
 793:SensorLib\max30102/driver_max30102.c ****     
 794:SensorLib\max30102/driver_max30102.c ****         return 0;                                                                                  
 1887              		.loc 1 794 0
 1888 003e 0024     		movs	r4, #0
 1889 0040 17E0     		b	.L118
 1890              	.LVL271:
 1891              	.L119:
 795:SensorLib\max30102/driver_max30102.c ****     }
 796:SensorLib\max30102/driver_max30102.c ****     else
 797:SensorLib\max30102/driver_max30102.c ****     {
 798:SensorLib\max30102/driver_max30102.c ****         res = handle->iic_read(MAX30102_ADDRESS, MAX30102_REG_INTERRUPT_ENABLE_1, (uint8_t *)&prev,
 1892              		.loc 1 798 0
 1893 0042 8768     		ldr	r7, [r0, #8]
 1894 0044 0123     		movs	r3, #1
 1895 0046 0DF10702 		add	r2, sp, #7
 1896              	.LVL272:
 1897 004a 0221     		movs	r1, #2
 1898              	.LVL273:
 1899 004c 5720     		movs	r0, #87
 1900              	.LVL274:
 1901 004e B847     		blx	r7
 1902              	.LVL275:
 799:SensorLib\max30102/driver_max30102.c ****         if (res != 0)                                                                              
 1903              		.loc 1 799 0
 1904 0050 18B1     		cbz	r0, .L121
ARM GAS  C:\Users\CHRONI~1\AppData\Local\Temp\cc7oUGua.s 			page 49


 800:SensorLib\max30102/driver_max30102.c ****         {
 801:SensorLib\max30102/driver_max30102.c ****             handle->debug_print("max30102: read interrupt enable1 failed.\n");                     
 1905              		.loc 1 801 0
 1906 0052 AB69     		ldr	r3, [r5, #24]
 1907 0054 0A48     		ldr	r0, .L125+4
 1908              	.LVL276:
 1909 0056 9847     		blx	r3
 1910              	.LVL277:
 802:SensorLib\max30102/driver_max30102.c ****            
 803:SensorLib\max30102/driver_max30102.c ****             return 1;                                                                              
 1911              		.loc 1 803 0
 1912 0058 0BE0     		b	.L118
 1913              	.LVL278:
 1914              	.L121:
 804:SensorLib\max30102/driver_max30102.c ****         }
 805:SensorLib\max30102/driver_max30102.c ****         *enable = (max30102_bool_t)((prev >> type) & 0x01);                                        
 1915              		.loc 1 805 0
 1916 005a 9DF80710 		ldrb	r1, [sp, #7]	@ zero_extendqisi2
 1917 005e 3141     		asrs	r1, r1, r6
 1918 0060 01F00101 		and	r1, r1, #1
 1919 0064 88F80010 		strb	r1, [r8]
 806:SensorLib\max30102/driver_max30102.c ****     
 807:SensorLib\max30102/driver_max30102.c ****         return 0;                                                                                  
 1920              		.loc 1 807 0
 1921 0068 0024     		movs	r4, #0
 1922 006a 02E0     		b	.L118
 1923              	.LVL279:
 1924              	.L122:
 776:SensorLib\max30102/driver_max30102.c ****     }
 1925              		.loc 1 776 0
 1926 006c 0224     		movs	r4, #2
 1927 006e 00E0     		b	.L118
 1928              	.L123:
 780:SensorLib\max30102/driver_max30102.c ****     }
 1929              		.loc 1 780 0
 1930 0070 0324     		movs	r4, #3
 1931              	.LVL280:
 1932              	.L118:
 808:SensorLib\max30102/driver_max30102.c ****     }
 809:SensorLib\max30102/driver_max30102.c **** }
 1933              		.loc 1 809 0
 1934 0072 2046     		mov	r0, r4
 1935 0074 02B0     		add	sp, sp, #8
 1936              		.cfi_def_cfa_offset 24
 1937              		@ sp needed
 1938 0076 BDE8F081 		pop	{r4, r5, r6, r7, r8, pc}
 1939              	.L126:
 1940 007a 00BF     		.align	2
 1941              	.L125:
 1942 007c 44080000 		.word	.LC51
 1943 0080 0C090000 		.word	.LC56
 1944              		.cfi_endproc
 1945              	.LFE8:
 1946              		.size	max30102_get_interrupt, .-max30102_get_interrupt
 1947              		.section	.text.max30102_set_fifo_write_pointer,"ax",%progbits
 1948              		.align	2
 1949              		.global	max30102_set_fifo_write_pointer
ARM GAS  C:\Users\CHRONI~1\AppData\Local\Temp\cc7oUGua.s 			page 50


 1950              		.thumb
 1951              		.thumb_func
 1952              		.type	max30102_set_fifo_write_pointer, %function
 1953              	max30102_set_fifo_write_pointer:
 1954              	.LFB9:
 810:SensorLib\max30102/driver_max30102.c **** 
 811:SensorLib\max30102/driver_max30102.c **** /**
 812:SensorLib\max30102/driver_max30102.c ****  * @brief     set the fifo write pointer
 813:SensorLib\max30102/driver_max30102.c ****  * @param[in] *handle points to a max30102 handle structure
 814:SensorLib\max30102/driver_max30102.c ****  * @param[in] pointer is the written pointer
 815:SensorLib\max30102/driver_max30102.c ****  * @return    status code
 816:SensorLib\max30102/driver_max30102.c ****  *            - 0 success
 817:SensorLib\max30102/driver_max30102.c ****  *            - 1 set fifo write pointer failed
 818:SensorLib\max30102/driver_max30102.c ****  *            - 2 handle is NULL
 819:SensorLib\max30102/driver_max30102.c ****  *            - 3 handle is not initialized
 820:SensorLib\max30102/driver_max30102.c ****  *            - 4 pointer can't be over 0x1F
 821:SensorLib\max30102/driver_max30102.c ****  * @note      pointer <= 0x1F
 822:SensorLib\max30102/driver_max30102.c ****  */
 823:SensorLib\max30102/driver_max30102.c **** uint8_t max30102_set_fifo_write_pointer(max30102_handle_t *handle, uint8_t pointer)
 824:SensorLib\max30102/driver_max30102.c **** {
 1955              		.loc 1 824 0
 1956              		.cfi_startproc
 1957              		@ args = 0, pretend = 0, frame = 8
 1958              		@ frame_needed = 0, uses_anonymous_args = 0
 1959              	.LVL281:
 1960 0000 70B5     		push	{r4, r5, r6, lr}
 1961              		.cfi_def_cfa_offset 16
 1962              		.cfi_offset 4, -16
 1963              		.cfi_offset 5, -12
 1964              		.cfi_offset 6, -8
 1965              		.cfi_offset 14, -4
 1966 0002 82B0     		sub	sp, sp, #8
 1967              		.cfi_def_cfa_offset 24
 825:SensorLib\max30102/driver_max30102.c ****     uint8_t res;
 826:SensorLib\max30102/driver_max30102.c ****     uint8_t prev;
 827:SensorLib\max30102/driver_max30102.c ****     
 828:SensorLib\max30102/driver_max30102.c ****     if (handle == NULL)                                                                            
 1968              		.loc 1 828 0
 1969 0004 C8B1     		cbz	r0, .L130
 829:SensorLib\max30102/driver_max30102.c ****     {
 830:SensorLib\max30102/driver_max30102.c ****         return 2;                                                                                  
 831:SensorLib\max30102/driver_max30102.c ****     }
 832:SensorLib\max30102/driver_max30102.c ****     if (handle->inited != 1)                                                                       
 1970              		.loc 1 832 0
 1971 0006 047F     		ldrb	r4, [r0, #28]	@ zero_extendqisi2
 1972 0008 012C     		cmp	r4, #1
 1973 000a 18D1     		bne	.L131
 1974 000c 0546     		mov	r5, r0
 833:SensorLib\max30102/driver_max30102.c ****     {
 834:SensorLib\max30102/driver_max30102.c ****         return 3;                                                                                  
 835:SensorLib\max30102/driver_max30102.c ****     }
 836:SensorLib\max30102/driver_max30102.c ****     if (pointer > 0x1F)                                                                            
 1975              		.loc 1 836 0
 1976 000e 1F29     		cmp	r1, #31
 1977 0010 04D9     		bls	.L129
 837:SensorLib\max30102/driver_max30102.c ****     {
 838:SensorLib\max30102/driver_max30102.c ****         handle->debug_print("max30102: pointer can't be over 0x1F.\n");                            
ARM GAS  C:\Users\CHRONI~1\AppData\Local\Temp\cc7oUGua.s 			page 51


 1978              		.loc 1 838 0
 1979 0012 8369     		ldr	r3, [r0, #24]
 1980 0014 0D48     		ldr	r0, .L134
 1981              	.LVL282:
 1982 0016 9847     		blx	r3
 1983              	.LVL283:
 839:SensorLib\max30102/driver_max30102.c ****        
 840:SensorLib\max30102/driver_max30102.c ****         return 4;                                                                                  
 1984              		.loc 1 840 0
 1985 0018 0424     		movs	r4, #4
 1986 001a 13E0     		b	.L128
 1987              	.LVL284:
 1988              	.L129:
 841:SensorLib\max30102/driver_max30102.c ****     }
 842:SensorLib\max30102/driver_max30102.c **** 
 843:SensorLib\max30102/driver_max30102.c ****     prev = pointer & 0x1F;                                                                         
 1989              		.loc 1 843 0
 1990 001c 01F01F01 		and	r1, r1, #31
 1991              	.LVL285:
 1992 0020 02AA     		add	r2, sp, #8
 1993 0022 02F8011D 		strb	r1, [r2, #-1]!
 844:SensorLib\max30102/driver_max30102.c ****     res = handle->iic_write(MAX30102_ADDRESS, MAX30102_REG_FIFO_WRITE_POINTER, (uint8_t *)&prev, 1)
 1994              		.loc 1 844 0
 1995 0026 C668     		ldr	r6, [r0, #12]
 1996 0028 0123     		movs	r3, #1
 1997 002a 0421     		movs	r1, #4
 1998 002c 5720     		movs	r0, #87
 1999              	.LVL286:
 2000 002e B047     		blx	r6
 2001              	.LVL287:
 845:SensorLib\max30102/driver_max30102.c ****     if (res != 0)                                                                                  
 2002              		.loc 1 845 0
 2003 0030 38B1     		cbz	r0, .L132
 846:SensorLib\max30102/driver_max30102.c ****     {
 847:SensorLib\max30102/driver_max30102.c ****         handle->debug_print("max30102: write fifo write pointer failed.\n");                       
 2004              		.loc 1 847 0
 2005 0032 AB69     		ldr	r3, [r5, #24]
 2006 0034 0648     		ldr	r0, .L134+4
 2007              	.LVL288:
 2008 0036 9847     		blx	r3
 2009              	.LVL289:
 848:SensorLib\max30102/driver_max30102.c ****        
 849:SensorLib\max30102/driver_max30102.c ****         return 1;                                                                                  
 2010              		.loc 1 849 0
 2011 0038 04E0     		b	.L128
 2012              	.LVL290:
 2013              	.L130:
 830:SensorLib\max30102/driver_max30102.c ****     }
 2014              		.loc 1 830 0
 2015 003a 0224     		movs	r4, #2
 2016 003c 02E0     		b	.L128
 2017              	.L131:
 834:SensorLib\max30102/driver_max30102.c ****     }
 2018              		.loc 1 834 0
 2019 003e 0324     		movs	r4, #3
 2020 0040 00E0     		b	.L128
 2021              	.LVL291:
ARM GAS  C:\Users\CHRONI~1\AppData\Local\Temp\cc7oUGua.s 			page 52


 2022              	.L132:
 850:SensorLib\max30102/driver_max30102.c ****     }
 851:SensorLib\max30102/driver_max30102.c ****     
 852:SensorLib\max30102/driver_max30102.c ****     return 0;                                                                                      
 2023              		.loc 1 852 0
 2024 0042 0024     		movs	r4, #0
 2025              	.LVL292:
 2026              	.L128:
 853:SensorLib\max30102/driver_max30102.c **** }
 2027              		.loc 1 853 0
 2028 0044 2046     		mov	r0, r4
 2029 0046 02B0     		add	sp, sp, #8
 2030              		.cfi_def_cfa_offset 16
 2031              		@ sp needed
 2032 0048 70BD     		pop	{r4, r5, r6, pc}
 2033              	.L135:
 2034 004a 00BF     		.align	2
 2035              	.L134:
 2036 004c 64090000 		.word	.LC58
 2037 0050 8C090000 		.word	.LC59
 2038              		.cfi_endproc
 2039              	.LFE9:
 2040              		.size	max30102_set_fifo_write_pointer, .-max30102_set_fifo_write_pointer
 2041              		.section	.text.max30102_get_fifo_write_pointer,"ax",%progbits
 2042              		.align	2
 2043              		.global	max30102_get_fifo_write_pointer
 2044              		.thumb
 2045              		.thumb_func
 2046              		.type	max30102_get_fifo_write_pointer, %function
 2047              	max30102_get_fifo_write_pointer:
 2048              	.LFB10:
 854:SensorLib\max30102/driver_max30102.c **** 
 855:SensorLib\max30102/driver_max30102.c **** /**
 856:SensorLib\max30102/driver_max30102.c ****  * @brief      get the fifo write pointer
 857:SensorLib\max30102/driver_max30102.c ****  * @param[in]  *handle points to a max30102 handle structure
 858:SensorLib\max30102/driver_max30102.c ****  * @param[out] *pointer points to a pointer buffer
 859:SensorLib\max30102/driver_max30102.c ****  * @return     status code
 860:SensorLib\max30102/driver_max30102.c ****  *             - 0 success
 861:SensorLib\max30102/driver_max30102.c ****  *             - 1 get fifo write pointer failed
 862:SensorLib\max30102/driver_max30102.c ****  *             - 2 handle is NULL
 863:SensorLib\max30102/driver_max30102.c ****  *             - 3 handle is not initialized
 864:SensorLib\max30102/driver_max30102.c ****  * @note       none
 865:SensorLib\max30102/driver_max30102.c ****  */
 866:SensorLib\max30102/driver_max30102.c **** uint8_t max30102_get_fifo_write_pointer(max30102_handle_t *handle, uint8_t *pointer)
 867:SensorLib\max30102/driver_max30102.c **** {
 2049              		.loc 1 867 0
 2050              		.cfi_startproc
 2051              		@ args = 0, pretend = 0, frame = 8
 2052              		@ frame_needed = 0, uses_anonymous_args = 0
 2053              	.LVL293:
 2054 0000 F0B5     		push	{r4, r5, r6, r7, lr}
 2055              		.cfi_def_cfa_offset 20
 2056              		.cfi_offset 4, -20
 2057              		.cfi_offset 5, -16
 2058              		.cfi_offset 6, -12
 2059              		.cfi_offset 7, -8
 2060              		.cfi_offset 14, -4
ARM GAS  C:\Users\CHRONI~1\AppData\Local\Temp\cc7oUGua.s 			page 53


 2061 0002 83B0     		sub	sp, sp, #12
 2062              		.cfi_def_cfa_offset 32
 868:SensorLib\max30102/driver_max30102.c ****     uint8_t res;
 869:SensorLib\max30102/driver_max30102.c ****     uint8_t prev;
 870:SensorLib\max30102/driver_max30102.c ****     
 871:SensorLib\max30102/driver_max30102.c ****     if (handle == NULL)                                                                            
 2063              		.loc 1 871 0
 2064 0004 B8B1     		cbz	r0, .L139
 872:SensorLib\max30102/driver_max30102.c ****     {
 873:SensorLib\max30102/driver_max30102.c ****         return 2;                                                                                  
 874:SensorLib\max30102/driver_max30102.c ****     }
 875:SensorLib\max30102/driver_max30102.c ****     if (handle->inited != 1)                                                                       
 2065              		.loc 1 875 0
 2066 0006 047F     		ldrb	r4, [r0, #28]	@ zero_extendqisi2
 2067 0008 012C     		cmp	r4, #1
 2068 000a 16D1     		bne	.L140
 2069 000c 0546     		mov	r5, r0
 2070 000e 0E46     		mov	r6, r1
 876:SensorLib\max30102/driver_max30102.c ****     {
 877:SensorLib\max30102/driver_max30102.c ****         return 3;                                                                                  
 878:SensorLib\max30102/driver_max30102.c ****     }
 879:SensorLib\max30102/driver_max30102.c **** 
 880:SensorLib\max30102/driver_max30102.c ****     res = handle->iic_read(MAX30102_ADDRESS, MAX30102_REG_FIFO_WRITE_POINTER, (uint8_t *)&prev, 1);
 2071              		.loc 1 880 0
 2072 0010 8768     		ldr	r7, [r0, #8]
 2073 0012 0123     		movs	r3, #1
 2074 0014 0DF10702 		add	r2, sp, #7
 2075 0018 0421     		movs	r1, #4
 2076              	.LVL294:
 2077 001a 5720     		movs	r0, #87
 2078              	.LVL295:
 2079 001c B847     		blx	r7
 2080              	.LVL296:
 881:SensorLib\max30102/driver_max30102.c ****     if (res != 0)                                                                                  
 2081              		.loc 1 881 0
 2082 001e 18B1     		cbz	r0, .L138
 882:SensorLib\max30102/driver_max30102.c ****     {
 883:SensorLib\max30102/driver_max30102.c ****         handle->debug_print("max30102: read fifo write pointer failed.\n");                        
 2083              		.loc 1 883 0
 2084 0020 AB69     		ldr	r3, [r5, #24]
 2085 0022 0848     		ldr	r0, .L142
 2086              	.LVL297:
 2087 0024 9847     		blx	r3
 2088              	.LVL298:
 884:SensorLib\max30102/driver_max30102.c ****        
 885:SensorLib\max30102/driver_max30102.c ****         return 1;                                                                                  
 2089              		.loc 1 885 0
 2090 0026 09E0     		b	.L137
 2091              	.LVL299:
 2092              	.L138:
 886:SensorLib\max30102/driver_max30102.c ****     }
 887:SensorLib\max30102/driver_max30102.c ****     *pointer = prev & 0x1F;                                                                        
 2093              		.loc 1 887 0
 2094 0028 9DF80730 		ldrb	r3, [sp, #7]	@ zero_extendqisi2
 2095 002c 03F01F03 		and	r3, r3, #31
 2096 0030 3370     		strb	r3, [r6]
 888:SensorLib\max30102/driver_max30102.c ****     
ARM GAS  C:\Users\CHRONI~1\AppData\Local\Temp\cc7oUGua.s 			page 54


 889:SensorLib\max30102/driver_max30102.c ****     return 0;                                                                                      
 2097              		.loc 1 889 0
 2098 0032 0024     		movs	r4, #0
 2099 0034 02E0     		b	.L137
 2100              	.LVL300:
 2101              	.L139:
 873:SensorLib\max30102/driver_max30102.c ****     }
 2102              		.loc 1 873 0
 2103 0036 0224     		movs	r4, #2
 2104 0038 00E0     		b	.L137
 2105              	.L140:
 877:SensorLib\max30102/driver_max30102.c ****     }
 2106              		.loc 1 877 0
 2107 003a 0324     		movs	r4, #3
 2108              	.LVL301:
 2109              	.L137:
 890:SensorLib\max30102/driver_max30102.c **** }
 2110              		.loc 1 890 0
 2111 003c 2046     		mov	r0, r4
 2112 003e 03B0     		add	sp, sp, #12
 2113              		.cfi_def_cfa_offset 20
 2114              		@ sp needed
 2115 0040 F0BD     		pop	{r4, r5, r6, r7, pc}
 2116              	.L143:
 2117 0042 00BF     		.align	2
 2118              	.L142:
 2119 0044 B8090000 		.word	.LC60
 2120              		.cfi_endproc
 2121              	.LFE10:
 2122              		.size	max30102_get_fifo_write_pointer, .-max30102_get_fifo_write_pointer
 2123              		.section	.text.max30102_set_fifo_overflow_counter,"ax",%progbits
 2124              		.align	2
 2125              		.global	max30102_set_fifo_overflow_counter
 2126              		.thumb
 2127              		.thumb_func
 2128              		.type	max30102_set_fifo_overflow_counter, %function
 2129              	max30102_set_fifo_overflow_counter:
 2130              	.LFB11:
 891:SensorLib\max30102/driver_max30102.c **** 
 892:SensorLib\max30102/driver_max30102.c **** /**
 893:SensorLib\max30102/driver_max30102.c ****  * @brief     set the fifo overflow counter
 894:SensorLib\max30102/driver_max30102.c ****  * @param[in] *handle points to a max30102 handle structure
 895:SensorLib\max30102/driver_max30102.c ****  * @param[in] counter is the overflow counter
 896:SensorLib\max30102/driver_max30102.c ****  * @return    status code
 897:SensorLib\max30102/driver_max30102.c ****  *            - 0 success
 898:SensorLib\max30102/driver_max30102.c ****  *            - 1 set fifo overflow counter failed
 899:SensorLib\max30102/driver_max30102.c ****  *            - 2 handle is NULL
 900:SensorLib\max30102/driver_max30102.c ****  *            - 3 handle is not initialized
 901:SensorLib\max30102/driver_max30102.c ****  *            - 4 counter can't be over 0x1F
 902:SensorLib\max30102/driver_max30102.c ****  * @note      counter <= 0x1F
 903:SensorLib\max30102/driver_max30102.c ****  */
 904:SensorLib\max30102/driver_max30102.c **** uint8_t max30102_set_fifo_overflow_counter(max30102_handle_t *handle, uint8_t counter)
 905:SensorLib\max30102/driver_max30102.c **** {
 2131              		.loc 1 905 0
 2132              		.cfi_startproc
 2133              		@ args = 0, pretend = 0, frame = 8
 2134              		@ frame_needed = 0, uses_anonymous_args = 0
ARM GAS  C:\Users\CHRONI~1\AppData\Local\Temp\cc7oUGua.s 			page 55


 2135              	.LVL302:
 2136 0000 70B5     		push	{r4, r5, r6, lr}
 2137              		.cfi_def_cfa_offset 16
 2138              		.cfi_offset 4, -16
 2139              		.cfi_offset 5, -12
 2140              		.cfi_offset 6, -8
 2141              		.cfi_offset 14, -4
 2142 0002 82B0     		sub	sp, sp, #8
 2143              		.cfi_def_cfa_offset 24
 906:SensorLib\max30102/driver_max30102.c ****     uint8_t res;
 907:SensorLib\max30102/driver_max30102.c ****     uint8_t prev;
 908:SensorLib\max30102/driver_max30102.c ****     
 909:SensorLib\max30102/driver_max30102.c ****     if (handle == NULL)                                                                            
 2144              		.loc 1 909 0
 2145 0004 C8B1     		cbz	r0, .L147
 910:SensorLib\max30102/driver_max30102.c ****     {
 911:SensorLib\max30102/driver_max30102.c ****         return 2;                                                                                  
 912:SensorLib\max30102/driver_max30102.c ****     }
 913:SensorLib\max30102/driver_max30102.c ****     if (handle->inited != 1)                                                                       
 2146              		.loc 1 913 0
 2147 0006 047F     		ldrb	r4, [r0, #28]	@ zero_extendqisi2
 2148 0008 012C     		cmp	r4, #1
 2149 000a 18D1     		bne	.L148
 2150 000c 0546     		mov	r5, r0
 914:SensorLib\max30102/driver_max30102.c ****     {
 915:SensorLib\max30102/driver_max30102.c ****         return 3;                                                                                  
 916:SensorLib\max30102/driver_max30102.c ****     }
 917:SensorLib\max30102/driver_max30102.c ****     if (counter > 0x1F)                                                                            
 2151              		.loc 1 917 0
 2152 000e 1F29     		cmp	r1, #31
 2153 0010 04D9     		bls	.L146
 918:SensorLib\max30102/driver_max30102.c ****     {
 919:SensorLib\max30102/driver_max30102.c ****         handle->debug_print("max30102: counter can't be over 0x1F.\n");                            
 2154              		.loc 1 919 0
 2155 0012 8369     		ldr	r3, [r0, #24]
 2156 0014 0D48     		ldr	r0, .L151
 2157              	.LVL303:
 2158 0016 9847     		blx	r3
 2159              	.LVL304:
 920:SensorLib\max30102/driver_max30102.c ****        
 921:SensorLib\max30102/driver_max30102.c ****         return 4;                                                                                  
 2160              		.loc 1 921 0
 2161 0018 0424     		movs	r4, #4
 2162 001a 13E0     		b	.L145
 2163              	.LVL305:
 2164              	.L146:
 922:SensorLib\max30102/driver_max30102.c ****     }
 923:SensorLib\max30102/driver_max30102.c **** 
 924:SensorLib\max30102/driver_max30102.c ****     prev = counter & 0x1F;                                                                         
 2165              		.loc 1 924 0
 2166 001c 01F01F01 		and	r1, r1, #31
 2167              	.LVL306:
 2168 0020 02AA     		add	r2, sp, #8
 2169 0022 02F8011D 		strb	r1, [r2, #-1]!
 925:SensorLib\max30102/driver_max30102.c ****     res = handle->iic_write(MAX30102_ADDRESS, MAX30102_REG_OVERFLOW_COUNTER, (uint8_t *)&prev, 1); 
 2170              		.loc 1 925 0
 2171 0026 C668     		ldr	r6, [r0, #12]
ARM GAS  C:\Users\CHRONI~1\AppData\Local\Temp\cc7oUGua.s 			page 56


 2172 0028 0123     		movs	r3, #1
 2173 002a 0521     		movs	r1, #5
 2174 002c 5720     		movs	r0, #87
 2175              	.LVL307:
 2176 002e B047     		blx	r6
 2177              	.LVL308:
 926:SensorLib\max30102/driver_max30102.c ****     if (res != 0)                                                                                  
 2178              		.loc 1 926 0
 2179 0030 38B1     		cbz	r0, .L149
 927:SensorLib\max30102/driver_max30102.c ****     {
 928:SensorLib\max30102/driver_max30102.c ****         handle->debug_print("max30102: set fifo overflow counter failed.\n");                      
 2180              		.loc 1 928 0
 2181 0032 AB69     		ldr	r3, [r5, #24]
 2182 0034 0648     		ldr	r0, .L151+4
 2183              	.LVL309:
 2184 0036 9847     		blx	r3
 2185              	.LVL310:
 929:SensorLib\max30102/driver_max30102.c ****        
 930:SensorLib\max30102/driver_max30102.c ****         return 1;                                                                                  
 2186              		.loc 1 930 0
 2187 0038 04E0     		b	.L145
 2188              	.LVL311:
 2189              	.L147:
 911:SensorLib\max30102/driver_max30102.c ****     }
 2190              		.loc 1 911 0
 2191 003a 0224     		movs	r4, #2
 2192 003c 02E0     		b	.L145
 2193              	.L148:
 915:SensorLib\max30102/driver_max30102.c ****     }
 2194              		.loc 1 915 0
 2195 003e 0324     		movs	r4, #3
 2196 0040 00E0     		b	.L145
 2197              	.LVL312:
 2198              	.L149:
 931:SensorLib\max30102/driver_max30102.c ****     }
 932:SensorLib\max30102/driver_max30102.c ****     
 933:SensorLib\max30102/driver_max30102.c ****     return 0;                                                                                      
 2199              		.loc 1 933 0
 2200 0042 0024     		movs	r4, #0
 2201              	.LVL313:
 2202              	.L145:
 934:SensorLib\max30102/driver_max30102.c **** }
 2203              		.loc 1 934 0
 2204 0044 2046     		mov	r0, r4
 2205 0046 02B0     		add	sp, sp, #8
 2206              		.cfi_def_cfa_offset 16
 2207              		@ sp needed
 2208 0048 70BD     		pop	{r4, r5, r6, pc}
 2209              	.L152:
 2210 004a 00BF     		.align	2
 2211              	.L151:
 2212 004c E4090000 		.word	.LC61
 2213 0050 0C0A0000 		.word	.LC62
 2214              		.cfi_endproc
 2215              	.LFE11:
 2216              		.size	max30102_set_fifo_overflow_counter, .-max30102_set_fifo_overflow_counter
 2217              		.section	.text.max30102_get_fifo_overflow_counter,"ax",%progbits
ARM GAS  C:\Users\CHRONI~1\AppData\Local\Temp\cc7oUGua.s 			page 57


 2218              		.align	2
 2219              		.global	max30102_get_fifo_overflow_counter
 2220              		.thumb
 2221              		.thumb_func
 2222              		.type	max30102_get_fifo_overflow_counter, %function
 2223              	max30102_get_fifo_overflow_counter:
 2224              	.LFB12:
 935:SensorLib\max30102/driver_max30102.c **** 
 936:SensorLib\max30102/driver_max30102.c **** /**
 937:SensorLib\max30102/driver_max30102.c ****  * @brief      get the fifo overflow counter
 938:SensorLib\max30102/driver_max30102.c ****  * @param[in]  *handle points to a max30102 handle structure
 939:SensorLib\max30102/driver_max30102.c ****  * @param[out] *counter points to a counter buffer
 940:SensorLib\max30102/driver_max30102.c ****  * @return     status code
 941:SensorLib\max30102/driver_max30102.c ****  *             - 0 success
 942:SensorLib\max30102/driver_max30102.c ****  *             - 1 get fifo overflow counter failed
 943:SensorLib\max30102/driver_max30102.c ****  *             - 2 handle is NULL
 944:SensorLib\max30102/driver_max30102.c ****  *             - 3 handle is not initialized
 945:SensorLib\max30102/driver_max30102.c ****  * @note       none
 946:SensorLib\max30102/driver_max30102.c ****  */
 947:SensorLib\max30102/driver_max30102.c **** uint8_t max30102_get_fifo_overflow_counter(max30102_handle_t *handle, uint8_t *counter)
 948:SensorLib\max30102/driver_max30102.c **** {
 2225              		.loc 1 948 0
 2226              		.cfi_startproc
 2227              		@ args = 0, pretend = 0, frame = 8
 2228              		@ frame_needed = 0, uses_anonymous_args = 0
 2229              	.LVL314:
 2230 0000 F0B5     		push	{r4, r5, r6, r7, lr}
 2231              		.cfi_def_cfa_offset 20
 2232              		.cfi_offset 4, -20
 2233              		.cfi_offset 5, -16
 2234              		.cfi_offset 6, -12
 2235              		.cfi_offset 7, -8
 2236              		.cfi_offset 14, -4
 2237 0002 83B0     		sub	sp, sp, #12
 2238              		.cfi_def_cfa_offset 32
 949:SensorLib\max30102/driver_max30102.c ****     uint8_t res;
 950:SensorLib\max30102/driver_max30102.c ****     uint8_t prev;
 951:SensorLib\max30102/driver_max30102.c ****     
 952:SensorLib\max30102/driver_max30102.c ****     if (handle == NULL)                                                                            
 2239              		.loc 1 952 0
 2240 0004 B8B1     		cbz	r0, .L156
 953:SensorLib\max30102/driver_max30102.c ****     {
 954:SensorLib\max30102/driver_max30102.c ****         return 2;                                                                                  
 955:SensorLib\max30102/driver_max30102.c ****     }
 956:SensorLib\max30102/driver_max30102.c ****     if (handle->inited != 1)                                                                       
 2241              		.loc 1 956 0
 2242 0006 047F     		ldrb	r4, [r0, #28]	@ zero_extendqisi2
 2243 0008 012C     		cmp	r4, #1
 2244 000a 16D1     		bne	.L157
 2245 000c 0546     		mov	r5, r0
 2246 000e 0E46     		mov	r6, r1
 957:SensorLib\max30102/driver_max30102.c ****     {
 958:SensorLib\max30102/driver_max30102.c ****         return 3;                                                                                  
 959:SensorLib\max30102/driver_max30102.c ****     }
 960:SensorLib\max30102/driver_max30102.c **** 
 961:SensorLib\max30102/driver_max30102.c ****     res = handle->iic_read(MAX30102_ADDRESS, MAX30102_REG_OVERFLOW_COUNTER, (uint8_t *)&prev, 1);  
 2247              		.loc 1 961 0
ARM GAS  C:\Users\CHRONI~1\AppData\Local\Temp\cc7oUGua.s 			page 58


 2248 0010 8768     		ldr	r7, [r0, #8]
 2249 0012 0123     		movs	r3, #1
 2250 0014 0DF10702 		add	r2, sp, #7
 2251 0018 0521     		movs	r1, #5
 2252              	.LVL315:
 2253 001a 5720     		movs	r0, #87
 2254              	.LVL316:
 2255 001c B847     		blx	r7
 2256              	.LVL317:
 962:SensorLib\max30102/driver_max30102.c ****     if (res != 0)                                                                                  
 2257              		.loc 1 962 0
 2258 001e 18B1     		cbz	r0, .L155
 963:SensorLib\max30102/driver_max30102.c ****     {
 964:SensorLib\max30102/driver_max30102.c ****         handle->debug_print("max30102: get fifo overflow counter failed.\n");                      
 2259              		.loc 1 964 0
 2260 0020 AB69     		ldr	r3, [r5, #24]
 2261 0022 0848     		ldr	r0, .L159
 2262              	.LVL318:
 2263 0024 9847     		blx	r3
 2264              	.LVL319:
 965:SensorLib\max30102/driver_max30102.c ****        
 966:SensorLib\max30102/driver_max30102.c ****         return 1;                                                                                  
 2265              		.loc 1 966 0
 2266 0026 09E0     		b	.L154
 2267              	.LVL320:
 2268              	.L155:
 967:SensorLib\max30102/driver_max30102.c ****     }
 968:SensorLib\max30102/driver_max30102.c ****     *counter = prev & 0x1F;                                                                        
 2269              		.loc 1 968 0
 2270 0028 9DF80730 		ldrb	r3, [sp, #7]	@ zero_extendqisi2
 2271 002c 03F01F03 		and	r3, r3, #31
 2272 0030 3370     		strb	r3, [r6]
 969:SensorLib\max30102/driver_max30102.c ****     
 970:SensorLib\max30102/driver_max30102.c ****     return 0;                                                                                      
 2273              		.loc 1 970 0
 2274 0032 0024     		movs	r4, #0
 2275 0034 02E0     		b	.L154
 2276              	.LVL321:
 2277              	.L156:
 954:SensorLib\max30102/driver_max30102.c ****     }
 2278              		.loc 1 954 0
 2279 0036 0224     		movs	r4, #2
 2280 0038 00E0     		b	.L154
 2281              	.L157:
 958:SensorLib\max30102/driver_max30102.c ****     }
 2282              		.loc 1 958 0
 2283 003a 0324     		movs	r4, #3
 2284              	.LVL322:
 2285              	.L154:
 971:SensorLib\max30102/driver_max30102.c **** }
 2286              		.loc 1 971 0
 2287 003c 2046     		mov	r0, r4
 2288 003e 03B0     		add	sp, sp, #12
 2289              		.cfi_def_cfa_offset 20
 2290              		@ sp needed
 2291 0040 F0BD     		pop	{r4, r5, r6, r7, pc}
 2292              	.L160:
ARM GAS  C:\Users\CHRONI~1\AppData\Local\Temp\cc7oUGua.s 			page 59


 2293 0042 00BF     		.align	2
 2294              	.L159:
 2295 0044 3C0A0000 		.word	.LC63
 2296              		.cfi_endproc
 2297              	.LFE12:
 2298              		.size	max30102_get_fifo_overflow_counter, .-max30102_get_fifo_overflow_counter
 2299              		.section	.text.max30102_set_fifo_read_pointer,"ax",%progbits
 2300              		.align	2
 2301              		.global	max30102_set_fifo_read_pointer
 2302              		.thumb
 2303              		.thumb_func
 2304              		.type	max30102_set_fifo_read_pointer, %function
 2305              	max30102_set_fifo_read_pointer:
 2306              	.LFB13:
 972:SensorLib\max30102/driver_max30102.c **** 
 973:SensorLib\max30102/driver_max30102.c **** /**
 974:SensorLib\max30102/driver_max30102.c ****  * @brief     set the fifo read pointer
 975:SensorLib\max30102/driver_max30102.c ****  * @param[in] *handle points to a max30102 handle structure
 976:SensorLib\max30102/driver_max30102.c ****  * @param[in] pointer is the read pointer
 977:SensorLib\max30102/driver_max30102.c ****  * @return    status code
 978:SensorLib\max30102/driver_max30102.c ****  *            - 0 success
 979:SensorLib\max30102/driver_max30102.c ****  *            - 1 set fifo read pointer failed
 980:SensorLib\max30102/driver_max30102.c ****  *            - 2 handle is NULL
 981:SensorLib\max30102/driver_max30102.c ****  *            - 3 handle is not initialized
 982:SensorLib\max30102/driver_max30102.c ****  *            - 4 pointer can't be over 0x1F
 983:SensorLib\max30102/driver_max30102.c ****  * @note      pointer <= 0x1F
 984:SensorLib\max30102/driver_max30102.c ****  */
 985:SensorLib\max30102/driver_max30102.c **** uint8_t max30102_set_fifo_read_pointer(max30102_handle_t *handle, uint8_t pointer)
 986:SensorLib\max30102/driver_max30102.c **** {
 2307              		.loc 1 986 0
 2308              		.cfi_startproc
 2309              		@ args = 0, pretend = 0, frame = 8
 2310              		@ frame_needed = 0, uses_anonymous_args = 0
 2311              	.LVL323:
 2312 0000 70B5     		push	{r4, r5, r6, lr}
 2313              		.cfi_def_cfa_offset 16
 2314              		.cfi_offset 4, -16
 2315              		.cfi_offset 5, -12
 2316              		.cfi_offset 6, -8
 2317              		.cfi_offset 14, -4
 2318 0002 82B0     		sub	sp, sp, #8
 2319              		.cfi_def_cfa_offset 24
 987:SensorLib\max30102/driver_max30102.c ****     uint8_t res;
 988:SensorLib\max30102/driver_max30102.c ****     uint8_t prev;
 989:SensorLib\max30102/driver_max30102.c ****     
 990:SensorLib\max30102/driver_max30102.c ****     if (handle == NULL)                                                                            
 2320              		.loc 1 990 0
 2321 0004 C8B1     		cbz	r0, .L164
 991:SensorLib\max30102/driver_max30102.c ****     {
 992:SensorLib\max30102/driver_max30102.c ****         return 2;                                                                                  
 993:SensorLib\max30102/driver_max30102.c ****     }
 994:SensorLib\max30102/driver_max30102.c ****     if (handle->inited != 1)                                                                       
 2322              		.loc 1 994 0
 2323 0006 047F     		ldrb	r4, [r0, #28]	@ zero_extendqisi2
 2324 0008 012C     		cmp	r4, #1
 2325 000a 18D1     		bne	.L165
 2326 000c 0546     		mov	r5, r0
ARM GAS  C:\Users\CHRONI~1\AppData\Local\Temp\cc7oUGua.s 			page 60


 995:SensorLib\max30102/driver_max30102.c ****     {
 996:SensorLib\max30102/driver_max30102.c ****         return 3;                                                                                  
 997:SensorLib\max30102/driver_max30102.c ****     }
 998:SensorLib\max30102/driver_max30102.c ****     if (pointer > 0x1F)                                                                            
 2327              		.loc 1 998 0
 2328 000e 1F29     		cmp	r1, #31
 2329 0010 04D9     		bls	.L163
 999:SensorLib\max30102/driver_max30102.c ****     {
1000:SensorLib\max30102/driver_max30102.c ****         handle->debug_print("max30102: pointer can't be over 0x1F.\n");                            
 2330              		.loc 1 1000 0
 2331 0012 8369     		ldr	r3, [r0, #24]
 2332 0014 0D48     		ldr	r0, .L168
 2333              	.LVL324:
 2334 0016 9847     		blx	r3
 2335              	.LVL325:
1001:SensorLib\max30102/driver_max30102.c ****        
1002:SensorLib\max30102/driver_max30102.c ****         return 4;                                                                                  
 2336              		.loc 1 1002 0
 2337 0018 0424     		movs	r4, #4
 2338 001a 13E0     		b	.L162
 2339              	.LVL326:
 2340              	.L163:
1003:SensorLib\max30102/driver_max30102.c ****     }
1004:SensorLib\max30102/driver_max30102.c **** 
1005:SensorLib\max30102/driver_max30102.c ****     prev = pointer & 0x1F;                                                                         
 2341              		.loc 1 1005 0
 2342 001c 01F01F01 		and	r1, r1, #31
 2343              	.LVL327:
 2344 0020 02AA     		add	r2, sp, #8
 2345 0022 02F8011D 		strb	r1, [r2, #-1]!
1006:SensorLib\max30102/driver_max30102.c ****     res = handle->iic_write(MAX30102_ADDRESS, MAX30102_REG_FIFO_READ_POINTER, (uint8_t *)&prev, 1);
 2346              		.loc 1 1006 0
 2347 0026 C668     		ldr	r6, [r0, #12]
 2348 0028 0123     		movs	r3, #1
 2349 002a 0621     		movs	r1, #6
 2350 002c 5720     		movs	r0, #87
 2351              	.LVL328:
 2352 002e B047     		blx	r6
 2353              	.LVL329:
1007:SensorLib\max30102/driver_max30102.c ****     if (res != 0)                                                                                  
 2354              		.loc 1 1007 0
 2355 0030 38B1     		cbz	r0, .L166
1008:SensorLib\max30102/driver_max30102.c ****     {
1009:SensorLib\max30102/driver_max30102.c ****         handle->debug_print("max30102: write fifo read pointer failed.\n");                        
 2356              		.loc 1 1009 0
 2357 0032 AB69     		ldr	r3, [r5, #24]
 2358 0034 0648     		ldr	r0, .L168+4
 2359              	.LVL330:
 2360 0036 9847     		blx	r3
 2361              	.LVL331:
1010:SensorLib\max30102/driver_max30102.c ****        
1011:SensorLib\max30102/driver_max30102.c ****         return 1;                                                                                  
 2362              		.loc 1 1011 0
 2363 0038 04E0     		b	.L162
 2364              	.LVL332:
 2365              	.L164:
 992:SensorLib\max30102/driver_max30102.c ****     }
ARM GAS  C:\Users\CHRONI~1\AppData\Local\Temp\cc7oUGua.s 			page 61


 2366              		.loc 1 992 0
 2367 003a 0224     		movs	r4, #2
 2368 003c 02E0     		b	.L162
 2369              	.L165:
 996:SensorLib\max30102/driver_max30102.c ****     }
 2370              		.loc 1 996 0
 2371 003e 0324     		movs	r4, #3
 2372 0040 00E0     		b	.L162
 2373              	.LVL333:
 2374              	.L166:
1012:SensorLib\max30102/driver_max30102.c ****     }
1013:SensorLib\max30102/driver_max30102.c ****     
1014:SensorLib\max30102/driver_max30102.c ****     return 0;                                                                                      
 2375              		.loc 1 1014 0
 2376 0042 0024     		movs	r4, #0
 2377              	.LVL334:
 2378              	.L162:
1015:SensorLib\max30102/driver_max30102.c **** }
 2379              		.loc 1 1015 0
 2380 0044 2046     		mov	r0, r4
 2381 0046 02B0     		add	sp, sp, #8
 2382              		.cfi_def_cfa_offset 16
 2383              		@ sp needed
 2384 0048 70BD     		pop	{r4, r5, r6, pc}
 2385              	.L169:
 2386 004a 00BF     		.align	2
 2387              	.L168:
 2388 004c 64090000 		.word	.LC58
 2389 0050 6C0A0000 		.word	.LC64
 2390              		.cfi_endproc
 2391              	.LFE13:
 2392              		.size	max30102_set_fifo_read_pointer, .-max30102_set_fifo_read_pointer
 2393              		.section	.text.max30102_get_fifo_read_pointer,"ax",%progbits
 2394              		.align	2
 2395              		.global	max30102_get_fifo_read_pointer
 2396              		.thumb
 2397              		.thumb_func
 2398              		.type	max30102_get_fifo_read_pointer, %function
 2399              	max30102_get_fifo_read_pointer:
 2400              	.LFB14:
1016:SensorLib\max30102/driver_max30102.c **** 
1017:SensorLib\max30102/driver_max30102.c **** /**
1018:SensorLib\max30102/driver_max30102.c ****  * @brief      get the fifo read pointer
1019:SensorLib\max30102/driver_max30102.c ****  * @param[in]  *handle points to a max30102 handle structure
1020:SensorLib\max30102/driver_max30102.c ****  * @param[out] *pointer points to a pointer buffer
1021:SensorLib\max30102/driver_max30102.c ****  * @return     status code
1022:SensorLib\max30102/driver_max30102.c ****  *             - 0 success
1023:SensorLib\max30102/driver_max30102.c ****  *             - 1 get fifo read pointer failed
1024:SensorLib\max30102/driver_max30102.c ****  *             - 2 handle is NULL
1025:SensorLib\max30102/driver_max30102.c ****  *             - 3 handle is not initialized
1026:SensorLib\max30102/driver_max30102.c ****  * @note       none
1027:SensorLib\max30102/driver_max30102.c ****  */
1028:SensorLib\max30102/driver_max30102.c **** uint8_t max30102_get_fifo_read_pointer(max30102_handle_t *handle, uint8_t *pointer)
1029:SensorLib\max30102/driver_max30102.c **** {
 2401              		.loc 1 1029 0
 2402              		.cfi_startproc
 2403              		@ args = 0, pretend = 0, frame = 8
ARM GAS  C:\Users\CHRONI~1\AppData\Local\Temp\cc7oUGua.s 			page 62


 2404              		@ frame_needed = 0, uses_anonymous_args = 0
 2405              	.LVL335:
 2406 0000 F0B5     		push	{r4, r5, r6, r7, lr}
 2407              		.cfi_def_cfa_offset 20
 2408              		.cfi_offset 4, -20
 2409              		.cfi_offset 5, -16
 2410              		.cfi_offset 6, -12
 2411              		.cfi_offset 7, -8
 2412              		.cfi_offset 14, -4
 2413 0002 83B0     		sub	sp, sp, #12
 2414              		.cfi_def_cfa_offset 32
1030:SensorLib\max30102/driver_max30102.c ****     uint8_t res;
1031:SensorLib\max30102/driver_max30102.c ****     uint8_t prev;
1032:SensorLib\max30102/driver_max30102.c ****     
1033:SensorLib\max30102/driver_max30102.c ****     if (handle == NULL)                                                                            
 2415              		.loc 1 1033 0
 2416 0004 B8B1     		cbz	r0, .L173
1034:SensorLib\max30102/driver_max30102.c ****     {
1035:SensorLib\max30102/driver_max30102.c ****         return 2;                                                                                  
1036:SensorLib\max30102/driver_max30102.c ****     }
1037:SensorLib\max30102/driver_max30102.c ****     if (handle->inited != 1)                                                                       
 2417              		.loc 1 1037 0
 2418 0006 047F     		ldrb	r4, [r0, #28]	@ zero_extendqisi2
 2419 0008 012C     		cmp	r4, #1
 2420 000a 16D1     		bne	.L174
 2421 000c 0546     		mov	r5, r0
 2422 000e 0E46     		mov	r6, r1
1038:SensorLib\max30102/driver_max30102.c ****     {
1039:SensorLib\max30102/driver_max30102.c ****         return 3;                                                                                  
1040:SensorLib\max30102/driver_max30102.c ****     }
1041:SensorLib\max30102/driver_max30102.c **** 
1042:SensorLib\max30102/driver_max30102.c ****     res = handle->iic_read(MAX30102_ADDRESS, MAX30102_REG_FIFO_READ_POINTER, (uint8_t *)&prev, 1); 
 2423              		.loc 1 1042 0
 2424 0010 8768     		ldr	r7, [r0, #8]
 2425 0012 0123     		movs	r3, #1
 2426 0014 0DF10702 		add	r2, sp, #7
 2427 0018 0621     		movs	r1, #6
 2428              	.LVL336:
 2429 001a 5720     		movs	r0, #87
 2430              	.LVL337:
 2431 001c B847     		blx	r7
 2432              	.LVL338:
1043:SensorLib\max30102/driver_max30102.c ****     if (res != 0)                                                                                  
 2433              		.loc 1 1043 0
 2434 001e 18B1     		cbz	r0, .L172
1044:SensorLib\max30102/driver_max30102.c ****     {
1045:SensorLib\max30102/driver_max30102.c ****         handle->debug_print("max30102: read fifo read pointer failed.\n");                         
 2435              		.loc 1 1045 0
 2436 0020 AB69     		ldr	r3, [r5, #24]
 2437 0022 0848     		ldr	r0, .L176
 2438              	.LVL339:
 2439 0024 9847     		blx	r3
 2440              	.LVL340:
1046:SensorLib\max30102/driver_max30102.c ****        
1047:SensorLib\max30102/driver_max30102.c ****         return 1;                                                                                  
 2441              		.loc 1 1047 0
 2442 0026 09E0     		b	.L171
ARM GAS  C:\Users\CHRONI~1\AppData\Local\Temp\cc7oUGua.s 			page 63


 2443              	.LVL341:
 2444              	.L172:
1048:SensorLib\max30102/driver_max30102.c ****     }
1049:SensorLib\max30102/driver_max30102.c ****     *pointer = prev & 0x1F;                                                                        
 2445              		.loc 1 1049 0
 2446 0028 9DF80730 		ldrb	r3, [sp, #7]	@ zero_extendqisi2
 2447 002c 03F01F03 		and	r3, r3, #31
 2448 0030 3370     		strb	r3, [r6]
1050:SensorLib\max30102/driver_max30102.c ****     
1051:SensorLib\max30102/driver_max30102.c ****     return 0;                                                                                      
 2449              		.loc 1 1051 0
 2450 0032 0024     		movs	r4, #0
 2451 0034 02E0     		b	.L171
 2452              	.LVL342:
 2453              	.L173:
1035:SensorLib\max30102/driver_max30102.c ****     }
 2454              		.loc 1 1035 0
 2455 0036 0224     		movs	r4, #2
 2456 0038 00E0     		b	.L171
 2457              	.L174:
1039:SensorLib\max30102/driver_max30102.c ****     }
 2458              		.loc 1 1039 0
 2459 003a 0324     		movs	r4, #3
 2460              	.LVL343:
 2461              	.L171:
1052:SensorLib\max30102/driver_max30102.c **** }
 2462              		.loc 1 1052 0
 2463 003c 2046     		mov	r0, r4
 2464 003e 03B0     		add	sp, sp, #12
 2465              		.cfi_def_cfa_offset 20
 2466              		@ sp needed
 2467 0040 F0BD     		pop	{r4, r5, r6, r7, pc}
 2468              	.L177:
 2469 0042 00BF     		.align	2
 2470              	.L176:
 2471 0044 980A0000 		.word	.LC65
 2472              		.cfi_endproc
 2473              	.LFE14:
 2474              		.size	max30102_get_fifo_read_pointer, .-max30102_get_fifo_read_pointer
 2475              		.section	.text.max30102_set_fifo_data,"ax",%progbits
 2476              		.align	2
 2477              		.global	max30102_set_fifo_data
 2478              		.thumb
 2479              		.thumb_func
 2480              		.type	max30102_set_fifo_data, %function
 2481              	max30102_set_fifo_data:
 2482              	.LFB15:
1053:SensorLib\max30102/driver_max30102.c **** 
1054:SensorLib\max30102/driver_max30102.c **** /**
1055:SensorLib\max30102/driver_max30102.c ****  * @brief     set the fifo data
1056:SensorLib\max30102/driver_max30102.c ****  * @param[in] *handle points to a max30102 handle structure
1057:SensorLib\max30102/driver_max30102.c ****  * @param[in] data is the fifo data
1058:SensorLib\max30102/driver_max30102.c ****  * @return    status code
1059:SensorLib\max30102/driver_max30102.c ****  *            - 0 success
1060:SensorLib\max30102/driver_max30102.c ****  *            - 1 set fifo data failed
1061:SensorLib\max30102/driver_max30102.c ****  *            - 2 handle is NULL
1062:SensorLib\max30102/driver_max30102.c ****  *            - 3 handle is not initialized
ARM GAS  C:\Users\CHRONI~1\AppData\Local\Temp\cc7oUGua.s 			page 64


1063:SensorLib\max30102/driver_max30102.c ****  * @note      none
1064:SensorLib\max30102/driver_max30102.c ****  */
1065:SensorLib\max30102/driver_max30102.c **** uint8_t max30102_set_fifo_data(max30102_handle_t *handle, uint8_t data)
1066:SensorLib\max30102/driver_max30102.c **** {
 2483              		.loc 1 1066 0
 2484              		.cfi_startproc
 2485              		@ args = 0, pretend = 0, frame = 8
 2486              		@ frame_needed = 0, uses_anonymous_args = 0
 2487              	.LVL344:
 2488 0000 70B5     		push	{r4, r5, r6, lr}
 2489              		.cfi_def_cfa_offset 16
 2490              		.cfi_offset 4, -16
 2491              		.cfi_offset 5, -12
 2492              		.cfi_offset 6, -8
 2493              		.cfi_offset 14, -4
 2494 0002 82B0     		sub	sp, sp, #8
 2495              		.cfi_def_cfa_offset 24
 2496 0004 8DF80710 		strb	r1, [sp, #7]
1067:SensorLib\max30102/driver_max30102.c ****     uint8_t res;
1068:SensorLib\max30102/driver_max30102.c ****     
1069:SensorLib\max30102/driver_max30102.c ****     if (handle == NULL)                                                                            
 2497              		.loc 1 1069 0
 2498 0008 78B1     		cbz	r0, .L180
1070:SensorLib\max30102/driver_max30102.c ****     {
1071:SensorLib\max30102/driver_max30102.c ****         return 2;                                                                                  
1072:SensorLib\max30102/driver_max30102.c ****     }
1073:SensorLib\max30102/driver_max30102.c ****     if (handle->inited != 1)                                                                       
 2499              		.loc 1 1073 0
 2500 000a 047F     		ldrb	r4, [r0, #28]	@ zero_extendqisi2
 2501 000c 012C     		cmp	r4, #1
 2502 000e 0ED1     		bne	.L181
 2503 0010 0546     		mov	r5, r0
1074:SensorLib\max30102/driver_max30102.c ****     {
1075:SensorLib\max30102/driver_max30102.c ****         return 3;                                                                                  
1076:SensorLib\max30102/driver_max30102.c ****     }
1077:SensorLib\max30102/driver_max30102.c ****     
1078:SensorLib\max30102/driver_max30102.c ****     res = handle->iic_write(MAX30102_ADDRESS, MAX30102_REG_FIFO_DATA_REGISTER, (uint8_t *)&data, 1)
 2504              		.loc 1 1078 0
 2505 0012 C668     		ldr	r6, [r0, #12]
 2506 0014 0123     		movs	r3, #1
 2507 0016 0DF10702 		add	r2, sp, #7
 2508 001a 0721     		movs	r1, #7
 2509              	.LVL345:
 2510 001c 5720     		movs	r0, #87
 2511              	.LVL346:
 2512 001e B047     		blx	r6
 2513              	.LVL347:
1079:SensorLib\max30102/driver_max30102.c ****     if (res != 0)                                                                                  
 2514              		.loc 1 1079 0
 2515 0020 38B1     		cbz	r0, .L182
1080:SensorLib\max30102/driver_max30102.c ****     {
1081:SensorLib\max30102/driver_max30102.c ****         handle->debug_print("max30102: write fifo data register failed.\n");                       
 2516              		.loc 1 1081 0
 2517 0022 AB69     		ldr	r3, [r5, #24]
 2518 0024 0548     		ldr	r0, .L184
 2519              	.LVL348:
 2520 0026 9847     		blx	r3
ARM GAS  C:\Users\CHRONI~1\AppData\Local\Temp\cc7oUGua.s 			page 65


 2521              	.LVL349:
1082:SensorLib\max30102/driver_max30102.c ****        
1083:SensorLib\max30102/driver_max30102.c ****         return 1;                                                                                  
 2522              		.loc 1 1083 0
 2523 0028 04E0     		b	.L179
 2524              	.LVL350:
 2525              	.L180:
1071:SensorLib\max30102/driver_max30102.c ****     }
 2526              		.loc 1 1071 0
 2527 002a 0224     		movs	r4, #2
 2528 002c 02E0     		b	.L179
 2529              	.L181:
1075:SensorLib\max30102/driver_max30102.c ****     }
 2530              		.loc 1 1075 0
 2531 002e 0324     		movs	r4, #3
 2532 0030 00E0     		b	.L179
 2533              	.LVL351:
 2534              	.L182:
1084:SensorLib\max30102/driver_max30102.c ****     }
1085:SensorLib\max30102/driver_max30102.c ****     
1086:SensorLib\max30102/driver_max30102.c ****     return 0;                                                                                      
 2535              		.loc 1 1086 0
 2536 0032 0024     		movs	r4, #0
 2537              	.LVL352:
 2538              	.L179:
1087:SensorLib\max30102/driver_max30102.c **** }
 2539              		.loc 1 1087 0
 2540 0034 2046     		mov	r0, r4
 2541 0036 02B0     		add	sp, sp, #8
 2542              		.cfi_def_cfa_offset 16
 2543              		@ sp needed
 2544 0038 70BD     		pop	{r4, r5, r6, pc}
 2545              	.LVL353:
 2546              	.L185:
 2547 003a 00BF     		.align	2
 2548              	.L184:
 2549 003c C40A0000 		.word	.LC66
 2550              		.cfi_endproc
 2551              	.LFE15:
 2552              		.size	max30102_set_fifo_data, .-max30102_set_fifo_data
 2553              		.section	.text.max30102_get_fifo_data,"ax",%progbits
 2554              		.align	2
 2555              		.global	max30102_get_fifo_data
 2556              		.thumb
 2557              		.thumb_func
 2558              		.type	max30102_get_fifo_data, %function
 2559              	max30102_get_fifo_data:
 2560              	.LFB16:
1088:SensorLib\max30102/driver_max30102.c **** 
1089:SensorLib\max30102/driver_max30102.c **** /**
1090:SensorLib\max30102/driver_max30102.c ****  * @brief      get the fifo data
1091:SensorLib\max30102/driver_max30102.c ****  * @param[in]  *handle points to a max30102 handle structure
1092:SensorLib\max30102/driver_max30102.c ****  * @param[out] *data points to a fifo data buffer
1093:SensorLib\max30102/driver_max30102.c ****  * @return     status code
1094:SensorLib\max30102/driver_max30102.c ****  *             - 0 success
1095:SensorLib\max30102/driver_max30102.c ****  *             - 1 get fifo data failed
1096:SensorLib\max30102/driver_max30102.c ****  *             - 2 handle is NULL
ARM GAS  C:\Users\CHRONI~1\AppData\Local\Temp\cc7oUGua.s 			page 66


1097:SensorLib\max30102/driver_max30102.c ****  *             - 3 handle is not initialized
1098:SensorLib\max30102/driver_max30102.c ****  * @note       none
1099:SensorLib\max30102/driver_max30102.c ****  */
1100:SensorLib\max30102/driver_max30102.c **** uint8_t max30102_get_fifo_data(max30102_handle_t *handle, uint8_t *data)
1101:SensorLib\max30102/driver_max30102.c **** {
 2561              		.loc 1 1101 0
 2562              		.cfi_startproc
 2563              		@ args = 0, pretend = 0, frame = 0
 2564              		@ frame_needed = 0, uses_anonymous_args = 0
 2565              	.LVL354:
 2566 0000 70B5     		push	{r4, r5, r6, lr}
 2567              		.cfi_def_cfa_offset 16
 2568              		.cfi_offset 4, -16
 2569              		.cfi_offset 5, -12
 2570              		.cfi_offset 6, -8
 2571              		.cfi_offset 14, -4
1102:SensorLib\max30102/driver_max30102.c ****     uint8_t res;
1103:SensorLib\max30102/driver_max30102.c ****     
1104:SensorLib\max30102/driver_max30102.c ****     if (handle == NULL)                                                                            
 2572              		.loc 1 1104 0
 2573 0002 70B1     		cbz	r0, .L188
1105:SensorLib\max30102/driver_max30102.c ****     {
1106:SensorLib\max30102/driver_max30102.c ****         return 2;                                                                                  
1107:SensorLib\max30102/driver_max30102.c ****     }
1108:SensorLib\max30102/driver_max30102.c ****     if (handle->inited != 1)                                                                       
 2574              		.loc 1 1108 0
 2575 0004 047F     		ldrb	r4, [r0, #28]	@ zero_extendqisi2
 2576 0006 012C     		cmp	r4, #1
 2577 0008 0DD1     		bne	.L189
 2578 000a 0546     		mov	r5, r0
 2579 000c 0A46     		mov	r2, r1
1109:SensorLib\max30102/driver_max30102.c ****     {
1110:SensorLib\max30102/driver_max30102.c ****         return 3;                                                                                  
1111:SensorLib\max30102/driver_max30102.c ****     }
1112:SensorLib\max30102/driver_max30102.c ****     
1113:SensorLib\max30102/driver_max30102.c ****     res = handle->iic_read(MAX30102_ADDRESS, MAX30102_REG_FIFO_DATA_REGISTER, (uint8_t *)data, 1); 
 2580              		.loc 1 1113 0
 2581 000e 8668     		ldr	r6, [r0, #8]
 2582 0010 0123     		movs	r3, #1
 2583 0012 0721     		movs	r1, #7
 2584              	.LVL355:
 2585 0014 5720     		movs	r0, #87
 2586              	.LVL356:
 2587 0016 B047     		blx	r6
 2588              	.LVL357:
1114:SensorLib\max30102/driver_max30102.c ****     if (res != 0)                                                                                  
 2589              		.loc 1 1114 0
 2590 0018 38B1     		cbz	r0, .L190
1115:SensorLib\max30102/driver_max30102.c ****     {
1116:SensorLib\max30102/driver_max30102.c ****         handle->debug_print("max30102: read fifo data register failed.\n");                        
 2591              		.loc 1 1116 0
 2592 001a AB69     		ldr	r3, [r5, #24]
 2593 001c 0448     		ldr	r0, .L192
 2594              	.LVL358:
 2595 001e 9847     		blx	r3
 2596              	.LVL359:
1117:SensorLib\max30102/driver_max30102.c ****        
ARM GAS  C:\Users\CHRONI~1\AppData\Local\Temp\cc7oUGua.s 			page 67


1118:SensorLib\max30102/driver_max30102.c ****         return 1;                                                                                  
 2597              		.loc 1 1118 0
 2598 0020 04E0     		b	.L187
 2599              	.LVL360:
 2600              	.L188:
1106:SensorLib\max30102/driver_max30102.c ****     }
 2601              		.loc 1 1106 0
 2602 0022 0224     		movs	r4, #2
 2603 0024 02E0     		b	.L187
 2604              	.L189:
1110:SensorLib\max30102/driver_max30102.c ****     }
 2605              		.loc 1 1110 0
 2606 0026 0324     		movs	r4, #3
 2607 0028 00E0     		b	.L187
 2608              	.LVL361:
 2609              	.L190:
1119:SensorLib\max30102/driver_max30102.c ****     }
1120:SensorLib\max30102/driver_max30102.c ****     
1121:SensorLib\max30102/driver_max30102.c ****     return 0;                                                                                      
 2610              		.loc 1 1121 0
 2611 002a 0024     		movs	r4, #0
 2612              	.LVL362:
 2613              	.L187:
1122:SensorLib\max30102/driver_max30102.c **** }
 2614              		.loc 1 1122 0
 2615 002c 2046     		mov	r0, r4
 2616 002e 70BD     		pop	{r4, r5, r6, pc}
 2617              	.L193:
 2618              		.align	2
 2619              	.L192:
 2620 0030 F4070000 		.word	.LC49
 2621              		.cfi_endproc
 2622              	.LFE16:
 2623              		.size	max30102_get_fifo_data, .-max30102_get_fifo_data
 2624              		.section	.text.max30102_set_fifo_sample_averaging,"ax",%progbits
 2625              		.align	2
 2626              		.global	max30102_set_fifo_sample_averaging
 2627              		.thumb
 2628              		.thumb_func
 2629              		.type	max30102_set_fifo_sample_averaging, %function
 2630              	max30102_set_fifo_sample_averaging:
 2631              	.LFB17:
1123:SensorLib\max30102/driver_max30102.c **** 
1124:SensorLib\max30102/driver_max30102.c **** /**
1125:SensorLib\max30102/driver_max30102.c ****  * @brief     set the fifo sample averaging
1126:SensorLib\max30102/driver_max30102.c ****  * @param[in] *handle points to a max30102 handle structure
1127:SensorLib\max30102/driver_max30102.c ****  * @param[in] sample is the fifo sample averaging
1128:SensorLib\max30102/driver_max30102.c ****  * @return    status code
1129:SensorLib\max30102/driver_max30102.c ****  *            - 0 success
1130:SensorLib\max30102/driver_max30102.c ****  *            - 1 set fifo sample averaging failed
1131:SensorLib\max30102/driver_max30102.c ****  *            - 2 handle is NULL
1132:SensorLib\max30102/driver_max30102.c ****  *            - 3 handle is not initialized
1133:SensorLib\max30102/driver_max30102.c ****  * @note      none
1134:SensorLib\max30102/driver_max30102.c ****  */
1135:SensorLib\max30102/driver_max30102.c **** uint8_t max30102_set_fifo_sample_averaging(max30102_handle_t *handle, max30102_sample_averaging_t s
1136:SensorLib\max30102/driver_max30102.c **** {
 2632              		.loc 1 1136 0
ARM GAS  C:\Users\CHRONI~1\AppData\Local\Temp\cc7oUGua.s 			page 68


 2633              		.cfi_startproc
 2634              		@ args = 0, pretend = 0, frame = 8
 2635              		@ frame_needed = 0, uses_anonymous_args = 0
 2636              	.LVL363:
 2637 0000 F0B5     		push	{r4, r5, r6, r7, lr}
 2638              		.cfi_def_cfa_offset 20
 2639              		.cfi_offset 4, -20
 2640              		.cfi_offset 5, -16
 2641              		.cfi_offset 6, -12
 2642              		.cfi_offset 7, -8
 2643              		.cfi_offset 14, -4
 2644 0002 83B0     		sub	sp, sp, #12
 2645              		.cfi_def_cfa_offset 32
1137:SensorLib\max30102/driver_max30102.c ****     uint8_t res;
1138:SensorLib\max30102/driver_max30102.c ****     uint8_t prev;
1139:SensorLib\max30102/driver_max30102.c ****     
1140:SensorLib\max30102/driver_max30102.c ****     if (handle == NULL)                                                                            
 2646              		.loc 1 1140 0
 2647 0004 18B3     		cbz	r0, .L197
1141:SensorLib\max30102/driver_max30102.c ****     {
1142:SensorLib\max30102/driver_max30102.c ****         return 2;                                                                                  
1143:SensorLib\max30102/driver_max30102.c ****     }
1144:SensorLib\max30102/driver_max30102.c ****     if (handle->inited != 1)                                                                       
 2648              		.loc 1 1144 0
 2649 0006 047F     		ldrb	r4, [r0, #28]	@ zero_extendqisi2
 2650 0008 012C     		cmp	r4, #1
 2651 000a 22D1     		bne	.L198
 2652 000c 0546     		mov	r5, r0
 2653 000e 0E46     		mov	r6, r1
1145:SensorLib\max30102/driver_max30102.c ****     {
1146:SensorLib\max30102/driver_max30102.c ****         return 3;                                                                                  
1147:SensorLib\max30102/driver_max30102.c ****     }
1148:SensorLib\max30102/driver_max30102.c ****     
1149:SensorLib\max30102/driver_max30102.c ****     res = handle->iic_read(MAX30102_ADDRESS, MAX30102_REG_FIFO_CONFIG, (uint8_t *)&prev, 1);       
 2654              		.loc 1 1149 0
 2655 0010 8768     		ldr	r7, [r0, #8]
 2656 0012 0123     		movs	r3, #1
 2657 0014 0DF10702 		add	r2, sp, #7
 2658 0018 0821     		movs	r1, #8
 2659              	.LVL364:
 2660 001a 5720     		movs	r0, #87
 2661              	.LVL365:
 2662 001c B847     		blx	r7
 2663              	.LVL366:
1150:SensorLib\max30102/driver_max30102.c ****     if (res != 0)                                                                                  
 2664              		.loc 1 1150 0
 2665 001e 18B1     		cbz	r0, .L196
1151:SensorLib\max30102/driver_max30102.c ****     {
1152:SensorLib\max30102/driver_max30102.c ****         handle->debug_print("max30102: read fifo config failed.\n");                               
 2666              		.loc 1 1152 0
 2667 0020 AB69     		ldr	r3, [r5, #24]
 2668 0022 0F48     		ldr	r0, .L201
 2669              	.LVL367:
 2670 0024 9847     		blx	r3
 2671              	.LVL368:
1153:SensorLib\max30102/driver_max30102.c ****        
1154:SensorLib\max30102/driver_max30102.c ****         return 1;                                                                                  
ARM GAS  C:\Users\CHRONI~1\AppData\Local\Temp\cc7oUGua.s 			page 69


 2672              		.loc 1 1154 0
 2673 0026 17E0     		b	.L195
 2674              	.LVL369:
 2675              	.L196:
1155:SensorLib\max30102/driver_max30102.c ****     }
1156:SensorLib\max30102/driver_max30102.c ****     prev &= ~(0x7 << 5);                                                                           
 2676              		.loc 1 1156 0
 2677 0028 9DF80710 		ldrb	r1, [sp, #7]	@ zero_extendqisi2
 2678 002c 01F01F01 		and	r1, r1, #31
1157:SensorLib\max30102/driver_max30102.c ****     prev |= sample << 5;                                                                           
 2679              		.loc 1 1157 0
 2680 0030 41EA4611 		orr	r1, r1, r6, lsl #5
 2681 0034 02AA     		add	r2, sp, #8
 2682 0036 02F8011D 		strb	r1, [r2, #-1]!
1158:SensorLib\max30102/driver_max30102.c ****     res = handle->iic_write(MAX30102_ADDRESS, MAX30102_REG_FIFO_CONFIG, (uint8_t *)&prev, 1);      
 2683              		.loc 1 1158 0
 2684 003a EE68     		ldr	r6, [r5, #12]
 2685 003c 0123     		movs	r3, #1
 2686 003e 0821     		movs	r1, #8
 2687 0040 5720     		movs	r0, #87
 2688              	.LVL370:
 2689 0042 B047     		blx	r6
 2690              	.LVL371:
1159:SensorLib\max30102/driver_max30102.c ****     if (res != 0)                                                                                  
 2691              		.loc 1 1159 0
 2692 0044 38B1     		cbz	r0, .L199
1160:SensorLib\max30102/driver_max30102.c ****     {
1161:SensorLib\max30102/driver_max30102.c ****         handle->debug_print("max30102: write fifo config failed.\n");                              
 2693              		.loc 1 1161 0
 2694 0046 AB69     		ldr	r3, [r5, #24]
 2695 0048 0648     		ldr	r0, .L201+4
 2696              	.LVL372:
 2697 004a 9847     		blx	r3
 2698              	.LVL373:
1162:SensorLib\max30102/driver_max30102.c ****        
1163:SensorLib\max30102/driver_max30102.c ****         return 1;                                                                                  
 2699              		.loc 1 1163 0
 2700 004c 04E0     		b	.L195
 2701              	.LVL374:
 2702              	.L197:
1142:SensorLib\max30102/driver_max30102.c ****     }
 2703              		.loc 1 1142 0
 2704 004e 0224     		movs	r4, #2
 2705 0050 02E0     		b	.L195
 2706              	.L198:
1146:SensorLib\max30102/driver_max30102.c ****     }
 2707              		.loc 1 1146 0
 2708 0052 0324     		movs	r4, #3
 2709 0054 00E0     		b	.L195
 2710              	.LVL375:
 2711              	.L199:
1164:SensorLib\max30102/driver_max30102.c ****     }
1165:SensorLib\max30102/driver_max30102.c ****     
1166:SensorLib\max30102/driver_max30102.c ****     return 0;                                                                                      
 2712              		.loc 1 1166 0
 2713 0056 0024     		movs	r4, #0
 2714              	.LVL376:
ARM GAS  C:\Users\CHRONI~1\AppData\Local\Temp\cc7oUGua.s 			page 70


 2715              	.L195:
1167:SensorLib\max30102/driver_max30102.c **** }
 2716              		.loc 1 1167 0
 2717 0058 2046     		mov	r0, r4
 2718 005a 03B0     		add	sp, sp, #12
 2719              		.cfi_def_cfa_offset 20
 2720              		@ sp needed
 2721 005c F0BD     		pop	{r4, r5, r6, r7, pc}
 2722              	.L202:
 2723 005e 00BF     		.align	2
 2724              	.L201:
 2725 0060 F00A0000 		.word	.LC67
 2726 0064 140B0000 		.word	.LC68
 2727              		.cfi_endproc
 2728              	.LFE17:
 2729              		.size	max30102_set_fifo_sample_averaging, .-max30102_set_fifo_sample_averaging
 2730              		.section	.text.max30102_get_fifo_sample_averaging,"ax",%progbits
 2731              		.align	2
 2732              		.global	max30102_get_fifo_sample_averaging
 2733              		.thumb
 2734              		.thumb_func
 2735              		.type	max30102_get_fifo_sample_averaging, %function
 2736              	max30102_get_fifo_sample_averaging:
 2737              	.LFB18:
1168:SensorLib\max30102/driver_max30102.c **** 
1169:SensorLib\max30102/driver_max30102.c **** /**
1170:SensorLib\max30102/driver_max30102.c ****  * @brief      get the fifo sample averaging
1171:SensorLib\max30102/driver_max30102.c ****  * @param[in]  *handle points to a max30102 handle structure
1172:SensorLib\max30102/driver_max30102.c ****  * @param[out] *sample points to a fifo sample averaging buffer
1173:SensorLib\max30102/driver_max30102.c ****  * @return     status code
1174:SensorLib\max30102/driver_max30102.c ****  *             - 0 success
1175:SensorLib\max30102/driver_max30102.c ****  *             - 1 get fifo sample averaging failed
1176:SensorLib\max30102/driver_max30102.c ****  *             - 2 handle is NULL
1177:SensorLib\max30102/driver_max30102.c ****  *             - 3 handle is not initialized
1178:SensorLib\max30102/driver_max30102.c ****  * @note       none
1179:SensorLib\max30102/driver_max30102.c ****  */
1180:SensorLib\max30102/driver_max30102.c **** uint8_t max30102_get_fifo_sample_averaging(max30102_handle_t *handle, max30102_sample_averaging_t *
1181:SensorLib\max30102/driver_max30102.c **** {
 2738              		.loc 1 1181 0
 2739              		.cfi_startproc
 2740              		@ args = 0, pretend = 0, frame = 8
 2741              		@ frame_needed = 0, uses_anonymous_args = 0
 2742              	.LVL377:
 2743 0000 F0B5     		push	{r4, r5, r6, r7, lr}
 2744              		.cfi_def_cfa_offset 20
 2745              		.cfi_offset 4, -20
 2746              		.cfi_offset 5, -16
 2747              		.cfi_offset 6, -12
 2748              		.cfi_offset 7, -8
 2749              		.cfi_offset 14, -4
 2750 0002 83B0     		sub	sp, sp, #12
 2751              		.cfi_def_cfa_offset 32
1182:SensorLib\max30102/driver_max30102.c ****     uint8_t res;
1183:SensorLib\max30102/driver_max30102.c ****     uint8_t prev;
1184:SensorLib\max30102/driver_max30102.c ****     
1185:SensorLib\max30102/driver_max30102.c ****     if (handle == NULL)                                                                            
 2752              		.loc 1 1185 0
ARM GAS  C:\Users\CHRONI~1\AppData\Local\Temp\cc7oUGua.s 			page 71


 2753 0004 B0B1     		cbz	r0, .L206
1186:SensorLib\max30102/driver_max30102.c ****     {
1187:SensorLib\max30102/driver_max30102.c ****         return 2;                                                                                  
1188:SensorLib\max30102/driver_max30102.c ****     }
1189:SensorLib\max30102/driver_max30102.c ****     if (handle->inited != 1)                                                                       
 2754              		.loc 1 1189 0
 2755 0006 047F     		ldrb	r4, [r0, #28]	@ zero_extendqisi2
 2756 0008 012C     		cmp	r4, #1
 2757 000a 15D1     		bne	.L207
 2758 000c 0546     		mov	r5, r0
 2759 000e 0E46     		mov	r6, r1
1190:SensorLib\max30102/driver_max30102.c ****     {
1191:SensorLib\max30102/driver_max30102.c ****         return 3;                                                                                  
1192:SensorLib\max30102/driver_max30102.c ****     }
1193:SensorLib\max30102/driver_max30102.c ****     
1194:SensorLib\max30102/driver_max30102.c ****     res = handle->iic_read(MAX30102_ADDRESS, MAX30102_REG_FIFO_CONFIG, (uint8_t *)&prev, 1);       
 2760              		.loc 1 1194 0
 2761 0010 8768     		ldr	r7, [r0, #8]
 2762 0012 0123     		movs	r3, #1
 2763 0014 0DF10702 		add	r2, sp, #7
 2764 0018 0821     		movs	r1, #8
 2765              	.LVL378:
 2766 001a 5720     		movs	r0, #87
 2767              	.LVL379:
 2768 001c B847     		blx	r7
 2769              	.LVL380:
1195:SensorLib\max30102/driver_max30102.c ****     if (res != 0)                                                                                  
 2770              		.loc 1 1195 0
 2771 001e 18B1     		cbz	r0, .L205
1196:SensorLib\max30102/driver_max30102.c ****     {
1197:SensorLib\max30102/driver_max30102.c ****         handle->debug_print("max30102: read fifo config failed.\n");                               
 2772              		.loc 1 1197 0
 2773 0020 AB69     		ldr	r3, [r5, #24]
 2774 0022 0748     		ldr	r0, .L209
 2775              	.LVL381:
 2776 0024 9847     		blx	r3
 2777              	.LVL382:
1198:SensorLib\max30102/driver_max30102.c ****        
1199:SensorLib\max30102/driver_max30102.c ****         return 1;                                                                                  
 2778              		.loc 1 1199 0
 2779 0026 08E0     		b	.L204
 2780              	.LVL383:
 2781              	.L205:
1200:SensorLib\max30102/driver_max30102.c ****     }
1201:SensorLib\max30102/driver_max30102.c ****     *sample = (max30102_sample_averaging_t)(0x7 & (prev >> 5));                                    
 2782              		.loc 1 1201 0
 2783 0028 9DF80730 		ldrb	r3, [sp, #7]	@ zero_extendqisi2
 2784 002c 5B09     		lsrs	r3, r3, #5
 2785 002e 3370     		strb	r3, [r6]
1202:SensorLib\max30102/driver_max30102.c ****     
1203:SensorLib\max30102/driver_max30102.c ****     return 0;                                                                                      
 2786              		.loc 1 1203 0
 2787 0030 0024     		movs	r4, #0
 2788 0032 02E0     		b	.L204
 2789              	.LVL384:
 2790              	.L206:
1187:SensorLib\max30102/driver_max30102.c ****     }
ARM GAS  C:\Users\CHRONI~1\AppData\Local\Temp\cc7oUGua.s 			page 72


 2791              		.loc 1 1187 0
 2792 0034 0224     		movs	r4, #2
 2793 0036 00E0     		b	.L204
 2794              	.L207:
1191:SensorLib\max30102/driver_max30102.c ****     }
 2795              		.loc 1 1191 0
 2796 0038 0324     		movs	r4, #3
 2797              	.LVL385:
 2798              	.L204:
1204:SensorLib\max30102/driver_max30102.c **** }
 2799              		.loc 1 1204 0
 2800 003a 2046     		mov	r0, r4
 2801 003c 03B0     		add	sp, sp, #12
 2802              		.cfi_def_cfa_offset 20
 2803              		@ sp needed
 2804 003e F0BD     		pop	{r4, r5, r6, r7, pc}
 2805              	.L210:
 2806              		.align	2
 2807              	.L209:
 2808 0040 F00A0000 		.word	.LC67
 2809              		.cfi_endproc
 2810              	.LFE18:
 2811              		.size	max30102_get_fifo_sample_averaging, .-max30102_get_fifo_sample_averaging
 2812              		.section	.text.max30102_set_fifo_roll,"ax",%progbits
 2813              		.align	2
 2814              		.global	max30102_set_fifo_roll
 2815              		.thumb
 2816              		.thumb_func
 2817              		.type	max30102_set_fifo_roll, %function
 2818              	max30102_set_fifo_roll:
 2819              	.LFB19:
1205:SensorLib\max30102/driver_max30102.c **** 
1206:SensorLib\max30102/driver_max30102.c **** /**
1207:SensorLib\max30102/driver_max30102.c ****  * @brief     enable or disable the fifo roll 
1208:SensorLib\max30102/driver_max30102.c ****  * @param[in] *handle points to a max30102 handle structure
1209:SensorLib\max30102/driver_max30102.c ****  * @param[in] enable is a bool value
1210:SensorLib\max30102/driver_max30102.c ****  * @return    status code
1211:SensorLib\max30102/driver_max30102.c ****  *            - 0 success
1212:SensorLib\max30102/driver_max30102.c ****  *            - 1 set fifo roll failed
1213:SensorLib\max30102/driver_max30102.c ****  *            - 2 handle is NULL
1214:SensorLib\max30102/driver_max30102.c ****  *            - 3 handle is not initialized
1215:SensorLib\max30102/driver_max30102.c ****  * @note      none
1216:SensorLib\max30102/driver_max30102.c ****  */
1217:SensorLib\max30102/driver_max30102.c **** uint8_t max30102_set_fifo_roll(max30102_handle_t *handle, max30102_bool_t enable)
1218:SensorLib\max30102/driver_max30102.c **** {
 2820              		.loc 1 1218 0
 2821              		.cfi_startproc
 2822              		@ args = 0, pretend = 0, frame = 8
 2823              		@ frame_needed = 0, uses_anonymous_args = 0
 2824              	.LVL386:
 2825 0000 F0B5     		push	{r4, r5, r6, r7, lr}
 2826              		.cfi_def_cfa_offset 20
 2827              		.cfi_offset 4, -20
 2828              		.cfi_offset 5, -16
 2829              		.cfi_offset 6, -12
 2830              		.cfi_offset 7, -8
 2831              		.cfi_offset 14, -4
ARM GAS  C:\Users\CHRONI~1\AppData\Local\Temp\cc7oUGua.s 			page 73


 2832 0002 83B0     		sub	sp, sp, #12
 2833              		.cfi_def_cfa_offset 32
1219:SensorLib\max30102/driver_max30102.c ****     uint8_t res;
1220:SensorLib\max30102/driver_max30102.c ****     uint8_t prev;
1221:SensorLib\max30102/driver_max30102.c ****     
1222:SensorLib\max30102/driver_max30102.c ****     if (handle == NULL)                                                                            
 2834              		.loc 1 1222 0
 2835 0004 18B3     		cbz	r0, .L214
1223:SensorLib\max30102/driver_max30102.c ****     {
1224:SensorLib\max30102/driver_max30102.c ****         return 2;                                                                                  
1225:SensorLib\max30102/driver_max30102.c ****     }
1226:SensorLib\max30102/driver_max30102.c ****     if (handle->inited != 1)                                                                       
 2836              		.loc 1 1226 0
 2837 0006 047F     		ldrb	r4, [r0, #28]	@ zero_extendqisi2
 2838 0008 012C     		cmp	r4, #1
 2839 000a 22D1     		bne	.L215
 2840 000c 0546     		mov	r5, r0
 2841 000e 0E46     		mov	r6, r1
1227:SensorLib\max30102/driver_max30102.c ****     {
1228:SensorLib\max30102/driver_max30102.c ****         return 3;                                                                                  
1229:SensorLib\max30102/driver_max30102.c ****     }
1230:SensorLib\max30102/driver_max30102.c ****     
1231:SensorLib\max30102/driver_max30102.c ****     res = handle->iic_read(MAX30102_ADDRESS, MAX30102_REG_FIFO_CONFIG, (uint8_t *)&prev, 1);       
 2842              		.loc 1 1231 0
 2843 0010 8768     		ldr	r7, [r0, #8]
 2844 0012 0123     		movs	r3, #1
 2845 0014 0DF10702 		add	r2, sp, #7
 2846 0018 0821     		movs	r1, #8
 2847              	.LVL387:
 2848 001a 5720     		movs	r0, #87
 2849              	.LVL388:
 2850 001c B847     		blx	r7
 2851              	.LVL389:
1232:SensorLib\max30102/driver_max30102.c ****     if (res != 0)                                                                                  
 2852              		.loc 1 1232 0
 2853 001e 18B1     		cbz	r0, .L213
1233:SensorLib\max30102/driver_max30102.c ****     {
1234:SensorLib\max30102/driver_max30102.c ****         handle->debug_print("max30102: read fifo config failed.\n");                               
 2854              		.loc 1 1234 0
 2855 0020 AB69     		ldr	r3, [r5, #24]
 2856 0022 0F48     		ldr	r0, .L218
 2857              	.LVL390:
 2858 0024 9847     		blx	r3
 2859              	.LVL391:
1235:SensorLib\max30102/driver_max30102.c ****        
1236:SensorLib\max30102/driver_max30102.c ****         return 1;                                                                                  
 2860              		.loc 1 1236 0
 2861 0026 17E0     		b	.L212
 2862              	.LVL392:
 2863              	.L213:
1237:SensorLib\max30102/driver_max30102.c ****     }
1238:SensorLib\max30102/driver_max30102.c ****     prev &= ~(0x1 << 4);                                                                           
 2864              		.loc 1 1238 0
 2865 0028 9DF80710 		ldrb	r1, [sp, #7]	@ zero_extendqisi2
 2866 002c 01F0EF01 		and	r1, r1, #239
1239:SensorLib\max30102/driver_max30102.c ****     prev |= enable << 4;                                                                           
 2867              		.loc 1 1239 0
ARM GAS  C:\Users\CHRONI~1\AppData\Local\Temp\cc7oUGua.s 			page 74


 2868 0030 41EA0611 		orr	r1, r1, r6, lsl #4
 2869 0034 02AA     		add	r2, sp, #8
 2870 0036 02F8011D 		strb	r1, [r2, #-1]!
1240:SensorLib\max30102/driver_max30102.c ****     res = handle->iic_write(MAX30102_ADDRESS, MAX30102_REG_FIFO_CONFIG, (uint8_t *)&prev, 1);      
 2871              		.loc 1 1240 0
 2872 003a EE68     		ldr	r6, [r5, #12]
 2873 003c 0123     		movs	r3, #1
 2874 003e 0821     		movs	r1, #8
 2875 0040 5720     		movs	r0, #87
 2876              	.LVL393:
 2877 0042 B047     		blx	r6
 2878              	.LVL394:
1241:SensorLib\max30102/driver_max30102.c ****     if (res != 0)                                                                                  
 2879              		.loc 1 1241 0
 2880 0044 38B1     		cbz	r0, .L216
1242:SensorLib\max30102/driver_max30102.c ****     {
1243:SensorLib\max30102/driver_max30102.c ****         handle->debug_print("max30102: write fifo config failed.\n");                              
 2881              		.loc 1 1243 0
 2882 0046 AB69     		ldr	r3, [r5, #24]
 2883 0048 0648     		ldr	r0, .L218+4
 2884              	.LVL395:
 2885 004a 9847     		blx	r3
 2886              	.LVL396:
1244:SensorLib\max30102/driver_max30102.c ****        
1245:SensorLib\max30102/driver_max30102.c ****         return 1;                                                                                  
 2887              		.loc 1 1245 0
 2888 004c 04E0     		b	.L212
 2889              	.LVL397:
 2890              	.L214:
1224:SensorLib\max30102/driver_max30102.c ****     }
 2891              		.loc 1 1224 0
 2892 004e 0224     		movs	r4, #2
 2893 0050 02E0     		b	.L212
 2894              	.L215:
1228:SensorLib\max30102/driver_max30102.c ****     }
 2895              		.loc 1 1228 0
 2896 0052 0324     		movs	r4, #3
 2897 0054 00E0     		b	.L212
 2898              	.LVL398:
 2899              	.L216:
1246:SensorLib\max30102/driver_max30102.c ****     }
1247:SensorLib\max30102/driver_max30102.c ****     
1248:SensorLib\max30102/driver_max30102.c ****     return 0;                                                                                      
 2900              		.loc 1 1248 0
 2901 0056 0024     		movs	r4, #0
 2902              	.LVL399:
 2903              	.L212:
1249:SensorLib\max30102/driver_max30102.c **** }
 2904              		.loc 1 1249 0
 2905 0058 2046     		mov	r0, r4
 2906 005a 03B0     		add	sp, sp, #12
 2907              		.cfi_def_cfa_offset 20
 2908              		@ sp needed
 2909 005c F0BD     		pop	{r4, r5, r6, r7, pc}
 2910              	.L219:
 2911 005e 00BF     		.align	2
 2912              	.L218:
ARM GAS  C:\Users\CHRONI~1\AppData\Local\Temp\cc7oUGua.s 			page 75


 2913 0060 F00A0000 		.word	.LC67
 2914 0064 140B0000 		.word	.LC68
 2915              		.cfi_endproc
 2916              	.LFE19:
 2917              		.size	max30102_set_fifo_roll, .-max30102_set_fifo_roll
 2918              		.section	.text.max30102_get_fifo_roll,"ax",%progbits
 2919              		.align	2
 2920              		.global	max30102_get_fifo_roll
 2921              		.thumb
 2922              		.thumb_func
 2923              		.type	max30102_get_fifo_roll, %function
 2924              	max30102_get_fifo_roll:
 2925              	.LFB20:
1250:SensorLib\max30102/driver_max30102.c **** 
1251:SensorLib\max30102/driver_max30102.c **** /**
1252:SensorLib\max30102/driver_max30102.c ****  * @brief      get the fifo roll status
1253:SensorLib\max30102/driver_max30102.c ****  * @param[in]  *handle points to a max30102 handle structure
1254:SensorLib\max30102/driver_max30102.c ****  * @param[out] *enable points to a bool value buffer
1255:SensorLib\max30102/driver_max30102.c ****  * @return     status code
1256:SensorLib\max30102/driver_max30102.c ****  *             - 0 success
1257:SensorLib\max30102/driver_max30102.c ****  *             - 1 get fifo roll failed
1258:SensorLib\max30102/driver_max30102.c ****  *             - 2 handle is NULL
1259:SensorLib\max30102/driver_max30102.c ****  *             - 3 handle is not initialized
1260:SensorLib\max30102/driver_max30102.c ****  * @note       none
1261:SensorLib\max30102/driver_max30102.c ****  */
1262:SensorLib\max30102/driver_max30102.c **** uint8_t max30102_get_fifo_roll(max30102_handle_t *handle, max30102_bool_t *enable)
1263:SensorLib\max30102/driver_max30102.c **** {
 2926              		.loc 1 1263 0
 2927              		.cfi_startproc
 2928              		@ args = 0, pretend = 0, frame = 8
 2929              		@ frame_needed = 0, uses_anonymous_args = 0
 2930              	.LVL400:
 2931 0000 F0B5     		push	{r4, r5, r6, r7, lr}
 2932              		.cfi_def_cfa_offset 20
 2933              		.cfi_offset 4, -20
 2934              		.cfi_offset 5, -16
 2935              		.cfi_offset 6, -12
 2936              		.cfi_offset 7, -8
 2937              		.cfi_offset 14, -4
 2938 0002 83B0     		sub	sp, sp, #12
 2939              		.cfi_def_cfa_offset 32
1264:SensorLib\max30102/driver_max30102.c ****     uint8_t res;
1265:SensorLib\max30102/driver_max30102.c ****     uint8_t prev;
1266:SensorLib\max30102/driver_max30102.c ****     
1267:SensorLib\max30102/driver_max30102.c ****     if (handle == NULL)                                                                            
 2940              		.loc 1 1267 0
 2941 0004 B8B1     		cbz	r0, .L223
1268:SensorLib\max30102/driver_max30102.c ****     {
1269:SensorLib\max30102/driver_max30102.c ****         return 2;                                                                                  
1270:SensorLib\max30102/driver_max30102.c ****     }
1271:SensorLib\max30102/driver_max30102.c ****     if (handle->inited != 1)                                                                       
 2942              		.loc 1 1271 0
 2943 0006 047F     		ldrb	r4, [r0, #28]	@ zero_extendqisi2
 2944 0008 012C     		cmp	r4, #1
 2945 000a 16D1     		bne	.L224
 2946 000c 0546     		mov	r5, r0
 2947 000e 0E46     		mov	r6, r1
ARM GAS  C:\Users\CHRONI~1\AppData\Local\Temp\cc7oUGua.s 			page 76


1272:SensorLib\max30102/driver_max30102.c ****     {
1273:SensorLib\max30102/driver_max30102.c ****         return 3;                                                                                  
1274:SensorLib\max30102/driver_max30102.c ****     }
1275:SensorLib\max30102/driver_max30102.c ****     
1276:SensorLib\max30102/driver_max30102.c ****     res = handle->iic_read(MAX30102_ADDRESS, MAX30102_REG_FIFO_CONFIG, (uint8_t *)&prev, 1);       
 2948              		.loc 1 1276 0
 2949 0010 8768     		ldr	r7, [r0, #8]
 2950 0012 0123     		movs	r3, #1
 2951 0014 0DF10702 		add	r2, sp, #7
 2952 0018 0821     		movs	r1, #8
 2953              	.LVL401:
 2954 001a 5720     		movs	r0, #87
 2955              	.LVL402:
 2956 001c B847     		blx	r7
 2957              	.LVL403:
1277:SensorLib\max30102/driver_max30102.c ****     if (res != 0)                                                                                  
 2958              		.loc 1 1277 0
 2959 001e 18B1     		cbz	r0, .L222
1278:SensorLib\max30102/driver_max30102.c ****     {
1279:SensorLib\max30102/driver_max30102.c ****         handle->debug_print("max30102: read fifo config failed.\n");                               
 2960              		.loc 1 1279 0
 2961 0020 AB69     		ldr	r3, [r5, #24]
 2962 0022 0848     		ldr	r0, .L226
 2963              	.LVL404:
 2964 0024 9847     		blx	r3
 2965              	.LVL405:
1280:SensorLib\max30102/driver_max30102.c ****        
1281:SensorLib\max30102/driver_max30102.c ****         return 1;                                                                                  
 2966              		.loc 1 1281 0
 2967 0026 09E0     		b	.L221
 2968              	.LVL406:
 2969              	.L222:
1282:SensorLib\max30102/driver_max30102.c ****     }
1283:SensorLib\max30102/driver_max30102.c ****     *enable = (max30102_bool_t)(0x1 & (prev >> 4));                                                
 2970              		.loc 1 1283 0
 2971 0028 9DF80730 		ldrb	r3, [sp, #7]	@ zero_extendqisi2
 2972 002c C3F30013 		ubfx	r3, r3, #4, #1
 2973 0030 3370     		strb	r3, [r6]
1284:SensorLib\max30102/driver_max30102.c ****     
1285:SensorLib\max30102/driver_max30102.c ****     return 0;                                                                                      
 2974              		.loc 1 1285 0
 2975 0032 0024     		movs	r4, #0
 2976 0034 02E0     		b	.L221
 2977              	.LVL407:
 2978              	.L223:
1269:SensorLib\max30102/driver_max30102.c ****     }
 2979              		.loc 1 1269 0
 2980 0036 0224     		movs	r4, #2
 2981 0038 00E0     		b	.L221
 2982              	.L224:
1273:SensorLib\max30102/driver_max30102.c ****     }
 2983              		.loc 1 1273 0
 2984 003a 0324     		movs	r4, #3
 2985              	.LVL408:
 2986              	.L221:
1286:SensorLib\max30102/driver_max30102.c **** }
 2987              		.loc 1 1286 0
ARM GAS  C:\Users\CHRONI~1\AppData\Local\Temp\cc7oUGua.s 			page 77


 2988 003c 2046     		mov	r0, r4
 2989 003e 03B0     		add	sp, sp, #12
 2990              		.cfi_def_cfa_offset 20
 2991              		@ sp needed
 2992 0040 F0BD     		pop	{r4, r5, r6, r7, pc}
 2993              	.L227:
 2994 0042 00BF     		.align	2
 2995              	.L226:
 2996 0044 F00A0000 		.word	.LC67
 2997              		.cfi_endproc
 2998              	.LFE20:
 2999              		.size	max30102_get_fifo_roll, .-max30102_get_fifo_roll
 3000              		.section	.text.max30102_set_fifo_almost_full,"ax",%progbits
 3001              		.align	2
 3002              		.global	max30102_set_fifo_almost_full
 3003              		.thumb
 3004              		.thumb_func
 3005              		.type	max30102_set_fifo_almost_full, %function
 3006              	max30102_set_fifo_almost_full:
 3007              	.LFB21:
1287:SensorLib\max30102/driver_max30102.c **** 
1288:SensorLib\max30102/driver_max30102.c **** /**
1289:SensorLib\max30102/driver_max30102.c ****  * @brief     set the fifo almost full value
1290:SensorLib\max30102/driver_max30102.c ****  * @param[in] *handle points to a max30102 handle structure
1291:SensorLib\max30102/driver_max30102.c ****  * @param[in] value is the fifo almost full value
1292:SensorLib\max30102/driver_max30102.c ****  * @return    status code
1293:SensorLib\max30102/driver_max30102.c ****  *            - 0 success
1294:SensorLib\max30102/driver_max30102.c ****  *            - 1 set fifo almost full failed
1295:SensorLib\max30102/driver_max30102.c ****  *            - 2 handle is NULL
1296:SensorLib\max30102/driver_max30102.c ****  *            - 3 handle is not initialized
1297:SensorLib\max30102/driver_max30102.c ****  *            - 4 value can't be over 0xF
1298:SensorLib\max30102/driver_max30102.c ****  * @note      none
1299:SensorLib\max30102/driver_max30102.c ****  */
1300:SensorLib\max30102/driver_max30102.c **** uint8_t max30102_set_fifo_almost_full(max30102_handle_t *handle, uint8_t value)
1301:SensorLib\max30102/driver_max30102.c **** {
 3008              		.loc 1 1301 0
 3009              		.cfi_startproc
 3010              		@ args = 0, pretend = 0, frame = 8
 3011              		@ frame_needed = 0, uses_anonymous_args = 0
 3012              	.LVL409:
 3013 0000 F0B5     		push	{r4, r5, r6, r7, lr}
 3014              		.cfi_def_cfa_offset 20
 3015              		.cfi_offset 4, -20
 3016              		.cfi_offset 5, -16
 3017              		.cfi_offset 6, -12
 3018              		.cfi_offset 7, -8
 3019              		.cfi_offset 14, -4
 3020 0002 83B0     		sub	sp, sp, #12
 3021              		.cfi_def_cfa_offset 32
1302:SensorLib\max30102/driver_max30102.c ****     uint8_t res;
1303:SensorLib\max30102/driver_max30102.c ****     uint8_t prev;
1304:SensorLib\max30102/driver_max30102.c ****     
1305:SensorLib\max30102/driver_max30102.c ****     if (handle == NULL)                                                                            
 3022              		.loc 1 1305 0
 3023 0004 48B3     		cbz	r0, .L232
1306:SensorLib\max30102/driver_max30102.c ****     {
1307:SensorLib\max30102/driver_max30102.c ****         return 2;                                                                                  
ARM GAS  C:\Users\CHRONI~1\AppData\Local\Temp\cc7oUGua.s 			page 78


1308:SensorLib\max30102/driver_max30102.c ****     }
1309:SensorLib\max30102/driver_max30102.c ****     if (handle->inited != 1)                                                                       
 3024              		.loc 1 1309 0
 3025 0006 047F     		ldrb	r4, [r0, #28]	@ zero_extendqisi2
 3026 0008 012C     		cmp	r4, #1
 3027 000a 28D1     		bne	.L233
 3028 000c 0546     		mov	r5, r0
 3029 000e 0E46     		mov	r6, r1
1310:SensorLib\max30102/driver_max30102.c ****     {
1311:SensorLib\max30102/driver_max30102.c ****         return 3;                                                                                  
1312:SensorLib\max30102/driver_max30102.c ****     }
1313:SensorLib\max30102/driver_max30102.c ****     if (value > 0xF)                                                                               
 3030              		.loc 1 1313 0
 3031 0010 0F29     		cmp	r1, #15
 3032 0012 04D9     		bls	.L230
1314:SensorLib\max30102/driver_max30102.c ****     {
1315:SensorLib\max30102/driver_max30102.c ****         handle->debug_print("max30102: value can't be over 0xF.\n");                               
 3033              		.loc 1 1315 0
 3034 0014 8369     		ldr	r3, [r0, #24]
 3035 0016 1548     		ldr	r0, .L236
 3036              	.LVL410:
 3037 0018 9847     		blx	r3
 3038              	.LVL411:
1316:SensorLib\max30102/driver_max30102.c ****        
1317:SensorLib\max30102/driver_max30102.c ****         return 4;                                                                                  
 3039              		.loc 1 1317 0
 3040 001a 0424     		movs	r4, #4
 3041 001c 22E0     		b	.L229
 3042              	.LVL412:
 3043              	.L230:
1318:SensorLib\max30102/driver_max30102.c ****     }
1319:SensorLib\max30102/driver_max30102.c ****     
1320:SensorLib\max30102/driver_max30102.c ****     res = handle->iic_read(MAX30102_ADDRESS, MAX30102_REG_FIFO_CONFIG, (uint8_t *)&prev, 1);       
 3044              		.loc 1 1320 0
 3045 001e 8768     		ldr	r7, [r0, #8]
 3046 0020 0123     		movs	r3, #1
 3047 0022 0DF10702 		add	r2, sp, #7
 3048 0026 0821     		movs	r1, #8
 3049              	.LVL413:
 3050 0028 5720     		movs	r0, #87
 3051              	.LVL414:
 3052 002a B847     		blx	r7
 3053              	.LVL415:
1321:SensorLib\max30102/driver_max30102.c ****     if (res != 0)                                                                                  
 3054              		.loc 1 1321 0
 3055 002c 18B1     		cbz	r0, .L231
1322:SensorLib\max30102/driver_max30102.c ****     {
1323:SensorLib\max30102/driver_max30102.c ****         handle->debug_print("max30102: read fifo config failed.\n");                               
 3056              		.loc 1 1323 0
 3057 002e AB69     		ldr	r3, [r5, #24]
 3058 0030 0F48     		ldr	r0, .L236+4
 3059              	.LVL416:
 3060 0032 9847     		blx	r3
 3061              	.LVL417:
1324:SensorLib\max30102/driver_max30102.c ****        
1325:SensorLib\max30102/driver_max30102.c ****         return 1;                                                                                  
 3062              		.loc 1 1325 0
ARM GAS  C:\Users\CHRONI~1\AppData\Local\Temp\cc7oUGua.s 			page 79


 3063 0034 16E0     		b	.L229
 3064              	.LVL418:
 3065              	.L231:
1326:SensorLib\max30102/driver_max30102.c ****     }
1327:SensorLib\max30102/driver_max30102.c ****     prev &= ~(0xF << 0);                                                                           
 3066              		.loc 1 1327 0
 3067 0036 9DF80710 		ldrb	r1, [sp, #7]	@ zero_extendqisi2
 3068 003a 01F0F001 		and	r1, r1, #240
1328:SensorLib\max30102/driver_max30102.c ****     prev |= value << 0;                                                                            
 3069              		.loc 1 1328 0
 3070 003e 3143     		orrs	r1, r1, r6
 3071 0040 02AA     		add	r2, sp, #8
 3072 0042 02F8011D 		strb	r1, [r2, #-1]!
1329:SensorLib\max30102/driver_max30102.c ****     res = handle->iic_write(MAX30102_ADDRESS, MAX30102_REG_FIFO_CONFIG, (uint8_t *)&prev, 1);      
 3073              		.loc 1 1329 0
 3074 0046 EE68     		ldr	r6, [r5, #12]
 3075 0048 0123     		movs	r3, #1
 3076 004a 0821     		movs	r1, #8
 3077 004c 5720     		movs	r0, #87
 3078              	.LVL419:
 3079 004e B047     		blx	r6
 3080              	.LVL420:
1330:SensorLib\max30102/driver_max30102.c ****     if (res != 0)                                                                                  
 3081              		.loc 1 1330 0
 3082 0050 38B1     		cbz	r0, .L234
1331:SensorLib\max30102/driver_max30102.c ****     {
1332:SensorLib\max30102/driver_max30102.c ****         handle->debug_print("max30102: write fifo config failed.\n");                              
 3083              		.loc 1 1332 0
 3084 0052 AB69     		ldr	r3, [r5, #24]
 3085 0054 0748     		ldr	r0, .L236+8
 3086              	.LVL421:
 3087 0056 9847     		blx	r3
 3088              	.LVL422:
1333:SensorLib\max30102/driver_max30102.c ****        
1334:SensorLib\max30102/driver_max30102.c ****         return 1;                                                                                  
 3089              		.loc 1 1334 0
 3090 0058 04E0     		b	.L229
 3091              	.LVL423:
 3092              	.L232:
1307:SensorLib\max30102/driver_max30102.c ****     }
 3093              		.loc 1 1307 0
 3094 005a 0224     		movs	r4, #2
 3095 005c 02E0     		b	.L229
 3096              	.L233:
1311:SensorLib\max30102/driver_max30102.c ****     }
 3097              		.loc 1 1311 0
 3098 005e 0324     		movs	r4, #3
 3099 0060 00E0     		b	.L229
 3100              	.LVL424:
 3101              	.L234:
1335:SensorLib\max30102/driver_max30102.c ****     }
1336:SensorLib\max30102/driver_max30102.c ****     
1337:SensorLib\max30102/driver_max30102.c ****     return 0;                                                                                      
 3102              		.loc 1 1337 0
 3103 0062 0024     		movs	r4, #0
 3104              	.LVL425:
 3105              	.L229:
ARM GAS  C:\Users\CHRONI~1\AppData\Local\Temp\cc7oUGua.s 			page 80


1338:SensorLib\max30102/driver_max30102.c **** }
 3106              		.loc 1 1338 0
 3107 0064 2046     		mov	r0, r4
 3108 0066 03B0     		add	sp, sp, #12
 3109              		.cfi_def_cfa_offset 20
 3110              		@ sp needed
 3111 0068 F0BD     		pop	{r4, r5, r6, r7, pc}
 3112              	.L237:
 3113 006a 00BF     		.align	2
 3114              	.L236:
 3115 006c 3C0B0000 		.word	.LC69
 3116 0070 F00A0000 		.word	.LC67
 3117 0074 140B0000 		.word	.LC68
 3118              		.cfi_endproc
 3119              	.LFE21:
 3120              		.size	max30102_set_fifo_almost_full, .-max30102_set_fifo_almost_full
 3121              		.section	.text.max30102_get_fifo_almost_full,"ax",%progbits
 3122              		.align	2
 3123              		.global	max30102_get_fifo_almost_full
 3124              		.thumb
 3125              		.thumb_func
 3126              		.type	max30102_get_fifo_almost_full, %function
 3127              	max30102_get_fifo_almost_full:
 3128              	.LFB22:
1339:SensorLib\max30102/driver_max30102.c **** 
1340:SensorLib\max30102/driver_max30102.c **** /**
1341:SensorLib\max30102/driver_max30102.c ****  * @brief      get the fifo almost full value
1342:SensorLib\max30102/driver_max30102.c ****  * @param[in]  *handle points to a max30102 handle structure
1343:SensorLib\max30102/driver_max30102.c ****  * @param[out] *value points to a fifo almost full value buffer
1344:SensorLib\max30102/driver_max30102.c ****  * @return     status code
1345:SensorLib\max30102/driver_max30102.c ****  *             - 0 success
1346:SensorLib\max30102/driver_max30102.c ****  *             - 1 get fifo almost full failed
1347:SensorLib\max30102/driver_max30102.c ****  *             - 2 handle is NULL
1348:SensorLib\max30102/driver_max30102.c ****  *             - 3 handle is not initialized
1349:SensorLib\max30102/driver_max30102.c ****  * @note      none
1350:SensorLib\max30102/driver_max30102.c ****  */
1351:SensorLib\max30102/driver_max30102.c **** uint8_t max30102_get_fifo_almost_full(max30102_handle_t *handle, uint8_t *value)
1352:SensorLib\max30102/driver_max30102.c **** {
 3129              		.loc 1 1352 0
 3130              		.cfi_startproc
 3131              		@ args = 0, pretend = 0, frame = 8
 3132              		@ frame_needed = 0, uses_anonymous_args = 0
 3133              	.LVL426:
 3134 0000 F0B5     		push	{r4, r5, r6, r7, lr}
 3135              		.cfi_def_cfa_offset 20
 3136              		.cfi_offset 4, -20
 3137              		.cfi_offset 5, -16
 3138              		.cfi_offset 6, -12
 3139              		.cfi_offset 7, -8
 3140              		.cfi_offset 14, -4
 3141 0002 83B0     		sub	sp, sp, #12
 3142              		.cfi_def_cfa_offset 32
1353:SensorLib\max30102/driver_max30102.c ****     uint8_t res;
1354:SensorLib\max30102/driver_max30102.c ****     uint8_t prev;
1355:SensorLib\max30102/driver_max30102.c ****     
1356:SensorLib\max30102/driver_max30102.c ****     if (handle == NULL)                                                                            
 3143              		.loc 1 1356 0
ARM GAS  C:\Users\CHRONI~1\AppData\Local\Temp\cc7oUGua.s 			page 81


 3144 0004 B8B1     		cbz	r0, .L241
1357:SensorLib\max30102/driver_max30102.c ****     {
1358:SensorLib\max30102/driver_max30102.c ****         return 2;                                                                                  
1359:SensorLib\max30102/driver_max30102.c ****     }
1360:SensorLib\max30102/driver_max30102.c ****     if (handle->inited != 1)                                                                       
 3145              		.loc 1 1360 0
 3146 0006 047F     		ldrb	r4, [r0, #28]	@ zero_extendqisi2
 3147 0008 012C     		cmp	r4, #1
 3148 000a 16D1     		bne	.L242
 3149 000c 0546     		mov	r5, r0
 3150 000e 0E46     		mov	r6, r1
1361:SensorLib\max30102/driver_max30102.c ****     {
1362:SensorLib\max30102/driver_max30102.c ****         return 3;                                                                                  
1363:SensorLib\max30102/driver_max30102.c ****     }
1364:SensorLib\max30102/driver_max30102.c ****     
1365:SensorLib\max30102/driver_max30102.c ****     res = handle->iic_read(MAX30102_ADDRESS, MAX30102_REG_FIFO_CONFIG, (uint8_t *)&prev, 1);       
 3151              		.loc 1 1365 0
 3152 0010 8768     		ldr	r7, [r0, #8]
 3153 0012 0123     		movs	r3, #1
 3154 0014 0DF10702 		add	r2, sp, #7
 3155 0018 0821     		movs	r1, #8
 3156              	.LVL427:
 3157 001a 5720     		movs	r0, #87
 3158              	.LVL428:
 3159 001c B847     		blx	r7
 3160              	.LVL429:
1366:SensorLib\max30102/driver_max30102.c ****     if (res != 0)                                                                                  
 3161              		.loc 1 1366 0
 3162 001e 18B1     		cbz	r0, .L240
1367:SensorLib\max30102/driver_max30102.c ****     {
1368:SensorLib\max30102/driver_max30102.c ****         handle->debug_print("max30102: read fifo config failed.\n");                               
 3163              		.loc 1 1368 0
 3164 0020 AB69     		ldr	r3, [r5, #24]
 3165 0022 0848     		ldr	r0, .L244
 3166              	.LVL430:
 3167 0024 9847     		blx	r3
 3168              	.LVL431:
1369:SensorLib\max30102/driver_max30102.c ****        
1370:SensorLib\max30102/driver_max30102.c ****         return 1;                                                                                  
 3169              		.loc 1 1370 0
 3170 0026 09E0     		b	.L239
 3171              	.LVL432:
 3172              	.L240:
1371:SensorLib\max30102/driver_max30102.c ****     }
1372:SensorLib\max30102/driver_max30102.c ****     *value = prev & 0xF;                                                                           
 3173              		.loc 1 1372 0
 3174 0028 9DF80730 		ldrb	r3, [sp, #7]	@ zero_extendqisi2
 3175 002c 03F00F03 		and	r3, r3, #15
 3176 0030 3370     		strb	r3, [r6]
1373:SensorLib\max30102/driver_max30102.c ****     
1374:SensorLib\max30102/driver_max30102.c ****     return 0;                                                                                      
 3177              		.loc 1 1374 0
 3178 0032 0024     		movs	r4, #0
 3179 0034 02E0     		b	.L239
 3180              	.LVL433:
 3181              	.L241:
1358:SensorLib\max30102/driver_max30102.c ****     }
ARM GAS  C:\Users\CHRONI~1\AppData\Local\Temp\cc7oUGua.s 			page 82


 3182              		.loc 1 1358 0
 3183 0036 0224     		movs	r4, #2
 3184 0038 00E0     		b	.L239
 3185              	.L242:
1362:SensorLib\max30102/driver_max30102.c ****     }
 3186              		.loc 1 1362 0
 3187 003a 0324     		movs	r4, #3
 3188              	.LVL434:
 3189              	.L239:
1375:SensorLib\max30102/driver_max30102.c **** }
 3190              		.loc 1 1375 0
 3191 003c 2046     		mov	r0, r4
 3192 003e 03B0     		add	sp, sp, #12
 3193              		.cfi_def_cfa_offset 20
 3194              		@ sp needed
 3195 0040 F0BD     		pop	{r4, r5, r6, r7, pc}
 3196              	.L245:
 3197 0042 00BF     		.align	2
 3198              	.L244:
 3199 0044 F00A0000 		.word	.LC67
 3200              		.cfi_endproc
 3201              	.LFE22:
 3202              		.size	max30102_get_fifo_almost_full, .-max30102_get_fifo_almost_full
 3203              		.section	.text.max30102_set_shutdown,"ax",%progbits
 3204              		.align	2
 3205              		.global	max30102_set_shutdown
 3206              		.thumb
 3207              		.thumb_func
 3208              		.type	max30102_set_shutdown, %function
 3209              	max30102_set_shutdown:
 3210              	.LFB23:
1376:SensorLib\max30102/driver_max30102.c **** 
1377:SensorLib\max30102/driver_max30102.c **** /**
1378:SensorLib\max30102/driver_max30102.c ****  * @brief     set the shutdown
