ARM GAS  C:\Users\CHRONI~1\AppData\Local\Temp\ccmRGrxv.s 			page 1


   1              		.syntax unified
   2              		.cpu cortex-m3
   3              		.fpu softvfp
   4              		.eabi_attribute 20, 1
   5              		.eabi_attribute 21, 1
   6              		.eabi_attribute 23, 3
   7              		.eabi_attribute 24, 1
   8              		.eabi_attribute 25, 1
   9              		.eabi_attribute 26, 1
  10              		.eabi_attribute 30, 1
  11              		.eabi_attribute 34, 1
  12              		.eabi_attribute 18, 4
  13              		.thumb
  14              		.syntax unified
  15              		.file	"log_task.c"
  16              		.text
  17              	.Ltext0:
  18              		.cfi_sections	.debug_frame
  19              		.section	.text.Log_LevelToString,"ax",%progbits
  20              		.align	2
  21              		.thumb
  22              		.thumb_func
  23              		.type	Log_LevelToString, %function
  24              	Log_LevelToString:
  25              	.LFB65:
  26              		.file 1 "log_task.c"
   1:log_task.c    **** #include "log_task.h"
   2:log_task.c    **** #include <app_cfg.h>
   3:log_task.c    **** #include <stdio.h>  /* For snprintf */
   4:log_task.c    **** 
   5:log_task.c    **** /* Global variables */
   6:log_task.c    **** static CPU_INT08U allowed_log_types = LOG_ALLOWED_LEVELS;  /* Bitmask for allowed log types */
   7:log_task.c    **** 
   8:log_task.c    **** /* Task Control Block and Stack */
   9:log_task.c    **** OS_TCB Log_Task_TCB;
  10:log_task.c    **** CPU_STK Log_TaskStk[APP_CFG_TASK_LOG_STK_SIZE];
  11:log_task.c    **** 
  12:log_task.c    **** /* Message queue for logs */
  13:log_task.c    **** OS_Q Log_Queue;
  14:log_task.c    **** OS_SEM LogTaskSem;
  15:log_task.c    **** 
  16:log_task.c    **** /* Message memory pool for logs */
  17:log_task.c    **** OS_MEM MsgMemPool;
  18:log_task.c    **** CPU_CHAR MsgMemPoolStorage[MESSAGE_POOL_SIZE][MESSAGE_SIZE];
  19:log_task.c    **** 
  20:log_task.c    **** /* Log task that handles UART output - forward declaration */
  21:log_task.c    **** static void Log_Task(void *p_arg);
  22:log_task.c    **** 
  23:log_task.c    **** /* Helper function to print error messages directly via UART */
  24:log_task.c    **** static void Log_PrintErrorWithCode(const char *msg, OS_ERR err_code)
  25:log_task.c    **** {
  26:log_task.c    ****     char buffer[LOG_MSG_SIZE];
  27:log_task.c    ****     snprintf(buffer, sizeof(buffer), "%s (Error Code: %u)", msg, err_code);  // Print error code as
  28:log_task.c    ****     UART_1_PutString(buffer);
  29:log_task.c    ****     UART_1_PutString("\r\n");
  30:log_task.c    **** }
  31:log_task.c    **** 
ARM GAS  C:\Users\CHRONI~1\AppData\Local\Temp\ccmRGrxv.s 			page 2


  32:log_task.c    **** /* Helper function to convert log level to string */
  33:log_task.c    **** static const char* Log_LevelToString(CPU_INT08U level)
  34:log_task.c    **** {
  27              		.loc 1 34 0
  28              		.cfi_startproc
  29              		@ args = 0, pretend = 0, frame = 0
  30              		@ frame_needed = 0, uses_anonymous_args = 0
  31              		@ link register save eliminated.
  32              	.LVL0:
  35:log_task.c    ****     switch (level) {
  33              		.loc 1 35 0
  34 0000 0138     		subs	r0, r0, #1
  35              	.LVL1:
  36 0002 0728     		cmp	r0, #7
  37 0004 0BD8     		bhi	.L2
  38 0006 DFE800F0 		tbb	[pc, r0]
  39              	.L4:
  40 000a 04       		.byte	(.L3-.L4)/2
  41 000b 0C       		.byte	(.L8-.L4)/2
  42 000c 0A       		.byte	(.L2-.L4)/2
  43 000d 06       		.byte	(.L6-.L4)/2
  44 000e 0A       		.byte	(.L2-.L4)/2
  45 000f 0A       		.byte	(.L2-.L4)/2
  46 0010 0A       		.byte	(.L2-.L4)/2
  47 0011 08       		.byte	(.L7-.L4)/2
  48              		.p2align 1
  49              	.L3:
  36:log_task.c    ****         case LOG_LEVEL_INFO:    return "INFO";
  50              		.loc 1 36 0
  51 0012 0548     		ldr	r0, .L9
  52 0014 7047     		bx	lr
  53              	.L6:
  37:log_task.c    ****         case LOG_LEVEL_WARNING: return "WARNING";
  38:log_task.c    ****         case LOG_LEVEL_ERROR:   return "ERROR";
  54              		.loc 1 38 0
  55 0016 0548     		ldr	r0, .L9+4
  56 0018 7047     		bx	lr
  57              	.L7:
  39:log_task.c    ****         case LOG_LEVEL_DEBUG:   return "DEBUG";
  58              		.loc 1 39 0
  59 001a 0548     		ldr	r0, .L9+8
  60 001c 7047     		bx	lr
  61              	.L2:
  40:log_task.c    ****         default:                return "UNKNOWN";
  62              		.loc 1 40 0
  63 001e 0548     		ldr	r0, .L9+12
  64 0020 7047     		bx	lr
  65              	.L8:
  37:log_task.c    ****         case LOG_LEVEL_WARNING: return "WARNING";
  66              		.loc 1 37 0
  67 0022 0548     		ldr	r0, .L9+16
  41:log_task.c    ****     }
  42:log_task.c    **** }
  68              		.loc 1 42 0
  69 0024 7047     		bx	lr
  70              	.L10:
  71 0026 00BF     		.align	2
ARM GAS  C:\Users\CHRONI~1\AppData\Local\Temp\ccmRGrxv.s 			page 3


  72              	.L9:
  73 0028 00000000 		.word	.LC0
  74 002c 10000000 		.word	.LC2
  75 0030 18000000 		.word	.LC3
  76 0034 20000000 		.word	.LC4
  77 0038 08000000 		.word	.LC1
  78              		.cfi_endproc
  79              	.LFE65:
  80              		.size	Log_LevelToString, .-Log_LevelToString
  81              		.section	.text.Log_PrintErrorWithCode,"ax",%progbits
  82              		.align	2
  83              		.thumb
  84              		.thumb_func
  85              		.type	Log_PrintErrorWithCode, %function
  86              	Log_PrintErrorWithCode:
  87              	.LFB64:
  25:log_task.c    ****     char buffer[LOG_MSG_SIZE];
  88              		.loc 1 25 0
  89              		.cfi_startproc
  90              		@ args = 0, pretend = 0, frame = 80
  91              		@ frame_needed = 0, uses_anonymous_args = 0
  92              	.LVL2:
  93 0000 00B5     		push	{lr}
  94              		.cfi_def_cfa_offset 4
  95              		.cfi_offset 14, -4
  96 0002 97B0     		sub	sp, sp, #92
  97              		.cfi_def_cfa_offset 96
  27:log_task.c    ****     UART_1_PutString(buffer);
  98              		.loc 1 27 0
  99 0004 0091     		str	r1, [sp]
 100 0006 0346     		mov	r3, r0
 101 0008 064A     		ldr	r2, .L13
 102 000a 5021     		movs	r1, #80
 103              	.LVL3:
 104 000c 02A8     		add	r0, sp, #8
 105              	.LVL4:
 106 000e FFF7FEFF 		bl	snprintf
 107              	.LVL5:
  28:log_task.c    ****     UART_1_PutString("\r\n");
 108              		.loc 1 28 0
 109 0012 02A8     		add	r0, sp, #8
 110 0014 FFF7FEFF 		bl	UART_1_PutString
 111              	.LVL6:
  29:log_task.c    **** }
 112              		.loc 1 29 0
 113 0018 0348     		ldr	r0, .L13+4
 114 001a FFF7FEFF 		bl	UART_1_PutString
 115              	.LVL7:
  30:log_task.c    **** 
 116              		.loc 1 30 0
 117 001e 17B0     		add	sp, sp, #92
 118              		.cfi_def_cfa_offset 4
 119              		@ sp needed
 120 0020 5DF804FB 		ldr	pc, [sp], #4
 121              	.L14:
 122              		.align	2
 123              	.L13:
ARM GAS  C:\Users\CHRONI~1\AppData\Local\Temp\ccmRGrxv.s 			page 4


 124 0024 28000000 		.word	.LC5
 125 0028 3C000000 		.word	.LC6
 126              		.cfi_endproc
 127              	.LFE64:
 128              		.size	Log_PrintErrorWithCode, .-Log_PrintErrorWithCode
 129              		.section	.text.Log_Task,"ax",%progbits
 130              		.align	2
 131              		.thumb
 132              		.thumb_func
 133              		.type	Log_Task, %function
 134              	Log_Task:
 135              	.LFB67:
  43:log_task.c    **** 
  44:log_task.c    **** /* Function to create the Log Task */
  45:log_task.c    **** void Log_Init(void) {
  46:log_task.c    ****     OS_ERR os_err;
  47:log_task.c    **** 
  48:log_task.c    ****     /* Print stack size and message sizes */
  49:log_task.c    ****     char size_buffer[100];
  50:log_task.c    ****     snprintf(size_buffer, sizeof(size_buffer), 
  51:log_task.c    ****              "LOG_MSG size: %u bytes, Memory Pool Block size: %u bytes, Total Pool Size: %u blocks"
  52:log_task.c    ****              sizeof(LOG_MSG), MESSAGE_SIZE, MESSAGE_POOL_SIZE);
  53:log_task.c    ****     UART_1_PutString(size_buffer);
  54:log_task.c    ****     UART_1_PutString("\r\n");
  55:log_task.c    **** 
  56:log_task.c    ****     /* Create the log task, but leave the initialization to the task itself */
  57:log_task.c    ****     OSTaskCreate((OS_TCB     *)&Log_Task_TCB,
  58:log_task.c    ****                  (CPU_CHAR   *)"Log Task",
  59:log_task.c    ****                  (OS_TASK_PTR )Log_Task,  
  60:log_task.c    ****                  (void       *)0,
  61:log_task.c    ****                  (OS_PRIO     )APP_CFG_TASK_LOG_PRIO,
  62:log_task.c    ****                  (CPU_STK    *)&Log_TaskStk[0],
  63:log_task.c    ****                  (CPU_STK_SIZE)APP_CFG_TASK_LOG_STK_SIZE_LIMIT,
  64:log_task.c    ****                  (CPU_STK_SIZE)APP_CFG_TASK_LOG_STK_SIZE,
  65:log_task.c    ****                  (OS_MSG_QTY  )0u,
  66:log_task.c    ****                  (OS_TICK     )0u,
  67:log_task.c    ****                  (void       *)0,
  68:log_task.c    ****                  (OS_OPT      )(OS_OPT_TASK_STK_CHK | OS_OPT_TASK_STK_CLR),
  69:log_task.c    ****                  (OS_ERR     *)&os_err);
  70:log_task.c    **** 
  71:log_task.c    ****     if (os_err == OS_ERR_NONE) {
  72:log_task.c    ****         UART_1_PutString("Log task created successfully.\r\n");
  73:log_task.c    ****     } else {
  74:log_task.c    ****         Log_PrintErrorWithCode("Error: Failed to create log task", os_err);
  75:log_task.c    ****     }
  76:log_task.c    **** }
  77:log_task.c    **** 
  78:log_task.c    **** /* Log task that handles memory allocation and message processing */
  79:log_task.c    **** static void Log_Task(void *p_arg)
  80:log_task.c    **** {
 136              		.loc 1 80 0
 137              		.cfi_startproc
 138              		@ args = 0, pretend = 0, frame = 8
 139              		@ frame_needed = 0, uses_anonymous_args = 0
 140              	.LVL8:
 141 0000 10B5     		push	{r4, lr}
 142              		.cfi_def_cfa_offset 8
ARM GAS  C:\Users\CHRONI~1\AppData\Local\Temp\ccmRGrxv.s 			page 5


 143              		.cfi_offset 4, -8
 144              		.cfi_offset 14, -4
 145 0002 84B0     		sub	sp, sp, #16
 146              		.cfi_def_cfa_offset 24
  81:log_task.c    ****     OS_ERR os_err;
  82:log_task.c    ****     OS_MSG_SIZE msg_size;
  83:log_task.c    ****     CPU_TS ts;
  84:log_task.c    ****     LOG_MSG *p_msg;
  85:log_task.c    **** 
  86:log_task.c    ****     (void)p_arg;
  87:log_task.c    **** 
  88:log_task.c    ****     /* Print message about pool and queue creation */
  89:log_task.c    ****     UART_1_PutString("Log task is creating the memory pool and queue.\r\n");
 147              		.loc 1 89 0
 148 0004 3048     		ldr	r0, .L23
 149              	.LVL9:
 150 0006 FFF7FEFF 		bl	UART_1_PutString
 151              	.LVL10:
  90:log_task.c    **** 
  91:log_task.c    ****     /* Memory pool creation in the task */
  92:log_task.c    ****     OSMemCreate(&MsgMemPool, "Log Message Pool", (void *)MsgMemPoolStorage, MESSAGE_POOL_SIZE, MESS
 152              		.loc 1 92 0
 153 000a 0DF10E03 		add	r3, sp, #14
 154 000e 0193     		str	r3, [sp, #4]
 155 0010 5423     		movs	r3, #84
 156 0012 0093     		str	r3, [sp]
 157 0014 2D4A     		ldr	r2, .L23+4
 158 0016 2E49     		ldr	r1, .L23+8
 159 0018 2E48     		ldr	r0, .L23+12
 160 001a FFF7FEFF 		bl	OSMemCreate
 161              	.LVL11:
  93:log_task.c    ****     if (os_err != OS_ERR_NONE) {
 162              		.loc 1 93 0
 163 001e BDF80E10 		ldrh	r1, [sp, #14]
 164 0022 19B1     		cbz	r1, .L16
  94:log_task.c    ****         Log_PrintErrorWithCode("Error: Failed to create log message pool", os_err);
 165              		.loc 1 94 0
 166 0024 2C48     		ldr	r0, .L23+16
 167 0026 FFF7FEFF 		bl	Log_PrintErrorWithCode
 168              	.LVL12:
  95:log_task.c    ****         return;
 169              		.loc 1 95 0
 170 002a 4BE0     		b	.L15
 171              	.L16:
  96:log_task.c    ****     } else {
  97:log_task.c    ****         UART_1_PutString("Log message pool created successfully.\r\n");
 172              		.loc 1 97 0
 173 002c 2B48     		ldr	r0, .L23+20
 174 002e FFF7FEFF 		bl	UART_1_PutString
 175              	.LVL13:
  98:log_task.c    ****     }
  99:log_task.c    ****     
 100:log_task.c    ****     /* Queue creation in the task */
 101:log_task.c    ****     OSQCreate(&Log_Queue, "Log Queue", LOG_QUEUE_SIZE, &os_err);
 176              		.loc 1 101 0
 177 0032 0DF10E03 		add	r3, sp, #14
 178 0036 3222     		movs	r2, #50
ARM GAS  C:\Users\CHRONI~1\AppData\Local\Temp\ccmRGrxv.s 			page 6


 179 0038 2949     		ldr	r1, .L23+24
 180 003a 2A48     		ldr	r0, .L23+28
 181 003c FFF7FEFF 		bl	OSQCreate
 182              	.LVL14:
 102:log_task.c    ****     if (os_err != OS_ERR_NONE) {
 183              		.loc 1 102 0
 184 0040 BDF80E10 		ldrh	r1, [sp, #14]
 185 0044 19B1     		cbz	r1, .L18
 103:log_task.c    ****         Log_PrintErrorWithCode("Error: Failed to create log queue", os_err);
 186              		.loc 1 103 0
 187 0046 2848     		ldr	r0, .L23+32
 188 0048 FFF7FEFF 		bl	Log_PrintErrorWithCode
 189              	.LVL15:
 104:log_task.c    ****         return;
 190              		.loc 1 104 0
 191 004c 3AE0     		b	.L15
 192              	.L18:
 105:log_task.c    ****     } else {
 106:log_task.c    ****         UART_1_PutString("Log queue created successfully.\r\n");
 193              		.loc 1 106 0
 194 004e 2748     		ldr	r0, .L23+36
 195 0050 FFF7FEFF 		bl	UART_1_PutString
 196              	.LVL16:
 107:log_task.c    ****     }
 108:log_task.c    ****     OSSemPost(&LogTaskSem, OS_OPT_POST_1, &os_err);
 197              		.loc 1 108 0
 198 0054 0DF10E02 		add	r2, sp, #14
 199 0058 0021     		movs	r1, #0
 200 005a 2548     		ldr	r0, .L23+40
 201 005c FFF7FEFF 		bl	OSSemPost
 202              	.LVL17:
 203              	.L19:
 109:log_task.c    ****     
 110:log_task.c    ****     /* Log task loop */
 111:log_task.c    ****     while (DEF_TRUE) {
 112:log_task.c    **** 
 113:log_task.c    ****         /* Wait for messages in the queue with infinite timeout */
 114:log_task.c    ****         p_msg = (LOG_MSG *)OSQPend(&Log_Queue, 0, OS_OPT_PEND_BLOCKING, &msg_size, &ts, &os_err);
 204              		.loc 1 114 0
 205 0060 0DF10E03 		add	r3, sp, #14
 206 0064 0193     		str	r3, [sp, #4]
 207 0066 02AB     		add	r3, sp, #8
 208 0068 0093     		str	r3, [sp]
 209 006a 03AB     		add	r3, sp, #12
 210 006c 0022     		movs	r2, #0
 211 006e 1146     		mov	r1, r2
 212 0070 1C48     		ldr	r0, .L23+28
 213 0072 FFF7FEFF 		bl	OSQPend
 214              	.LVL18:
 215 0076 0446     		mov	r4, r0
 216              	.LVL19:
 115:log_task.c    **** 
 116:log_task.c    ****         if (os_err == OS_ERR_NONE) {
 217              		.loc 1 116 0
 218 0078 BDF80E10 		ldrh	r1, [sp, #14]
 219 007c F1B9     		cbnz	r1, .L20
 117:log_task.c    ****             /* Output the message if its type is allowed */
ARM GAS  C:\Users\CHRONI~1\AppData\Local\Temp\ccmRGrxv.s 			page 7


 118:log_task.c    ****             if (p_msg->level & LOG_ALLOWED_LEVELS) {
 220              		.loc 1 118 0
 221 007e 0078     		ldrb	r0, [r0]	@ zero_extendqisi2
 222              	.LVL20:
 223 0080 10F00F0F 		tst	r0, #15
 224 0084 ECD0     		beq	.L19
 119:log_task.c    ****                 /* Print the log level followed by the message */
 120:log_task.c    ****                 UART_1_PutString(Log_LevelToString(p_msg->level));
 225              		.loc 1 120 0
 226 0086 FFF7FEFF 		bl	Log_LevelToString
 227              	.LVL21:
 228 008a FFF7FEFF 		bl	UART_1_PutString
 229              	.LVL22:
 121:log_task.c    ****                 UART_1_PutString(": ");
 230              		.loc 1 121 0
 231 008e 1948     		ldr	r0, .L23+44
 232 0090 FFF7FEFF 		bl	UART_1_PutString
 233              	.LVL23:
 122:log_task.c    ****                 UART_1_PutString(p_msg->msg);
 234              		.loc 1 122 0
 235 0094 601C     		adds	r0, r4, #1
 236 0096 FFF7FEFF 		bl	UART_1_PutString
 237              	.LVL24:
 123:log_task.c    ****                 UART_1_PutString("\r\n");
 238              		.loc 1 123 0
 239 009a 1748     		ldr	r0, .L23+48
 240 009c FFF7FEFF 		bl	UART_1_PutString
 241              	.LVL25:
 124:log_task.c    **** 
 125:log_task.c    ****                 /* Release the memory for the message after printing */
 126:log_task.c    ****                 OSMemPut(&MsgMemPool, (void *)p_msg, &os_err);
 242              		.loc 1 126 0
 243 00a0 0DF10E02 		add	r2, sp, #14
 244 00a4 2146     		mov	r1, r4
 245 00a6 0B48     		ldr	r0, .L23+12
 246 00a8 FFF7FEFF 		bl	OSMemPut
 247              	.LVL26:
 127:log_task.c    ****                 if (os_err != OS_ERR_NONE) {
 248              		.loc 1 127 0
 249 00ac BDF80E10 		ldrh	r1, [sp, #14]
 250 00b0 0029     		cmp	r1, #0
 251 00b2 D5D0     		beq	.L19
 128:log_task.c    ****                     Log_PrintErrorWithCode("Error: Failed to release memory for log message", os_er
 252              		.loc 1 128 0
 253 00b4 1148     		ldr	r0, .L23+52
 254 00b6 FFF7FEFF 		bl	Log_PrintErrorWithCode
 255              	.LVL27:
 256 00ba D1E7     		b	.L19
 257              	.LVL28:
 258              	.L20:
 129:log_task.c    ****                 }
 130:log_task.c    ****             }
 131:log_task.c    ****         } else {
 132:log_task.c    ****             Log_PrintErrorWithCode("Error: Failed to retrieve message from log queue", os_err);
 259              		.loc 1 132 0
 260 00bc 1048     		ldr	r0, .L23+56
 261              	.LVL29:
ARM GAS  C:\Users\CHRONI~1\AppData\Local\Temp\ccmRGrxv.s 			page 8


 262 00be FFF7FEFF 		bl	Log_PrintErrorWithCode
 263              	.LVL30:
 264 00c2 CDE7     		b	.L19
 265              	.LVL31:
 266              	.L15:
 133:log_task.c    ****         }
 134:log_task.c    ****     }
 135:log_task.c    **** }
 267              		.loc 1 135 0
 268 00c4 04B0     		add	sp, sp, #16
 269              		.cfi_def_cfa_offset 8
 270              		@ sp needed
 271 00c6 10BD     		pop	{r4, pc}
 272              	.L24:
 273              		.align	2
 274              	.L23:
 275 00c8 40000000 		.word	.LC7
 276 00cc 00000000 		.word	MsgMemPoolStorage
 277 00d0 74000000 		.word	.LC8
 278 00d4 00000000 		.word	MsgMemPool
 279 00d8 88000000 		.word	.LC9
 280 00dc B4000000 		.word	.LC10
 281 00e0 E0000000 		.word	.LC11
 282 00e4 00000000 		.word	Log_Queue
 283 00e8 EC000000 		.word	.LC12
 284 00ec 10010000 		.word	.LC13
 285 00f0 00000000 		.word	LogTaskSem
 286 00f4 34010000 		.word	.LC14
 287 00f8 3C000000 		.word	.LC6
 288 00fc 38010000 		.word	.LC15
 289 0100 68010000 		.word	.LC16
 290              		.cfi_endproc
 291              	.LFE67:
 292              		.size	Log_Task, .-Log_Task
 293              		.section	.text.Log_Init,"ax",%progbits
 294              		.align	2
 295              		.global	Log_Init
 296              		.thumb
 297              		.thumb_func
 298              		.type	Log_Init, %function
 299              	Log_Init:
 300              	.LFB66:
  45:log_task.c    ****     OS_ERR os_err;
 301              		.loc 1 45 0
 302              		.cfi_startproc
 303              		@ args = 0, pretend = 0, frame = 104
 304              		@ frame_needed = 0, uses_anonymous_args = 0
 305 0000 00B5     		push	{lr}
 306              		.cfi_def_cfa_offset 4
 307              		.cfi_offset 14, -4
 308 0002 A5B0     		sub	sp, sp, #148
 309              		.cfi_def_cfa_offset 152
  50:log_task.c    ****              "LOG_MSG size: %u bytes, Memory Pool Block size: %u bytes, Total Pool Size: %u blocks"
 310              		.loc 1 50 0
 311 0004 5423     		movs	r3, #84
 312 0006 0193     		str	r3, [sp, #4]
 313 0008 0093     		str	r3, [sp]
ARM GAS  C:\Users\CHRONI~1\AppData\Local\Temp\ccmRGrxv.s 			page 9


 314 000a 5123     		movs	r3, #81
 315 000c 174A     		ldr	r2, .L29
 316 000e 6421     		movs	r1, #100
 317 0010 0AA8     		add	r0, sp, #40
 318 0012 FFF7FEFF 		bl	snprintf
 319              	.LVL32:
  53:log_task.c    ****     UART_1_PutString("\r\n");
 320              		.loc 1 53 0
 321 0016 0AA8     		add	r0, sp, #40
 322 0018 FFF7FEFF 		bl	UART_1_PutString
 323              	.LVL33:
  54:log_task.c    **** 
 324              		.loc 1 54 0
 325 001c 1448     		ldr	r0, .L29+4
 326 001e FFF7FEFF 		bl	UART_1_PutString
 327              	.LVL34:
  57:log_task.c    ****                  (CPU_CHAR   *)"Log Task",
 328              		.loc 1 57 0
 329 0022 0DF18E03 		add	r3, sp, #142
 330 0026 0893     		str	r3, [sp, #32]
 331 0028 0323     		movs	r3, #3
 332 002a 0793     		str	r3, [sp, #28]
 333 002c 0023     		movs	r3, #0
 334 002e 0693     		str	r3, [sp, #24]
 335 0030 0593     		str	r3, [sp, #20]
 336 0032 0493     		str	r3, [sp, #16]
 337 0034 4FF40072 		mov	r2, #512
 338 0038 0392     		str	r2, [sp, #12]
 339 003a 3322     		movs	r2, #51
 340 003c 0292     		str	r2, [sp, #8]
 341 003e 0D4A     		ldr	r2, .L29+8
 342 0040 0192     		str	r2, [sp, #4]
 343 0042 0822     		movs	r2, #8
 344 0044 0092     		str	r2, [sp]
 345 0046 0C4A     		ldr	r2, .L29+12
 346 0048 0C49     		ldr	r1, .L29+16
 347 004a 0D48     		ldr	r0, .L29+20
 348 004c FFF7FEFF 		bl	OSTaskCreate
 349              	.LVL35:
  71:log_task.c    ****         UART_1_PutString("Log task created successfully.\r\n");
 350              		.loc 1 71 0
 351 0050 BDF88E10 		ldrh	r1, [sp, #142]
 352 0054 19B9     		cbnz	r1, .L26
  72:log_task.c    ****     } else {
 353              		.loc 1 72 0
 354 0056 0B48     		ldr	r0, .L29+24
 355 0058 FFF7FEFF 		bl	UART_1_PutString
 356              	.LVL36:
 357 005c 02E0     		b	.L25
 358              	.L26:
  74:log_task.c    ****     }
 359              		.loc 1 74 0
 360 005e 0A48     		ldr	r0, .L29+28
 361 0060 FFF7FEFF 		bl	Log_PrintErrorWithCode
 362              	.LVL37:
 363              	.L25:
  76:log_task.c    **** 
ARM GAS  C:\Users\CHRONI~1\AppData\Local\Temp\ccmRGrxv.s 			page 10


 364              		.loc 1 76 0
 365 0064 25B0     		add	sp, sp, #148
 366              		.cfi_def_cfa_offset 4
 367              		@ sp needed
 368 0066 5DF804FB 		ldr	pc, [sp], #4
 369              	.L30:
 370 006a 00BF     		.align	2
 371              	.L29:
 372 006c 9C010000 		.word	.LC17
 373 0070 3C000000 		.word	.LC6
 374 0074 00000000 		.word	Log_TaskStk
 375 0078 00000000 		.word	Log_Task
 376 007c F4010000 		.word	.LC18
 377 0080 00000000 		.word	Log_Task_TCB
 378 0084 00020000 		.word	.LC19
 379 0088 24020000 		.word	.LC20
 380              		.cfi_endproc
 381              	.LFE66:
 382              		.size	Log_Init, .-Log_Init
 383              		.section	.text.Log_Write,"ax",%progbits
 384              		.align	2
 385              		.global	Log_Write
 386              		.thumb
 387              		.thumb_func
 388              		.type	Log_Write, %function
 389              	Log_Write:
 390              	.LFB68:
 136:log_task.c    **** 
 137:log_task.c    **** /* Write a message to the log queue with a given severity level and optional error code */
 138:log_task.c    **** void Log_Write(CPU_INT08U level, const CPU_CHAR *msg, CPU_INT32U err_code)
 139:log_task.c    **** {
 391              		.loc 1 139 0
 392              		.cfi_startproc
 393              		@ args = 0, pretend = 0, frame = 88
 394              		@ frame_needed = 0, uses_anonymous_args = 0
 395              	.LVL38:
 140:log_task.c    ****     if (!(level & LOG_ALLOWED_LEVELS)) {
 396              		.loc 1 140 0
 397 0000 10F00F0F 		tst	r0, #15
 398 0004 4FD0     		beq	.L40
 139:log_task.c    ****     if (!(level & LOG_ALLOWED_LEVELS)) {
 399              		.loc 1 139 0
 400 0006 F0B5     		push	{r4, r5, r6, r7, lr}
 401              		.cfi_def_cfa_offset 20
 402              		.cfi_offset 4, -20
 403              		.cfi_offset 5, -16
 404              		.cfi_offset 6, -12
 405              		.cfi_offset 7, -8
 406              		.cfi_offset 14, -4
 407 0008 99B0     		sub	sp, sp, #100
 408              		.cfi_def_cfa_offset 120
 409 000a 1546     		mov	r5, r2
 410 000c 0E46     		mov	r6, r1
 411 000e 0446     		mov	r4, r0
 141:log_task.c    ****         return;  /* Skip logging if the message type is not allowed */
 142:log_task.c    ****     }
 143:log_task.c    **** 
ARM GAS  C:\Users\CHRONI~1\AppData\Local\Temp\ccmRGrxv.s 			page 11


 144:log_task.c    ****     OS_ERR os_err;
 145:log_task.c    ****     LOG_MSG *log_msg;
 146:log_task.c    ****     CPU_CHAR formatted_msg[LOG_MSG_SIZE];
 147:log_task.c    **** 
 148:log_task.c    ****     /* Allocate memory for the log message */
 149:log_task.c    ****     log_msg = (LOG_MSG *)OSMemGet(&MsgMemPool, &os_err);
 412              		.loc 1 149 0
 413 0010 0DF15E01 		add	r1, sp, #94
 414              	.LVL39:
 415 0014 2448     		ldr	r0, .L41
 416              	.LVL40:
 417 0016 FFF7FEFF 		bl	OSMemGet
 418              	.LVL41:
 419 001a 0746     		mov	r7, r0
 420              	.LVL42:
 150:log_task.c    ****     if (os_err != OS_ERR_NONE) {
 421              		.loc 1 150 0
 422 001c BDF85E10 		ldrh	r1, [sp, #94]
 423 0020 19B1     		cbz	r1, .L33
 151:log_task.c    ****         Log_PrintErrorWithCode("Error: Failed to allocate memory for log message", os_err);
 424              		.loc 1 151 0
 425 0022 2248     		ldr	r0, .L41+4
 426              	.LVL43:
 427 0024 FFF7FEFF 		bl	Log_PrintErrorWithCode
 428              	.LVL44:
 152:log_task.c    ****         return;
 429              		.loc 1 152 0
 430 0028 3BE0     		b	.L31
 431              	.LVL45:
 432              	.L33:
 153:log_task.c    ****     }
 154:log_task.c    **** 
 155:log_task.c    ****     /* Set the log message level */
 156:log_task.c    ****     log_msg->level = level;
 433              		.loc 1 156 0
 434 002a 0470     		strb	r4, [r0]
 157:log_task.c    **** 
 158:log_task.c    ****     /* Format the message */
 159:log_task.c    ****     if (err_code != 0) {
 435              		.loc 1 159 0
 436 002c 3DB1     		cbz	r5, .L34
 160:log_task.c    ****         snprintf(formatted_msg, LOG_MSG_SIZE, "%s (Error Code: %u)", msg, err_code);  // Print erro
 437              		.loc 1 160 0
 438 002e 0095     		str	r5, [sp]
 439 0030 3346     		mov	r3, r6
 440 0032 1F4A     		ldr	r2, .L41+8
 441 0034 5021     		movs	r1, #80
 442 0036 03A8     		add	r0, sp, #12
 443              	.LVL46:
 444 0038 FFF7FEFF 		bl	snprintf
 445              	.LVL47:
 446 003c 07E0     		b	.L35
 447              	.LVL48:
 448              	.L34:
 161:log_task.c    ****     } else {
 162:log_task.c    ****         strncpy(formatted_msg, msg, LOG_MSG_SIZE - 1);
 449              		.loc 1 162 0
ARM GAS  C:\Users\CHRONI~1\AppData\Local\Temp\ccmRGrxv.s 			page 12


 450 003e 4F22     		movs	r2, #79
 451 0040 3146     		mov	r1, r6
 452 0042 03A8     		add	r0, sp, #12
 453              	.LVL49:
 454 0044 FFF7FEFF 		bl	strncpy
 455              	.LVL50:
 163:log_task.c    ****         formatted_msg[LOG_MSG_SIZE - 1] = '\0';  /* Ensure null termination */
 456              		.loc 1 163 0
 457 0048 0023     		movs	r3, #0
 458 004a 8DF85B30 		strb	r3, [sp, #91]
 459              	.L35:
 164:log_task.c    ****     }
 165:log_task.c    **** 
 166:log_task.c    ****     strncpy(log_msg->msg, formatted_msg, LOG_MSG_SIZE - 1);
 460              		.loc 1 166 0
 461 004e 4F22     		movs	r2, #79
 462 0050 03A9     		add	r1, sp, #12
 463 0052 781C     		adds	r0, r7, #1
 464 0054 FFF7FEFF 		bl	strncpy
 465              	.LVL51:
 167:log_task.c    ****     log_msg->msg[LOG_MSG_SIZE - 1] = '\0';  /* Ensure null termination */
 466              		.loc 1 167 0
 467 0058 0023     		movs	r3, #0
 468 005a 87F85030 		strb	r3, [r7, #80]
 168:log_task.c    **** 
 169:log_task.c    ****     /* Post the message to the queue */
 170:log_task.c    ****     OSQPost(&Log_Queue, (void *)log_msg, sizeof(LOG_MSG), OS_OPT_POST_FIFO, &os_err);
 469              		.loc 1 170 0
 470 005e 0DF15E02 		add	r2, sp, #94
 471 0062 0092     		str	r2, [sp]
 472 0064 5122     		movs	r2, #81
 473 0066 3946     		mov	r1, r7
 474 0068 1248     		ldr	r0, .L41+12
 475 006a FFF7FEFF 		bl	OSQPost
 476              	.LVL52:
 171:log_task.c    **** 
 172:log_task.c    ****     /* Handle errors in queue posting */
 173:log_task.c    ****     if (os_err == OS_ERR_Q_FULL) {
 477              		.loc 1 173 0
 478 006e BDF85E10 		ldrh	r1, [sp, #94]
 479 0072 46F29153 		movw	r3, #26001
 480 0076 9942     		cmp	r1, r3
 481 0078 09D1     		bne	.L36
 174:log_task.c    ****         Log_PrintErrorWithCode("Error: Log queue is full", os_err);
 482              		.loc 1 174 0
 483 007a 0F48     		ldr	r0, .L41+16
 484 007c FFF7FEFF 		bl	Log_PrintErrorWithCode
 485              	.LVL53:
 175:log_task.c    ****         OSMemPut(&MsgMemPool, (void *)log_msg, &os_err);  /* Release memory on failure */
 486              		.loc 1 175 0
 487 0080 0DF15E02 		add	r2, sp, #94
 488 0084 3946     		mov	r1, r7
 489 0086 0848     		ldr	r0, .L41
 490 0088 FFF7FEFF 		bl	OSMemPut
 491              	.LVL54:
 492 008c 09E0     		b	.L31
 493              	.L36:
ARM GAS  C:\Users\CHRONI~1\AppData\Local\Temp\ccmRGrxv.s 			page 13


 176:log_task.c    ****     } else if (os_err != OS_ERR_NONE) {
 494              		.loc 1 176 0
 495 008e 41B1     		cbz	r1, .L31
 177:log_task.c    ****         Log_PrintErrorWithCode("Error: Failed to post message to log queue", os_err);
 496              		.loc 1 177 0
 497 0090 0A48     		ldr	r0, .L41+20
 498 0092 FFF7FEFF 		bl	Log_PrintErrorWithCode
 499              	.LVL55:
 178:log_task.c    ****         OSMemPut(&MsgMemPool, (void *)log_msg, &os_err);  /* Release memory on failure */
 500              		.loc 1 178 0
 501 0096 0DF15E02 		add	r2, sp, #94
 502 009a 3946     		mov	r1, r7
 503 009c 0248     		ldr	r0, .L41
 504 009e FFF7FEFF 		bl	OSMemPut
 505              	.LVL56:
 506              	.L31:
 179:log_task.c    ****     }
 180:log_task.c    **** }
 507              		.loc 1 180 0
 508 00a2 19B0     		add	sp, sp, #100
 509              		.cfi_def_cfa_offset 20
 510              		@ sp needed
 511 00a4 F0BD     		pop	{r4, r5, r6, r7, pc}
 512              	.LVL57:
 513              	.L40:
 514              		.cfi_def_cfa_offset 0
 515              		.cfi_restore 4
 516              		.cfi_restore 5
 517              		.cfi_restore 6
 518              		.cfi_restore 7
 519              		.cfi_restore 14
 520 00a6 7047     		bx	lr
 521              	.L42:
 522              		.align	2
 523              	.L41:
 524 00a8 00000000 		.word	MsgMemPool
 525 00ac 48020000 		.word	.LC21
 526 00b0 28000000 		.word	.LC5
 527 00b4 00000000 		.word	Log_Queue
 528 00b8 7C020000 		.word	.LC22
 529 00bc 98020000 		.word	.LC23
 530              		.cfi_endproc
 531              	.LFE68:
 532              		.size	Log_Write, .-Log_Write
 533              		.comm	MsgMemPoolStorage,7056,4
 534              		.comm	MsgMemPool,32,4
 535              		.comm	LogTaskSem,40,4
 536              		.comm	Log_Queue,48,4
 537              		.comm	Log_TaskStk,2048,4
 538              		.comm	Log_Task_TCB,192,4
 539              		.section	.rodata.str1.4,"aMS",%progbits,1
 540              		.align	2
 541              	.LC0:
 542 0000 494E464F 		.ascii	"INFO\000"
 542      00
 543 0005 000000   		.space	3
 544              	.LC1:
ARM GAS  C:\Users\CHRONI~1\AppData\Local\Temp\ccmRGrxv.s 			page 14


 545 0008 5741524E 		.ascii	"WARNING\000"
 545      494E4700 
 546              	.LC2:
 547 0010 4552524F 		.ascii	"ERROR\000"
 547      5200
 548 0016 0000     		.space	2
 549              	.LC3:
 550 0018 44454255 		.ascii	"DEBUG\000"
 550      4700
 551 001e 0000     		.space	2
 552              	.LC4:
 553 0020 554E4B4E 		.ascii	"UNKNOWN\000"
 553      4F574E00 
 554              	.LC5:
 555 0028 25732028 		.ascii	"%s (Error Code: %u)\000"
 555      4572726F 
 555      7220436F 
 555      64653A20 
 555      25752900 
 556              	.LC6:
 557 003c 0D0A00   		.ascii	"\015\012\000"
 558 003f 00       		.space	1
 559              	.LC7:
 560 0040 4C6F6720 		.ascii	"Log task is creating the memory pool and queue.\015"
 560      7461736B 
 560      20697320 
 560      63726561 
 560      74696E67 
 561 0070 0A00     		.ascii	"\012\000"
 562 0072 0000     		.space	2
 563              	.LC8:
 564 0074 4C6F6720 		.ascii	"Log Message Pool\000"
 564      4D657373 
 564      61676520 
 564      506F6F6C 
 564      00
 565 0085 000000   		.space	3
 566              	.LC9:
 567 0088 4572726F 		.ascii	"Error: Failed to create log message pool\000"
 567      723A2046 
 567      61696C65 
 567      6420746F 
 567      20637265 
 568 00b1 000000   		.space	3
 569              	.LC10:
 570 00b4 4C6F6720 		.ascii	"Log message pool created successfully.\015\012\000"
 570      6D657373 
 570      61676520 
 570      706F6F6C 
 570      20637265 
 571 00dd 000000   		.space	3
 572              	.LC11:
 573 00e0 4C6F6720 		.ascii	"Log Queue\000"
 573      51756575 
 573      6500
 574 00ea 0000     		.space	2
 575              	.LC12:
ARM GAS  C:\Users\CHRONI~1\AppData\Local\Temp\ccmRGrxv.s 			page 15


 576 00ec 4572726F 		.ascii	"Error: Failed to create log queue\000"
 576      723A2046 
 576      61696C65 
 576      6420746F 
 576      20637265 
 577 010e 0000     		.space	2
 578              	.LC13:
 579 0110 4C6F6720 		.ascii	"Log queue created successfully.\015\012\000"
 579      71756575 
 579      65206372 
 579      65617465 
 579      64207375 
 580 0132 0000     		.space	2
 581              	.LC14:
 582 0134 3A2000   		.ascii	": \000"
 583 0137 00       		.space	1
 584              	.LC15:
 585 0138 4572726F 		.ascii	"Error: Failed to release memory for log message\000"
 585      723A2046 
 585      61696C65 
 585      6420746F 
 585      2072656C 
 586              	.LC16:
 587 0168 4572726F 		.ascii	"Error: Failed to retrieve message from log queue\000"
 587      723A2046 
 587      61696C65 
 587      6420746F 
 587      20726574 
 588 0199 000000   		.space	3
 589              	.LC17:
 590 019c 4C4F475F 		.ascii	"LOG_MSG size: %u bytes, Memory Pool Block size: %u "
 590      4D534720 
 590      73697A65 
 590      3A202575 
 590      20627974 
 591 01cf 62797465 		.ascii	"bytes, Total Pool Size: %u blocks\000"
 591      732C2054 
 591      6F74616C 
 591      20506F6F 
 591      6C205369 
 592 01f1 000000   		.space	3
 593              	.LC18:
 594 01f4 4C6F6720 		.ascii	"Log Task\000"
 594      5461736B 
 594      00
 595 01fd 000000   		.space	3
 596              	.LC19:
 597 0200 4C6F6720 		.ascii	"Log task created successfully.\015\012\000"
 597      7461736B 
 597      20637265 
 597      61746564 
 597      20737563 
 598 0221 000000   		.space	3
 599              	.LC20:
 600 0224 4572726F 		.ascii	"Error: Failed to create log task\000"
 600      723A2046 
 600      61696C65 
ARM GAS  C:\Users\CHRONI~1\AppData\Local\Temp\ccmRGrxv.s 			page 16


 600      6420746F 
 600      20637265 
 601 0245 000000   		.space	3
 602              	.LC21:
 603 0248 4572726F 		.ascii	"Error: Failed to allocate memory for log message\000"
 603      723A2046 
 603      61696C65 
 603      6420746F 
 603      20616C6C 
 604 0279 000000   		.space	3
 605              	.LC22:
 606 027c 4572726F 		.ascii	"Error: Log queue is full\000"
 606      723A204C 
 606      6F672071 
 606      75657565 
 606      20697320 
 607 0295 000000   		.space	3
 608              	.LC23:
 609 0298 4572726F 		.ascii	"Error: Failed to post message to log queue\000"
 609      723A2046 
 609      61696C65 
 609      6420746F 
 609      20706F73 
 610              		.text
 611              	.Letext0:
 612              		.file 2 "c:\\program files (x86)\\cypress\\psoc creator\\4.4\\psoc creator\\import\\gnu\\arm\\5.4.
 613              		.file 3 "c:\\program files (x86)\\cypress\\psoc creator\\4.4\\psoc creator\\import\\gnu\\arm\\5.4.
 614              		.file 4 ".\\uC-CPU\\ARM-Cortex-M3\\GNU/cpu.h"
 615              		.file 5 ".\\uC-CPU/cpu_core.h"
 616              		.file 6 ".\\uCOS-III\\Source/os_type.h"
 617              		.file 7 ".\\uCOS-III\\Source/os.h"
 618              		.file 8 "log_task.h"
 619              		.file 9 "Generated_Source\\PSoC5/core_cm3.h"
 620              		.file 10 "c:\\program files (x86)\\cypress\\psoc creator\\4.4\\psoc creator\\import\\gnu\\arm\\5.4
 621              		.file 11 "Generated_Source\\PSoC5/UART_1.h"
 622              		.file 12 "c:\\program files (x86)\\cypress\\psoc creator\\4.4\\psoc creator\\import\\gnu\\arm\\5.4