ARM GAS  C:\Users\CHRONI~1\AppData\Local\Temp\ccJY1fvo.s 			page 1


   1              		.syntax unified
   2              		.cpu cortex-m3
   3              		.fpu softvfp
   4              		.eabi_attribute 20, 1
   5              		.eabi_attribute 21, 1
   6              		.eabi_attribute 23, 3
   7              		.eabi_attribute 24, 1
   8              		.eabi_attribute 25, 1
   9              		.eabi_attribute 26, 1
  10              		.eabi_attribute 30, 1
  11              		.eabi_attribute 34, 1
  12              		.eabi_attribute 18, 4
  13              		.thumb
  14              		.syntax unified
  15              		.file	"max30102_interface.c"
  16              		.text
  17              	.Ltext0:
  18              		.cfi_sections	.debug_frame
  19              		.section	.text.bsp_delay_ms,"ax",%progbits
  20              		.align	2
  21              		.global	bsp_delay_ms
  22              		.thumb
  23              		.thumb_func
  24              		.type	bsp_delay_ms, %function
  25              	bsp_delay_ms:
  26              	.LFB66:
  27              		.file 1 "max30102_interface.c"
   1:max30102_interface.c **** #include "max30102_interface.h"
   2:max30102_interface.c **** #include "bsp_i2c.h"
   3:max30102_interface.c **** #include "log_task.h"
   4:max30102_interface.c **** #include "project.h"
   5:max30102_interface.c **** #include <stdarg.h>
   6:max30102_interface.c **** 
   7:max30102_interface.c **** 
   8:max30102_interface.c **** 
   9:max30102_interface.c **** /* Dummy I2C init and deinit */
  10:max30102_interface.c **** static uint8_t bsp_i2c_init(void) { 
  11:max30102_interface.c ****     Log_Write(LOG_LEVEL_DEBUG, "I2C init", 0);
  12:max30102_interface.c ****     return 0;  /* Return success */
  13:max30102_interface.c **** }
  14:max30102_interface.c **** 
  15:max30102_interface.c **** static uint8_t bsp_i2c_deinit(void) { 
  16:max30102_interface.c ****     Log_Write(LOG_LEVEL_DEBUG, "I2C deinit", 0);
  17:max30102_interface.c ****     return 0;  /* Return success */
  18:max30102_interface.c **** }
  19:max30102_interface.c **** void bsp_delay_ms(uint32_t ms) {
  28              		.loc 1 19 0
  29              		.cfi_startproc
  30              		@ args = 0, pretend = 0, frame = 8
  31              		@ frame_needed = 0, uses_anonymous_args = 0
  32              	.LVL0:
  33 0000 10B5     		push	{r4, lr}
  34              		.cfi_def_cfa_offset 8
  35              		.cfi_offset 4, -8
  36              		.cfi_offset 14, -4
  37 0002 84B0     		sub	sp, sp, #16
  38              		.cfi_def_cfa_offset 24
ARM GAS  C:\Users\CHRONI~1\AppData\Local\Temp\ccJY1fvo.s 			page 2


  39 0004 0146     		mov	r1, r0
  20:max30102_interface.c ****     OS_ERR err;
  21:max30102_interface.c ****     
  22:max30102_interface.c ****     /* Convert ms to hours, minutes, seconds, and milliseconds */
  23:max30102_interface.c ****     uint32_t hours = ms / 3600000;
  40              		.loc 1 23 0
  41 0006 144B     		ldr	r3, .L4
  42 0008 A3FB0023 		umull	r2, r3, r3, r0
  43 000c 580D     		lsrs	r0, r3, #21
  44              	.LVL1:
  24:max30102_interface.c ****     ms %= 3600000;
  45              		.loc 1 24 0
  46 000e 134A     		ldr	r2, .L4+4
  47 0010 02FB1012 		mls	r2, r2, r0, r1
  48              	.LVL2:
  25:max30102_interface.c ****     uint32_t minutes = ms / 60000;
  49              		.loc 1 25 0
  50 0014 1249     		ldr	r1, .L4+8
  51 0016 A1FB0231 		umull	r3, r1, r1, r2
  52 001a 890B     		lsrs	r1, r1, #14
  53              	.LVL3:
  26:max30102_interface.c ****     ms %= 60000;
  54              		.loc 1 26 0
  55 001c 4EF66023 		movw	r3, #60000
  56 0020 03FB1123 		mls	r3, r3, r1, r2
  57              	.LVL4:
  27:max30102_interface.c ****     uint32_t seconds = ms / 1000;
  58              		.loc 1 27 0
  59 0024 0F4A     		ldr	r2, .L4+12
  60 0026 A2FB0342 		umull	r4, r2, r2, r3
  61 002a 9209     		lsrs	r2, r2, #6
  62              	.LVL5:
  28:max30102_interface.c ****     ms %= 1000;
  29:max30102_interface.c **** 
  30:max30102_interface.c ****     OSTimeDlyHMSM(hours, minutes, seconds, ms, OS_OPT_TIME_HMSM_STRICT, &err);
  63              		.loc 1 30 0
  64 002c 0DF10E04 		add	r4, sp, #14
  65 0030 0194     		str	r4, [sp, #4]
  66 0032 0024     		movs	r4, #0
  67 0034 0094     		str	r4, [sp]
  68 0036 4FF47A74 		mov	r4, #1000
  69 003a 04FB1233 		mls	r3, r4, r2, r3
  70              	.LVL6:
  71 003e 92B2     		uxth	r2, r2
  72              	.LVL7:
  73 0040 89B2     		uxth	r1, r1
  74              	.LVL8:
  75 0042 FFF7FEFF 		bl	OSTimeDlyHMSM
  76              	.LVL9:
  31:max30102_interface.c ****     
  32:max30102_interface.c ****     if (err != OS_ERR_NONE) {
  77              		.loc 1 32 0
  78 0046 BDF80E20 		ldrh	r2, [sp, #14]
  79 004a 1AB1     		cbz	r2, .L1
  33:max30102_interface.c ****         Log_Write(LOG_LEVEL_ERROR, "Error in delay function", err);
  80              		.loc 1 33 0
  81 004c 0649     		ldr	r1, .L4+16
ARM GAS  C:\Users\CHRONI~1\AppData\Local\Temp\ccJY1fvo.s 			page 3


  82 004e 0420     		movs	r0, #4
  83 0050 FFF7FEFF 		bl	Log_Write
  84              	.LVL10:
  85              	.L1:
  34:max30102_interface.c ****     }
  35:max30102_interface.c **** }
  86              		.loc 1 35 0
  87 0054 04B0     		add	sp, sp, #16
  88              		.cfi_def_cfa_offset 8
  89              		@ sp needed
  90 0056 10BD     		pop	{r4, pc}
  91              	.L5:
  92              		.align	2
  93              	.L4:
  94 0058 B17C2195 		.word	-1792967503
  95 005c 80EE3600 		.word	3600000
  96 0060 73B2E745 		.word	1172812403
  97 0064 D34D6210 		.word	274877907
  98 0068 00000000 		.word	.LC0
  99              		.cfi_endproc
 100              	.LFE66:
 101              		.size	bsp_delay_ms, .-bsp_delay_ms
 102              		.section	.text.bsp_i2c_deinit,"ax",%progbits
 103              		.align	2
 104              		.thumb
 105              		.thumb_func
 106              		.type	bsp_i2c_deinit, %function
 107              	bsp_i2c_deinit:
 108              	.LFB65:
  15:max30102_interface.c ****     Log_Write(LOG_LEVEL_DEBUG, "I2C deinit", 0);
 109              		.loc 1 15 0
 110              		.cfi_startproc
 111              		@ args = 0, pretend = 0, frame = 0
 112              		@ frame_needed = 0, uses_anonymous_args = 0
 113 0000 08B5     		push	{r3, lr}
 114              		.cfi_def_cfa_offset 8
 115              		.cfi_offset 3, -8
 116              		.cfi_offset 14, -4
  16:max30102_interface.c ****     return 0;  /* Return success */
 117              		.loc 1 16 0
 118 0002 0022     		movs	r2, #0
 119 0004 0249     		ldr	r1, .L8
 120 0006 0820     		movs	r0, #8
 121 0008 FFF7FEFF 		bl	Log_Write
 122              	.LVL11:
  18:max30102_interface.c **** void bsp_delay_ms(uint32_t ms) {
 123              		.loc 1 18 0
 124 000c 0020     		movs	r0, #0
 125 000e 08BD     		pop	{r3, pc}
 126              	.L9:
 127              		.align	2
 128              	.L8:
 129 0010 18000000 		.word	.LC1
 130              		.cfi_endproc
 131              	.LFE65:
 132              		.size	bsp_i2c_deinit, .-bsp_i2c_deinit
 133              		.section	.text.bsp_i2c_init,"ax",%progbits
ARM GAS  C:\Users\CHRONI~1\AppData\Local\Temp\ccJY1fvo.s 			page 4


 134              		.align	2
 135              		.thumb
 136              		.thumb_func
 137              		.type	bsp_i2c_init, %function
 138              	bsp_i2c_init:
 139              	.LFB64:
  10:max30102_interface.c ****     Log_Write(LOG_LEVEL_DEBUG, "I2C init", 0);
 140              		.loc 1 10 0
 141              		.cfi_startproc
 142              		@ args = 0, pretend = 0, frame = 0
 143              		@ frame_needed = 0, uses_anonymous_args = 0
 144 0000 08B5     		push	{r3, lr}
 145              		.cfi_def_cfa_offset 8
 146              		.cfi_offset 3, -8
 147              		.cfi_offset 14, -4
  11:max30102_interface.c ****     return 0;  /* Return success */
 148              		.loc 1 11 0
 149 0002 0022     		movs	r2, #0
 150 0004 0249     		ldr	r1, .L12
 151 0006 0820     		movs	r0, #8
 152 0008 FFF7FEFF 		bl	Log_Write
 153              	.LVL12:
  13:max30102_interface.c **** 
 154              		.loc 1 13 0
 155 000c 0020     		movs	r0, #0
 156 000e 08BD     		pop	{r3, pc}
 157              	.L13:
 158              		.align	2
 159              	.L12:
 160 0010 24000000 		.word	.LC2
 161              		.cfi_endproc
 162              	.LFE64:
 163              		.size	bsp_i2c_init, .-bsp_i2c_init
 164              		.section	.text.bsp_debug_print,"ax",%progbits
 165              		.align	2
 166              		.global	bsp_debug_print
 167              		.thumb
 168              		.thumb_func
 169              		.type	bsp_debug_print, %function
 170              	bsp_debug_print:
 171              	.LFB67:
  36:max30102_interface.c **** /* Debug print function compatible with driver */
  37:max30102_interface.c **** void bsp_debug_print(const char *format, ...) {
 172              		.loc 1 37 0
 173              		.cfi_startproc
 174              		@ args = 4, pretend = 16, frame = 88
 175              		@ frame_needed = 0, uses_anonymous_args = 1
 176              	.LVL13:
 177 0000 0FB4     		push	{r0, r1, r2, r3}
 178              		.cfi_def_cfa_offset 16
 179              		.cfi_offset 0, -16
 180              		.cfi_offset 1, -12
 181              		.cfi_offset 2, -8
 182              		.cfi_offset 3, -4
 183 0002 00B5     		push	{lr}
 184              		.cfi_def_cfa_offset 20
 185              		.cfi_offset 14, -20
ARM GAS  C:\Users\CHRONI~1\AppData\Local\Temp\ccJY1fvo.s 			page 5


 186 0004 97B0     		sub	sp, sp, #92
 187              		.cfi_def_cfa_offset 112
 188 0006 18AB     		add	r3, sp, #96
 189 0008 53F8042B 		ldr	r2, [r3], #4
  38:max30102_interface.c ****     char buffer[LOG_MSG_SIZE];
  39:max30102_interface.c ****     va_list args;
  40:max30102_interface.c **** 
  41:max30102_interface.c ****     va_start(args, format);
 190              		.loc 1 41 0
 191 000c 0193     		str	r3, [sp, #4]
  42:max30102_interface.c ****     vsnprintf(buffer, sizeof(buffer), format, args);
 192              		.loc 1 42 0
 193 000e 5021     		movs	r1, #80
 194 0010 02A8     		add	r0, sp, #8
 195 0012 FFF7FEFF 		bl	vsnprintf
 196              	.LVL14:
  43:max30102_interface.c ****     va_end(args);
  44:max30102_interface.c **** 
  45:max30102_interface.c ****     UART_1_PutString(buffer);  /* Output the formatted message */
 197              		.loc 1 45 0
 198 0016 02A8     		add	r0, sp, #8
 199 0018 FFF7FEFF 		bl	UART_1_PutString
 200              	.LVL15:
  46:max30102_interface.c **** }
 201              		.loc 1 46 0
 202 001c 17B0     		add	sp, sp, #92
 203              		.cfi_def_cfa_offset 20
 204              		@ sp needed
 205 001e 5DF804EB 		ldr	lr, [sp], #4
 206              		.cfi_restore 14
 207              		.cfi_def_cfa_offset 16
 208 0022 04B0     		add	sp, sp, #16
 209              		.cfi_restore 3
 210              		.cfi_restore 2
 211              		.cfi_restore 1
 212              		.cfi_restore 0
 213              		.cfi_def_cfa_offset 0
 214 0024 7047     		bx	lr
 215              		.cfi_endproc
 216              	.LFE67:
 217              		.size	bsp_debug_print, .-bsp_debug_print
 218 0026 00BF     		.section	.text.max30102_receive_callback,"ax",%progbits
 219              		.align	2
 220              		.global	max30102_receive_callback
 221              		.thumb
 222              		.thumb_func
 223              		.type	max30102_receive_callback, %function
 224              	max30102_receive_callback:
 225              	.LFB68:
  47:max30102_interface.c **** void max30102_receive_callback(uint8_t type) {
 226              		.loc 1 47 0
 227              		.cfi_startproc
 228              		@ args = 0, pretend = 0, frame = 0
 229              		@ frame_needed = 0, uses_anonymous_args = 0
 230              	.LVL16:
 231 0000 08B5     		push	{r3, lr}
 232              		.cfi_def_cfa_offset 8
ARM GAS  C:\Users\CHRONI~1\AppData\Local\Temp\ccJY1fvo.s 			page 6


 233              		.cfi_offset 3, -8
 234              		.cfi_offset 14, -4
  48:max30102_interface.c ****     // This function is triggered when new data is received.
  49:max30102_interface.c **** 
  50:max30102_interface.c ****     // Assuming that 'type' indicates what data is being received:
  51:max30102_interface.c ****     // For instance, let's say:
  52:max30102_interface.c ****     // type == 1 -> temperature data
  53:max30102_interface.c ****     // type == 2 -> heart rate data
  54:max30102_interface.c ****     // type == 3 -> SpO2 data
  55:max30102_interface.c **** 
  56:max30102_interface.c ****     switch (type) {
 235              		.loc 1 56 0
 236 0002 0228     		cmp	r0, #2
 237 0004 07D0     		beq	.L18
 238 0006 0328     		cmp	r0, #3
 239 0008 09D0     		beq	.L19
 240 000a 0128     		cmp	r0, #1
 241 000c 0BD1     		bne	.L22
  57:max30102_interface.c ****         case 1:
  58:max30102_interface.c ****             // Handle temperature data
  59:max30102_interface.c ****             UART_1_PutString("Temperature data received.\r\n");
 242              		.loc 1 59 0
 243 000e 0848     		ldr	r0, .L24
 244              	.LVL17:
 245 0010 FFF7FEFF 		bl	UART_1_PutString
 246              	.LVL18:
  60:max30102_interface.c ****             break;
 247              		.loc 1 60 0
 248 0014 08BD     		pop	{r3, pc}
 249              	.LVL19:
 250              	.L18:
  61:max30102_interface.c ****         case 2:
  62:max30102_interface.c ****             // Handle heart rate data
  63:max30102_interface.c ****             UART_1_PutString("Heart rate data received.\r\n");
 251              		.loc 1 63 0
 252 0016 0748     		ldr	r0, .L24+4
 253              	.LVL20:
 254 0018 FFF7FEFF 		bl	UART_1_PutString
 255              	.LVL21:
  64:max30102_interface.c ****             break;
 256              		.loc 1 64 0
 257 001c 08BD     		pop	{r3, pc}
 258              	.LVL22:
 259              	.L19:
  65:max30102_interface.c ****         case 3:
  66:max30102_interface.c ****             // Handle SpO2 data
  67:max30102_interface.c ****             UART_1_PutString("SpO2 data received.\r\n");
 260              		.loc 1 67 0
 261 001e 0648     		ldr	r0, .L24+8
 262              	.LVL23:
 263 0020 FFF7FEFF 		bl	UART_1_PutString
 264              	.LVL24:
  68:max30102_interface.c ****             break;
 265              		.loc 1 68 0
 266 0024 08BD     		pop	{r3, pc}
 267              	.LVL25:
 268              	.L22:
ARM GAS  C:\Users\CHRONI~1\AppData\Local\Temp\ccJY1fvo.s 			page 7


  69:max30102_interface.c ****         default:
  70:max30102_interface.c ****             UART_1_PutString("Unknown data type received.\r\n");
 269              		.loc 1 70 0
 270 0026 0548     		ldr	r0, .L24+12
 271              	.LVL26:
 272 0028 FFF7FEFF 		bl	UART_1_PutString
 273              	.LVL27:
 274 002c 08BD     		pop	{r3, pc}
 275              	.L25:
 276 002e 00BF     		.align	2
 277              	.L24:
 278 0030 30000000 		.word	.LC3
 279 0034 50000000 		.word	.LC4
 280 0038 6C000000 		.word	.LC5
 281 003c 84000000 		.word	.LC6
 282              		.cfi_endproc
 283              	.LFE68:
 284              		.size	max30102_receive_callback, .-max30102_receive_callback
 285              		.section	.text.max30102_sensor_init,"ax",%progbits
 286              		.align	2
 287              		.global	max30102_sensor_init
 288              		.thumb
 289              		.thumb_func
 290              		.type	max30102_sensor_init, %function
 291              	max30102_sensor_init:
 292              	.LFB69:
  71:max30102_interface.c ****             break;
  72:max30102_interface.c ****     }
  73:max30102_interface.c **** 
  74:max30102_interface.c ****     // You can add further processing of the data based on the type.
  75:max30102_interface.c **** }
  76:max30102_interface.c **** /* Initialize the MAX30102 driver */
  77:max30102_interface.c **** uint8_t max30102_sensor_init(max30102_handle_t* max30102_handle) {
 293              		.loc 1 77 0
 294              		.cfi_startproc
 295              		@ args = 0, pretend = 0, frame = 0
 296              		@ frame_needed = 0, uses_anonymous_args = 0
 297              	.LVL28:
 298 0000 38B5     		push	{r3, r4, r5, lr}
 299              		.cfi_def_cfa_offset 16
 300              		.cfi_offset 3, -16
 301              		.cfi_offset 4, -12
 302              		.cfi_offset 5, -8
 303              		.cfi_offset 14, -4
 304 0002 0446     		mov	r4, r0
  78:max30102_interface.c ****     uint8_t res;
  79:max30102_interface.c ****     
  80:max30102_interface.c ****     UART_1_PutString("We are in sensor init\r\n");
 305              		.loc 1 80 0
 306 0004 4C48     		ldr	r0, .L36
 307              	.LVL29:
 308 0006 FFF7FEFF 		bl	UART_1_PutString
 309              	.LVL30:
  81:max30102_interface.c **** 
  82:max30102_interface.c ****     UART_1_PutString("Linked handler\r\n");
 310              		.loc 1 82 0
 311 000a 4C48     		ldr	r0, .L36+4
ARM GAS  C:\Users\CHRONI~1\AppData\Local\Temp\ccJY1fvo.s 			page 8


 312 000c FFF7FEFF 		bl	UART_1_PutString
 313              	.LVL31:
  83:max30102_interface.c ****     // Link I2C functions
  84:max30102_interface.c ****     DRIVER_MAX30102_LINK_IIC_INIT(max30102_handle, bsp_i2c_init);
 314              		.loc 1 84 0
 315 0010 4B4B     		ldr	r3, .L36+8
 316 0012 2360     		str	r3, [r4]
  85:max30102_interface.c ****     DRIVER_MAX30102_LINK_IIC_DEINIT(max30102_handle, bsp_i2c_deinit);
 317              		.loc 1 85 0
 318 0014 4B4B     		ldr	r3, .L36+12
 319 0016 6360     		str	r3, [r4, #4]
  86:max30102_interface.c ****     DRIVER_MAX30102_LINK_IIC_READ(max30102_handle, bsp_i2c_read);
 320              		.loc 1 86 0
 321 0018 4B4B     		ldr	r3, .L36+16
 322 001a A360     		str	r3, [r4, #8]
  87:max30102_interface.c ****     DRIVER_MAX30102_LINK_IIC_WRITE(max30102_handle, bsp_i2c_write);
 323              		.loc 1 87 0
 324 001c 4B4B     		ldr	r3, .L36+20
 325 001e E360     		str	r3, [r4, #12]
  88:max30102_interface.c ****     DRIVER_MAX30102_LINK_RECEIVE_CALLBACK(max30102_handle, max30102_receive_callback);
 326              		.loc 1 88 0
 327 0020 4B4B     		ldr	r3, .L36+24
 328 0022 2361     		str	r3, [r4, #16]
  89:max30102_interface.c ****     // Link delay and debug print functions
  90:max30102_interface.c ****     DRIVER_MAX30102_LINK_DELAY_MS(max30102_handle, bsp_delay_ms);
 329              		.loc 1 90 0
 330 0024 4B4B     		ldr	r3, .L36+28
 331 0026 6361     		str	r3, [r4, #20]
  91:max30102_interface.c ****     DRIVER_MAX30102_LINK_DEBUG_PRINT(max30102_handle, bsp_debug_print);
 332              		.loc 1 91 0
 333 0028 4B4B     		ldr	r3, .L36+32
 334 002a A361     		str	r3, [r4, #24]
  92:max30102_interface.c **** 
  93:max30102_interface.c ****     Log_Write(LOG_LEVEL_INFO, "Initializing and configuring MAX30102 sensor", 0);
 335              		.loc 1 93 0
 336 002c 0022     		movs	r2, #0
 337 002e 4B49     		ldr	r1, .L36+36
 338 0030 0120     		movs	r0, #1
 339 0032 FFF7FEFF 		bl	Log_Write
 340              	.LVL32:
  94:max30102_interface.c ****     // Initialize the sensor
  95:max30102_interface.c ****     UART_1_PutString("Attempting sensor initialization...\r\n");
 341              		.loc 1 95 0
 342 0036 4A48     		ldr	r0, .L36+40
 343 0038 FFF7FEFF 		bl	UART_1_PutString
 344              	.LVL33:
  96:max30102_interface.c ****     res = max30102_init(max30102_handle);  // This is critical for proper sensor initialization
 345              		.loc 1 96 0
 346 003c 2046     		mov	r0, r4
 347 003e FFF7FEFF 		bl	max30102_init
 348              	.LVL34:
  97:max30102_interface.c ****     if (res != 0) {
 349              		.loc 1 97 0
 350 0042 38B1     		cbz	r0, .L27
 351 0044 0546     		mov	r5, r0
  98:max30102_interface.c ****         Log_Write(LOG_LEVEL_ERROR, "Failed to initialize MAX30102 sensor", res);
 352              		.loc 1 98 0
ARM GAS  C:\Users\CHRONI~1\AppData\Local\Temp\ccJY1fvo.s 			page 9


 353 0046 0246     		mov	r2, r0
 354 0048 4649     		ldr	r1, .L36+44
 355 004a 0420     		movs	r0, #4
 356              	.LVL35:
 357 004c FFF7FEFF 		bl	Log_Write
 358              	.LVL36:
  99:max30102_interface.c ****         return res;
 359              		.loc 1 99 0
 360 0050 2846     		mov	r0, r5
 361 0052 38BD     		pop	{r3, r4, r5, pc}
 362              	.LVL37:
 363              	.L27:
 100:max30102_interface.c ****     }
 101:max30102_interface.c ****     UART_1_PutString("Sensor initialization successful.\r\n");
 364              		.loc 1 101 0
 365 0054 4448     		ldr	r0, .L36+48
 366              	.LVL38:
 367 0056 FFF7FEFF 		bl	UART_1_PutString
 368              	.LVL39:
 102:max30102_interface.c **** 
 103:max30102_interface.c ****     // Configure the sensor's settings (Mode, SpO2 settings, etc.)
 104:max30102_interface.c ****     Log_Write(LOG_LEVEL_DEBUG, "Setting sensor mode to SPO2...\r\n",0);
 369              		.loc 1 104 0
 370 005a 0022     		movs	r2, #0
 371 005c 4349     		ldr	r1, .L36+52
 372 005e 0820     		movs	r0, #8
 373 0060 FFF7FEFF 		bl	Log_Write
 374              	.LVL40:
 105:max30102_interface.c ****     res = max30102_set_mode(max30102_handle, MAX30102_MODE_SPO2);
 375              		.loc 1 105 0
 376 0064 0321     		movs	r1, #3
 377 0066 2046     		mov	r0, r4
 378 0068 FFF7FEFF 		bl	max30102_set_mode
 379              	.LVL41:
 106:max30102_interface.c ****     if (res != 0) {
 380              		.loc 1 106 0
 381 006c 0546     		mov	r5, r0
 382 006e 30B1     		cbz	r0, .L29
 107:max30102_interface.c ****         Log_Write(LOG_LEVEL_ERROR, "Failed to set sensor mode", res);
 383              		.loc 1 107 0
 384 0070 0246     		mov	r2, r0
 385 0072 3F49     		ldr	r1, .L36+56
 386 0074 0420     		movs	r0, #4
 387              	.LVL42:
 388 0076 FFF7FEFF 		bl	Log_Write
 389              	.LVL43:
 108:max30102_interface.c ****         return res;
 390              		.loc 1 108 0
 391 007a 2846     		mov	r0, r5
 392 007c 38BD     		pop	{r3, r4, r5, pc}
 393              	.LVL44:
 394              	.L29:
 109:max30102_interface.c ****     }
 110:max30102_interface.c **** 
 111:max30102_interface.c ****     Log_Write(LOG_LEVEL_DEBUG, "Configuring SPO2 ADC range...\r\n",0);
 395              		.loc 1 111 0
 396 007e 0022     		movs	r2, #0
ARM GAS  C:\Users\CHRONI~1\AppData\Local\Temp\ccJY1fvo.s 			page 10


 397 0080 3C49     		ldr	r1, .L36+60
 398 0082 0820     		movs	r0, #8
 399              	.LVL45:
 400 0084 FFF7FEFF 		bl	Log_Write
 401              	.LVL46:
 112:max30102_interface.c ****     res = max30102_set_spo2_adc_range(max30102_handle, MAX30102_SPO2_ADC_RANGE_16384);
 402              		.loc 1 112 0
 403 0088 0321     		movs	r1, #3
 404 008a 2046     		mov	r0, r4
 405 008c FFF7FEFF 		bl	max30102_set_spo2_adc_range
 406              	.LVL47:
 113:max30102_interface.c ****     if (res != 0) {
 407              		.loc 1 113 0
 408 0090 0546     		mov	r5, r0
 409 0092 30B1     		cbz	r0, .L30
 114:max30102_interface.c ****         Log_Write(LOG_LEVEL_ERROR, "Failed to configure SPO2 ADC range", res);
 410              		.loc 1 114 0
 411 0094 0246     		mov	r2, r0
 412 0096 3849     		ldr	r1, .L36+64
 413 0098 0420     		movs	r0, #4
 414              	.LVL48:
 415 009a FFF7FEFF 		bl	Log_Write
 416              	.LVL49:
 115:max30102_interface.c ****         return res;
 417              		.loc 1 115 0
 418 009e 2846     		mov	r0, r5
 419 00a0 38BD     		pop	{r3, r4, r5, pc}
 420              	.LVL50:
 421              	.L30:
 116:max30102_interface.c ****     }
 117:max30102_interface.c **** 
 118:max30102_interface.c ****     Log_Write(LOG_LEVEL_DEBUG, "Configuring SPO2 sample rate...\r\n",0);
 422              		.loc 1 118 0
 423 00a2 0022     		movs	r2, #0
 424 00a4 3549     		ldr	r1, .L36+68
 425 00a6 0820     		movs	r0, #8
 426              	.LVL51:
 427 00a8 FFF7FEFF 		bl	Log_Write
 428              	.LVL52:
 119:max30102_interface.c ****     res = max30102_set_spo2_sample_rate(max30102_handle, MAX30102_SPO2_SAMPLE_RATE_100_HZ);
 429              		.loc 1 119 0
 430 00ac 0121     		movs	r1, #1
 431 00ae 2046     		mov	r0, r4
 432 00b0 FFF7FEFF 		bl	max30102_set_spo2_sample_rate
 433              	.LVL53:
 120:max30102_interface.c ****     if (res != 0) {
 434              		.loc 1 120 0
 435 00b4 0546     		mov	r5, r0
 436 00b6 30B1     		cbz	r0, .L31
 121:max30102_interface.c ****         Log_Write(LOG_LEVEL_ERROR, "Failed to configure SPO2 sample rate", res);
 437              		.loc 1 121 0
 438 00b8 0246     		mov	r2, r0
 439 00ba 3149     		ldr	r1, .L36+72
 440 00bc 0420     		movs	r0, #4
 441              	.LVL54:
 442 00be FFF7FEFF 		bl	Log_Write
 443              	.LVL55:
ARM GAS  C:\Users\CHRONI~1\AppData\Local\Temp\ccJY1fvo.s 			page 11


 122:max30102_interface.c ****         return res;
 444              		.loc 1 122 0
 445 00c2 2846     		mov	r0, r5
 446 00c4 38BD     		pop	{r3, r4, r5, pc}
 447              	.LVL56:
 448              	.L31:
 123:max30102_interface.c ****     }
 124:max30102_interface.c **** 
 125:max30102_interface.c ****     Log_Write(LOG_LEVEL_DEBUG, "Configuring ADC resolution...\r\n",0);
 449              		.loc 1 125 0
 450 00c6 0022     		movs	r2, #0
 451 00c8 2E49     		ldr	r1, .L36+76
 452 00ca 0820     		movs	r0, #8
 453              	.LVL57:
 454 00cc FFF7FEFF 		bl	Log_Write
 455              	.LVL58:
 126:max30102_interface.c ****     res = max30102_set_adc_resolution(max30102_handle, MAX30102_ADC_RESOLUTION_18_BIT);
 456              		.loc 1 126 0
 457 00d0 0321     		movs	r1, #3
 458 00d2 2046     		mov	r0, r4
 459 00d4 FFF7FEFF 		bl	max30102_set_adc_resolution
 460              	.LVL59:
 127:max30102_interface.c ****     if (res != 0) {
 461              		.loc 1 127 0
 462 00d8 0546     		mov	r5, r0
 463 00da 30B1     		cbz	r0, .L32
 128:max30102_interface.c ****         Log_Write(LOG_LEVEL_ERROR, "Failed to configure ADC resolution", res);
 464              		.loc 1 128 0
 465 00dc 0246     		mov	r2, r0
 466 00de 2A49     		ldr	r1, .L36+80
 467 00e0 0420     		movs	r0, #4
 468              	.LVL60:
 469 00e2 FFF7FEFF 		bl	Log_Write
 470              	.LVL61:
 129:max30102_interface.c ****         return res;
 471              		.loc 1 129 0
 472 00e6 2846     		mov	r0, r5
 473 00e8 38BD     		pop	{r3, r4, r5, pc}
 474              	.LVL62:
 475              	.L32:
 130:max30102_interface.c ****     }
 131:max30102_interface.c **** 
 132:max30102_interface.c ****     Log_Write(LOG_LEVEL_DEBUG, "Setting LED pulse amplitudes...\r\n",0);
 476              		.loc 1 132 0
 477 00ea 0022     		movs	r2, #0
 478 00ec 2749     		ldr	r1, .L36+84
 479 00ee 0820     		movs	r0, #8
 480              	.LVL63:
 481 00f0 FFF7FEFF 		bl	Log_Write
 482              	.LVL64:
 133:max30102_interface.c ****     res = max30102_set_led_red_pulse_amplitude(max30102_handle, 0x24);
 483              		.loc 1 133 0
 484 00f4 2421     		movs	r1, #36
 485 00f6 2046     		mov	r0, r4
 486 00f8 FFF7FEFF 		bl	max30102_set_led_red_pulse_amplitude
 487              	.LVL65:
 134:max30102_interface.c ****     if (res != 0) {
ARM GAS  C:\Users\CHRONI~1\AppData\Local\Temp\ccJY1fvo.s 			page 12


 488              		.loc 1 134 0
 489 00fc 0546     		mov	r5, r0
 490 00fe 30B1     		cbz	r0, .L33
 135:max30102_interface.c ****         Log_Write(LOG_LEVEL_ERROR, "Failed to set Red LED pulse amplitude", res);
 491              		.loc 1 135 0
 492 0100 0246     		mov	r2, r0
 493 0102 2349     		ldr	r1, .L36+88
 494 0104 0420     		movs	r0, #4
 495              	.LVL66:
 496 0106 FFF7FEFF 		bl	Log_Write
 497              	.LVL67:
 136:max30102_interface.c ****         return res;
 498              		.loc 1 136 0
 499 010a 2846     		mov	r0, r5
 500 010c 38BD     		pop	{r3, r4, r5, pc}
 501              	.LVL68:
 502              	.L33:
 137:max30102_interface.c ****     }
 138:max30102_interface.c **** 
 139:max30102_interface.c ****     res = max30102_set_led_ir_pulse_amplitude(max30102_handle, 0x24);
 503              		.loc 1 139 0
 504 010e 2421     		movs	r1, #36
 505 0110 2046     		mov	r0, r4
 506              	.LVL69:
 507 0112 FFF7FEFF 		bl	max30102_set_led_ir_pulse_amplitude
 508              	.LVL70:
 140:max30102_interface.c ****     if (res != 0) {
 509              		.loc 1 140 0
 510 0116 0446     		mov	r4, r0
 511              	.LVL71:
 512 0118 30B1     		cbz	r0, .L34
 141:max30102_interface.c ****         Log_Write(LOG_LEVEL_ERROR, "Failed to set IR LED pulse amplitude", res);
 513              		.loc 1 141 0
 514 011a 0246     		mov	r2, r0
 515 011c 1D49     		ldr	r1, .L36+92
 516 011e 0420     		movs	r0, #4
 517              	.LVL72:
 518 0120 FFF7FEFF 		bl	Log_Write
 519              	.LVL73:
 142:max30102_interface.c ****         return res;
 520              		.loc 1 142 0
 521 0124 2046     		mov	r0, r4
 522 0126 38BD     		pop	{r3, r4, r5, pc}
 523              	.LVL74:
 524              	.L34:
 143:max30102_interface.c ****     }
 144:max30102_interface.c **** 
 145:max30102_interface.c ****     Log_Write(LOG_LEVEL_INFO, "MAX30102 sensor initialized and configured successfully", 0);
 525              		.loc 1 145 0
 526 0128 0022     		movs	r2, #0
 527 012a 1B49     		ldr	r1, .L36+96
 528 012c 0120     		movs	r0, #1
 529              	.LVL75:
 530 012e FFF7FEFF 		bl	Log_Write
 531              	.LVL76:
 146:max30102_interface.c ****     return 0;
 532              		.loc 1 146 0
ARM GAS  C:\Users\CHRONI~1\AppData\Local\Temp\ccJY1fvo.s 			page 13


 533 0132 0020     		movs	r0, #0
 147:max30102_interface.c **** }
 534              		.loc 1 147 0
 535 0134 38BD     		pop	{r3, r4, r5, pc}
 536              	.L37:
 537 0136 00BF     		.align	2
 538              	.L36:
 539 0138 A4000000 		.word	.LC7
 540 013c BC000000 		.word	.LC8
 541 0140 00000000 		.word	bsp_i2c_init
 542 0144 00000000 		.word	bsp_i2c_deinit
 543 0148 00000000 		.word	bsp_i2c_read
 544 014c 00000000 		.word	bsp_i2c_write
 545 0150 00000000 		.word	max30102_receive_callback
 546 0154 00000000 		.word	bsp_delay_ms
 547 0158 00000000 		.word	bsp_debug_print
 548 015c D0000000 		.word	.LC9
 549 0160 00010000 		.word	.LC10
 550 0164 28010000 		.word	.LC11
 551 0168 50010000 		.word	.LC12
 552 016c 74010000 		.word	.LC13
 553 0170 98010000 		.word	.LC14
 554 0174 B4010000 		.word	.LC15
 555 0178 D4010000 		.word	.LC16
 556 017c F8010000 		.word	.LC17
 557 0180 1C020000 		.word	.LC18
 558 0184 44020000 		.word	.LC19
 559 0188 64020000 		.word	.LC20
 560 018c 88020000 		.word	.LC21
 561 0190 AC020000 		.word	.LC22
 562 0194 D4020000 		.word	.LC23
 563 0198 FC020000 		.word	.LC24
 564              		.cfi_endproc
 565              	.LFE69:
 566              		.size	max30102_sensor_init, .-max30102_sensor_init
 567              		.section	.rodata.str1.4,"aMS",%progbits,1
 568              		.align	2
 569              	.LC0:
 570 0000 4572726F 		.ascii	"Error in delay function\000"
 570      7220696E 
 570      2064656C 
 570      61792066 
 570      756E6374 
 571              	.LC1:
 572 0018 49324320 		.ascii	"I2C deinit\000"
 572      6465696E 
 572      697400
 573 0023 00       		.space	1
 574              	.LC2:
 575 0024 49324320 		.ascii	"I2C init\000"
 575      696E6974 
 575      00
 576 002d 000000   		.space	3
 577              	.LC3:
 578 0030 54656D70 		.ascii	"Temperature data received.\015\012\000"
 578      65726174 
 578      75726520 
ARM GAS  C:\Users\CHRONI~1\AppData\Local\Temp\ccJY1fvo.s 			page 14


 578      64617461 
 578      20726563 
 579 004d 000000   		.space	3
 580              	.LC4:
 581 0050 48656172 		.ascii	"Heart rate data received.\015\012\000"
 581      74207261 
 581      74652064 
 581      61746120 
 581      72656365 
 582              	.LC5:
 583 006c 53704F32 		.ascii	"SpO2 data received.\015\012\000"
 583      20646174 
 583      61207265 
 583      63656976 
 583      65642E0D 
 584 0082 0000     		.space	2
 585              	.LC6:
 586 0084 556E6B6E 		.ascii	"Unknown data type received.\015\012\000"
 586      6F776E20 
 586      64617461 
 586      20747970 
 586      65207265 
 587 00a2 0000     		.space	2
 588              	.LC7:
 589 00a4 57652061 		.ascii	"We are in sensor init\015\012\000"
 589      72652069 
 589      6E207365 
 589      6E736F72 
 589      20696E69 
 590              	.LC8:
 591 00bc 4C696E6B 		.ascii	"Linked handler\015\012\000"
 591      65642068 
 591      616E646C 
 591      65720D0A 
 591      00
 592 00cd 000000   		.space	3
 593              	.LC9:
 594 00d0 496E6974 		.ascii	"Initializing and configuring MAX30102 sensor\000"
 594      69616C69 
 594      7A696E67 
 594      20616E64 
 594      20636F6E 
 595 00fd 000000   		.space	3
 596              	.LC10:
 597 0100 41747465 		.ascii	"Attempting sensor initialization...\015\012\000"
 597      6D707469 
 597      6E672073 
 597      656E736F 
 597      7220696E 
 598 0126 0000     		.space	2
 599              	.LC11:
 600 0128 4661696C 		.ascii	"Failed to initialize MAX30102 sensor\000"
 600      65642074 
 600      6F20696E 
 600      69746961 
 600      6C697A65 
 601 014d 000000   		.space	3
ARM GAS  C:\Users\CHRONI~1\AppData\Local\Temp\ccJY1fvo.s 			page 15


 602              	.LC12:
 603 0150 53656E73 		.ascii	"Sensor initialization successful.\015\012\000"
 603      6F722069 
 603      6E697469 
 603      616C697A 
 603      6174696F 
 604              	.LC13:
 605 0174 53657474 		.ascii	"Setting sensor mode to SPO2...\015\012\000"
 605      696E6720 
 605      73656E73 
 605      6F72206D 
 605      6F646520 
 606 0195 000000   		.space	3
 607              	.LC14:
 608 0198 4661696C 		.ascii	"Failed to set sensor mode\000"
 608      65642074 
 608      6F207365 
 608      74207365 
 608      6E736F72 
 609 01b2 0000     		.space	2
 610              	.LC15:
 611 01b4 436F6E66 		.ascii	"Configuring SPO2 ADC range...\015\012\000"
 611      69677572 
 611      696E6720 
 611      53504F32 
 611      20414443 
 612              	.LC16:
 613 01d4 4661696C 		.ascii	"Failed to configure SPO2 ADC range\000"
 613      65642074 
 613      6F20636F 
 613      6E666967 
 613      75726520 
 614 01f7 00       		.space	1
 615              	.LC17:
 616 01f8 436F6E66 		.ascii	"Configuring SPO2 sample rate...\015\012\000"
 616      69677572 
 616      696E6720 
 616      53504F32 
 616      2073616D 
 617 021a 0000     		.space	2
 618              	.LC18:
 619 021c 4661696C 		.ascii	"Failed to configure SPO2 sample rate\000"
 619      65642074 
 619      6F20636F 
 619      6E666967 
 619      75726520 
 620 0241 000000   		.space	3
 621              	.LC19:
 622 0244 436F6E66 		.ascii	"Configuring ADC resolution...\015\012\000"
 622      69677572 
 622      696E6720 
 622      41444320 
 622      7265736F 
 623              	.LC20:
 624 0264 4661696C 		.ascii	"Failed to configure ADC resolution\000"
 624      65642074 
 624      6F20636F 
ARM GAS  C:\Users\CHRONI~1\AppData\Local\Temp\ccJY1fvo.s 			page 16


 624      6E666967 
 624      75726520 
 625 0287 00       		.space	1
 626              	.LC21:
 627 0288 53657474 		.ascii	"Setting LED pulse amplitudes...\015\012\000"
 627      696E6720 
 627      4C454420 
 627      70756C73 
 627      6520616D 
 628 02aa 0000     		.space	2
 629              	.LC22:
 630 02ac 4661696C 		.ascii	"Failed to set Red LED pulse amplitude\000"
 630      65642074 
 630      6F207365 
 630      74205265 
 630      64204C45 
 631 02d2 0000     		.space	2
 632              	.LC23:
 633 02d4 4661696C 		.ascii	"Failed to set IR LED pulse amplitude\000"
 633      65642074 
 633      6F207365 
 633      74204952 
 633      204C4544 
 634 02f9 000000   		.space	3
 635              	.LC24:
 636 02fc 4D415833 		.ascii	"MAX30102 sensor initialized and configured successf"
 636      30313032 
 636      2073656E 
 636      736F7220 
 636      696E6974 
 637 032f 756C6C79 		.ascii	"ully\000"
 637      00
 638              		.text
 639              	.Letext0:
 640              		.file 2 "c:\\program files (x86)\\cypress\\psoc creator\\4.4\\psoc creator\\import\\gnu\\arm\\5.4.
 641              		.file 3 "c:\\program files (x86)\\cypress\\psoc creator\\4.4\\psoc creator\\import\\gnu\\arm\\5.4.
 642              		.file 4 "c:\\program files (x86)\\cypress\\psoc creator\\4.4\\psoc creator\\import\\gnu\\arm\\5.4.
 643              		.file 5 ".\\SensorLib/max30102/driver_max30102.h"
 644              		.file 6 "<built-in>"
 645              		.file 7 ".\\uC-CPU\\ARM-Cortex-M3\\GNU/cpu.h"
 646              		.file 8 ".\\uCOS-III\\Source/os_type.h"
 647              		.file 9 ".\\uCOS-III\\Source/os.h"
 648              		.file 10 "log_task.h"
 649              		.file 11 "c:\\program files (x86)\\cypress\\psoc creator\\4.4\\psoc creator\\import\\gnu\\arm\\5.4
 650              		.file 12 "Generated_Source\\PSoC5/UART_1.h"
 651              		.file 13 "Generated_Source\\PSoC5/core_cm3.h"