ARM GAS  C:\Users\CHRONI~1\AppData\Local\Temp\ccBhZuy9.s 			page 1


   1              		.syntax unified
   2              		.cpu cortex-m3
   3              		.fpu softvfp
   4              		.eabi_attribute 20, 1
   5              		.eabi_attribute 21, 1
   6              		.eabi_attribute 23, 3
   7              		.eabi_attribute 24, 1
   8              		.eabi_attribute 25, 1
   9              		.eabi_attribute 26, 1
  10              		.eabi_attribute 30, 1
  11              		.eabi_attribute 34, 1
  12              		.eabi_attribute 18, 4
  13              		.thumb
  14              		.syntax unified
  15              		.file	"app.c"
  16              		.text
  17              	.Ltext0:
  18              		.cfi_sections	.debug_frame
  19              		.section	.text.App_TaskStart,"ax",%progbits
  20              		.align	2
  21              		.thumb
  22              		.thumb_func
  23              		.type	App_TaskStart, %function
  24              	App_TaskStart:
  25              	.LFB65:
  26              		.file 1 "APP\\app.c"
   1:APP/app.c     **** /*
   2:APP/app.c     **** ***************************************************************************************************
   3:APP/app.c     **** *
   4:APP/app.c     **** *                                       MES1 Embedded Software (RTOS)
   5:APP/app.c     **** *
   6:APP/app.c     **** * Filename      : app.c
   7:APP/app.c     **** * Version       : V1.00
   8:APP/app.c     **** * Programmer(s) : Beneder Roman
   9:APP/app.c     ****                   
  10:APP/app.c     **** ***************************************************************************************************
  11:APP/app.c     **** */
  12:APP/app.c     **** 
  13:APP/app.c     **** #include <project.h>
  14:APP/app.c     **** #include <includes.h>
  15:APP/app.c     **** #include "log_task.h"  /* Include the log task header */
  16:APP/app.c     **** #include "data_processing_task.h" /* Include the data processing task header */
  17:APP/app.c     **** #include <heartbeatSensor.h>
  18:APP/app.c     **** #include <environmentSensor.h>
  19:APP/app.c     **** /*
  20:APP/app.c     **** ***************************************************************************************************
  21:APP/app.c     **** *                                             LOCAL DEFINES
  22:APP/app.c     **** ***************************************************************************************************
  23:APP/app.c     **** */
  24:APP/app.c     **** 
  25:APP/app.c     **** #define  USE_BSP_TOGGLE                             1u
  26:APP/app.c     **** 
  27:APP/app.c     **** /*
  28:APP/app.c     **** ***************************************************************************************************
  29:APP/app.c     **** *                                            LOCAL VARIABLES
  30:APP/app.c     **** ***************************************************************************************************
  31:APP/app.c     **** */
ARM GAS  C:\Users\CHRONI~1\AppData\Local\Temp\ccBhZuy9.s 			page 2


  32:APP/app.c     **** static OS_TCB App_TaskStartTCB;
  33:APP/app.c     **** static CPU_STK App_TaskStartStk[APP_CFG_TASK_START_STK_SIZE];
  34:APP/app.c     **** 
  35:APP/app.c     **** /*
  36:APP/app.c     **** ***************************************************************************************************
  37:APP/app.c     **** *                                         FUNCTION PROTOTYPES
  38:APP/app.c     **** ***************************************************************************************************
  39:APP/app.c     **** */
  40:APP/app.c     **** 
  41:APP/app.c     **** static void App_TaskStart(void *p_arg);
  42:APP/app.c     **** 
  43:APP/app.c     **** /*
  44:APP/app.c     **** ***************************************************************************************************
  45:APP/app.c     **** *                                                main()
  46:APP/app.c     **** ***************************************************************************************************
  47:APP/app.c     **** */
  48:APP/app.c     **** 
  49:APP/app.c     **** int main(void)
  50:APP/app.c     **** {
  51:APP/app.c     ****     OS_ERR os_err;
  52:APP/app.c     **** 
  53:APP/app.c     ****     BSP_PreInit();
  54:APP/app.c     ****     CPU_Init();
  55:APP/app.c     ****     /* Init OS */
  56:APP/app.c     ****     OSInit(&os_err);
  57:APP/app.c     ****     CyGlobalIntEnable; // Enable global interrupts
  58:APP/app.c     ****     /* Start OS multitasking */
  59:APP/app.c     ****     OSTaskCreate((OS_TCB      *)&App_TaskStartTCB,              
  60:APP/app.c     ****                  (CPU_CHAR    *)"Start",
  61:APP/app.c     ****                  (OS_TASK_PTR  )App_TaskStart, 
  62:APP/app.c     ****                  (void        *)0,
  63:APP/app.c     ****                  (OS_PRIO      )APP_CFG_TASK_START_PRIO,
  64:APP/app.c     ****                  (CPU_STK     *)&App_TaskStartStk[0],
  65:APP/app.c     ****                  (CPU_STK_SIZE )APP_CFG_TASK_START_STK_SIZE_LIMIT,
  66:APP/app.c     ****                  (CPU_STK_SIZE )APP_CFG_TASK_START_STK_SIZE,
  67:APP/app.c     ****                  (OS_MSG_QTY   )0u,
  68:APP/app.c     ****                  (OS_TICK      )0u,
  69:APP/app.c     ****                  (void        *)0,
  70:APP/app.c     ****                  (OS_OPT       )(OS_OPT_TASK_STK_CHK | OS_OPT_TASK_STK_CLR),
  71:APP/app.c     ****                  (OS_ERR      *)&os_err);
  72:APP/app.c     **** 
  73:APP/app.c     ****     OSStart(&os_err);  /* Start multitasking */
  74:APP/app.c     **** }
  75:APP/app.c     **** 
  76:APP/app.c     **** 
  77:APP/app.c     **** /*
  78:APP/app.c     **** ***************************************************************************************************
  79:APP/app.c     **** *                                          App_TaskStart()
  80:APP/app.c     **** ***************************************************************************************************
  81:APP/app.c     **** */
  82:APP/app.c     **** static void App_TaskStart(void *p_arg) {
  27              		.loc 1 82 0
  28              		.cfi_startproc
  29              		@ args = 0, pretend = 0, frame = 8
  30              		@ frame_needed = 0, uses_anonymous_args = 0
  31              	.LVL0:
  32 0000 30B5     		push	{r4, r5, lr}
ARM GAS  C:\Users\CHRONI~1\AppData\Local\Temp\ccBhZuy9.s 			page 3


  33              		.cfi_def_cfa_offset 12
  34              		.cfi_offset 4, -12
  35              		.cfi_offset 5, -8
  36              		.cfi_offset 14, -4
  37 0002 85B0     		sub	sp, sp, #20
  38              		.cfi_def_cfa_offset 32
  83:APP/app.c     ****     OS_ERR err;
  84:APP/app.c     ****     (void)p_arg;
  85:APP/app.c     **** 
  86:APP/app.c     ****     
  87:APP/app.c     ****     BSP_PostInit();
  39              		.loc 1 87 0
  40 0004 FFF7FEFF 		bl	BSP_PostInit
  41              	.LVL1:
  88:APP/app.c     ****     BSP_CPU_TickInit();
  42              		.loc 1 88 0
  43 0008 FFF7FEFF 		bl	BSP_CPU_TickInit
  44              	.LVL2:
  89:APP/app.c     ****     
  90:APP/app.c     ****     /* Create the semaphore */
  91:APP/app.c     ****     OSSemCreate(&LogTaskSem, "Log Task Semaphore", 0, &err);
  45              		.loc 1 91 0
  46 000c 0DF10E05 		add	r5, sp, #14
  47 0010 154C     		ldr	r4, .L4
  48 0012 2B46     		mov	r3, r5
  49 0014 0022     		movs	r2, #0
  50 0016 1549     		ldr	r1, .L4+4
  51 0018 2046     		mov	r0, r4
  52 001a FFF7FEFF 		bl	OSSemCreate
  53              	.LVL3:
  92:APP/app.c     ****     
  93:APP/app.c     ****     Log_Init();    /* Initializes and creates the log task */
  54              		.loc 1 93 0
  55 001e FFF7FEFF 		bl	Log_Init
  56              	.LVL4:
  94:APP/app.c     **** 
  95:APP/app.c     ****     /* Wait for the log task to signal that it's ready */
  96:APP/app.c     ****     OSSemPend(&LogTaskSem, 0, OS_OPT_PEND_BLOCKING, NULL, &err);
  57              		.loc 1 96 0
  58 0022 0095     		str	r5, [sp]
  59 0024 0023     		movs	r3, #0
  60 0026 1A46     		mov	r2, r3
  61 0028 1946     		mov	r1, r3
  62 002a 2046     		mov	r0, r4
  63 002c FFF7FEFF 		bl	OSSemPend
  64              	.LVL5:
  97:APP/app.c     ****     
  98:APP/app.c     ****     Log_Write(LOG_LEVEL_INFO, "App_TaskStart: Log task initialized successfully");
  65              		.loc 1 98 0
  66 0030 0F49     		ldr	r1, .L4+8
  67 0032 0120     		movs	r0, #1
  68 0034 FFF7FEFF 		bl	Log_Write
  69              	.LVL6:
  99:APP/app.c     ****     
 100:APP/app.c     **** 
 101:APP/app.c     **** 
 102:APP/app.c     ****     I2C_Init();    /* Initializes and creates the I2C task */
ARM GAS  C:\Users\CHRONI~1\AppData\Local\Temp\ccBhZuy9.s 			page 4


  70              		.loc 1 102 0
  71 0038 FFF7FEFF 		bl	I2C_Init
  72              	.LVL7:
 103:APP/app.c     ****     MAX30102_Init();
  73              		.loc 1 103 0
  74 003c FFF7FEFF 		bl	MAX30102_Init
  75              	.LVL8:
 104:APP/app.c     ****     BME688_Init_Task();
  76              		.loc 1 104 0
  77 0040 FFF7FEFF 		bl	BME688_Init_Task
  78              	.LVL9:
 105:APP/app.c     ****     Data_Processing_Init();
  79              		.loc 1 105 0
  80 0044 FFF7FEFF 		bl	Data_Processing_Init
  81              	.LVL10:
 106:APP/app.c     ****     Log_Write(LOG_LEVEL_INFO, "App_TaskStart: Data Processing task initialized successfully");
  82              		.loc 1 106 0
  83 0048 0A49     		ldr	r1, .L4+12
  84 004a 0120     		movs	r0, #1
  85 004c FFF7FEFF 		bl	Log_Write
  86              	.LVL11:
  87              	.L2:
 107:APP/app.c     ****     while (DEF_TRUE) {
 108:APP/app.c     ****         /* Delay before next read */
 109:APP/app.c     ****         OSTimeDlyHMSM(0, 0, 1, 0, OS_OPT_TIME_HMSM_STRICT, &err);
  88              		.loc 1 109 0 discriminator 1
  89 0050 0DF10E03 		add	r3, sp, #14
  90 0054 0193     		str	r3, [sp, #4]
  91 0056 0020     		movs	r0, #0
  92 0058 0090     		str	r0, [sp]
  93 005a 0346     		mov	r3, r0
  94 005c 0122     		movs	r2, #1
  95 005e 0146     		mov	r1, r0
  96 0060 FFF7FEFF 		bl	OSTimeDlyHMSM
  97              	.LVL12:
  98 0064 F4E7     		b	.L2
  99              	.L5:
 100 0066 00BF     		.align	2
 101              	.L4:
 102 0068 00000000 		.word	LogTaskSem
 103 006c 00000000 		.word	.LC0
 104 0070 14000000 		.word	.LC1
 105 0074 48000000 		.word	.LC2
 106              		.cfi_endproc
 107              	.LFE65:
 108              		.size	App_TaskStart, .-App_TaskStart
 109              		.section	.text.main,"ax",%progbits
 110              		.align	2
 111              		.global	main
 112              		.thumb
 113              		.thumb_func
 114              		.type	main, %function
 115              	main:
 116              	.LFB64:
  50:APP/app.c     ****     OS_ERR os_err;
 117              		.loc 1 50 0
 118              		.cfi_startproc
ARM GAS  C:\Users\CHRONI~1\AppData\Local\Temp\ccBhZuy9.s 			page 5


 119              		@ args = 0, pretend = 0, frame = 8
 120              		@ frame_needed = 0, uses_anonymous_args = 0
 121 0000 30B5     		push	{r4, r5, lr}
 122              		.cfi_def_cfa_offset 12
 123              		.cfi_offset 4, -12
 124              		.cfi_offset 5, -8
 125              		.cfi_offset 14, -4
 126 0002 8DB0     		sub	sp, sp, #52
 127              		.cfi_def_cfa_offset 64
  53:APP/app.c     ****     CPU_Init();
 128              		.loc 1 53 0
 129 0004 FFF7FEFF 		bl	BSP_PreInit
 130              	.LVL13:
  54:APP/app.c     ****     /* Init OS */
 131              		.loc 1 54 0
 132 0008 FFF7FEFF 		bl	CPU_Init
 133              	.LVL14:
  56:APP/app.c     ****     CyGlobalIntEnable; // Enable global interrupts
 134              		.loc 1 56 0
 135 000c 0DF12E05 		add	r5, sp, #46
 136 0010 2846     		mov	r0, r5
 137 0012 FFF7FEFF 		bl	OSInit
 138              	.LVL15:
  57:APP/app.c     ****     /* Start OS multitasking */
 139              		.loc 1 57 0
 140              		.syntax unified
 141              	@ 57 "APP\app.c" 1
 142 0016 62B6     		CPSIE   i
 143              	@ 0 "" 2
  59:APP/app.c     ****                  (CPU_CHAR    *)"Start",
 144              		.loc 1 59 0
 145              		.thumb
 146              		.syntax unified
 147 0018 0E48     		ldr	r0, .L8
 148 001a 0895     		str	r5, [sp, #32]
 149 001c 0323     		movs	r3, #3
 150 001e 0793     		str	r3, [sp, #28]
 151 0020 0024     		movs	r4, #0
 152 0022 0694     		str	r4, [sp, #24]
 153 0024 0594     		str	r4, [sp, #20]
 154 0026 0494     		str	r4, [sp, #16]
 155 0028 4FF48073 		mov	r3, #256
 156 002c 0393     		str	r3, [sp, #12]
 157 002e 1923     		movs	r3, #25
 158 0030 0293     		str	r3, [sp, #8]
 159 0032 00F1C003 		add	r3, r0, #192
 160 0036 0193     		str	r3, [sp, #4]
 161 0038 0223     		movs	r3, #2
 162 003a 0093     		str	r3, [sp]
 163 003c 2346     		mov	r3, r4
 164 003e 064A     		ldr	r2, .L8+4
 165 0040 0649     		ldr	r1, .L8+8
 166 0042 FFF7FEFF 		bl	OSTaskCreate
 167              	.LVL16:
  73:APP/app.c     **** }
 168              		.loc 1 73 0
 169 0046 2846     		mov	r0, r5
ARM GAS  C:\Users\CHRONI~1\AppData\Local\Temp\ccBhZuy9.s 			page 6


 170 0048 FFF7FEFF 		bl	OSStart
 171              	.LVL17:
  74:APP/app.c     **** 
 172              		.loc 1 74 0
 173 004c 2046     		mov	r0, r4
 174 004e 0DB0     		add	sp, sp, #52
 175              		.cfi_def_cfa_offset 12
 176              		@ sp needed
 177 0050 30BD     		pop	{r4, r5, pc}
 178              	.L9:
 179 0052 00BF     		.align	2
 180              	.L8:
 181 0054 00000000 		.word	.LANCHOR0
 182 0058 00000000 		.word	App_TaskStart
 183 005c 88000000 		.word	.LC3
 184              		.cfi_endproc
 185              	.LFE64:
 186              		.size	main, .-main
 187              		.comm	CommQProcessedEnvironmentData,48,4
 188              		.comm	CommQProcessedOximeterData,48,4
 189              		.comm	CommQSPIData,48,4
 190              		.comm	CommQI2CHeartRate,48,4
 191              		.comm	CommQI2CSPO2,48,4
 192              		.section	.rodata.str1.4,"aMS",%progbits,1
 193              		.align	2
 194              	.LC0:
 195 0000 4C6F6720 		.ascii	"Log Task Semaphore\000"
 195      5461736B 
 195      2053656D 
 195      6170686F 
 195      726500
 196 0013 00       		.space	1
 197              	.LC1:
 198 0014 4170705F 		.ascii	"App_TaskStart: Log task initialized successfully\000"
 198      5461736B 
 198      53746172 
 198      743A204C 
 198      6F672074 
 199 0045 000000   		.space	3
 200              	.LC2:
 201 0048 4170705F 		.ascii	"App_TaskStart: Data Processing task initialized suc"
 201      5461736B 
 201      53746172 
 201      743A2044 
 201      61746120 
 202 007b 63657373 		.ascii	"cessfully\000"
 202      66756C6C 
 202      7900
 203 0085 000000   		.space	3
 204              	.LC3:
 205 0088 53746172 		.ascii	"Start\000"
 205      7400
 206              		.bss
 207              		.align	2
 208              		.set	.LANCHOR0,. + 0
 209              		.type	App_TaskStartTCB, %object
 210              		.size	App_TaskStartTCB, 192
ARM GAS  C:\Users\CHRONI~1\AppData\Local\Temp\ccBhZuy9.s 			page 7


 211              	App_TaskStartTCB:
 212 0000 00000000 		.space	192
 212      00000000 
 212      00000000 
 212      00000000 
 212      00000000 
 213              		.type	App_TaskStartStk, %object
 214              		.size	App_TaskStartStk, 1024
 215              	App_TaskStartStk:
 216 00c0 00000000 		.space	1024
 216      00000000 
 216      00000000 
 216      00000000 
 216      00000000 
 217              		.text
 218              	.Letext0:
 219              		.file 2 "c:\\program files (x86)\\cypress\\psoc creator\\4.4\\psoc creator\\import\\gnu\\arm\\5.4.
 220              		.file 3 "c:\\program files (x86)\\cypress\\psoc creator\\4.4\\psoc creator\\import\\gnu\\arm\\5.4.
 221              		.file 4 ".\\uC-CPU\\ARM-Cortex-M3\\GNU/cpu.h"
 222              		.file 5 ".\\uC-CPU/cpu_core.h"
 223              		.file 6 ".\\uCOS-III\\Source/os_type.h"
 224              		.file 7 ".\\uCOS-III\\Source/os.h"
 225              		.file 8 "./heartbeatSensor.h"
 226              		.file 9 "Generated_Source\\PSoC5/core_cm3.h"
 227              		.file 10 "./log_task.h"
 228              		.file 11 "./data_processing_task.h"
 229              		.file 12 ".\\BSP/bsp.h"
 230              		.file 13 "./bsp_i2c.h"
 231              		.file 14 "./environmentSensor.h"