ARM GAS  C:\Users\CHRONI~1\AppData\Local\Temp\ccho61l0.s 			page 1


   1              		.syntax unified
   2              		.cpu cortex-m3
   3              		.fpu softvfp
   4              		.eabi_attribute 20, 1
   5              		.eabi_attribute 21, 1
   6              		.eabi_attribute 23, 3
   7              		.eabi_attribute 24, 1
   8              		.eabi_attribute 25, 1
   9              		.eabi_attribute 26, 1
  10              		.eabi_attribute 30, 1
  11              		.eabi_attribute 34, 1
  12              		.eabi_attribute 18, 4
  13              		.thumb
  14              		.syntax unified
  15              		.file	"bme68x.c"
  16              		.text
  17              	.Ltext0:
  18              		.cfi_sections	.debug_frame
  19              		.section	.text.calc_temperature,"ax",%progbits
  20              		.align	2
  21              		.thumb
  22              		.thumb_func
  23              		.type	calc_temperature, %function
  24              	calc_temperature:
  25              	.LFB14:
  26              		.file 1 "SensorLib\\bme688\\bme68x.c"
   1:SensorLib\bme688/bme68x.c **** /**
   2:SensorLib\bme688/bme68x.c **** * Copyright (c) 2023 Bosch Sensortec GmbH. All rights reserved.
   3:SensorLib\bme688/bme68x.c **** *
   4:SensorLib\bme688/bme68x.c **** * BSD-3-Clause
   5:SensorLib\bme688/bme68x.c **** *
   6:SensorLib\bme688/bme68x.c **** * Redistribution and use in source and binary forms, with or without
   7:SensorLib\bme688/bme68x.c **** * modification, are permitted provided that the following conditions are met:
   8:SensorLib\bme688/bme68x.c **** *
   9:SensorLib\bme688/bme68x.c **** * 1. Redistributions of source code must retain the above copyright
  10:SensorLib\bme688/bme68x.c **** *    notice, this list of conditions and the following disclaimer.
  11:SensorLib\bme688/bme68x.c **** *
  12:SensorLib\bme688/bme68x.c **** * 2. Redistributions in binary form must reproduce the above copyright
  13:SensorLib\bme688/bme68x.c **** *    notice, this list of conditions and the following disclaimer in the
  14:SensorLib\bme688/bme68x.c **** *    documentation and/or other materials provided with the distribution.
  15:SensorLib\bme688/bme68x.c **** *
  16:SensorLib\bme688/bme68x.c **** * 3. Neither the name of the copyright holder nor the names of its
  17:SensorLib\bme688/bme68x.c **** *    contributors may be used to endorse or promote products derived from
  18:SensorLib\bme688/bme68x.c **** *    this software without specific prior written permission.
  19:SensorLib\bme688/bme68x.c **** *
  20:SensorLib\bme688/bme68x.c **** * THIS SOFTWARE IS PROVIDED BY THE COPYRIGHT HOLDERS AND CONTRIBUTORS
  21:SensorLib\bme688/bme68x.c **** * "AS IS" AND ANY EXPRESS OR IMPLIED WARRANTIES, INCLUDING, BUT NOT
  22:SensorLib\bme688/bme68x.c **** * LIMITED TO, THE IMPLIED WARRANTIES OF MERCHANTABILITY AND FITNESS
  23:SensorLib\bme688/bme68x.c **** * FOR A PARTICULAR PURPOSE ARE DISCLAIMED. IN NO EVENT SHALL THE
  24:SensorLib\bme688/bme68x.c **** * COPYRIGHT HOLDER OR CONTRIBUTORS BE LIABLE FOR ANY DIRECT, INDIRECT,
  25:SensorLib\bme688/bme68x.c **** * INCIDENTAL, SPECIAL, EXEMPLARY, OR CONSEQUENTIAL DAMAGES
  26:SensorLib\bme688/bme68x.c **** * (INCLUDING, BUT NOT LIMITED TO, PROCUREMENT OF SUBSTITUTE GOODS OR
  27:SensorLib\bme688/bme68x.c **** * SERVICES; LOSS OF USE, DATA, OR PROFITS; OR BUSINESS INTERRUPTION)
  28:SensorLib\bme688/bme68x.c **** * HOWEVER CAUSED AND ON ANY THEORY OF LIABILITY, WHETHER IN CONTRACT,
  29:SensorLib\bme688/bme68x.c **** * STRICT LIABILITY, OR TORT (INCLUDING NEGLIGENCE OR OTHERWISE) ARISING
  30:SensorLib\bme688/bme68x.c **** * IN ANY WAY OUT OF THE USE OF THIS SOFTWARE, EVEN IF ADVISED OF THE
  31:SensorLib\bme688/bme68x.c **** * POSSIBILITY OF SUCH DAMAGE.
ARM GAS  C:\Users\CHRONI~1\AppData\Local\Temp\ccho61l0.s 			page 2


  32:SensorLib\bme688/bme68x.c **** *
  33:SensorLib\bme688/bme68x.c **** * @file       bme68x.c
  34:SensorLib\bme688/bme68x.c **** * @date       2023-02-07
  35:SensorLib\bme688/bme68x.c **** * @version    v4.4.8
  36:SensorLib\bme688/bme68x.c **** *
  37:SensorLib\bme688/bme68x.c **** */
  38:SensorLib\bme688/bme68x.c **** 
  39:SensorLib\bme688/bme68x.c **** #include "bme68x.h"
  40:SensorLib\bme688/bme68x.c **** #include <stdio.h>
  41:SensorLib\bme688/bme68x.c **** 
  42:SensorLib\bme688/bme68x.c **** /* This internal API is used to read the calibration coefficients */
  43:SensorLib\bme688/bme68x.c **** static int8_t get_calib_data(struct bme68x_dev *dev);
  44:SensorLib\bme688/bme68x.c **** 
  45:SensorLib\bme688/bme68x.c **** /* This internal API is used to read variant ID information register status */
  46:SensorLib\bme688/bme68x.c **** static int8_t read_variant_id(struct bme68x_dev *dev);
  47:SensorLib\bme688/bme68x.c **** 
  48:SensorLib\bme688/bme68x.c **** /* This internal API is used to calculate the gas wait */
  49:SensorLib\bme688/bme68x.c **** static uint8_t calc_gas_wait(uint16_t dur);
  50:SensorLib\bme688/bme68x.c **** 
  51:SensorLib\bme688/bme68x.c **** #ifndef BME68X_USE_FPU
  52:SensorLib\bme688/bme68x.c **** 
  53:SensorLib\bme688/bme68x.c **** /* This internal API is used to calculate the temperature in integer */
  54:SensorLib\bme688/bme68x.c **** static int16_t calc_temperature(uint32_t temp_adc, struct bme68x_dev *dev);
  55:SensorLib\bme688/bme68x.c **** 
  56:SensorLib\bme688/bme68x.c **** /* This internal API is used to calculate the pressure in integer */
  57:SensorLib\bme688/bme68x.c **** static uint32_t calc_pressure(uint32_t pres_adc, const struct bme68x_dev *dev);
  58:SensorLib\bme688/bme68x.c **** 
  59:SensorLib\bme688/bme68x.c **** /* This internal API is used to calculate the humidity in integer */
  60:SensorLib\bme688/bme68x.c **** static uint32_t calc_humidity(uint16_t hum_adc, const struct bme68x_dev *dev);
  61:SensorLib\bme688/bme68x.c **** 
  62:SensorLib\bme688/bme68x.c **** /* This internal API is used to calculate the gas resistance high */
  63:SensorLib\bme688/bme68x.c **** static uint32_t calc_gas_resistance_high(uint16_t gas_res_adc, uint8_t gas_range);
  64:SensorLib\bme688/bme68x.c **** 
  65:SensorLib\bme688/bme68x.c **** /* This internal API is used to calculate the gas resistance low */
  66:SensorLib\bme688/bme68x.c **** static uint32_t calc_gas_resistance_low(uint16_t gas_res_adc, uint8_t gas_range, const struct bme68
  67:SensorLib\bme688/bme68x.c **** 
  68:SensorLib\bme688/bme68x.c **** /* This internal API is used to calculate the heater resistance using integer */
  69:SensorLib\bme688/bme68x.c **** static uint8_t calc_res_heat(uint16_t temp, const struct bme68x_dev *dev);
  70:SensorLib\bme688/bme68x.c **** 
  71:SensorLib\bme688/bme68x.c **** #else
  72:SensorLib\bme688/bme68x.c **** 
  73:SensorLib\bme688/bme68x.c **** /* This internal API is used to calculate the temperature value in float */
  74:SensorLib\bme688/bme68x.c **** static float calc_temperature(uint32_t temp_adc, struct bme68x_dev *dev);
  75:SensorLib\bme688/bme68x.c **** 
  76:SensorLib\bme688/bme68x.c **** /* This internal API is used to calculate the pressure value in float */
  77:SensorLib\bme688/bme68x.c **** static float calc_pressure(uint32_t pres_adc, const struct bme68x_dev *dev);
  78:SensorLib\bme688/bme68x.c **** 
  79:SensorLib\bme688/bme68x.c **** /* This internal API is used to calculate the humidity value in float */
  80:SensorLib\bme688/bme68x.c **** static float calc_humidity(uint16_t hum_adc, const struct bme68x_dev *dev);
  81:SensorLib\bme688/bme68x.c **** 
  82:SensorLib\bme688/bme68x.c **** /* This internal API is used to calculate the gas resistance high value in float */
  83:SensorLib\bme688/bme68x.c **** static float calc_gas_resistance_high(uint16_t gas_res_adc, uint8_t gas_range);
  84:SensorLib\bme688/bme68x.c **** 
  85:SensorLib\bme688/bme68x.c **** /* This internal API is used to calculate the gas resistance low value in float */
  86:SensorLib\bme688/bme68x.c **** static float calc_gas_resistance_low(uint16_t gas_res_adc, uint8_t gas_range, const struct bme68x_d
  87:SensorLib\bme688/bme68x.c **** 
  88:SensorLib\bme688/bme68x.c **** /* This internal API is used to calculate the heater resistance value using float */
ARM GAS  C:\Users\CHRONI~1\AppData\Local\Temp\ccho61l0.s 			page 3


  89:SensorLib\bme688/bme68x.c **** static uint8_t calc_res_heat(uint16_t temp, const struct bme68x_dev *dev);
  90:SensorLib\bme688/bme68x.c **** 
  91:SensorLib\bme688/bme68x.c **** #endif
  92:SensorLib\bme688/bme68x.c **** 
  93:SensorLib\bme688/bme68x.c **** /* This internal API is used to read a single data of the sensor */
  94:SensorLib\bme688/bme68x.c **** static int8_t read_field_data(uint8_t index, struct bme68x_data *data, struct bme68x_dev *dev);
  95:SensorLib\bme688/bme68x.c **** 
  96:SensorLib\bme688/bme68x.c **** /* This internal API is used to read all data fields of the sensor */
  97:SensorLib\bme688/bme68x.c **** static int8_t read_all_field_data(struct bme68x_data * const data[], struct bme68x_dev *dev);
  98:SensorLib\bme688/bme68x.c **** 
  99:SensorLib\bme688/bme68x.c **** /* This internal API is used to switch between SPI memory pages */
 100:SensorLib\bme688/bme68x.c **** static int8_t set_mem_page(uint8_t reg_addr, struct bme68x_dev *dev);
 101:SensorLib\bme688/bme68x.c **** 
 102:SensorLib\bme688/bme68x.c **** /* This internal API is used to get the current SPI memory page */
 103:SensorLib\bme688/bme68x.c **** static int8_t get_mem_page(struct bme68x_dev *dev);
 104:SensorLib\bme688/bme68x.c **** 
 105:SensorLib\bme688/bme68x.c **** /* This internal API is used to check the bme68x_dev for null pointers */
 106:SensorLib\bme688/bme68x.c **** static int8_t null_ptr_check(const struct bme68x_dev *dev);
 107:SensorLib\bme688/bme68x.c **** 
 108:SensorLib\bme688/bme68x.c **** /* This internal API is used to set heater configurations */
 109:SensorLib\bme688/bme68x.c **** static int8_t set_conf(const struct bme68x_heatr_conf *conf, uint8_t op_mode, uint8_t *nb_conv, str
 110:SensorLib\bme688/bme68x.c **** 
 111:SensorLib\bme688/bme68x.c **** /* This internal API is used to limit the max value of a parameter */
 112:SensorLib\bme688/bme68x.c **** static int8_t boundary_check(uint8_t *value, uint8_t max, struct bme68x_dev *dev);
 113:SensorLib\bme688/bme68x.c **** 
 114:SensorLib\bme688/bme68x.c **** /* This internal API is used to calculate the register value for
 115:SensorLib\bme688/bme68x.c ****  * shared heater duration */
 116:SensorLib\bme688/bme68x.c **** static uint8_t calc_heatr_dur_shared(uint16_t dur);
 117:SensorLib\bme688/bme68x.c **** 
 118:SensorLib\bme688/bme68x.c **** /* This internal API is used to swap two fields */
 119:SensorLib\bme688/bme68x.c **** static void swap_fields(uint8_t index1, uint8_t index2, struct bme68x_data *field[]);
 120:SensorLib\bme688/bme68x.c **** 
 121:SensorLib\bme688/bme68x.c **** /* This internal API is used sort the sensor data */
 122:SensorLib\bme688/bme68x.c **** static void sort_sensor_data(uint8_t low_index, uint8_t high_index, struct bme68x_data *field[]);
 123:SensorLib\bme688/bme68x.c **** 
 124:SensorLib\bme688/bme68x.c **** /*
 125:SensorLib\bme688/bme68x.c ****  * @brief       Function to analyze the sensor data
 126:SensorLib\bme688/bme68x.c ****  *
 127:SensorLib\bme688/bme68x.c ****  * @param[in]   data    Array of measurement data
 128:SensorLib\bme688/bme68x.c ****  * @param[in]   n_meas  Number of measurements
 129:SensorLib\bme688/bme68x.c ****  *
 130:SensorLib\bme688/bme68x.c ****  * @return Result of API execution status
 131:SensorLib\bme688/bme68x.c ****  * @retval 0 -> Success
 132:SensorLib\bme688/bme68x.c ****  * @retval < 0 -> Fail
 133:SensorLib\bme688/bme68x.c ****  */
 134:SensorLib\bme688/bme68x.c **** static int8_t analyze_sensor_data(const struct bme68x_data *data, uint8_t n_meas);
 135:SensorLib\bme688/bme68x.c **** 
 136:SensorLib\bme688/bme68x.c **** /******************************************************************************************/
 137:SensorLib\bme688/bme68x.c **** /*                                 Global API definitions                                 */
 138:SensorLib\bme688/bme68x.c **** /******************************************************************************************/
 139:SensorLib\bme688/bme68x.c **** 
 140:SensorLib\bme688/bme68x.c **** /* @brief This API reads the chip-id of the sensor which is the first step to
 141:SensorLib\bme688/bme68x.c **** * verify the sensor and also calibrates the sensor
 142:SensorLib\bme688/bme68x.c **** * As this API is the entry point, call this API before using other APIs.
 143:SensorLib\bme688/bme68x.c **** */
 144:SensorLib\bme688/bme68x.c **** int8_t bme68x_init(struct bme68x_dev *dev)
 145:SensorLib\bme688/bme68x.c **** {
ARM GAS  C:\Users\CHRONI~1\AppData\Local\Temp\ccho61l0.s 			page 4


 146:SensorLib\bme688/bme68x.c ****   
 147:SensorLib\bme688/bme68x.c ****     int8_t rslt;
 148:SensorLib\bme688/bme68x.c **** 
 149:SensorLib\bme688/bme68x.c ****     (void) bme68x_soft_reset(dev);
 150:SensorLib\bme688/bme68x.c **** 
 151:SensorLib\bme688/bme68x.c ****     rslt = bme68x_get_regs(BME68X_REG_CHIP_ID, &dev->chip_id, 1, dev);
 152:SensorLib\bme688/bme68x.c **** 
 153:SensorLib\bme688/bme68x.c ****     if (rslt == BME68X_OK)
 154:SensorLib\bme688/bme68x.c ****     {
 155:SensorLib\bme688/bme68x.c ****         if (dev->chip_id == BME68X_CHIP_ID)
 156:SensorLib\bme688/bme68x.c ****         {
 157:SensorLib\bme688/bme68x.c ****             /* Read Variant ID */
 158:SensorLib\bme688/bme68x.c ****             rslt = read_variant_id(dev);
 159:SensorLib\bme688/bme68x.c **** 
 160:SensorLib\bme688/bme68x.c ****             if (rslt == BME68X_OK)
 161:SensorLib\bme688/bme68x.c ****             {
 162:SensorLib\bme688/bme68x.c ****                 /* Get the Calibration data */
 163:SensorLib\bme688/bme68x.c ****                 rslt = get_calib_data(dev);
 164:SensorLib\bme688/bme68x.c ****             }
 165:SensorLib\bme688/bme68x.c ****         }
 166:SensorLib\bme688/bme68x.c ****         else
 167:SensorLib\bme688/bme68x.c ****         {
 168:SensorLib\bme688/bme68x.c ****             rslt = BME68X_E_DEV_NOT_FOUND;
 169:SensorLib\bme688/bme68x.c ****         }
 170:SensorLib\bme688/bme68x.c ****     }
 171:SensorLib\bme688/bme68x.c **** 
 172:SensorLib\bme688/bme68x.c ****     return rslt;
 173:SensorLib\bme688/bme68x.c **** }
 174:SensorLib\bme688/bme68x.c **** 
 175:SensorLib\bme688/bme68x.c **** /*
 176:SensorLib\bme688/bme68x.c ****  * @brief This API writes the given data to the register address of the sensor
 177:SensorLib\bme688/bme68x.c ****  */
 178:SensorLib\bme688/bme68x.c **** int8_t bme68x_set_regs(const uint8_t *reg_addr, const uint8_t *reg_data, uint32_t len, struct bme68
 179:SensorLib\bme688/bme68x.c **** {
 180:SensorLib\bme688/bme68x.c ****     int8_t rslt;
 181:SensorLib\bme688/bme68x.c **** 
 182:SensorLib\bme688/bme68x.c ****     /* Length of the temporary buffer is 2*(length of register)*/
 183:SensorLib\bme688/bme68x.c ****     uint8_t tmp_buff[BME68X_LEN_INTERLEAVE_BUFF] = { 0 };
 184:SensorLib\bme688/bme68x.c ****     uint16_t index;
 185:SensorLib\bme688/bme68x.c **** 
 186:SensorLib\bme688/bme68x.c ****     /* Check for null pointer in the device structure*/
 187:SensorLib\bme688/bme68x.c ****     rslt = null_ptr_check(dev);
 188:SensorLib\bme688/bme68x.c ****     if ((rslt == BME68X_OK) && reg_addr && reg_data)
 189:SensorLib\bme688/bme68x.c ****     {
 190:SensorLib\bme688/bme68x.c ****         if ((len > 0) && (len <= (BME68X_LEN_INTERLEAVE_BUFF / 2)))
 191:SensorLib\bme688/bme68x.c ****         {
 192:SensorLib\bme688/bme68x.c ****             /* Interleave the 2 arrays */
 193:SensorLib\bme688/bme68x.c ****             for (index = 0; index < len; index++)
 194:SensorLib\bme688/bme68x.c ****             {
 195:SensorLib\bme688/bme68x.c ****                 if (dev->intf == BME68X_SPI_INTF)
 196:SensorLib\bme688/bme68x.c ****                 {
 197:SensorLib\bme688/bme68x.c ****                     /* Set the memory page */
 198:SensorLib\bme688/bme68x.c ****                     rslt = set_mem_page(reg_addr[index], dev);
 199:SensorLib\bme688/bme68x.c ****                     tmp_buff[(2 * index)] = reg_addr[index] & BME68X_SPI_WR_MSK;
 200:SensorLib\bme688/bme68x.c ****                 }
 201:SensorLib\bme688/bme68x.c ****                 else
 202:SensorLib\bme688/bme68x.c ****                 {
ARM GAS  C:\Users\CHRONI~1\AppData\Local\Temp\ccho61l0.s 			page 5


 203:SensorLib\bme688/bme68x.c ****                     tmp_buff[(2 * index)] = reg_addr[index];
 204:SensorLib\bme688/bme68x.c ****                 }
 205:SensorLib\bme688/bme68x.c **** 
 206:SensorLib\bme688/bme68x.c ****                 tmp_buff[(2 * index) + 1] = reg_data[index];
 207:SensorLib\bme688/bme68x.c ****             }
 208:SensorLib\bme688/bme68x.c **** 
 209:SensorLib\bme688/bme68x.c ****             /* Write the interleaved array */
 210:SensorLib\bme688/bme68x.c ****             if (rslt == BME68X_OK)
 211:SensorLib\bme688/bme68x.c ****             {
 212:SensorLib\bme688/bme68x.c ****                 dev->intf_rslt = dev->write(tmp_buff[0], &tmp_buff[1], (2 * len) - 1, dev->intf_ptr
 213:SensorLib\bme688/bme68x.c ****                 if (dev->intf_rslt != 0)
 214:SensorLib\bme688/bme68x.c ****                 {
 215:SensorLib\bme688/bme68x.c ****                     rslt = BME68X_E_COM_FAIL;
 216:SensorLib\bme688/bme68x.c ****                 }
 217:SensorLib\bme688/bme68x.c ****             }
 218:SensorLib\bme688/bme68x.c ****         }
 219:SensorLib\bme688/bme68x.c ****         else
 220:SensorLib\bme688/bme68x.c ****         {
 221:SensorLib\bme688/bme68x.c ****             rslt = BME68X_E_INVALID_LENGTH;
 222:SensorLib\bme688/bme68x.c ****         }
 223:SensorLib\bme688/bme68x.c ****     }
 224:SensorLib\bme688/bme68x.c ****     else
 225:SensorLib\bme688/bme68x.c ****     {
 226:SensorLib\bme688/bme68x.c ****         rslt = BME68X_E_NULL_PTR;
 227:SensorLib\bme688/bme68x.c ****     }
 228:SensorLib\bme688/bme68x.c **** 
 229:SensorLib\bme688/bme68x.c ****     return rslt;
 230:SensorLib\bme688/bme68x.c **** }
 231:SensorLib\bme688/bme68x.c **** 
 232:SensorLib\bme688/bme68x.c **** /*
 233:SensorLib\bme688/bme68x.c ****  * @brief This API reads the data from the given register address of sensor.
 234:SensorLib\bme688/bme68x.c ****  */
 235:SensorLib\bme688/bme68x.c **** int8_t bme68x_get_regs(uint8_t reg_addr, uint8_t *reg_data, uint32_t len, struct bme68x_dev *dev)
 236:SensorLib\bme688/bme68x.c **** {
 237:SensorLib\bme688/bme68x.c ****     int8_t rslt;
 238:SensorLib\bme688/bme68x.c **** 
 239:SensorLib\bme688/bme68x.c ****     /* Check for null pointer in the device structure*/
 240:SensorLib\bme688/bme68x.c ****     rslt = null_ptr_check(dev);
 241:SensorLib\bme688/bme68x.c ****     if ((rslt == BME68X_OK) && reg_data)
 242:SensorLib\bme688/bme68x.c ****     {
 243:SensorLib\bme688/bme68x.c ****         if (dev->intf == BME68X_SPI_INTF)
 244:SensorLib\bme688/bme68x.c ****         {
 245:SensorLib\bme688/bme68x.c ****             /* Set the memory page */
 246:SensorLib\bme688/bme68x.c ****             rslt = set_mem_page(reg_addr, dev);
 247:SensorLib\bme688/bme68x.c ****             if (rslt == BME68X_OK)
 248:SensorLib\bme688/bme68x.c ****             {
 249:SensorLib\bme688/bme68x.c ****                 reg_addr = reg_addr | BME68X_SPI_RD_MSK;
 250:SensorLib\bme688/bme68x.c ****             }
 251:SensorLib\bme688/bme68x.c ****         }
 252:SensorLib\bme688/bme68x.c **** 
 253:SensorLib\bme688/bme68x.c ****         dev->intf_rslt = dev->read(reg_addr, reg_data, len, dev->intf_ptr);
 254:SensorLib\bme688/bme68x.c ****         if (dev->intf_rslt != 0)
 255:SensorLib\bme688/bme68x.c ****         {
 256:SensorLib\bme688/bme68x.c ****             rslt = BME68X_E_COM_FAIL;
 257:SensorLib\bme688/bme68x.c ****         }
 258:SensorLib\bme688/bme68x.c ****     }
 259:SensorLib\bme688/bme68x.c ****     else
ARM GAS  C:\Users\CHRONI~1\AppData\Local\Temp\ccho61l0.s 			page 6


 260:SensorLib\bme688/bme68x.c ****     {
 261:SensorLib\bme688/bme68x.c ****         rslt = BME68X_E_NULL_PTR;
 262:SensorLib\bme688/bme68x.c ****     }
 263:SensorLib\bme688/bme68x.c **** 
 264:SensorLib\bme688/bme68x.c ****     return rslt;
 265:SensorLib\bme688/bme68x.c **** }
 266:SensorLib\bme688/bme68x.c **** 
 267:SensorLib\bme688/bme68x.c **** /*
 268:SensorLib\bme688/bme68x.c ****  * @brief This API soft-resets the sensor.
 269:SensorLib\bme688/bme68x.c ****  */
 270:SensorLib\bme688/bme68x.c **** int8_t bme68x_soft_reset(struct bme68x_dev *dev)
 271:SensorLib\bme688/bme68x.c **** {
 272:SensorLib\bme688/bme68x.c ****     int8_t rslt;
 273:SensorLib\bme688/bme68x.c ****     uint8_t reg_addr = BME68X_REG_SOFT_RESET;
 274:SensorLib\bme688/bme68x.c **** 
 275:SensorLib\bme688/bme68x.c ****     /* 0xb6 is the soft reset command */
 276:SensorLib\bme688/bme68x.c ****     uint8_t soft_rst_cmd = BME68X_SOFT_RESET_CMD;
 277:SensorLib\bme688/bme68x.c **** 
 278:SensorLib\bme688/bme68x.c ****     /* Check for null pointer in the device structure*/
 279:SensorLib\bme688/bme68x.c ****     rslt = null_ptr_check(dev);
 280:SensorLib\bme688/bme68x.c ****     if (rslt == BME68X_OK)
 281:SensorLib\bme688/bme68x.c ****     {
 282:SensorLib\bme688/bme68x.c ****         if (dev->intf == BME68X_SPI_INTF)
 283:SensorLib\bme688/bme68x.c ****         {
 284:SensorLib\bme688/bme68x.c ****             rslt = get_mem_page(dev);
 285:SensorLib\bme688/bme68x.c ****         }
 286:SensorLib\bme688/bme68x.c **** 
 287:SensorLib\bme688/bme68x.c ****         /* Reset the device */
 288:SensorLib\bme688/bme68x.c ****         if (rslt == BME68X_OK)
 289:SensorLib\bme688/bme68x.c ****         {
 290:SensorLib\bme688/bme68x.c ****             rslt = bme68x_set_regs(&reg_addr, &soft_rst_cmd, 1, dev);
 291:SensorLib\bme688/bme68x.c **** 
 292:SensorLib\bme688/bme68x.c ****             if (rslt == BME68X_OK)
 293:SensorLib\bme688/bme68x.c ****             {
 294:SensorLib\bme688/bme68x.c ****                 /* Wait for 5ms */
 295:SensorLib\bme688/bme68x.c ****                 dev->delay_us(BME68X_PERIOD_RESET, dev->intf_ptr);
 296:SensorLib\bme688/bme68x.c **** 
 297:SensorLib\bme688/bme68x.c ****                 /* After reset get the memory page */
 298:SensorLib\bme688/bme68x.c ****                 if (dev->intf == BME68X_SPI_INTF)
 299:SensorLib\bme688/bme68x.c ****                 {
 300:SensorLib\bme688/bme68x.c ****                     rslt = get_mem_page(dev);
 301:SensorLib\bme688/bme68x.c ****                 }
 302:SensorLib\bme688/bme68x.c ****             }
 303:SensorLib\bme688/bme68x.c ****         }
 304:SensorLib\bme688/bme68x.c ****     }
 305:SensorLib\bme688/bme68x.c **** 
 306:SensorLib\bme688/bme68x.c ****     return rslt;
 307:SensorLib\bme688/bme68x.c **** }
 308:SensorLib\bme688/bme68x.c **** 
 309:SensorLib\bme688/bme68x.c **** /*
 310:SensorLib\bme688/bme68x.c ****  * @brief This API is used to set the oversampling, filter and odr configuration
 311:SensorLib\bme688/bme68x.c ****  */
 312:SensorLib\bme688/bme68x.c **** int8_t bme68x_set_conf(struct bme68x_conf *conf, struct bme68x_dev *dev)
 313:SensorLib\bme688/bme68x.c **** {
 314:SensorLib\bme688/bme68x.c ****     int8_t rslt;
 315:SensorLib\bme688/bme68x.c ****     uint8_t odr20 = 0, odr3 = 1;
 316:SensorLib\bme688/bme68x.c ****     uint8_t current_op_mode;
ARM GAS  C:\Users\CHRONI~1\AppData\Local\Temp\ccho61l0.s 			page 7


 317:SensorLib\bme688/bme68x.c **** 
 318:SensorLib\bme688/bme68x.c ****     /* Register data starting from BME68X_REG_CTRL_GAS_1(0x71) up to BME68X_REG_CONFIG(0x75) */
 319:SensorLib\bme688/bme68x.c ****     uint8_t reg_array[BME68X_LEN_CONFIG] = { 0x71, 0x72, 0x73, 0x74, 0x75 };
 320:SensorLib\bme688/bme68x.c ****     uint8_t data_array[BME68X_LEN_CONFIG] = { 0 };
 321:SensorLib\bme688/bme68x.c **** 
 322:SensorLib\bme688/bme68x.c ****     rslt = bme68x_get_op_mode(&current_op_mode, dev);
 323:SensorLib\bme688/bme68x.c ****     if (rslt == BME68X_OK)
 324:SensorLib\bme688/bme68x.c ****     {
 325:SensorLib\bme688/bme68x.c ****         /* Configure only in the sleep mode */
 326:SensorLib\bme688/bme68x.c ****         rslt = bme68x_set_op_mode(BME68X_SLEEP_MODE, dev);
 327:SensorLib\bme688/bme68x.c ****     }
 328:SensorLib\bme688/bme68x.c **** 
 329:SensorLib\bme688/bme68x.c ****     if (conf == NULL)
 330:SensorLib\bme688/bme68x.c ****     {
 331:SensorLib\bme688/bme68x.c ****         rslt = BME68X_E_NULL_PTR;
 332:SensorLib\bme688/bme68x.c ****     }
 333:SensorLib\bme688/bme68x.c ****     else if (rslt == BME68X_OK)
 334:SensorLib\bme688/bme68x.c ****     {
 335:SensorLib\bme688/bme68x.c ****         /* Read the whole configuration and write it back once later */
 336:SensorLib\bme688/bme68x.c ****         rslt = bme68x_get_regs(reg_array[0], data_array, BME68X_LEN_CONFIG, dev);
 337:SensorLib\bme688/bme68x.c ****         dev->info_msg = BME68X_OK;
 338:SensorLib\bme688/bme68x.c ****         if (rslt == BME68X_OK)
 339:SensorLib\bme688/bme68x.c ****         {
 340:SensorLib\bme688/bme68x.c ****             rslt = boundary_check(&conf->filter, BME68X_FILTER_SIZE_127, dev);
 341:SensorLib\bme688/bme68x.c ****         }
 342:SensorLib\bme688/bme68x.c **** 
 343:SensorLib\bme688/bme68x.c ****         if (rslt == BME68X_OK)
 344:SensorLib\bme688/bme68x.c ****         {
 345:SensorLib\bme688/bme68x.c ****             rslt = boundary_check(&conf->os_temp, BME68X_OS_16X, dev);
 346:SensorLib\bme688/bme68x.c ****         }
 347:SensorLib\bme688/bme68x.c **** 
 348:SensorLib\bme688/bme68x.c ****         if (rslt == BME68X_OK)
 349:SensorLib\bme688/bme68x.c ****         {
 350:SensorLib\bme688/bme68x.c ****             rslt = boundary_check(&conf->os_pres, BME68X_OS_16X, dev);
 351:SensorLib\bme688/bme68x.c ****         }
 352:SensorLib\bme688/bme68x.c **** 
 353:SensorLib\bme688/bme68x.c ****         if (rslt == BME68X_OK)
 354:SensorLib\bme688/bme68x.c ****         {
 355:SensorLib\bme688/bme68x.c ****             rslt = boundary_check(&conf->os_hum, BME68X_OS_16X, dev);
 356:SensorLib\bme688/bme68x.c ****         }
 357:SensorLib\bme688/bme68x.c **** 
 358:SensorLib\bme688/bme68x.c ****         if (rslt == BME68X_OK)
 359:SensorLib\bme688/bme68x.c ****         {
 360:SensorLib\bme688/bme68x.c ****             rslt = boundary_check(&conf->odr, BME68X_ODR_NONE, dev);
 361:SensorLib\bme688/bme68x.c ****         }
 362:SensorLib\bme688/bme68x.c **** 
 363:SensorLib\bme688/bme68x.c ****         if (rslt == BME68X_OK)
 364:SensorLib\bme688/bme68x.c ****         {
 365:SensorLib\bme688/bme68x.c ****             data_array[4] = BME68X_SET_BITS(data_array[4], BME68X_FILTER, conf->filter);
 366:SensorLib\bme688/bme68x.c ****             data_array[3] = BME68X_SET_BITS(data_array[3], BME68X_OST, conf->os_temp);
 367:SensorLib\bme688/bme68x.c ****             data_array[3] = BME68X_SET_BITS(data_array[3], BME68X_OSP, conf->os_pres);
 368:SensorLib\bme688/bme68x.c ****             data_array[1] = BME68X_SET_BITS_POS_0(data_array[1], BME68X_OSH, conf->os_hum);
 369:SensorLib\bme688/bme68x.c ****             if (conf->odr != BME68X_ODR_NONE)
 370:SensorLib\bme688/bme68x.c ****             {
 371:SensorLib\bme688/bme68x.c ****                 odr20 = conf->odr;
 372:SensorLib\bme688/bme68x.c ****                 odr3 = 0;
 373:SensorLib\bme688/bme68x.c ****             }
ARM GAS  C:\Users\CHRONI~1\AppData\Local\Temp\ccho61l0.s 			page 8


 374:SensorLib\bme688/bme68x.c **** 
 375:SensorLib\bme688/bme68x.c ****             data_array[4] = BME68X_SET_BITS(data_array[4], BME68X_ODR20, odr20);
 376:SensorLib\bme688/bme68x.c ****             data_array[0] = BME68X_SET_BITS(data_array[0], BME68X_ODR3, odr3);
 377:SensorLib\bme688/bme68x.c ****         }
 378:SensorLib\bme688/bme68x.c ****     }
 379:SensorLib\bme688/bme68x.c **** 
 380:SensorLib\bme688/bme68x.c ****     if (rslt == BME68X_OK)
 381:SensorLib\bme688/bme68x.c ****     {
 382:SensorLib\bme688/bme68x.c ****         rslt = bme68x_set_regs(reg_array, data_array, BME68X_LEN_CONFIG, dev);
 383:SensorLib\bme688/bme68x.c ****     }
 384:SensorLib\bme688/bme68x.c **** 
 385:SensorLib\bme688/bme68x.c ****     if ((current_op_mode != BME68X_SLEEP_MODE) && (rslt == BME68X_OK))
 386:SensorLib\bme688/bme68x.c ****     {
 387:SensorLib\bme688/bme68x.c ****         rslt = bme68x_set_op_mode(current_op_mode, dev);
 388:SensorLib\bme688/bme68x.c ****     }
 389:SensorLib\bme688/bme68x.c **** 
 390:SensorLib\bme688/bme68x.c ****     return rslt;
 391:SensorLib\bme688/bme68x.c **** }
 392:SensorLib\bme688/bme68x.c **** 
 393:SensorLib\bme688/bme68x.c **** /*
 394:SensorLib\bme688/bme68x.c ****  * @brief This API is used to get the oversampling, filter and odr
 395:SensorLib\bme688/bme68x.c ****  */
 396:SensorLib\bme688/bme68x.c **** int8_t bme68x_get_conf(struct bme68x_conf *conf, struct bme68x_dev *dev)
 397:SensorLib\bme688/bme68x.c **** {
 398:SensorLib\bme688/bme68x.c ****     int8_t rslt;
 399:SensorLib\bme688/bme68x.c **** 
 400:SensorLib\bme688/bme68x.c ****     /* starting address of the register array for burst read*/
 401:SensorLib\bme688/bme68x.c ****     uint8_t reg_addr = BME68X_REG_CTRL_GAS_1;
 402:SensorLib\bme688/bme68x.c ****     uint8_t data_array[BME68X_LEN_CONFIG];
 403:SensorLib\bme688/bme68x.c **** 
 404:SensorLib\bme688/bme68x.c ****     rslt = bme68x_get_regs(reg_addr, data_array, 5, dev);
 405:SensorLib\bme688/bme68x.c ****     if (!conf)
 406:SensorLib\bme688/bme68x.c ****     {
 407:SensorLib\bme688/bme68x.c ****         rslt = BME68X_E_NULL_PTR;
 408:SensorLib\bme688/bme68x.c ****     }
 409:SensorLib\bme688/bme68x.c ****     else if (rslt == BME68X_OK)
 410:SensorLib\bme688/bme68x.c ****     {
 411:SensorLib\bme688/bme68x.c ****         conf->os_hum = BME68X_GET_BITS_POS_0(data_array[1], BME68X_OSH);
 412:SensorLib\bme688/bme68x.c ****         conf->filter = BME68X_GET_BITS(data_array[4], BME68X_FILTER);
 413:SensorLib\bme688/bme68x.c ****         conf->os_temp = BME68X_GET_BITS(data_array[3], BME68X_OST);
 414:SensorLib\bme688/bme68x.c ****         conf->os_pres = BME68X_GET_BITS(data_array[3], BME68X_OSP);
 415:SensorLib\bme688/bme68x.c ****         if (BME68X_GET_BITS(data_array[0], BME68X_ODR3))
 416:SensorLib\bme688/bme68x.c ****         {
 417:SensorLib\bme688/bme68x.c ****             conf->odr = BME68X_ODR_NONE;
 418:SensorLib\bme688/bme68x.c ****         }
 419:SensorLib\bme688/bme68x.c ****         else
 420:SensorLib\bme688/bme68x.c ****         {
 421:SensorLib\bme688/bme68x.c ****             conf->odr = BME68X_GET_BITS(data_array[4], BME68X_ODR20);
 422:SensorLib\bme688/bme68x.c ****         }
 423:SensorLib\bme688/bme68x.c ****     }
 424:SensorLib\bme688/bme68x.c **** 
 425:SensorLib\bme688/bme68x.c ****     return rslt;
 426:SensorLib\bme688/bme68x.c **** }
 427:SensorLib\bme688/bme68x.c **** 
 428:SensorLib\bme688/bme68x.c **** /*
 429:SensorLib\bme688/bme68x.c ****  * @brief This API is used to set the operation mode of the sensor
 430:SensorLib\bme688/bme68x.c ****  */
ARM GAS  C:\Users\CHRONI~1\AppData\Local\Temp\ccho61l0.s 			page 9


 431:SensorLib\bme688/bme68x.c **** int8_t bme68x_set_op_mode(const uint8_t op_mode, struct bme68x_dev *dev)
 432:SensorLib\bme688/bme68x.c **** {
 433:SensorLib\bme688/bme68x.c ****     int8_t rslt;
 434:SensorLib\bme688/bme68x.c ****     uint8_t tmp_pow_mode;
 435:SensorLib\bme688/bme68x.c ****     uint8_t pow_mode = 0;
 436:SensorLib\bme688/bme68x.c ****     uint8_t reg_addr = BME68X_REG_CTRL_MEAS;
 437:SensorLib\bme688/bme68x.c **** 
 438:SensorLib\bme688/bme68x.c ****     /* Call until in sleep */
 439:SensorLib\bme688/bme68x.c ****     do
 440:SensorLib\bme688/bme68x.c ****     {
 441:SensorLib\bme688/bme68x.c ****         rslt = bme68x_get_regs(BME68X_REG_CTRL_MEAS, &tmp_pow_mode, 1, dev);
 442:SensorLib\bme688/bme68x.c ****         if (rslt == BME68X_OK)
 443:SensorLib\bme688/bme68x.c ****         {
 444:SensorLib\bme688/bme68x.c ****             /* Put to sleep before changing mode */
 445:SensorLib\bme688/bme68x.c ****             pow_mode = (tmp_pow_mode & BME68X_MODE_MSK);
 446:SensorLib\bme688/bme68x.c ****             if (pow_mode != BME68X_SLEEP_MODE)
 447:SensorLib\bme688/bme68x.c ****             {
 448:SensorLib\bme688/bme68x.c ****                 tmp_pow_mode &= ~BME68X_MODE_MSK; /* Set to sleep */
 449:SensorLib\bme688/bme68x.c ****                 rslt = bme68x_set_regs(&reg_addr, &tmp_pow_mode, 1, dev);
 450:SensorLib\bme688/bme68x.c ****                 dev->delay_us(BME68X_PERIOD_POLL, dev->intf_ptr);
 451:SensorLib\bme688/bme68x.c ****             }
 452:SensorLib\bme688/bme68x.c ****         }
 453:SensorLib\bme688/bme68x.c ****     } while ((pow_mode != BME68X_SLEEP_MODE) && (rslt == BME68X_OK));
 454:SensorLib\bme688/bme68x.c **** 
 455:SensorLib\bme688/bme68x.c ****     /* Already in sleep */
 456:SensorLib\bme688/bme68x.c ****     if ((op_mode != BME68X_SLEEP_MODE) && (rslt == BME68X_OK))
 457:SensorLib\bme688/bme68x.c ****     {
 458:SensorLib\bme688/bme68x.c ****         tmp_pow_mode = (tmp_pow_mode & ~BME68X_MODE_MSK) | (op_mode & BME68X_MODE_MSK);
 459:SensorLib\bme688/bme68x.c ****         rslt = bme68x_set_regs(&reg_addr, &tmp_pow_mode, 1, dev);
 460:SensorLib\bme688/bme68x.c ****     }
 461:SensorLib\bme688/bme68x.c **** 
 462:SensorLib\bme688/bme68x.c ****     return rslt;
 463:SensorLib\bme688/bme68x.c **** }
 464:SensorLib\bme688/bme68x.c **** 
 465:SensorLib\bme688/bme68x.c **** /*
 466:SensorLib\bme688/bme68x.c ****  * @brief This API is used to get the operation mode of the sensor.
 467:SensorLib\bme688/bme68x.c ****  */
 468:SensorLib\bme688/bme68x.c **** int8_t bme68x_get_op_mode(uint8_t *op_mode, struct bme68x_dev *dev)
 469:SensorLib\bme688/bme68x.c **** {
 470:SensorLib\bme688/bme68x.c ****     int8_t rslt;
 471:SensorLib\bme688/bme68x.c ****     uint8_t mode;
 472:SensorLib\bme688/bme68x.c **** 
 473:SensorLib\bme688/bme68x.c ****     if (op_mode)
 474:SensorLib\bme688/bme68x.c ****     {
 475:SensorLib\bme688/bme68x.c ****         rslt = bme68x_get_regs(BME68X_REG_CTRL_MEAS, &mode, 1, dev);
 476:SensorLib\bme688/bme68x.c **** 
 477:SensorLib\bme688/bme68x.c ****         /* Masking the other register bit info*/
 478:SensorLib\bme688/bme68x.c ****         *op_mode = mode & BME68X_MODE_MSK;
 479:SensorLib\bme688/bme68x.c ****     }
 480:SensorLib\bme688/bme68x.c ****     else
 481:SensorLib\bme688/bme68x.c ****     {
 482:SensorLib\bme688/bme68x.c ****         rslt = BME68X_E_NULL_PTR;
 483:SensorLib\bme688/bme68x.c ****     }
 484:SensorLib\bme688/bme68x.c **** 
 485:SensorLib\bme688/bme68x.c ****     return rslt;
 486:SensorLib\bme688/bme68x.c **** }
 487:SensorLib\bme688/bme68x.c **** 
ARM GAS  C:\Users\CHRONI~1\AppData\Local\Temp\ccho61l0.s 			page 10


 488:SensorLib\bme688/bme68x.c **** /*
 489:SensorLib\bme688/bme68x.c ****  * @brief This API is used to get the remaining duration that can be used for heating.
 490:SensorLib\bme688/bme68x.c ****  */
 491:SensorLib\bme688/bme68x.c **** uint32_t bme68x_get_meas_dur(const uint8_t op_mode, struct bme68x_conf *conf, struct bme68x_dev *de
 492:SensorLib\bme688/bme68x.c **** {
 493:SensorLib\bme688/bme68x.c ****     int8_t rslt;
 494:SensorLib\bme688/bme68x.c ****     uint32_t meas_dur = 0; /* Calculate in us */
 495:SensorLib\bme688/bme68x.c ****     uint32_t meas_cycles;
 496:SensorLib\bme688/bme68x.c ****     uint8_t os_to_meas_cycles[6] = { 0, 1, 2, 4, 8, 16 };
 497:SensorLib\bme688/bme68x.c **** 
 498:SensorLib\bme688/bme68x.c ****     if (conf != NULL)
 499:SensorLib\bme688/bme68x.c ****     {
 500:SensorLib\bme688/bme68x.c ****         /* Boundary check for temperature oversampling */
 501:SensorLib\bme688/bme68x.c ****         rslt = boundary_check(&conf->os_temp, BME68X_OS_16X, dev);
 502:SensorLib\bme688/bme68x.c **** 
 503:SensorLib\bme688/bme68x.c ****         if (rslt == BME68X_OK)
 504:SensorLib\bme688/bme68x.c ****         {
 505:SensorLib\bme688/bme68x.c ****             /* Boundary check for pressure oversampling */
 506:SensorLib\bme688/bme68x.c ****             rslt = boundary_check(&conf->os_pres, BME68X_OS_16X, dev);
 507:SensorLib\bme688/bme68x.c ****         }
 508:SensorLib\bme688/bme68x.c **** 
 509:SensorLib\bme688/bme68x.c ****         if (rslt == BME68X_OK)
 510:SensorLib\bme688/bme68x.c ****         {
 511:SensorLib\bme688/bme68x.c ****             /* Boundary check for humidity oversampling */
 512:SensorLib\bme688/bme68x.c ****             rslt = boundary_check(&conf->os_hum, BME68X_OS_16X, dev);
 513:SensorLib\bme688/bme68x.c ****         }
 514:SensorLib\bme688/bme68x.c **** 
 515:SensorLib\bme688/bme68x.c ****         if (rslt == BME68X_OK)
 516:SensorLib\bme688/bme68x.c ****         {
 517:SensorLib\bme688/bme68x.c ****             meas_cycles = os_to_meas_cycles[conf->os_temp];
 518:SensorLib\bme688/bme68x.c ****             meas_cycles += os_to_meas_cycles[conf->os_pres];
 519:SensorLib\bme688/bme68x.c ****             meas_cycles += os_to_meas_cycles[conf->os_hum];
 520:SensorLib\bme688/bme68x.c **** 
 521:SensorLib\bme688/bme68x.c ****             /* TPH measurement duration */
 522:SensorLib\bme688/bme68x.c ****             meas_dur = meas_cycles * UINT32_C(1963);
 523:SensorLib\bme688/bme68x.c ****             meas_dur += UINT32_C(477 * 4); /* TPH switching duration */
 524:SensorLib\bme688/bme68x.c ****             meas_dur += UINT32_C(477 * 5); /* Gas measurement duration */
 525:SensorLib\bme688/bme68x.c **** 
 526:SensorLib\bme688/bme68x.c ****             if (op_mode != BME68X_PARALLEL_MODE)
 527:SensorLib\bme688/bme68x.c ****             {
 528:SensorLib\bme688/bme68x.c ****                 meas_dur += UINT32_C(1000); /* Wake up duration of 1ms */
 529:SensorLib\bme688/bme68x.c ****             }
 530:SensorLib\bme688/bme68x.c ****         }
 531:SensorLib\bme688/bme68x.c ****     }
 532:SensorLib\bme688/bme68x.c **** 
 533:SensorLib\bme688/bme68x.c ****     return meas_dur;
 534:SensorLib\bme688/bme68x.c **** }
 535:SensorLib\bme688/bme68x.c **** 
 536:SensorLib\bme688/bme68x.c **** /*
 537:SensorLib\bme688/bme68x.c ****  * @brief This API reads the pressure, temperature and humidity and gas data
 538:SensorLib\bme688/bme68x.c ****  * from the sensor, compensates the data and store it in the bme68x_data
 539:SensorLib\bme688/bme68x.c ****  * structure instance passed by the user.
 540:SensorLib\bme688/bme68x.c ****  */
 541:SensorLib\bme688/bme68x.c **** int8_t bme68x_get_data(uint8_t op_mode, struct bme68x_data *data, uint8_t *n_data, struct bme68x_de
 542:SensorLib\bme688/bme68x.c **** {
 543:SensorLib\bme688/bme68x.c ****     int8_t rslt;
 544:SensorLib\bme688/bme68x.c ****     uint8_t i = 0, j = 0, new_fields = 0;
ARM GAS  C:\Users\CHRONI~1\AppData\Local\Temp\ccho61l0.s 			page 11


 545:SensorLib\bme688/bme68x.c ****     struct bme68x_data *field_ptr[3] = { 0 };
 546:SensorLib\bme688/bme68x.c ****     struct bme68x_data field_data[3] = { { 0 } };
 547:SensorLib\bme688/bme68x.c **** 
 548:SensorLib\bme688/bme68x.c ****     field_ptr[0] = &field_data[0];
 549:SensorLib\bme688/bme68x.c ****     field_ptr[1] = &field_data[1];
 550:SensorLib\bme688/bme68x.c ****     field_ptr[2] = &field_data[2];
 551:SensorLib\bme688/bme68x.c **** 
 552:SensorLib\bme688/bme68x.c ****     rslt = null_ptr_check(dev);
 553:SensorLib\bme688/bme68x.c ****     if ((rslt == BME68X_OK) && (data != NULL))
 554:SensorLib\bme688/bme68x.c ****     {
 555:SensorLib\bme688/bme68x.c ****         /* Reading the sensor data in forced mode only */
 556:SensorLib\bme688/bme68x.c ****         if (op_mode == BME68X_FORCED_MODE)
 557:SensorLib\bme688/bme68x.c ****         {
 558:SensorLib\bme688/bme68x.c ****             rslt = read_field_data(0, data, dev);
 559:SensorLib\bme688/bme68x.c ****             if (rslt == BME68X_OK)
 560:SensorLib\bme688/bme68x.c ****             {
 561:SensorLib\bme688/bme68x.c ****                 if (data->status & BME68X_NEW_DATA_MSK)
 562:SensorLib\bme688/bme68x.c ****                 {
 563:SensorLib\bme688/bme68x.c ****                     new_fields = 1;
 564:SensorLib\bme688/bme68x.c ****                 }
 565:SensorLib\bme688/bme68x.c ****                 else
 566:SensorLib\bme688/bme68x.c ****                 {
 567:SensorLib\bme688/bme68x.c ****                     new_fields = 0;
 568:SensorLib\bme688/bme68x.c ****                     rslt = BME68X_W_NO_NEW_DATA;
 569:SensorLib\bme688/bme68x.c ****                 }
 570:SensorLib\bme688/bme68x.c ****             }
 571:SensorLib\bme688/bme68x.c ****         }
 572:SensorLib\bme688/bme68x.c ****         else if ((op_mode == BME68X_PARALLEL_MODE) || (op_mode == BME68X_SEQUENTIAL_MODE))
 573:SensorLib\bme688/bme68x.c ****         {
 574:SensorLib\bme688/bme68x.c ****             /* Read the 3 fields and count the number of new data fields */
 575:SensorLib\bme688/bme68x.c ****             rslt = read_all_field_data(field_ptr, dev);
 576:SensorLib\bme688/bme68x.c **** 
 577:SensorLib\bme688/bme68x.c ****             new_fields = 0;
 578:SensorLib\bme688/bme68x.c ****             for (i = 0; (i < 3) && (rslt == BME68X_OK); i++)
 579:SensorLib\bme688/bme68x.c ****             {
 580:SensorLib\bme688/bme68x.c ****                 if (field_ptr[i]->status & BME68X_NEW_DATA_MSK)
 581:SensorLib\bme688/bme68x.c ****                 {
 582:SensorLib\bme688/bme68x.c ****                     new_fields++;
 583:SensorLib\bme688/bme68x.c ****                 }
 584:SensorLib\bme688/bme68x.c ****             }
 585:SensorLib\bme688/bme68x.c **** 
 586:SensorLib\bme688/bme68x.c ****             /* Sort the sensor data in parallel & sequential modes*/
 587:SensorLib\bme688/bme68x.c ****             for (i = 0; (i < 2) && (rslt == BME68X_OK); i++)
 588:SensorLib\bme688/bme68x.c ****             {
 589:SensorLib\bme688/bme68x.c ****                 for (j = i + 1; j < 3; j++)
 590:SensorLib\bme688/bme68x.c ****                 {
 591:SensorLib\bme688/bme68x.c ****                     sort_sensor_data(i, j, field_ptr);
 592:SensorLib\bme688/bme68x.c ****                 }
 593:SensorLib\bme688/bme68x.c ****             }
 594:SensorLib\bme688/bme68x.c **** 
 595:SensorLib\bme688/bme68x.c ****             /* Copy the sorted data */
 596:SensorLib\bme688/bme68x.c ****             for (i = 0; ((i < 3) && (rslt == BME68X_OK)); i++)
 597:SensorLib\bme688/bme68x.c ****             {
 598:SensorLib\bme688/bme68x.c ****                 data[i] = *field_ptr[i];
 599:SensorLib\bme688/bme68x.c ****             }
 600:SensorLib\bme688/bme68x.c **** 
 601:SensorLib\bme688/bme68x.c ****             if (new_fields == 0)
ARM GAS  C:\Users\CHRONI~1\AppData\Local\Temp\ccho61l0.s 			page 12


 602:SensorLib\bme688/bme68x.c ****             {
 603:SensorLib\bme688/bme68x.c ****                 rslt = BME68X_W_NO_NEW_DATA;
 604:SensorLib\bme688/bme68x.c ****             }
 605:SensorLib\bme688/bme68x.c ****         }
 606:SensorLib\bme688/bme68x.c ****         else
 607:SensorLib\bme688/bme68x.c ****         {
 608:SensorLib\bme688/bme68x.c ****             rslt = BME68X_W_DEFINE_OP_MODE;
 609:SensorLib\bme688/bme68x.c ****         }
 610:SensorLib\bme688/bme68x.c **** 
 611:SensorLib\bme688/bme68x.c ****         if (n_data == NULL)
 612:SensorLib\bme688/bme68x.c ****         {
 613:SensorLib\bme688/bme68x.c ****             rslt = BME68X_E_NULL_PTR;
 614:SensorLib\bme688/bme68x.c ****         }
 615:SensorLib\bme688/bme68x.c ****         else
 616:SensorLib\bme688/bme68x.c ****         {
 617:SensorLib\bme688/bme68x.c ****             *n_data = new_fields;
 618:SensorLib\bme688/bme68x.c ****         }
 619:SensorLib\bme688/bme68x.c ****     }
 620:SensorLib\bme688/bme68x.c ****     else
 621:SensorLib\bme688/bme68x.c ****     {
 622:SensorLib\bme688/bme68x.c ****         rslt = BME68X_E_NULL_PTR;
 623:SensorLib\bme688/bme68x.c ****     }
 624:SensorLib\bme688/bme68x.c **** 
 625:SensorLib\bme688/bme68x.c ****     return rslt;
 626:SensorLib\bme688/bme68x.c **** }
 627:SensorLib\bme688/bme68x.c **** 
 628:SensorLib\bme688/bme68x.c **** /*
 629:SensorLib\bme688/bme68x.c ****  * @brief This API is used to set the gas configuration of the sensor.
 630:SensorLib\bme688/bme68x.c ****  */
 631:SensorLib\bme688/bme68x.c **** int8_t bme68x_set_heatr_conf(uint8_t op_mode, const struct bme68x_heatr_conf *conf, struct bme68x_d
 632:SensorLib\bme688/bme68x.c **** {
 633:SensorLib\bme688/bme68x.c ****     int8_t rslt;
 634:SensorLib\bme688/bme68x.c ****     uint8_t nb_conv = 0;
 635:SensorLib\bme688/bme68x.c ****     uint8_t hctrl, run_gas = 0;
 636:SensorLib\bme688/bme68x.c ****     uint8_t ctrl_gas_data[2];
 637:SensorLib\bme688/bme68x.c ****     uint8_t ctrl_gas_addr[2] = { BME68X_REG_CTRL_GAS_0, BME68X_REG_CTRL_GAS_1 };
 638:SensorLib\bme688/bme68x.c **** 
 639:SensorLib\bme688/bme68x.c ****     if (conf != NULL)
 640:SensorLib\bme688/bme68x.c ****     {
 641:SensorLib\bme688/bme68x.c ****         rslt = bme68x_set_op_mode(BME68X_SLEEP_MODE, dev);
 642:SensorLib\bme688/bme68x.c ****         if (rslt == BME68X_OK)
 643:SensorLib\bme688/bme68x.c ****         {
 644:SensorLib\bme688/bme68x.c ****             rslt = set_conf(conf, op_mode, &nb_conv, dev);
 645:SensorLib\bme688/bme68x.c ****         }
 646:SensorLib\bme688/bme68x.c **** 
 647:SensorLib\bme688/bme68x.c ****         if (rslt == BME68X_OK)
 648:SensorLib\bme688/bme68x.c ****         {
 649:SensorLib\bme688/bme68x.c ****             rslt = bme68x_get_regs(BME68X_REG_CTRL_GAS_0, ctrl_gas_data, 2, dev);
 650:SensorLib\bme688/bme68x.c ****             if (rslt == BME68X_OK)
 651:SensorLib\bme688/bme68x.c ****             {
 652:SensorLib\bme688/bme68x.c ****                 if (conf->enable == BME68X_ENABLE)
 653:SensorLib\bme688/bme68x.c ****                 {
 654:SensorLib\bme688/bme68x.c ****                     hctrl = BME68X_ENABLE_HEATER;
 655:SensorLib\bme688/bme68x.c ****                     if (dev->variant_id == BME68X_VARIANT_GAS_HIGH)
 656:SensorLib\bme688/bme68x.c ****                     {
 657:SensorLib\bme688/bme68x.c ****                         run_gas = BME68X_ENABLE_GAS_MEAS_H;
 658:SensorLib\bme688/bme68x.c ****                     }
ARM GAS  C:\Users\CHRONI~1\AppData\Local\Temp\ccho61l0.s 			page 13


 659:SensorLib\bme688/bme68x.c ****                     else
 660:SensorLib\bme688/bme68x.c ****                     {
 661:SensorLib\bme688/bme68x.c ****                         run_gas = BME68X_ENABLE_GAS_MEAS_L;
 662:SensorLib\bme688/bme68x.c ****                     }
 663:SensorLib\bme688/bme68x.c ****                 }
 664:SensorLib\bme688/bme68x.c ****                 else
 665:SensorLib\bme688/bme68x.c ****                 {
 666:SensorLib\bme688/bme68x.c ****                     hctrl = BME68X_DISABLE_HEATER;
 667:SensorLib\bme688/bme68x.c ****                     run_gas = BME68X_DISABLE_GAS_MEAS;
 668:SensorLib\bme688/bme68x.c ****                 }
 669:SensorLib\bme688/bme68x.c **** 
 670:SensorLib\bme688/bme68x.c ****                 ctrl_gas_data[0] = BME68X_SET_BITS(ctrl_gas_data[0], BME68X_HCTRL, hctrl);
 671:SensorLib\bme688/bme68x.c ****                 ctrl_gas_data[1] = BME68X_SET_BITS_POS_0(ctrl_gas_data[1], BME68X_NBCONV, nb_conv);
 672:SensorLib\bme688/bme68x.c ****                 ctrl_gas_data[1] = BME68X_SET_BITS(ctrl_gas_data[1], BME68X_RUN_GAS, run_gas);
 673:SensorLib\bme688/bme68x.c ****                 rslt = bme68x_set_regs(ctrl_gas_addr, ctrl_gas_data, 2, dev);
 674:SensorLib\bme688/bme68x.c ****             }
 675:SensorLib\bme688/bme68x.c ****         }
 676:SensorLib\bme688/bme68x.c ****     }
 677:SensorLib\bme688/bme68x.c ****     else
 678:SensorLib\bme688/bme68x.c ****     {
 679:SensorLib\bme688/bme68x.c ****         rslt = BME68X_E_NULL_PTR;
 680:SensorLib\bme688/bme68x.c ****     }
 681:SensorLib\bme688/bme68x.c **** 
 682:SensorLib\bme688/bme68x.c ****     return rslt;
 683:SensorLib\bme688/bme68x.c **** }
 684:SensorLib\bme688/bme68x.c **** 
 685:SensorLib\bme688/bme68x.c **** /*!
 686:SensorLib\bme688/bme68x.c ****  * @brief This API is used to get the gas configuration of the sensor.
 687:SensorLib\bme688/bme68x.c ****  */
 688:SensorLib\bme688/bme68x.c **** int8_t bme68x_get_heatr_conf(const struct bme68x_heatr_conf *conf, struct bme68x_dev *dev)
 689:SensorLib\bme688/bme68x.c **** {
 690:SensorLib\bme688/bme68x.c ****     int8_t rslt = BME68X_OK;
 691:SensorLib\bme688/bme68x.c ****     uint8_t data_array[10] = { 0 };
 692:SensorLib\bme688/bme68x.c ****     uint8_t i;
 693:SensorLib\bme688/bme68x.c **** 
 694:SensorLib\bme688/bme68x.c ****     if ((conf != NULL) && (conf->heatr_dur_prof != NULL) && (conf->heatr_temp_prof != NULL))
 695:SensorLib\bme688/bme68x.c ****     {
 696:SensorLib\bme688/bme68x.c ****         /* FIXME: Add conversion to deg C and ms and add the other parameters */
 697:SensorLib\bme688/bme68x.c ****         rslt = bme68x_get_regs(BME68X_REG_RES_HEAT0, data_array, 10, dev);
 698:SensorLib\bme688/bme68x.c **** 
 699:SensorLib\bme688/bme68x.c ****         if (rslt == BME68X_OK)
 700:SensorLib\bme688/bme68x.c ****         {
 701:SensorLib\bme688/bme68x.c ****             for (i = 0; i < conf->profile_len; i++)
 702:SensorLib\bme688/bme68x.c ****             {
 703:SensorLib\bme688/bme68x.c ****                 conf->heatr_temp_prof[i] = data_array[i];
 704:SensorLib\bme688/bme68x.c ****             }
 705:SensorLib\bme688/bme68x.c **** 
 706:SensorLib\bme688/bme68x.c ****             rslt = bme68x_get_regs(BME68X_REG_GAS_WAIT0, data_array, 10, dev);
 707:SensorLib\bme688/bme68x.c **** 
 708:SensorLib\bme688/bme68x.c ****             if (rslt == BME68X_OK)
 709:SensorLib\bme688/bme68x.c ****             {
 710:SensorLib\bme688/bme68x.c ****                 for (i = 0; i < conf->profile_len; i++)
 711:SensorLib\bme688/bme68x.c ****                 {
 712:SensorLib\bme688/bme68x.c ****                     conf->heatr_dur_prof[i] = data_array[i];
 713:SensorLib\bme688/bme68x.c ****                 }
 714:SensorLib\bme688/bme68x.c ****             }
 715:SensorLib\bme688/bme68x.c ****         }
ARM GAS  C:\Users\CHRONI~1\AppData\Local\Temp\ccho61l0.s 			page 14


 716:SensorLib\bme688/bme68x.c ****     }
 717:SensorLib\bme688/bme68x.c ****     else
 718:SensorLib\bme688/bme68x.c ****     {
 719:SensorLib\bme688/bme68x.c ****         rslt = BME68X_E_NULL_PTR;
 720:SensorLib\bme688/bme68x.c ****     }
 721:SensorLib\bme688/bme68x.c **** 
 722:SensorLib\bme688/bme68x.c ****     return rslt;
 723:SensorLib\bme688/bme68x.c **** }
 724:SensorLib\bme688/bme68x.c **** 
 725:SensorLib\bme688/bme68x.c **** /*
 726:SensorLib\bme688/bme68x.c ****  * @brief This API performs Self-test of low and high gas variants of BME68X
 727:SensorLib\bme688/bme68x.c ****  */
 728:SensorLib\bme688/bme68x.c **** int8_t bme68x_selftest_check(const struct bme68x_dev *dev)
 729:SensorLib\bme688/bme68x.c **** {
 730:SensorLib\bme688/bme68x.c ****     int8_t rslt;
 731:SensorLib\bme688/bme68x.c ****     uint8_t n_fields;
 732:SensorLib\bme688/bme68x.c ****     uint8_t i = 0;
 733:SensorLib\bme688/bme68x.c ****     struct bme68x_data data[BME68X_N_MEAS] = { { 0 } };
 734:SensorLib\bme688/bme68x.c ****     struct bme68x_dev t_dev;
 735:SensorLib\bme688/bme68x.c ****     struct bme68x_conf conf;
 736:SensorLib\bme688/bme68x.c ****     struct bme68x_heatr_conf heatr_conf;
 737:SensorLib\bme688/bme68x.c **** 
 738:SensorLib\bme688/bme68x.c ****     rslt = null_ptr_check(dev);
 739:SensorLib\bme688/bme68x.c **** 
 740:SensorLib\bme688/bme68x.c ****     if (rslt == BME68X_OK)
 741:SensorLib\bme688/bme68x.c ****     {
 742:SensorLib\bme688/bme68x.c ****         /* Copy required parameters from reference bme68x_dev struct */
 743:SensorLib\bme688/bme68x.c ****         t_dev.amb_temp = 25;
 744:SensorLib\bme688/bme68x.c ****         t_dev.read = dev->read;
 745:SensorLib\bme688/bme68x.c ****         t_dev.write = dev->write;
 746:SensorLib\bme688/bme68x.c ****         t_dev.intf = dev->intf;
 747:SensorLib\bme688/bme68x.c ****         t_dev.delay_us = dev->delay_us;
 748:SensorLib\bme688/bme68x.c ****         t_dev.intf_ptr = dev->intf_ptr;
 749:SensorLib\bme688/bme68x.c **** 
 750:SensorLib\bme688/bme68x.c ****         rslt = bme68x_init(&t_dev);
 751:SensorLib\bme688/bme68x.c ****     }
 752:SensorLib\bme688/bme68x.c **** 
 753:SensorLib\bme688/bme68x.c ****     if (rslt == BME68X_OK)
 754:SensorLib\bme688/bme68x.c ****     {
 755:SensorLib\bme688/bme68x.c ****         /* Set the temperature, pressure and humidity & filter settings */
 756:SensorLib\bme688/bme68x.c ****         conf.os_hum = BME68X_OS_1X;
 757:SensorLib\bme688/bme68x.c ****         conf.os_pres = BME68X_OS_16X;
 758:SensorLib\bme688/bme68x.c ****         conf.os_temp = BME68X_OS_2X;
 759:SensorLib\bme688/bme68x.c **** 
 760:SensorLib\bme688/bme68x.c ****         /* Set the remaining gas sensor settings and link the heating profile */
 761:SensorLib\bme688/bme68x.c ****         heatr_conf.enable = BME68X_ENABLE;
 762:SensorLib\bme688/bme68x.c ****         heatr_conf.heatr_dur = BME68X_HEATR_DUR1;
 763:SensorLib\bme688/bme68x.c ****         heatr_conf.heatr_temp = BME68X_HIGH_TEMP;
 764:SensorLib\bme688/bme68x.c ****         rslt = bme68x_set_heatr_conf(BME68X_FORCED_MODE, &heatr_conf, &t_dev);
 765:SensorLib\bme688/bme68x.c ****         if (rslt == BME68X_OK)
 766:SensorLib\bme688/bme68x.c ****         {
 767:SensorLib\bme688/bme68x.c ****             rslt = bme68x_set_conf(&conf, &t_dev);
 768:SensorLib\bme688/bme68x.c ****             if (rslt == BME68X_OK)
 769:SensorLib\bme688/bme68x.c ****             {
 770:SensorLib\bme688/bme68x.c ****                 rslt = bme68x_set_op_mode(BME68X_FORCED_MODE, &t_dev); /* Trigger a measurement */
 771:SensorLib\bme688/bme68x.c ****                 if (rslt == BME68X_OK)
 772:SensorLib\bme688/bme68x.c ****                 {
ARM GAS  C:\Users\CHRONI~1\AppData\Local\Temp\ccho61l0.s 			page 15


 773:SensorLib\bme688/bme68x.c ****                     /* Wait for the measurement to complete */
 774:SensorLib\bme688/bme68x.c ****                     t_dev.delay_us(BME68X_HEATR_DUR1_DELAY, t_dev.intf_ptr);
 775:SensorLib\bme688/bme68x.c ****                     rslt = bme68x_get_data(BME68X_FORCED_MODE, &data[0], &n_fields, &t_dev);
 776:SensorLib\bme688/bme68x.c ****                     if (rslt == BME68X_OK)
 777:SensorLib\bme688/bme68x.c ****                     {
 778:SensorLib\bme688/bme68x.c ****                         if ((data[0].idac != 0x00) && (data[0].idac != 0xFF) &&
 779:SensorLib\bme688/bme68x.c ****                             (data[0].status & BME68X_GASM_VALID_MSK))
 780:SensorLib\bme688/bme68x.c ****                         {
 781:SensorLib\bme688/bme68x.c ****                             rslt = BME68X_OK;
 782:SensorLib\bme688/bme68x.c ****                         }
 783:SensorLib\bme688/bme68x.c ****                         else
 784:SensorLib\bme688/bme68x.c ****                         {
 785:SensorLib\bme688/bme68x.c ****                             rslt = BME68X_E_SELF_TEST;
 786:SensorLib\bme688/bme68x.c ****                         }
 787:SensorLib\bme688/bme68x.c ****                     }
 788:SensorLib\bme688/bme68x.c ****                 }
 789:SensorLib\bme688/bme68x.c ****             }
 790:SensorLib\bme688/bme68x.c ****         }
 791:SensorLib\bme688/bme68x.c **** 
 792:SensorLib\bme688/bme68x.c ****         heatr_conf.heatr_dur = BME68X_HEATR_DUR2;
 793:SensorLib\bme688/bme68x.c ****         while ((rslt == BME68X_OK) && (i < BME68X_N_MEAS))
 794:SensorLib\bme688/bme68x.c ****         {
 795:SensorLib\bme688/bme68x.c ****             if (i % 2 == 0)
 796:SensorLib\bme688/bme68x.c ****             {
 797:SensorLib\bme688/bme68x.c ****                 heatr_conf.heatr_temp = BME68X_HIGH_TEMP; /* Higher temperature */
 798:SensorLib\bme688/bme68x.c ****             }
 799:SensorLib\bme688/bme68x.c ****             else
 800:SensorLib\bme688/bme68x.c ****             {
 801:SensorLib\bme688/bme68x.c ****                 heatr_conf.heatr_temp = BME68X_LOW_TEMP; /* Lower temperature */
 802:SensorLib\bme688/bme68x.c ****             }
 803:SensorLib\bme688/bme68x.c **** 
 804:SensorLib\bme688/bme68x.c ****             rslt = bme68x_set_heatr_conf(BME68X_FORCED_MODE, &heatr_conf, &t_dev);
 805:SensorLib\bme688/bme68x.c ****             if (rslt == BME68X_OK)
 806:SensorLib\bme688/bme68x.c ****             {
 807:SensorLib\bme688/bme68x.c ****                 rslt = bme68x_set_conf(&conf, &t_dev);
 808:SensorLib\bme688/bme68x.c ****                 if (rslt == BME68X_OK)
 809:SensorLib\bme688/bme68x.c ****                 {
 810:SensorLib\bme688/bme68x.c ****                     rslt = bme68x_set_op_mode(BME68X_FORCED_MODE, &t_dev); /* Trigger a measurement
 811:SensorLib\bme688/bme68x.c ****                     if (rslt == BME68X_OK)
 812:SensorLib\bme688/bme68x.c ****                     {
 813:SensorLib\bme688/bme68x.c ****                         /* Wait for the measurement to complete */
 814:SensorLib\bme688/bme68x.c ****                         t_dev.delay_us(BME68X_HEATR_DUR2_DELAY, t_dev.intf_ptr);
 815:SensorLib\bme688/bme68x.c ****                         rslt = bme68x_get_data(BME68X_FORCED_MODE, &data[i], &n_fields, &t_dev);
 816:SensorLib\bme688/bme68x.c ****                     }
 817:SensorLib\bme688/bme68x.c ****                 }
 818:SensorLib\bme688/bme68x.c ****             }
 819:SensorLib\bme688/bme68x.c **** 
 820:SensorLib\bme688/bme68x.c ****             i++;
 821:SensorLib\bme688/bme68x.c ****         }
 822:SensorLib\bme688/bme68x.c **** 
 823:SensorLib\bme688/bme68x.c ****         if (rslt == BME68X_OK)
 824:SensorLib\bme688/bme68x.c ****         {
 825:SensorLib\bme688/bme68x.c ****             rslt = analyze_sensor_data(data, BME68X_N_MEAS);
 826:SensorLib\bme688/bme68x.c ****         }
 827:SensorLib\bme688/bme68x.c ****     }
 828:SensorLib\bme688/bme68x.c **** 
 829:SensorLib\bme688/bme68x.c ****     return rslt;
ARM GAS  C:\Users\CHRONI~1\AppData\Local\Temp\ccho61l0.s 			page 16


 830:SensorLib\bme688/bme68x.c **** }
 831:SensorLib\bme688/bme68x.c **** 
 832:SensorLib\bme688/bme68x.c **** /*****************************INTERNAL APIs***********************************************/
 833:SensorLib\bme688/bme68x.c **** #ifndef BME68X_USE_FPU
 834:SensorLib\bme688/bme68x.c **** 
 835:SensorLib\bme688/bme68x.c **** /* @brief This internal API is used to calculate the temperature value. */
 836:SensorLib\bme688/bme68x.c **** static int16_t calc_temperature(uint32_t temp_adc, struct bme68x_dev *dev)
 837:SensorLib\bme688/bme68x.c **** {
  27              		.loc 1 837 0
  28              		.cfi_startproc
  29              		@ args = 0, pretend = 0, frame = 0
  30              		@ frame_needed = 0, uses_anonymous_args = 0
  31              		@ link register save eliminated.
  32              	.LVL0:
  33 0000 F0B4     		push	{r4, r5, r6, r7}
  34              		.cfi_def_cfa_offset 16
  35              		.cfi_offset 4, -16
  36              		.cfi_offset 5, -12
  37              		.cfi_offset 6, -8
  38              		.cfi_offset 7, -4
 838:SensorLib\bme688/bme68x.c ****     int64_t var1;
 839:SensorLib\bme688/bme68x.c ****     int64_t var2;
 840:SensorLib\bme688/bme68x.c ****     int64_t var3;
 841:SensorLib\bme688/bme68x.c ****     int16_t calc_temp;
 842:SensorLib\bme688/bme68x.c **** 
 843:SensorLib\bme688/bme68x.c ****     /*lint -save -e701 -e702 -e704 */
 844:SensorLib\bme688/bme68x.c ****     var1 = ((int32_t)temp_adc >> 3) - ((int32_t)dev->calib.par_t1 << 1);
  39              		.loc 1 844 0
  40 0002 CC8B     		ldrh	r4, [r1, #30]
  41 0004 6400     		lsls	r4, r4, #1
  42 0006 C4EBE000 		rsb	r0, r4, r0, asr #3
  43              	.LVL1:
  44 000a 0246     		mov	r2, r0
  45 000c C317     		asrs	r3, r0, #31
  46              	.LVL2:
 845:SensorLib\bme688/bme68x.c ****     var2 = (var1 * (int32_t)dev->calib.par_t2) >> 11;
  47              		.loc 1 845 0
  48 000e B1F92040 		ldrsh	r4, [r1, #32]
  49 0012 E517     		asrs	r5, r4, #31
  50 0014 04FB03F6 		mul	r6, r4, r3
  51 0018 00FB0566 		mla	r6, r0, r5, r6
  52 001c A4FB0045 		umull	r4, r5, r4, r0
  53 0020 3544     		add	r5, r5, r6
  54 0022 E00A     		lsrs	r0, r4, #11
  55 0024 40EA4550 		orr	r0, r0, r5, lsl #21
  56              	.LVL3:
 846:SensorLib\bme688/bme68x.c ****     var3 = ((var1 >> 1) * (var1 >> 1)) >> 12;
  57              		.loc 1 846 0
  58 0028 5B10     		movs	r3, r3, asr #1
  59 002a 4FEA3202 		mov	r2, r2, rrx
  60              	.LVL4:
  61 002e 02FB03F4 		mul	r4, r2, r3
  62              	.LVL5:
  63 0032 A2FB0223 		umull	r2, r3, r2, r2
  64 0036 03EB4403 		add	r3, r3, r4, lsl #1
  65 003a 140B     		lsrs	r4, r2, #12
  66 003c 44EA0354 		orr	r4, r4, r3, lsl #20
ARM GAS  C:\Users\CHRONI~1\AppData\Local\Temp\ccho61l0.s 			page 17


  67 0040 1A13     		asrs	r2, r3, #12
  68              	.LVL6:
 847:SensorLib\bme688/bme68x.c ****     var3 = ((var3) * ((int32_t)dev->calib.par_t3 << 4)) >> 14;
  69              		.loc 1 847 0
  70 0042 91F92230 		ldrsb	r3, [r1, #34]
  71 0046 1B01     		lsls	r3, r3, #4
  72 0048 DF17     		asrs	r7, r3, #31
  73 004a 03FB02F2 		mul	r2, r3, r2
  74              	.LVL7:
  75 004e 04FB0722 		mla	r2, r4, r7, r2
  76 0052 A3FB0445 		umull	r4, r5, r3, r4
  77 0056 1544     		add	r5, r5, r2
  78 0058 A30B     		lsrs	r3, r4, #14
  79 005a 43EA8543 		orr	r3, r3, r5, lsl #18
  80              	.LVL8:
 848:SensorLib\bme688/bme68x.c ****     dev->calib.t_fine = (int32_t)(var2 + var3);
  81              		.loc 1 848 0
  82 005e 1844     		add	r0, r0, r3
  83              	.LVL9:
  84 0060 8863     		str	r0, [r1, #56]
 849:SensorLib\bme688/bme68x.c ****     calc_temp = (int16_t)(((dev->calib.t_fine * 5) + 128) >> 8);
  85              		.loc 1 849 0
  86 0062 00EB8000 		add	r0, r0, r0, lsl #2
  87 0066 8030     		adds	r0, r0, #128
  88              	.LVL10:
 850:SensorLib\bme688/bme68x.c **** 
 851:SensorLib\bme688/bme68x.c ****     /*lint -restore */
 852:SensorLib\bme688/bme68x.c ****     return calc_temp;
 853:SensorLib\bme688/bme68x.c **** }
  89              		.loc 1 853 0
  90 0068 40F30F20 		sbfx	r0, r0, #8, #16
  91              	.LVL11:
  92 006c F0BC     		pop	{r4, r5, r6, r7}
  93              		.cfi_restore 7
  94              		.cfi_restore 6
  95              		.cfi_restore 5
  96              		.cfi_restore 4
  97              		.cfi_def_cfa_offset 0
  98              	.LVL12:
  99 006e 7047     		bx	lr
 100              		.cfi_endproc
 101              	.LFE14:
 102              		.size	calc_temperature, .-calc_temperature
 103              		.section	.text.calc_pressure,"ax",%progbits
 104              		.align	2
 105              		.thumb
 106              		.thumb_func
 107              		.type	calc_pressure, %function
 108              	calc_pressure:
 109              	.LFB15:
 854:SensorLib\bme688/bme68x.c **** 
 855:SensorLib\bme688/bme68x.c **** /* @brief This internal API is used to calculate the pressure value. */
 856:SensorLib\bme688/bme68x.c **** static uint32_t calc_pressure(uint32_t pres_adc, const struct bme68x_dev *dev)
 857:SensorLib\bme688/bme68x.c **** {
 110              		.loc 1 857 0
 111              		.cfi_startproc
 112              		@ args = 0, pretend = 0, frame = 0
ARM GAS  C:\Users\CHRONI~1\AppData\Local\Temp\ccho61l0.s 			page 18


 113              		@ frame_needed = 0, uses_anonymous_args = 0
 114              		@ link register save eliminated.
 115              	.LVL13:
 116 0000 30B4     		push	{r4, r5}
 117              		.cfi_def_cfa_offset 8
 118              		.cfi_offset 4, -8
 119              		.cfi_offset 5, -4
 120              	.LVL14:
 858:SensorLib\bme688/bme68x.c ****     int32_t var1;
 859:SensorLib\bme688/bme68x.c ****     int32_t var2;
 860:SensorLib\bme688/bme68x.c ****     int32_t var3;
 861:SensorLib\bme688/bme68x.c ****     int32_t pressure_comp;
 862:SensorLib\bme688/bme68x.c **** 
 863:SensorLib\bme688/bme68x.c ****     /* This value is used to check precedence to multiplication or division
 864:SensorLib\bme688/bme68x.c ****      * in the pressure compensation equation to achieve least loss of precision and
 865:SensorLib\bme688/bme68x.c ****      * avoiding overflows.
 866:SensorLib\bme688/bme68x.c ****      * i.e Comparing value, pres_ovf_check = (1 << 31) >> 1
 867:SensorLib\bme688/bme68x.c ****      */
 868:SensorLib\bme688/bme68x.c ****     const int32_t pres_ovf_check = INT32_C(0x40000000);
 869:SensorLib\bme688/bme68x.c **** 
 870:SensorLib\bme688/bme68x.c ****     /*lint -save -e701 -e702 -e713 */
 871:SensorLib\bme688/bme68x.c ****     var1 = (((int32_t)dev->calib.t_fine) >> 1) - 64000;
 121              		.loc 1 871 0
 122 0002 8C6B     		ldr	r4, [r1, #56]
 123 0004 6410     		asrs	r4, r4, #1
 124 0006 A4F57A44 		sub	r4, r4, #64000
 125              	.LVL15:
 872:SensorLib\bme688/bme68x.c ****     var2 = ((((var1 >> 2) * (var1 >> 2)) >> 11) * (int32_t)dev->calib.par_p6) >> 2;
 126              		.loc 1 872 0
 127 000a A510     		asrs	r5, r4, #2
 128 000c 05FB05F5 		mul	r5, r5, r5
 129 0010 EA12     		asrs	r2, r5, #11
 130 0012 91F92E30 		ldrsb	r3, [r1, #46]
 131 0016 03FB02F2 		mul	r2, r3, r2
 132              	.LVL16:
 873:SensorLib\bme688/bme68x.c ****     var2 = var2 + ((var1 * (int32_t)dev->calib.par_p5) << 1);
 133              		.loc 1 873 0
 134 001a B1F92C30 		ldrsh	r3, [r1, #44]
 135 001e 03FB04F3 		mul	r3, r3, r4
 136 0022 5B00     		lsls	r3, r3, #1
 137 0024 03EBA203 		add	r3, r3, r2, asr #2
 138              	.LVL17:
 874:SensorLib\bme688/bme68x.c ****     var2 = (var2 >> 2) + ((int32_t)dev->calib.par_p4 << 16);
 139              		.loc 1 874 0
 140 0028 B1F92A20 		ldrsh	r2, [r1, #42]
 141 002c 1204     		lsls	r2, r2, #16
 142 002e 02EBA303 		add	r3, r2, r3, asr #2
 143              	.LVL18:
 875:SensorLib\bme688/bme68x.c ****     var1 = (((((var1 >> 2) * (var1 >> 2)) >> 13) * ((int32_t)dev->calib.par_p3 << 5)) >> 3) +
 144              		.loc 1 875 0
 145 0032 6D13     		asrs	r5, r5, #13
 146 0034 91F92820 		ldrsb	r2, [r1, #40]
 147 0038 5201     		lsls	r2, r2, #5
 148 003a 02FB05F2 		mul	r2, r2, r5
 876:SensorLib\bme688/bme68x.c ****            (((int32_t)dev->calib.par_p2 * var1) >> 1);
 149              		.loc 1 876 0
 150 003e B1F92650 		ldrsh	r5, [r1, #38]
ARM GAS  C:\Users\CHRONI~1\AppData\Local\Temp\ccho61l0.s 			page 19


 151 0042 05FB04F4 		mul	r4, r5, r4
 152              	.LVL19:
 153 0046 6410     		asrs	r4, r4, #1
 875:SensorLib\bme688/bme68x.c ****     var1 = (((((var1 >> 2) * (var1 >> 2)) >> 13) * ((int32_t)dev->calib.par_p3 << 5)) >> 3) +
 154              		.loc 1 875 0
 155 0048 04EBE202 		add	r2, r4, r2, asr #3
 156              	.LVL20:
 877:SensorLib\bme688/bme68x.c ****     var1 = var1 >> 18;
 157              		.loc 1 877 0
 158 004c 9214     		asrs	r2, r2, #18
 159              	.LVL21:
 878:SensorLib\bme688/bme68x.c ****     var1 = ((32768 + var1) * (int32_t)dev->calib.par_p1) >> 15;
 160              		.loc 1 878 0
 161 004e 02F50042 		add	r2, r2, #32768
 162              	.LVL22:
 163 0052 8C8C     		ldrh	r4, [r1, #36]
 164 0054 04FB02F2 		mul	r2, r4, r2
 165              	.LVL23:
 166 0058 D213     		asrs	r2, r2, #15
 167              	.LVL24:
 879:SensorLib\bme688/bme68x.c ****     pressure_comp = 1048576 - pres_adc;
 168              		.loc 1 879 0
 169 005a C0F58010 		rsb	r0, r0, #1048576
 170              	.LVL25:
 880:SensorLib\bme688/bme68x.c ****     pressure_comp = (int32_t)((pressure_comp - (var2 >> 12)) * ((uint32_t)3125));
 171              		.loc 1 880 0
 172 005e A0EB2333 		sub	r3, r0, r3, asr #12
 173              	.LVL26:
 174 0062 40F63544 		movw	r4, #3125
 175 0066 04FB03F0 		mul	r0, r4, r3
 176              	.LVL27:
 881:SensorLib\bme688/bme68x.c ****     if (pressure_comp >= pres_ovf_check)
 177              		.loc 1 881 0
 178 006a B0F1804F 		cmp	r0, #1073741824
 179 006e 03DB     		blt	.L4
 882:SensorLib\bme688/bme68x.c ****     {
 883:SensorLib\bme688/bme68x.c ****         pressure_comp = ((pressure_comp / var1) << 1);
 180              		.loc 1 883 0
 181 0070 90FBF2F3 		sdiv	r3, r0, r2
 182 0074 5B00     		lsls	r3, r3, #1
 183              	.LVL28:
 184 0076 02E0     		b	.L5
 185              	.LVL29:
 186              	.L4:
 884:SensorLib\bme688/bme68x.c ****     }
 885:SensorLib\bme688/bme68x.c ****     else
 886:SensorLib\bme688/bme68x.c ****     {
 887:SensorLib\bme688/bme68x.c ****         pressure_comp = ((pressure_comp << 1) / var1);
 187              		.loc 1 887 0
 188 0078 4000     		lsls	r0, r0, #1
 189              	.LVL30:
 190 007a 90FBF2F3 		sdiv	r3, r0, r2
 191              	.LVL31:
 192              	.L5:
 888:SensorLib\bme688/bme68x.c ****     }
 889:SensorLib\bme688/bme68x.c **** 
 890:SensorLib\bme688/bme68x.c ****     var1 = ((int32_t)dev->calib.par_p9 * (int32_t)(((pressure_comp >> 3) * (pressure_comp >> 3)) >>
ARM GAS  C:\Users\CHRONI~1\AppData\Local\Temp\ccho61l0.s 			page 20


 193              		.loc 1 890 0
 194 007e B1F93220 		ldrsh	r2, [r1, #50]
 195              	.LVL32:
 196 0082 DC10     		asrs	r4, r3, #3
 197 0084 04FB04F4 		mul	r4, r4, r4
 198 0088 6413     		asrs	r4, r4, #13
 199 008a 04FB02F5 		mul	r5, r4, r2
 200              	.LVL33:
 891:SensorLib\bme688/bme68x.c ****     var2 = ((int32_t)(pressure_comp >> 2) * (int32_t)dev->calib.par_p8) >> 13;
 201              		.loc 1 891 0
 202 008e 9A10     		asrs	r2, r3, #2
 203 0090 B1F93040 		ldrsh	r4, [r1, #48]
 204 0094 04FB02F2 		mul	r2, r4, r2
 205 0098 5213     		asrs	r2, r2, #13
 206              	.LVL34:
 892:SensorLib\bme688/bme68x.c ****     var3 =
 893:SensorLib\bme688/bme68x.c ****         ((int32_t)(pressure_comp >> 8) * (int32_t)(pressure_comp >> 8) * (int32_t)(pressure_comp >>
 207              		.loc 1 893 0
 208 009a 1C12     		asrs	r4, r3, #8
 209 009c 04FB04F0 		mul	r0, r4, r4
 210 00a0 00FB04F0 		mul	r0, r0, r4
 894:SensorLib\bme688/bme68x.c ****          (int32_t)dev->calib.par_p10) >> 17;
 211              		.loc 1 894 0
 212 00a4 91F83440 		ldrb	r4, [r1, #52]	@ zero_extendqisi2
 893:SensorLib\bme688/bme68x.c ****          (int32_t)dev->calib.par_p10) >> 17;
 213              		.loc 1 893 0
 214 00a8 04FB00F0 		mul	r0, r4, r0
 215              	.LVL35:
 895:SensorLib\bme688/bme68x.c ****     pressure_comp = (int32_t)(pressure_comp) + ((var1 + var2 + var3 + ((int32_t)dev->calib.par_p7 <
 216              		.loc 1 895 0
 217 00ac 02EB2532 		add	r2, r2, r5, asr #12
 218              	.LVL36:
 219 00b0 02EB6040 		add	r0, r2, r0, asr #17
 220              	.LVL37:
 221 00b4 91F92F20 		ldrsb	r2, [r1, #47]
 222 00b8 00EBC210 		add	r0, r0, r2, lsl #7
 223              	.LVL38:
 896:SensorLib\bme688/bme68x.c **** 
 897:SensorLib\bme688/bme68x.c ****     /*lint -restore */
 898:SensorLib\bme688/bme68x.c ****     return (uint32_t)pressure_comp;
 899:SensorLib\bme688/bme68x.c **** }
 224              		.loc 1 899 0
 225 00bc 03EB2010 		add	r0, r3, r0, asr #4
 226              	.LVL39:
 227 00c0 30BC     		pop	{r4, r5}
 228              		.cfi_restore 5
 229              		.cfi_restore 4
 230              		.cfi_def_cfa_offset 0
 231              	.LVL40:
 232 00c2 7047     		bx	lr
 233              		.cfi_endproc
 234              	.LFE15:
 235              		.size	calc_pressure, .-calc_pressure
 236              		.section	.text.calc_humidity,"ax",%progbits
 237              		.align	2
 238              		.thumb
 239              		.thumb_func
ARM GAS  C:\Users\CHRONI~1\AppData\Local\Temp\ccho61l0.s 			page 21


 240              		.type	calc_humidity, %function
 241              	calc_humidity:
 242              	.LFB16:
 900:SensorLib\bme688/bme68x.c **** 
 901:SensorLib\bme688/bme68x.c **** /* This internal API is used to calculate the humidity in integer */
 902:SensorLib\bme688/bme68x.c **** static uint32_t calc_humidity(uint16_t hum_adc, const struct bme68x_dev *dev)
 903:SensorLib\bme688/bme68x.c **** {
 243              		.loc 1 903 0
 244              		.cfi_startproc
 245              		@ args = 0, pretend = 0, frame = 0
 246              		@ frame_needed = 0, uses_anonymous_args = 0
 247              	.LVL41:
 248 0000 F0B5     		push	{r4, r5, r6, r7, lr}
 249              		.cfi_def_cfa_offset 20
 250              		.cfi_offset 4, -20
 251              		.cfi_offset 5, -16
 252              		.cfi_offset 6, -12
 253              		.cfi_offset 7, -8
 254              		.cfi_offset 14, -4
 904:SensorLib\bme688/bme68x.c ****     int32_t var1;
 905:SensorLib\bme688/bme68x.c ****     int32_t var2;
 906:SensorLib\bme688/bme68x.c ****     int32_t var3;
 907:SensorLib\bme688/bme68x.c ****     int32_t var4;
 908:SensorLib\bme688/bme68x.c ****     int32_t var5;
 909:SensorLib\bme688/bme68x.c ****     int32_t var6;
 910:SensorLib\bme688/bme68x.c ****     int32_t temp_scaled;
 911:SensorLib\bme688/bme68x.c ****     int32_t calc_hum;
 912:SensorLib\bme688/bme68x.c **** 
 913:SensorLib\bme688/bme68x.c ****     /*lint -save -e702 -e704 */
 914:SensorLib\bme688/bme68x.c ****     temp_scaled = (((int32_t)dev->calib.t_fine * 5) + 128) >> 8;
 255              		.loc 1 914 0
 256 0002 8C6B     		ldr	r4, [r1, #56]
 257 0004 04EB8404 		add	r4, r4, r4, lsl #2
 258 0008 8034     		adds	r4, r4, #128
 259 000a 2412     		asrs	r4, r4, #8
 260              	.LVL42:
 915:SensorLib\bme688/bme68x.c ****     var1 = (int32_t)(hum_adc - ((int32_t)((int32_t)dev->calib.par_h1 * 16))) -
 261              		.loc 1 915 0
 262 000c 0B8A     		ldrh	r3, [r1, #16]
 263 000e A0EB0310 		sub	r0, r0, r3, lsl #4
 264              	.LVL43:
 916:SensorLib\bme688/bme68x.c ****            (((temp_scaled * (int32_t)dev->calib.par_h3) / ((int32_t)100)) >> 1);
 265              		.loc 1 916 0
 266 0012 91F91430 		ldrsb	r3, [r1, #20]
 267 0016 03FB04F3 		mul	r3, r3, r4
 268 001a 284D     		ldr	r5, .L12
 269 001c 85FB0362 		smull	r6, r2, r5, r3
 270 0020 DB17     		asrs	r3, r3, #31
 271 0022 C3EB6213 		rsb	r3, r3, r2, asr #5
 915:SensorLib\bme688/bme68x.c ****     var1 = (int32_t)(hum_adc - ((int32_t)((int32_t)dev->calib.par_h1 * 16))) -
 272              		.loc 1 915 0
 273 0026 A0EB6300 		sub	r0, r0, r3, asr #1
 274              	.LVL44:
 917:SensorLib\bme688/bme68x.c ****     var2 =
 918:SensorLib\bme688/bme68x.c ****         ((int32_t)dev->calib.par_h2 *
 275              		.loc 1 918 0
 276 002a 4E8A     		ldrh	r6, [r1, #18]
ARM GAS  C:\Users\CHRONI~1\AppData\Local\Temp\ccho61l0.s 			page 22


 919:SensorLib\bme688/bme68x.c ****          (((temp_scaled * (int32_t)dev->calib.par_h4) / ((int32_t)100)) +
 277              		.loc 1 919 0
 278 002c 91F91520 		ldrsb	r2, [r1, #21]
 279 0030 02FB04F2 		mul	r2, r2, r4
 280 0034 85FB0273 		smull	r7, r3, r5, r2
 281 0038 D217     		asrs	r2, r2, #31
 282 003a C2EB6317 		rsb	r7, r2, r3, asr #5
 920:SensorLib\bme688/bme68x.c ****           (((temp_scaled * ((temp_scaled * (int32_t)dev->calib.par_h5) / ((int32_t)100))) >> 6) / (
 283              		.loc 1 920 0
 284 003e 91F91620 		ldrsb	r2, [r1, #22]
 285 0042 02FB04F2 		mul	r2, r2, r4
 286 0046 85FB02E3 		smull	lr, r3, r5, r2
 287 004a D217     		asrs	r2, r2, #31
 288 004c C2EB6312 		rsb	r2, r2, r3, asr #5
 289 0050 02FB04F3 		mul	r3, r2, r4
 290 0054 9A11     		asrs	r2, r3, #6
 291 0056 85FB022E 		smull	r2, lr, r5, r2
 292 005a DA17     		asrs	r2, r3, #31
 293 005c C2EB6E12 		rsb	r2, r2, lr, asr #5
 919:SensorLib\bme688/bme68x.c ****          (((temp_scaled * (int32_t)dev->calib.par_h4) / ((int32_t)100)) +
 294              		.loc 1 919 0
 295 0060 BB18     		adds	r3, r7, r2
 296              		.loc 1 920 0
 297 0062 03F58043 		add	r3, r3, #16384
 918:SensorLib\bme688/bme68x.c ****          (((temp_scaled * (int32_t)dev->calib.par_h4) / ((int32_t)100)) +
 298              		.loc 1 918 0
 299 0066 03FB06F3 		mul	r3, r3, r6
 917:SensorLib\bme688/bme68x.c ****         ((int32_t)dev->calib.par_h2 *
 300              		.loc 1 917 0
 301 006a 9B12     		asrs	r3, r3, #10
 302              	.LVL45:
 921:SensorLib\bme688/bme68x.c ****           (int32_t)(1 << 14))) >> 10;
 922:SensorLib\bme688/bme68x.c ****     var3 = var1 * var2;
 303              		.loc 1 922 0
 304 006c 03FB00F0 		mul	r0, r3, r0
 305              	.LVL46:
 923:SensorLib\bme688/bme68x.c ****     var4 = (int32_t)dev->calib.par_h6 << 7;
 306              		.loc 1 923 0
 307 0070 CA7D     		ldrb	r2, [r1, #23]	@ zero_extendqisi2
 308              	.LVL47:
 924:SensorLib\bme688/bme68x.c ****     var4 = ((var4) + ((temp_scaled * (int32_t)dev->calib.par_h7) / ((int32_t)100))) >> 4;
 309              		.loc 1 924 0
 310 0072 91F91830 		ldrsb	r3, [r1, #24]
 311              	.LVL48:
 312 0076 03FB04F4 		mul	r4, r3, r4
 313              	.LVL49:
 314 007a 85FB0435 		smull	r3, r5, r5, r4
 315              	.LVL50:
 316 007e E317     		asrs	r3, r4, #31
 317 0080 C3EB6514 		rsb	r4, r3, r5, asr #5
 318 0084 04EBC214 		add	r4, r4, r2, lsl #7
 319 0088 2411     		asrs	r4, r4, #4
 320              	.LVL51:
 925:SensorLib\bme688/bme68x.c ****     var5 = ((var3 >> 14) * (var3 >> 14)) >> 10;
 321              		.loc 1 925 0
 322 008a 8313     		asrs	r3, r0, #14
 323 008c 03FB03F3 		mul	r3, r3, r3
ARM GAS  C:\Users\CHRONI~1\AppData\Local\Temp\ccho61l0.s 			page 23


 324 0090 9B12     		asrs	r3, r3, #10
 325              	.LVL52:
 926:SensorLib\bme688/bme68x.c ****     var6 = (var4 * var5) >> 1;
 326              		.loc 1 926 0
 327 0092 03FB04F4 		mul	r4, r3, r4
 328              	.LVL53:
 927:SensorLib\bme688/bme68x.c ****     calc_hum = (((var3 + var6) >> 10) * ((int32_t)1000)) >> 12;
 329              		.loc 1 927 0
 330 0096 00EB6400 		add	r0, r0, r4, asr #1
 331              	.LVL54:
 332 009a 8012     		asrs	r0, r0, #10
 333 009c 4FF47A72 		mov	r2, #1000
 334              	.LVL55:
 335 00a0 02FB00F0 		mul	r0, r2, r0
 336 00a4 0013     		asrs	r0, r0, #12
 337              	.LVL56:
 928:SensorLib\bme688/bme68x.c ****     if (calc_hum > 100000) /* Cap at 100%rH */
 338              		.loc 1 928 0
 339 00a6 064B     		ldr	r3, .L12+4
 340              	.LVL57:
 341 00a8 9842     		cmp	r0, r3
 342 00aa 02DC     		bgt	.L9
 929:SensorLib\bme688/bme68x.c ****     {
 930:SensorLib\bme688/bme68x.c ****         calc_hum = 100000;
 931:SensorLib\bme688/bme68x.c ****     }
 932:SensorLib\bme688/bme68x.c ****     else if (calc_hum < 0)
 343              		.loc 1 932 0
 344 00ac 0028     		cmp	r0, #0
 345 00ae 03DA     		bge	.L8
 346 00b0 01E0     		b	.L10
 347              	.L9:
 930:SensorLib\bme688/bme68x.c ****     }
 348              		.loc 1 930 0
 349 00b2 0348     		ldr	r0, .L12+4
 350              	.LVL58:
 351 00b4 F0BD     		pop	{r4, r5, r6, r7, pc}
 352              	.LVL59:
 353              	.L10:
 933:SensorLib\bme688/bme68x.c ****     {
 934:SensorLib\bme688/bme68x.c ****         calc_hum = 0;
 354              		.loc 1 934 0
 355 00b6 0020     		movs	r0, #0
 356              	.LVL60:
 357              	.L8:
 935:SensorLib\bme688/bme68x.c ****     }
 936:SensorLib\bme688/bme68x.c **** 
 937:SensorLib\bme688/bme68x.c ****     /*lint -restore */
 938:SensorLib\bme688/bme68x.c ****     return (uint32_t)calc_hum;
 939:SensorLib\bme688/bme68x.c **** }
 358              		.loc 1 939 0
 359 00b8 F0BD     		pop	{r4, r5, r6, r7, pc}
 360              	.LVL61:
 361              	.L13:
 362 00ba 00BF     		.align	2
 363              	.L12:
 364 00bc 1F85EB51 		.word	1374389535
 365 00c0 A0860100 		.word	100000
ARM GAS  C:\Users\CHRONI~1\AppData\Local\Temp\ccho61l0.s 			page 24


 366              		.cfi_endproc
 367              	.LFE16:
 368              		.size	calc_humidity, .-calc_humidity
 369              		.global	__aeabi_ldivmod
 370              		.section	.text.calc_gas_resistance_low,"ax",%progbits
 371              		.align	2
 372              		.thumb
 373              		.thumb_func
 374              		.type	calc_gas_resistance_low, %function
 375              	calc_gas_resistance_low:
 376              	.LFB17:
 940:SensorLib\bme688/bme68x.c **** 
 941:SensorLib\bme688/bme68x.c **** /* This internal API is used to calculate the gas resistance low */
 942:SensorLib\bme688/bme68x.c **** static uint32_t calc_gas_resistance_low(uint16_t gas_res_adc, uint8_t gas_range, const struct bme68
 943:SensorLib\bme688/bme68x.c **** {
 377              		.loc 1 943 0
 378              		.cfi_startproc
 379              		@ args = 0, pretend = 0, frame = 128
 380              		@ frame_needed = 0, uses_anonymous_args = 0
 381              	.LVL62:
 382 0000 F0B5     		push	{r4, r5, r6, r7, lr}
 383              		.cfi_def_cfa_offset 20
 384              		.cfi_offset 4, -20
 385              		.cfi_offset 5, -16
 386              		.cfi_offset 6, -12
 387              		.cfi_offset 7, -8
 388              		.cfi_offset 14, -4
 389 0002 A1B0     		sub	sp, sp, #132
 390              		.cfi_def_cfa_offset 152
 391 0004 0746     		mov	r7, r0
 392 0006 8E46     		mov	lr, r1
 393 0008 9446     		mov	ip, r2
 944:SensorLib\bme688/bme68x.c ****     int64_t var1;
 945:SensorLib\bme688/bme68x.c ****     uint64_t var2;
 946:SensorLib\bme688/bme68x.c ****     int64_t var3;
 947:SensorLib\bme688/bme68x.c ****     uint32_t calc_gas_res;
 948:SensorLib\bme688/bme68x.c ****     uint32_t lookup_table1[16] = {
 394              		.loc 1 948 0
 395 000a 274C     		ldr	r4, .L16
 396 000c 10AD     		add	r5, sp, #64
 397 000e 2646     		mov	r6, r4
 398 0010 0FCE     		ldmia	r6!, {r0, r1, r2, r3}
 399              	.LVL63:
 400 0012 0FC5     		stmia	r5!, {r0, r1, r2, r3}
 401 0014 0FCE     		ldmia	r6!, {r0, r1, r2, r3}
 402 0016 0FC5     		stmia	r5!, {r0, r1, r2, r3}
 403 0018 0FCE     		ldmia	r6!, {r0, r1, r2, r3}
 404 001a 0FC5     		stmia	r5!, {r0, r1, r2, r3}
 405 001c 96E80F00 		ldmia	r6, {r0, r1, r2, r3}
 406 0020 85E80F00 		stmia	r5, {r0, r1, r2, r3}
 949:SensorLib\bme688/bme68x.c ****         UINT32_C(2147483647), UINT32_C(2147483647), UINT32_C(2147483647), UINT32_C(2147483647), UIN
 950:SensorLib\bme688/bme68x.c ****         UINT32_C(2126008810), UINT32_C(2147483647), UINT32_C(2130303777), UINT32_C(2147483647), UIN
 951:SensorLib\bme688/bme68x.c ****         UINT32_C(2143188679), UINT32_C(2136746228), UINT32_C(2147483647), UINT32_C(2126008810), UIN
 952:SensorLib\bme688/bme68x.c ****         UINT32_C(2147483647)
 953:SensorLib\bme688/bme68x.c ****     };
 954:SensorLib\bme688/bme68x.c ****     uint32_t lookup_table2[16] = {
 407              		.loc 1 954 0
ARM GAS  C:\Users\CHRONI~1\AppData\Local\Temp\ccho61l0.s 			page 25


 408 0024 6D46     		mov	r5, sp
 409 0026 4034     		adds	r4, r4, #64
 410 0028 0FCC     		ldmia	r4!, {r0, r1, r2, r3}
 411 002a 0FC5     		stmia	r5!, {r0, r1, r2, r3}
 412 002c 0FCC     		ldmia	r4!, {r0, r1, r2, r3}
 413 002e 0FC5     		stmia	r5!, {r0, r1, r2, r3}
 414 0030 0FCC     		ldmia	r4!, {r0, r1, r2, r3}
 415 0032 0FC5     		stmia	r5!, {r0, r1, r2, r3}
 416 0034 94E80F00 		ldmia	r4, {r0, r1, r2, r3}
 417 0038 85E80F00 		stmia	r5, {r0, r1, r2, r3}
 955:SensorLib\bme688/bme68x.c ****         UINT32_C(4096000000), UINT32_C(2048000000), UINT32_C(1024000000), UINT32_C(512000000), UINT
 956:SensorLib\bme688/bme68x.c ****         UINT32_C(127110228), UINT32_C(64000000), UINT32_C(32258064), UINT32_C(16016016), UINT32_C(8
 957:SensorLib\bme688/bme68x.c ****             4000000), UINT32_C(2000000), UINT32_C(1000000), UINT32_C(500000), UINT32_C(250000), UIN
 958:SensorLib\bme688/bme68x.c ****     };
 959:SensorLib\bme688/bme68x.c **** 
 960:SensorLib\bme688/bme68x.c ****     /*lint -save -e704 */
 961:SensorLib\bme688/bme68x.c ****     var1 = (int64_t)((1340 + (5 * (int64_t)dev->calib.range_sw_err)) * ((int64_t)lookup_table1[gas_
 418              		.loc 1 961 0
 419 003c 9CF93E20 		ldrsb	r2, [ip, #62]
 420 0040 D317     		asrs	r3, r2, #31
 421 0042 9C00     		lsls	r4, r3, #2
 422 0044 9000     		lsls	r0, r2, #2
 423 0046 44EA9271 		orr	r1, r4, r2, lsr #30
 424 004a 1218     		adds	r2, r2, r0
 425 004c 4B41     		adcs	r3, r3, r1
 426 004e 40F23C50 		movw	r0, #1340
 427 0052 0021     		movs	r1, #0
 428 0054 1218     		adds	r2, r2, r0
 429 0056 4B41     		adcs	r3, r3, r1
 430 0058 20A9     		add	r1, sp, #128
 431 005a 01EB8E0E 		add	lr, r1, lr, lsl #2
 432 005e 5EF8401C 		ldr	r1, [lr, #-64]
 433 0062 A2FB0145 		umull	r4, r5, r2, r1
 434 0066 01FB0355 		mla	r5, r1, r3, r5
 435 006a 200C     		lsrs	r0, r4, #16
 436 006c 40EA0540 		orr	r0, r0, r5, lsl #16
 437 0070 2914     		asrs	r1, r5, #16
 438              	.LVL64:
 962:SensorLib\bme688/bme68x.c ****     var2 = (((int64_t)((int64_t)gas_res_adc << 15) - (int64_t)(16777216)) + var1);
 439              		.loc 1 962 0
 440 0072 0023     		movs	r3, #0
 441 0074 FA03     		lsls	r2, r7, #15
 442 0076 12F17F42 		adds	r2, r2, #-16777216
 443 007a 43F1FF33 		adc	r3, r3, #-1
 444 007e 1218     		adds	r2, r2, r0
 445 0080 4B41     		adcs	r3, r3, r1
 446              	.LVL65:
 963:SensorLib\bme688/bme68x.c ****     var3 = (((int64_t)lookup_table2[gas_range] * (int64_t)var1) >> 9);
 447              		.loc 1 963 0
 448 0082 5EF8806C 		ldr	r6, [lr, #-128]
 449 0086 A0FB0645 		umull	r4, r5, r0, r6
 450 008a 06FB0155 		mla	r5, r6, r1, r5
 451 008e 600A     		lsrs	r0, r4, #9
 452              	.LVL66:
 453 0090 40EAC550 		orr	r0, r0, r5, lsl #23
 454 0094 6912     		asrs	r1, r5, #9
 455              	.LVL67:
ARM GAS  C:\Users\CHRONI~1\AppData\Local\Temp\ccho61l0.s 			page 26


 964:SensorLib\bme688/bme68x.c ****     calc_gas_res = (uint32_t)((var3 + ((int64_t)var2 >> 1)) / (int64_t)var2);
 456              		.loc 1 964 0
 457 0096 5D10     		movs	r5, r3, asr #1
 458 0098 4FEA3204 		mov	r4, r2, rrx
 459 009c 0019     		adds	r0, r0, r4
 460              	.LVL68:
 461 009e 6941     		adcs	r1, r1, r5
 462 00a0 FFF7FEFF 		bl	__aeabi_ldivmod
 463              	.LVL69:
 965:SensorLib\bme688/bme68x.c **** 
 966:SensorLib\bme688/bme68x.c ****     /*lint -restore */
 967:SensorLib\bme688/bme68x.c ****     return calc_gas_res;
 968:SensorLib\bme688/bme68x.c **** }
 464              		.loc 1 968 0
 465 00a4 21B0     		add	sp, sp, #132
 466              		.cfi_def_cfa_offset 20
 467              		@ sp needed
 468 00a6 F0BD     		pop	{r4, r5, r6, r7, pc}
 469              	.L17:
 470              		.align	2
 471              	.L16:
 472 00a8 00000000 		.word	.LANCHOR0
 473              		.cfi_endproc
 474              	.LFE17:
 475              		.size	calc_gas_resistance_low, .-calc_gas_resistance_low
 476              		.section	.text.calc_gas_resistance_high,"ax",%progbits
 477              		.align	2
 478              		.thumb
 479              		.thumb_func
 480              		.type	calc_gas_resistance_high, %function
 481              	calc_gas_resistance_high:
 482              	.LFB18:
 969:SensorLib\bme688/bme68x.c **** 
 970:SensorLib\bme688/bme68x.c **** /* This internal API is used to calculate the gas resistance */
 971:SensorLib\bme688/bme68x.c **** static uint32_t calc_gas_resistance_high(uint16_t gas_res_adc, uint8_t gas_range)
 972:SensorLib\bme688/bme68x.c **** {
 483              		.loc 1 972 0
 484              		.cfi_startproc
 485              		@ args = 0, pretend = 0, frame = 0
 486              		@ frame_needed = 0, uses_anonymous_args = 0
 487              		@ link register save eliminated.
 488              	.LVL70:
 973:SensorLib\bme688/bme68x.c ****     uint32_t calc_gas_res;
 974:SensorLib\bme688/bme68x.c ****     uint32_t var1 = UINT32_C(262144) >> gas_range;
 489              		.loc 1 974 0
 490 0000 4FF48023 		mov	r3, #262144
 491 0004 23FA01F1 		lsr	r1, r3, r1
 492              	.LVL71:
 975:SensorLib\bme688/bme68x.c ****     int32_t var2 = (int32_t)gas_res_adc - INT32_C(512);
 493              		.loc 1 975 0
 494 0008 A0F50070 		sub	r0, r0, #512
 495              	.LVL72:
 976:SensorLib\bme688/bme68x.c **** 
 977:SensorLib\bme688/bme68x.c ****     var2 *= INT32_C(3);
 496              		.loc 1 977 0
 497 000c 00EB4000 		add	r0, r0, r0, lsl #1
 498              	.LVL73:
ARM GAS  C:\Users\CHRONI~1\AppData\Local\Temp\ccho61l0.s 			page 27


 978:SensorLib\bme688/bme68x.c ****     var2 = INT32_C(4096) + var2;
 499              		.loc 1 978 0
 500 0010 00F58050 		add	r0, r0, #4096
 501              	.LVL74:
 979:SensorLib\bme688/bme68x.c **** 
 980:SensorLib\bme688/bme68x.c ****     /* multiplying 10000 then dividing then multiplying by 100 instead of multiplying by 1000000 to
 981:SensorLib\bme688/bme68x.c ****     calc_gas_res = (UINT32_C(10000) * var1) / (uint32_t)var2;
 502              		.loc 1 981 0
 503 0014 42F21073 		movw	r3, #10000
 504 0018 03FB01F1 		mul	r1, r3, r1
 505              	.LVL75:
 506 001c B1FBF0F0 		udiv	r0, r1, r0
 507              	.LVL76:
 982:SensorLib\bme688/bme68x.c ****     calc_gas_res = calc_gas_res * 100;
 983:SensorLib\bme688/bme68x.c **** 
 984:SensorLib\bme688/bme68x.c ****     return calc_gas_res;
 985:SensorLib\bme688/bme68x.c **** }
 508              		.loc 1 985 0
 509 0020 6423     		movs	r3, #100
 510 0022 03FB00F0 		mul	r0, r3, r0
 511              	.LVL77:
 512 0026 7047     		bx	lr
 513              		.cfi_endproc
 514              	.LFE18:
 515              		.size	calc_gas_resistance_high, .-calc_gas_resistance_high
 516              		.section	.text.calc_res_heat,"ax",%progbits
 517              		.align	2
 518              		.thumb
 519              		.thumb_func
 520              		.type	calc_res_heat, %function
 521              	calc_res_heat:
 522              	.LFB19:
 986:SensorLib\bme688/bme68x.c **** 
 987:SensorLib\bme688/bme68x.c **** /* This internal API is used to calculate the heater resistance value using integer */
 988:SensorLib\bme688/bme68x.c **** static uint8_t calc_res_heat(uint16_t temp, const struct bme68x_dev *dev)
 989:SensorLib\bme688/bme68x.c **** {
 523              		.loc 1 989 0
 524              		.cfi_startproc
 525              		@ args = 0, pretend = 0, frame = 0
 526              		@ frame_needed = 0, uses_anonymous_args = 0
 527              	.LVL78:
 528 0000 F0B5     		push	{r4, r5, r6, r7, lr}
 529              		.cfi_def_cfa_offset 20
 530              		.cfi_offset 4, -20
 531              		.cfi_offset 5, -16
 532              		.cfi_offset 6, -12
 533              		.cfi_offset 7, -8
 534              		.cfi_offset 14, -4
 990:SensorLib\bme688/bme68x.c ****     uint8_t heatr_res;
 991:SensorLib\bme688/bme68x.c ****     int32_t var1;
 992:SensorLib\bme688/bme68x.c ****     int32_t var2;
 993:SensorLib\bme688/bme68x.c ****     int32_t var3;
 994:SensorLib\bme688/bme68x.c ****     int32_t var4;
 995:SensorLib\bme688/bme68x.c ****     int32_t var5;
 996:SensorLib\bme688/bme68x.c ****     int32_t heatr_res_x100;
 997:SensorLib\bme688/bme68x.c **** 
 998:SensorLib\bme688/bme68x.c ****     if (temp > 400) /* Cap temperature */
ARM GAS  C:\Users\CHRONI~1\AppData\Local\Temp\ccho61l0.s 			page 28


 535              		.loc 1 998 0
 536 0002 B0F5C87F 		cmp	r0, #400
 537 0006 01D9     		bls	.L20
 999:SensorLib\bme688/bme68x.c ****     {
1000:SensorLib\bme688/bme68x.c ****         temp = 400;
 538              		.loc 1 1000 0
 539 0008 4FF4C870 		mov	r0, #400
 540              	.LVL79:
 541              	.L20:
1001:SensorLib\bme688/bme68x.c ****     }
1002:SensorLib\bme688/bme68x.c **** 
1003:SensorLib\bme688/bme68x.c ****     var1 = (((int32_t)dev->amb_temp * dev->calib.par_gh3) / 1000) * 256;
 542              		.loc 1 1003 0
 543 000c 91F90E20 		ldrsb	r2, [r1, #14]
 544 0010 91F91C50 		ldrsb	r5, [r1, #28]
 545 0014 02FB05F5 		mul	r5, r2, r5
 546 0018 224C     		ldr	r4, .L23
 547 001a 84FB0534 		smull	r3, r4, r4, r5
 548 001e ED17     		asrs	r5, r5, #31
 549 0020 C5EBA417 		rsb	r7, r5, r4, asr #6
 550              	.LVL80:
1004:SensorLib\bme688/bme68x.c ****     var2 = (dev->calib.par_gh1 + 784) * (((((dev->calib.par_gh2 + 154009) * temp * 5) / 100) + 3276
 551              		.loc 1 1004 0
 552 0024 91F91920 		ldrsb	r2, [r1, #25]
 553 0028 02F5447E 		add	lr, r2, #784
 554 002c B1F91A50 		ldrsh	r5, [r1, #26]
 555 0030 05F51633 		add	r3, r5, #153600
 556 0034 03F29913 		addw	r3, r3, #409
 557 0038 03FB00F3 		mul	r3, r3, r0
 558 003c 03EB8303 		add	r3, r3, r3, lsl #2
 559 0040 194E     		ldr	r6, .L23+4
 560 0042 86FB0324 		smull	r2, r4, r6, r3
 561 0046 DB17     		asrs	r3, r3, #31
 562 0048 C3EB6414 		rsb	r4, r3, r4, asr #5
 563 004c 04F54814 		add	r4, r4, #3276800
 564 0050 164A     		ldr	r2, .L23+8
 565 0052 82FB0432 		smull	r3, r2, r2, r4
 566 0056 E517     		asrs	r5, r4, #31
 567 0058 C5EBA205 		rsb	r5, r5, r2, asr #2
 568 005c 05FB0EF2 		mul	r2, r5, lr
 569              	.LVL81:
1005:SensorLib\bme688/bme68x.c ****     var3 = var1 + (var2 / 2);
 570              		.loc 1 1005 0
 571 0060 02EBD272 		add	r2, r2, r2, lsr #31
 572              	.LVL82:
 573 0064 5210     		asrs	r2, r2, #1
 574 0066 02EB0724 		add	r4, r2, r7, lsl #8
 575              	.LVL83:
1006:SensorLib\bme688/bme68x.c ****     var4 = (var3 / (dev->calib.res_heat_range + 4));
 576              		.loc 1 1006 0
 577 006a 91F83C30 		ldrb	r3, [r1, #60]	@ zero_extendqisi2
 578 006e 0433     		adds	r3, r3, #4
 579 0070 94FBF3F2 		sdiv	r2, r4, r3
 580              	.LVL84:
1007:SensorLib\bme688/bme68x.c ****     var5 = (131 * dev->calib.res_heat_val) + 65536;
 581              		.loc 1 1007 0
 582 0074 91F93D30 		ldrsb	r3, [r1, #61]
ARM GAS  C:\Users\CHRONI~1\AppData\Local\Temp\ccho61l0.s 			page 29


 583 0078 03EB8311 		add	r1, r3, r3, lsl #6
 584              	.LVL85:
 585 007c 03EB4103 		add	r3, r3, r1, lsl #1
 586 0080 03F58033 		add	r3, r3, #65536
 587              	.LVL86:
1008:SensorLib\bme688/bme68x.c ****     heatr_res_x100 = (int32_t)(((var4 / var5) - 250) * 34);
 588              		.loc 1 1008 0
 589 0084 92FBF3F3 		sdiv	r3, r2, r3
 590              	.LVL87:
 591 0088 FA3B     		subs	r3, r3, #250
 592 008a 03EB0313 		add	r3, r3, r3, lsl #4
 593 008e 5800     		lsls	r0, r3, #1
 594              	.LVL88:
1009:SensorLib\bme688/bme68x.c ****     heatr_res = (uint8_t)((heatr_res_x100 + 50) / 100);
 595              		.loc 1 1009 0
 596 0090 00F13203 		add	r3, r0, #50
 597 0094 86FB0320 		smull	r2, r0, r6, r3
 598              	.LVL89:
 599 0098 DB17     		asrs	r3, r3, #31
 600              	.LVL90:
 601 009a C3EB6010 		rsb	r0, r3, r0, asr #5
 602              	.LVL91:
1010:SensorLib\bme688/bme68x.c **** 
1011:SensorLib\bme688/bme68x.c ****     return heatr_res;
1012:SensorLib\bme688/bme68x.c **** }
 603              		.loc 1 1012 0
 604 009e C0B2     		uxtb	r0, r0
 605 00a0 F0BD     		pop	{r4, r5, r6, r7, pc}
 606              	.LVL92:
 607              	.L24:
 608 00a2 00BF     		.align	2
 609              	.L23:
 610 00a4 D34D6210 		.word	274877907
 611 00a8 1F85EB51 		.word	1374389535
 612 00ac 67666666 		.word	1717986919
 613              		.cfi_endproc
 614              	.LFE19:
 615              		.size	calc_res_heat, .-calc_res_heat
 616              		.section	.text.calc_gas_wait,"ax",%progbits
 617              		.align	2
 618              		.thumb
 619              		.thumb_func
 620              		.type	calc_gas_wait, %function
 621              	calc_gas_wait:
 622              	.LFB20:
1013:SensorLib\bme688/bme68x.c **** 
1014:SensorLib\bme688/bme68x.c **** #else
1015:SensorLib\bme688/bme68x.c **** 
1016:SensorLib\bme688/bme68x.c **** /* @brief This internal API is used to calculate the temperature value. */
1017:SensorLib\bme688/bme68x.c **** static float calc_temperature(uint32_t temp_adc, struct bme68x_dev *dev)
1018:SensorLib\bme688/bme68x.c **** {
1019:SensorLib\bme688/bme68x.c ****     float var1;
1020:SensorLib\bme688/bme68x.c ****     float var2;
1021:SensorLib\bme688/bme68x.c ****     float calc_temp;
1022:SensorLib\bme688/bme68x.c **** 
1023:SensorLib\bme688/bme68x.c ****     /* calculate var1 data */
1024:SensorLib\bme688/bme68x.c ****     var1 = ((((float)temp_adc / 16384.0f) - ((float)dev->calib.par_t1 / 1024.0f)) * ((float)dev->ca
ARM GAS  C:\Users\CHRONI~1\AppData\Local\Temp\ccho61l0.s 			page 30


1025:SensorLib\bme688/bme68x.c **** 
1026:SensorLib\bme688/bme68x.c ****     /* calculate var2 data */
1027:SensorLib\bme688/bme68x.c ****     var2 =
1028:SensorLib\bme688/bme68x.c ****         (((((float)temp_adc / 131072.0f) - ((float)dev->calib.par_t1 / 8192.0f)) *
1029:SensorLib\bme688/bme68x.c ****           (((float)temp_adc / 131072.0f) - ((float)dev->calib.par_t1 / 8192.0f))) * ((float)dev->ca
1030:SensorLib\bme688/bme68x.c **** 
1031:SensorLib\bme688/bme68x.c ****     /* t_fine value*/
1032:SensorLib\bme688/bme68x.c ****     dev->calib.t_fine = (var1 + var2);
1033:SensorLib\bme688/bme68x.c **** 
1034:SensorLib\bme688/bme68x.c ****     /* compensated temperature data*/
1035:SensorLib\bme688/bme68x.c ****     calc_temp = ((dev->calib.t_fine) / 5120.0f);
1036:SensorLib\bme688/bme68x.c **** 
1037:SensorLib\bme688/bme68x.c ****     return calc_temp;
1038:SensorLib\bme688/bme68x.c **** }
1039:SensorLib\bme688/bme68x.c **** 
1040:SensorLib\bme688/bme68x.c **** /* @brief This internal API is used to calculate the pressure value. */
1041:SensorLib\bme688/bme68x.c **** static float calc_pressure(uint32_t pres_adc, const struct bme68x_dev *dev)
1042:SensorLib\bme688/bme68x.c **** {
1043:SensorLib\bme688/bme68x.c ****     float var1;
1044:SensorLib\bme688/bme68x.c ****     float var2;
1045:SensorLib\bme688/bme68x.c ****     float var3;
1046:SensorLib\bme688/bme68x.c ****     float calc_pres;
1047:SensorLib\bme688/bme68x.c **** 
1048:SensorLib\bme688/bme68x.c ****     var1 = (((float)dev->calib.t_fine / 2.0f) - 64000.0f);
1049:SensorLib\bme688/bme68x.c ****     var2 = var1 * var1 * (((float)dev->calib.par_p6) / (131072.0f));
1050:SensorLib\bme688/bme68x.c ****     var2 = var2 + (var1 * ((float)dev->calib.par_p5) * 2.0f);
1051:SensorLib\bme688/bme68x.c ****     var2 = (var2 / 4.0f) + (((float)dev->calib.par_p4) * 65536.0f);
1052:SensorLib\bme688/bme68x.c ****     var1 = (((((float)dev->calib.par_p3 * var1 * var1) / 16384.0f) + ((float)dev->calib.par_p2 * va
1053:SensorLib\bme688/bme68x.c ****     var1 = ((1.0f + (var1 / 32768.0f)) * ((float)dev->calib.par_p1));
1054:SensorLib\bme688/bme68x.c ****     calc_pres = (1048576.0f - ((float)pres_adc));
1055:SensorLib\bme688/bme68x.c **** 
1056:SensorLib\bme688/bme68x.c ****     /* Avoid exception caused by division by zero */
1057:SensorLib\bme688/bme68x.c ****     if ((int)var1 != 0)
1058:SensorLib\bme688/bme68x.c ****     {
1059:SensorLib\bme688/bme68x.c ****         calc_pres = (((calc_pres - (var2 / 4096.0f)) * 6250.0f) / var1);
1060:SensorLib\bme688/bme68x.c ****         var1 = (((float)dev->calib.par_p9) * calc_pres * calc_pres) / 2147483648.0f;
1061:SensorLib\bme688/bme68x.c ****         var2 = calc_pres * (((float)dev->calib.par_p8) / 32768.0f);
1062:SensorLib\bme688/bme68x.c ****         var3 = ((calc_pres / 256.0f) * (calc_pres / 256.0f) * (calc_pres / 256.0f) * (dev->calib.pa
1063:SensorLib\bme688/bme68x.c ****         calc_pres = (calc_pres + (var1 + var2 + var3 + ((float)dev->calib.par_p7 * 128.0f)) / 16.0f
1064:SensorLib\bme688/bme68x.c ****     }
1065:SensorLib\bme688/bme68x.c ****     else
1066:SensorLib\bme688/bme68x.c ****     {
1067:SensorLib\bme688/bme68x.c ****         calc_pres = 0;
1068:SensorLib\bme688/bme68x.c ****     }
1069:SensorLib\bme688/bme68x.c **** 
1070:SensorLib\bme688/bme68x.c ****     return calc_pres;
1071:SensorLib\bme688/bme68x.c **** }
1072:SensorLib\bme688/bme68x.c **** 
1073:SensorLib\bme688/bme68x.c **** /* This internal API is used to calculate the humidity in integer */
1074:SensorLib\bme688/bme68x.c **** static float calc_humidity(uint16_t hum_adc, const struct bme68x_dev *dev)
1075:SensorLib\bme688/bme68x.c **** {
1076:SensorLib\bme688/bme68x.c ****     float calc_hum;
1077:SensorLib\bme688/bme68x.c ****     float var1;
1078:SensorLib\bme688/bme68x.c ****     float var2;
1079:SensorLib\bme688/bme68x.c ****     float var3;
1080:SensorLib\bme688/bme68x.c ****     float var4;
1081:SensorLib\bme688/bme68x.c ****     float temp_comp;
ARM GAS  C:\Users\CHRONI~1\AppData\Local\Temp\ccho61l0.s 			page 31


1082:SensorLib\bme688/bme68x.c **** 
1083:SensorLib\bme688/bme68x.c ****     /* compensated temperature data*/
1084:SensorLib\bme688/bme68x.c ****     temp_comp = ((dev->calib.t_fine) / 5120.0f);
1085:SensorLib\bme688/bme68x.c ****     var1 = (float)((float)hum_adc) -
1086:SensorLib\bme688/bme68x.c ****            (((float)dev->calib.par_h1 * 16.0f) + (((float)dev->calib.par_h3 / 2.0f) * temp_comp));
1087:SensorLib\bme688/bme68x.c ****     var2 = var1 *
1088:SensorLib\bme688/bme68x.c ****            ((float)(((float)dev->calib.par_h2 / 262144.0f) *
1089:SensorLib\bme688/bme68x.c ****                     (1.0f + (((float)dev->calib.par_h4 / 16384.0f) * temp_comp) +
1090:SensorLib\bme688/bme68x.c ****                      (((float)dev->calib.par_h5 / 1048576.0f) * temp_comp * temp_comp))));
1091:SensorLib\bme688/bme68x.c ****     var3 = (float)dev->calib.par_h6 / 16384.0f;
1092:SensorLib\bme688/bme68x.c ****     var4 = (float)dev->calib.par_h7 / 2097152.0f;
1093:SensorLib\bme688/bme68x.c ****     calc_hum = var2 + ((var3 + (var4 * temp_comp)) * var2 * var2);
1094:SensorLib\bme688/bme68x.c ****     if (calc_hum > 100.0f)
1095:SensorLib\bme688/bme68x.c ****     {
1096:SensorLib\bme688/bme68x.c ****         calc_hum = 100.0f;
1097:SensorLib\bme688/bme68x.c ****     }
1098:SensorLib\bme688/bme68x.c ****     else if (calc_hum < 0.0f)
1099:SensorLib\bme688/bme68x.c ****     {
1100:SensorLib\bme688/bme68x.c ****         calc_hum = 0.0f;
1101:SensorLib\bme688/bme68x.c ****     }
1102:SensorLib\bme688/bme68x.c **** 
1103:SensorLib\bme688/bme68x.c ****     return calc_hum;
1104:SensorLib\bme688/bme68x.c **** }
1105:SensorLib\bme688/bme68x.c **** 
1106:SensorLib\bme688/bme68x.c **** /* This internal API is used to calculate the gas resistance low value in float */
1107:SensorLib\bme688/bme68x.c **** static float calc_gas_resistance_low(uint16_t gas_res_adc, uint8_t gas_range, const struct bme68x_d
1108:SensorLib\bme688/bme68x.c **** {
1109:SensorLib\bme688/bme68x.c ****     float calc_gas_res;
1110:SensorLib\bme688/bme68x.c ****     float var1;
1111:SensorLib\bme688/bme68x.c ****     float var2;
1112:SensorLib\bme688/bme68x.c ****     float var3;
1113:SensorLib\bme688/bme68x.c ****     float gas_res_f = gas_res_adc;
1114:SensorLib\bme688/bme68x.c ****     float gas_range_f = (1U << gas_range); /*lint !e790 / Suspicious truncation, integral to float 
1115:SensorLib\bme688/bme68x.c ****     const float lookup_k1_range[16] = {
1116:SensorLib\bme688/bme68x.c ****         0.0f, 0.0f, 0.0f, 0.0f, 0.0f, -1.0f, 0.0f, -0.8f, 0.0f, 0.0f, -0.2f, -0.5f, 0.0f, -1.0f, 0.
1117:SensorLib\bme688/bme68x.c ****     };
1118:SensorLib\bme688/bme68x.c ****     const float lookup_k2_range[16] = {
1119:SensorLib\bme688/bme68x.c ****         0.0f, 0.0f, 0.0f, 0.0f, 0.1f, 0.7f, 0.0f, -0.8f, -0.1f, 0.0f, 0.0f, 0.0f, 0.0f, 0.0f, 0.0f,
1120:SensorLib\bme688/bme68x.c ****     };
1121:SensorLib\bme688/bme68x.c **** 
1122:SensorLib\bme688/bme68x.c ****     var1 = (1340.0f + (5.0f * dev->calib.range_sw_err));
1123:SensorLib\bme688/bme68x.c ****     var2 = (var1) * (1.0f + lookup_k1_range[gas_range] / 100.0f);
1124:SensorLib\bme688/bme68x.c ****     var3 = 1.0f + (lookup_k2_range[gas_range] / 100.0f);
1125:SensorLib\bme688/bme68x.c ****     calc_gas_res = 1.0f / (float)(var3 * (0.000000125f) * gas_range_f * (((gas_res_f - 512.0f) / va
1126:SensorLib\bme688/bme68x.c **** 
1127:SensorLib\bme688/bme68x.c ****     return calc_gas_res;
1128:SensorLib\bme688/bme68x.c **** }
1129:SensorLib\bme688/bme68x.c **** 
1130:SensorLib\bme688/bme68x.c **** /* This internal API is used to calculate the gas resistance value in float */
1131:SensorLib\bme688/bme68x.c **** static float calc_gas_resistance_high(uint16_t gas_res_adc, uint8_t gas_range)
1132:SensorLib\bme688/bme68x.c **** {
1133:SensorLib\bme688/bme68x.c ****     float calc_gas_res;
1134:SensorLib\bme688/bme68x.c ****     uint32_t var1 = UINT32_C(262144) >> gas_range;
1135:SensorLib\bme688/bme68x.c ****     int32_t var2 = (int32_t)gas_res_adc - INT32_C(512);
1136:SensorLib\bme688/bme68x.c **** 
1137:SensorLib\bme688/bme68x.c ****     var2 *= INT32_C(3);
1138:SensorLib\bme688/bme68x.c ****     var2 = INT32_C(4096) + var2;
ARM GAS  C:\Users\CHRONI~1\AppData\Local\Temp\ccho61l0.s 			page 32


1139:SensorLib\bme688/bme68x.c **** 
1140:SensorLib\bme688/bme68x.c ****     calc_gas_res = 1000000.0f * (float)var1 / (float)var2;
1141:SensorLib\bme688/bme68x.c **** 
1142:SensorLib\bme688/bme68x.c ****     return calc_gas_res;
1143:SensorLib\bme688/bme68x.c **** }
1144:SensorLib\bme688/bme68x.c **** 
1145:SensorLib\bme688/bme68x.c **** /* This internal API is used to calculate the heater resistance value using float */
1146:SensorLib\bme688/bme68x.c **** static uint8_t calc_res_heat(uint16_t temp, const struct bme68x_dev *dev)
1147:SensorLib\bme688/bme68x.c **** {
1148:SensorLib\bme688/bme68x.c ****     float var1;
1149:SensorLib\bme688/bme68x.c ****     float var2;
1150:SensorLib\bme688/bme68x.c ****     float var3;
1151:SensorLib\bme688/bme68x.c ****     float var4;
1152:SensorLib\bme688/bme68x.c ****     float var5;
1153:SensorLib\bme688/bme68x.c ****     uint8_t res_heat;
1154:SensorLib\bme688/bme68x.c **** 
1155:SensorLib\bme688/bme68x.c ****     if (temp > 400) /* Cap temperature */
1156:SensorLib\bme688/bme68x.c ****     {
1157:SensorLib\bme688/bme68x.c ****         temp = 400;
1158:SensorLib\bme688/bme68x.c ****     }
1159:SensorLib\bme688/bme68x.c **** 
1160:SensorLib\bme688/bme68x.c ****     var1 = (((float)dev->calib.par_gh1 / (16.0f)) + 49.0f);
1161:SensorLib\bme688/bme68x.c ****     var2 = ((((float)dev->calib.par_gh2 / (32768.0f)) * (0.0005f)) + 0.00235f);
1162:SensorLib\bme688/bme68x.c ****     var3 = ((float)dev->calib.par_gh3 / (1024.0f));
1163:SensorLib\bme688/bme68x.c ****     var4 = (var1 * (1.0f + (var2 * (float)temp)));
1164:SensorLib\bme688/bme68x.c ****     var5 = (var4 + (var3 * (float)dev->amb_temp));
1165:SensorLib\bme688/bme68x.c ****     res_heat =
1166:SensorLib\bme688/bme68x.c ****         (uint8_t)(3.4f *
1167:SensorLib\bme688/bme68x.c ****                   ((var5 * (4 / (4 + (float)dev->calib.res_heat_range)) *
1168:SensorLib\bme688/bme68x.c ****                     (1 / (1 + ((float)dev->calib.res_heat_val * 0.002f)))) -
1169:SensorLib\bme688/bme68x.c ****                    25));
1170:SensorLib\bme688/bme68x.c **** 
1171:SensorLib\bme688/bme68x.c ****     return res_heat;
1172:SensorLib\bme688/bme68x.c **** }
1173:SensorLib\bme688/bme68x.c **** 
1174:SensorLib\bme688/bme68x.c **** #endif
1175:SensorLib\bme688/bme68x.c **** 
1176:SensorLib\bme688/bme68x.c **** /* This internal API is used to calculate the gas wait */
1177:SensorLib\bme688/bme68x.c **** static uint8_t calc_gas_wait(uint16_t dur)
1178:SensorLib\bme688/bme68x.c **** {
 623              		.loc 1 1178 0
 624              		.cfi_startproc
 625              		@ args = 0, pretend = 0, frame = 0
 626              		@ frame_needed = 0, uses_anonymous_args = 0
 627              		@ link register save eliminated.
 628              	.LVL93:
1179:SensorLib\bme688/bme68x.c ****     uint8_t factor = 0;
1180:SensorLib\bme688/bme68x.c ****     uint8_t durval;
1181:SensorLib\bme688/bme68x.c **** 
1182:SensorLib\bme688/bme68x.c ****     if (dur >= 0xfc0)
 629              		.loc 1 1182 0
 630 0000 B0F57C6F 		cmp	r0, #4032
 631 0004 0CD2     		bcs	.L29
 632 0006 0023     		movs	r3, #0
 633 0008 02E0     		b	.L27
 634              	.LVL94:
 635              	.L28:
ARM GAS  C:\Users\CHRONI~1\AppData\Local\Temp\ccho61l0.s 			page 33


1183:SensorLib\bme688/bme68x.c ****     {
1184:SensorLib\bme688/bme68x.c ****         durval = 0xff; /* Max duration*/
1185:SensorLib\bme688/bme68x.c ****     }
1186:SensorLib\bme688/bme68x.c ****     else
1187:SensorLib\bme688/bme68x.c ****     {
1188:SensorLib\bme688/bme68x.c ****         while (dur > 0x3F)
1189:SensorLib\bme688/bme68x.c ****         {
1190:SensorLib\bme688/bme68x.c ****             dur = dur / 4;
 636              		.loc 1 1190 0
 637 000a 8008     		lsrs	r0, r0, #2
 638              	.LVL95:
1191:SensorLib\bme688/bme68x.c ****             factor += 1;
 639              		.loc 1 1191 0
 640 000c 0133     		adds	r3, r3, #1
 641              	.LVL96:
 642 000e DBB2     		uxtb	r3, r3
 643              	.LVL97:
 644              	.L27:
1188:SensorLib\bme688/bme68x.c ****         {
 645              		.loc 1 1188 0
 646 0010 3F28     		cmp	r0, #63
 647 0012 FAD8     		bhi	.L28
1192:SensorLib\bme688/bme68x.c ****         }
1193:SensorLib\bme688/bme68x.c **** 
1194:SensorLib\bme688/bme68x.c ****         durval = (uint8_t)(dur + (factor * 64));
 648              		.loc 1 1194 0
 649 0014 C0B2     		uxtb	r0, r0
 650              	.LVL98:
 651 0016 9B01     		lsls	r3, r3, #6
 652              	.LVL99:
 653 0018 DBB2     		uxtb	r3, r3
 654 001a 1844     		add	r0, r0, r3
 655 001c C0B2     		uxtb	r0, r0
 656              	.LVL100:
 657 001e 7047     		bx	lr
 658              	.LVL101:
 659              	.L29:
1184:SensorLib\bme688/bme68x.c ****     }
 660              		.loc 1 1184 0
 661 0020 FF20     		movs	r0, #255
 662              	.LVL102:
1195:SensorLib\bme688/bme68x.c ****     }
1196:SensorLib\bme688/bme68x.c **** 
1197:SensorLib\bme688/bme68x.c ****     return durval;
1198:SensorLib\bme688/bme68x.c **** }
 663              		.loc 1 1198 0
 664 0022 7047     		bx	lr
 665              		.cfi_endproc
 666              	.LFE20:
 667              		.size	calc_gas_wait, .-calc_gas_wait
 668              		.section	.text.null_ptr_check,"ax",%progbits
 669              		.align	2
 670              		.thumb
 671              		.thumb_func
 672              		.type	null_ptr_check, %function
 673              	null_ptr_check:
 674              	.LFB26:
ARM GAS  C:\Users\CHRONI~1\AppData\Local\Temp\ccho61l0.s 			page 34


1199:SensorLib\bme688/bme68x.c **** 
1200:SensorLib\bme688/bme68x.c **** /* This internal API is used to read a single data of the sensor */
1201:SensorLib\bme688/bme68x.c **** static int8_t read_field_data(uint8_t index, struct bme68x_data *data, struct bme68x_dev *dev)
1202:SensorLib\bme688/bme68x.c **** {
1203:SensorLib\bme688/bme68x.c ****     int8_t rslt = BME68X_OK;
1204:SensorLib\bme688/bme68x.c ****     uint8_t buff[BME68X_LEN_FIELD] = { 0 };
1205:SensorLib\bme688/bme68x.c ****     uint8_t gas_range_l, gas_range_h;
1206:SensorLib\bme688/bme68x.c ****     uint32_t adc_temp;
1207:SensorLib\bme688/bme68x.c ****     uint32_t adc_pres;
1208:SensorLib\bme688/bme68x.c ****     uint16_t adc_hum;
1209:SensorLib\bme688/bme68x.c ****     uint16_t adc_gas_res_low, adc_gas_res_high;
1210:SensorLib\bme688/bme68x.c ****     uint8_t tries = 5;
1211:SensorLib\bme688/bme68x.c **** 
1212:SensorLib\bme688/bme68x.c ****     while ((tries) && (rslt == BME68X_OK))
1213:SensorLib\bme688/bme68x.c ****     {
1214:SensorLib\bme688/bme68x.c ****         rslt = bme68x_get_regs(((uint8_t)(BME68X_REG_FIELD0 + (index * BME68X_LEN_FIELD_OFFSET))),
1215:SensorLib\bme688/bme68x.c ****                                buff,
1216:SensorLib\bme688/bme68x.c ****                                (uint16_t)BME68X_LEN_FIELD,
1217:SensorLib\bme688/bme68x.c ****                                dev);
1218:SensorLib\bme688/bme68x.c ****         if (!data)
1219:SensorLib\bme688/bme68x.c ****         {
1220:SensorLib\bme688/bme68x.c ****             rslt = BME68X_E_NULL_PTR;
1221:SensorLib\bme688/bme68x.c ****             break;
1222:SensorLib\bme688/bme68x.c ****         }
1223:SensorLib\bme688/bme68x.c **** 
1224:SensorLib\bme688/bme68x.c ****         data->status = buff[0] & BME68X_NEW_DATA_MSK;
1225:SensorLib\bme688/bme68x.c ****         data->gas_index = buff[0] & BME68X_GAS_INDEX_MSK;
1226:SensorLib\bme688/bme68x.c ****         data->meas_index = buff[1];
1227:SensorLib\bme688/bme68x.c **** 
1228:SensorLib\bme688/bme68x.c ****         /* read the raw data from the sensor */
1229:SensorLib\bme688/bme68x.c ****         adc_pres = (uint32_t)(((uint32_t)buff[2] * 4096) | ((uint32_t)buff[3] * 16) | ((uint32_t)bu
1230:SensorLib\bme688/bme68x.c ****         adc_temp = (uint32_t)(((uint32_t)buff[5] * 4096) | ((uint32_t)buff[6] * 16) | ((uint32_t)bu
1231:SensorLib\bme688/bme68x.c ****         adc_hum = (uint16_t)(((uint32_t)buff[8] * 256) | (uint32_t)buff[9]);
1232:SensorLib\bme688/bme68x.c ****         adc_gas_res_low = (uint16_t)((uint32_t)buff[13] * 4 | (((uint32_t)buff[14]) / 64));
1233:SensorLib\bme688/bme68x.c ****         adc_gas_res_high = (uint16_t)((uint32_t)buff[15] * 4 | (((uint32_t)buff[16]) / 64));
1234:SensorLib\bme688/bme68x.c ****         gas_range_l = buff[14] & BME68X_GAS_RANGE_MSK;
1235:SensorLib\bme688/bme68x.c ****         gas_range_h = buff[16] & BME68X_GAS_RANGE_MSK;
1236:SensorLib\bme688/bme68x.c ****         if (dev->variant_id == BME68X_VARIANT_GAS_HIGH)
1237:SensorLib\bme688/bme68x.c ****         {
1238:SensorLib\bme688/bme68x.c ****             data->status |= buff[16] & BME68X_GASM_VALID_MSK;
1239:SensorLib\bme688/bme68x.c ****             data->status |= buff[16] & BME68X_HEAT_STAB_MSK;
1240:SensorLib\bme688/bme68x.c ****         }
1241:SensorLib\bme688/bme68x.c ****         else
1242:SensorLib\bme688/bme68x.c ****         {
1243:SensorLib\bme688/bme68x.c ****             data->status |= buff[14] & BME68X_GASM_VALID_MSK;
1244:SensorLib\bme688/bme68x.c ****             data->status |= buff[14] & BME68X_HEAT_STAB_MSK;
1245:SensorLib\bme688/bme68x.c ****         }
1246:SensorLib\bme688/bme68x.c **** 
1247:SensorLib\bme688/bme68x.c ****         if ((data->status & BME68X_NEW_DATA_MSK) && (rslt == BME68X_OK))
1248:SensorLib\bme688/bme68x.c ****         {
1249:SensorLib\bme688/bme68x.c ****             rslt = bme68x_get_regs(BME68X_REG_RES_HEAT0 + data->gas_index, &data->res_heat, 1, dev)
1250:SensorLib\bme688/bme68x.c ****             if (rslt == BME68X_OK)
1251:SensorLib\bme688/bme68x.c ****             {
1252:SensorLib\bme688/bme68x.c ****                 rslt = bme68x_get_regs(BME68X_REG_IDAC_HEAT0 + data->gas_index, &data->idac, 1, dev
1253:SensorLib\bme688/bme68x.c ****             }
1254:SensorLib\bme688/bme68x.c **** 
1255:SensorLib\bme688/bme68x.c ****             if (rslt == BME68X_OK)
ARM GAS  C:\Users\CHRONI~1\AppData\Local\Temp\ccho61l0.s 			page 35


1256:SensorLib\bme688/bme68x.c ****             {
1257:SensorLib\bme688/bme68x.c ****                 rslt = bme68x_get_regs(BME68X_REG_GAS_WAIT0 + data->gas_index, &data->gas_wait, 1, 
1258:SensorLib\bme688/bme68x.c ****             }
1259:SensorLib\bme688/bme68x.c **** 
1260:SensorLib\bme688/bme68x.c ****             if (rslt == BME68X_OK)
1261:SensorLib\bme688/bme68x.c ****             {
1262:SensorLib\bme688/bme68x.c ****                 data->temperature = calc_temperature(adc_temp, dev);
1263:SensorLib\bme688/bme68x.c ****                 data->pressure = calc_pressure(adc_pres, dev);
1264:SensorLib\bme688/bme68x.c ****                 data->humidity = calc_humidity(adc_hum, dev);
1265:SensorLib\bme688/bme68x.c ****                 if (dev->variant_id == BME68X_VARIANT_GAS_HIGH)
1266:SensorLib\bme688/bme68x.c ****                 {
1267:SensorLib\bme688/bme68x.c ****                     data->gas_resistance = calc_gas_resistance_high(adc_gas_res_high, gas_range_h);
1268:SensorLib\bme688/bme68x.c ****                 }
1269:SensorLib\bme688/bme68x.c ****                 else
1270:SensorLib\bme688/bme68x.c ****                 {
1271:SensorLib\bme688/bme68x.c ****                     data->gas_resistance = calc_gas_resistance_low(adc_gas_res_low, gas_range_l, de
1272:SensorLib\bme688/bme68x.c ****                 }
1273:SensorLib\bme688/bme68x.c **** 
1274:SensorLib\bme688/bme68x.c ****                 break;
1275:SensorLib\bme688/bme68x.c ****             }
1276:SensorLib\bme688/bme68x.c ****         }
1277:SensorLib\bme688/bme68x.c **** 
1278:SensorLib\bme688/bme68x.c ****         if (rslt == BME68X_OK)
1279:SensorLib\bme688/bme68x.c ****         {
1280:SensorLib\bme688/bme68x.c ****             dev->delay_us(BME68X_PERIOD_POLL, dev->intf_ptr);
1281:SensorLib\bme688/bme68x.c ****         }
1282:SensorLib\bme688/bme68x.c **** 
1283:SensorLib\bme688/bme68x.c ****         tries--;
1284:SensorLib\bme688/bme68x.c ****     }
1285:SensorLib\bme688/bme68x.c **** 
1286:SensorLib\bme688/bme68x.c ****     return rslt;
1287:SensorLib\bme688/bme68x.c **** }
1288:SensorLib\bme688/bme68x.c **** 
1289:SensorLib\bme688/bme68x.c **** /* This internal API is used to read all data fields of the sensor */
1290:SensorLib\bme688/bme68x.c **** static int8_t read_all_field_data(struct bme68x_data * const data[], struct bme68x_dev *dev)
1291:SensorLib\bme688/bme68x.c **** {
1292:SensorLib\bme688/bme68x.c ****     int8_t rslt = BME68X_OK;
1293:SensorLib\bme688/bme68x.c ****     uint8_t buff[BME68X_LEN_FIELD * 3] = { 0 };
1294:SensorLib\bme688/bme68x.c ****     uint8_t gas_range_l, gas_range_h;
1295:SensorLib\bme688/bme68x.c ****     uint32_t adc_temp;
1296:SensorLib\bme688/bme68x.c ****     uint32_t adc_pres;
1297:SensorLib\bme688/bme68x.c ****     uint16_t adc_hum;
1298:SensorLib\bme688/bme68x.c ****     uint16_t adc_gas_res_low, adc_gas_res_high;
1299:SensorLib\bme688/bme68x.c ****     uint8_t off;
1300:SensorLib\bme688/bme68x.c ****     uint8_t set_val[30] = { 0 }; /* idac, res_heat, gas_wait */
1301:SensorLib\bme688/bme68x.c ****     uint8_t i;
1302:SensorLib\bme688/bme68x.c **** 
1303:SensorLib\bme688/bme68x.c ****     if (!data[0] && !data[1] && !data[2])
1304:SensorLib\bme688/bme68x.c ****     {
1305:SensorLib\bme688/bme68x.c ****         rslt = BME68X_E_NULL_PTR;
1306:SensorLib\bme688/bme68x.c ****     }
1307:SensorLib\bme688/bme68x.c **** 
1308:SensorLib\bme688/bme68x.c ****     if (rslt == BME68X_OK)
1309:SensorLib\bme688/bme68x.c ****     {
1310:SensorLib\bme688/bme68x.c ****         rslt = bme68x_get_regs(BME68X_REG_FIELD0, buff, (uint32_t) BME68X_LEN_FIELD * 3, dev);
1311:SensorLib\bme688/bme68x.c ****     }
1312:SensorLib\bme688/bme68x.c **** 
ARM GAS  C:\Users\CHRONI~1\AppData\Local\Temp\ccho61l0.s 			page 36


1313:SensorLib\bme688/bme68x.c ****     if (rslt == BME68X_OK)
1314:SensorLib\bme688/bme68x.c ****     {
1315:SensorLib\bme688/bme68x.c ****         rslt = bme68x_get_regs(BME68X_REG_IDAC_HEAT0, set_val, 30, dev);
1316:SensorLib\bme688/bme68x.c ****     }
1317:SensorLib\bme688/bme68x.c **** 
1318:SensorLib\bme688/bme68x.c ****     for (i = 0; ((i < 3) && (rslt == BME68X_OK)); i++)
1319:SensorLib\bme688/bme68x.c ****     {
1320:SensorLib\bme688/bme68x.c ****         off = (uint8_t)(i * BME68X_LEN_FIELD);
1321:SensorLib\bme688/bme68x.c ****         data[i]->status = buff[off] & BME68X_NEW_DATA_MSK;
1322:SensorLib\bme688/bme68x.c ****         data[i]->gas_index = buff[off] & BME68X_GAS_INDEX_MSK;
1323:SensorLib\bme688/bme68x.c ****         data[i]->meas_index = buff[off + 1];
1324:SensorLib\bme688/bme68x.c **** 
1325:SensorLib\bme688/bme68x.c ****         /* read the raw data from the sensor */
1326:SensorLib\bme688/bme68x.c ****         adc_pres =
1327:SensorLib\bme688/bme68x.c ****             (uint32_t) (((uint32_t) buff[off + 2] * 4096) | ((uint32_t) buff[off + 3] * 16) |
1328:SensorLib\bme688/bme68x.c ****                         ((uint32_t) buff[off + 4] / 16));
1329:SensorLib\bme688/bme68x.c ****         adc_temp =
1330:SensorLib\bme688/bme68x.c ****             (uint32_t) (((uint32_t) buff[off + 5] * 4096) | ((uint32_t) buff[off + 6] * 16) |
1331:SensorLib\bme688/bme68x.c ****                         ((uint32_t) buff[off + 7] / 16));
1332:SensorLib\bme688/bme68x.c ****         adc_hum = (uint16_t) (((uint32_t) buff[off + 8] * 256) | (uint32_t) buff[off + 9]);
1333:SensorLib\bme688/bme68x.c ****         adc_gas_res_low = (uint16_t) ((uint32_t) buff[off + 13] * 4 | (((uint32_t) buff[off + 14]) 
1334:SensorLib\bme688/bme68x.c ****         adc_gas_res_high = (uint16_t) ((uint32_t) buff[off + 15] * 4 | (((uint32_t) buff[off + 16])
1335:SensorLib\bme688/bme68x.c ****         gas_range_l = buff[off + 14] & BME68X_GAS_RANGE_MSK;
1336:SensorLib\bme688/bme68x.c ****         gas_range_h = buff[off + 16] & BME68X_GAS_RANGE_MSK;
1337:SensorLib\bme688/bme68x.c ****         if (dev->variant_id == BME68X_VARIANT_GAS_HIGH)
1338:SensorLib\bme688/bme68x.c ****         {
1339:SensorLib\bme688/bme68x.c ****             data[i]->status |= buff[off + 16] & BME68X_GASM_VALID_MSK;
1340:SensorLib\bme688/bme68x.c ****             data[i]->status |= buff[off + 16] & BME68X_HEAT_STAB_MSK;
1341:SensorLib\bme688/bme68x.c ****         }
1342:SensorLib\bme688/bme68x.c ****         else
1343:SensorLib\bme688/bme68x.c ****         {
1344:SensorLib\bme688/bme68x.c ****             data[i]->status |= buff[off + 14] & BME68X_GASM_VALID_MSK;
1345:SensorLib\bme688/bme68x.c ****             data[i]->status |= buff[off + 14] & BME68X_HEAT_STAB_MSK;
1346:SensorLib\bme688/bme68x.c ****         }
1347:SensorLib\bme688/bme68x.c **** 
1348:SensorLib\bme688/bme68x.c ****         data[i]->idac = set_val[data[i]->gas_index];
1349:SensorLib\bme688/bme68x.c ****         data[i]->res_heat = set_val[10 + data[i]->gas_index];
1350:SensorLib\bme688/bme68x.c ****         data[i]->gas_wait = set_val[20 + data[i]->gas_index];
1351:SensorLib\bme688/bme68x.c ****         data[i]->temperature = calc_temperature(adc_temp, dev);
1352:SensorLib\bme688/bme68x.c ****         data[i]->pressure = calc_pressure(adc_pres, dev);
1353:SensorLib\bme688/bme68x.c ****         data[i]->humidity = calc_humidity(adc_hum, dev);
1354:SensorLib\bme688/bme68x.c ****         if (dev->variant_id == BME68X_VARIANT_GAS_HIGH)
1355:SensorLib\bme688/bme68x.c ****         {
1356:SensorLib\bme688/bme68x.c ****             data[i]->gas_resistance = calc_gas_resistance_high(adc_gas_res_high, gas_range_h);
1357:SensorLib\bme688/bme68x.c ****         }
1358:SensorLib\bme688/bme68x.c ****         else
1359:SensorLib\bme688/bme68x.c ****         {
1360:SensorLib\bme688/bme68x.c ****             data[i]->gas_resistance = calc_gas_resistance_low(adc_gas_res_low, gas_range_l, dev);
1361:SensorLib\bme688/bme68x.c ****         }
1362:SensorLib\bme688/bme68x.c ****     }
1363:SensorLib\bme688/bme68x.c **** 
1364:SensorLib\bme688/bme68x.c ****     return rslt;
1365:SensorLib\bme688/bme68x.c **** }
1366:SensorLib\bme688/bme68x.c **** 
1367:SensorLib\bme688/bme68x.c **** /* This internal API is used to switch between SPI memory pages */
1368:SensorLib\bme688/bme68x.c **** static int8_t set_mem_page(uint8_t reg_addr, struct bme68x_dev *dev)
1369:SensorLib\bme688/bme68x.c **** {
ARM GAS  C:\Users\CHRONI~1\AppData\Local\Temp\ccho61l0.s 			page 37


1370:SensorLib\bme688/bme68x.c ****     int8_t rslt;
1371:SensorLib\bme688/bme68x.c ****     uint8_t reg;
1372:SensorLib\bme688/bme68x.c ****     uint8_t mem_page;
1373:SensorLib\bme688/bme68x.c **** 
1374:SensorLib\bme688/bme68x.c ****     /* Check for null pointers in the device structure*/
1375:SensorLib\bme688/bme68x.c ****     rslt = null_ptr_check(dev);
1376:SensorLib\bme688/bme68x.c ****     if (rslt == BME68X_OK)
1377:SensorLib\bme688/bme68x.c ****     {
1378:SensorLib\bme688/bme68x.c ****         if (reg_addr > 0x7f)
1379:SensorLib\bme688/bme68x.c ****         {
1380:SensorLib\bme688/bme68x.c ****             mem_page = BME68X_MEM_PAGE1;
1381:SensorLib\bme688/bme68x.c ****         }
1382:SensorLib\bme688/bme68x.c ****         else
1383:SensorLib\bme688/bme68x.c ****         {
1384:SensorLib\bme688/bme68x.c ****             mem_page = BME68X_MEM_PAGE0;
1385:SensorLib\bme688/bme68x.c ****         }
1386:SensorLib\bme688/bme68x.c **** 
1387:SensorLib\bme688/bme68x.c ****         if (mem_page != dev->mem_page)
1388:SensorLib\bme688/bme68x.c ****         {
1389:SensorLib\bme688/bme68x.c ****             dev->mem_page = mem_page;
1390:SensorLib\bme688/bme68x.c ****             dev->intf_rslt = dev->read(BME68X_REG_MEM_PAGE | BME68X_SPI_RD_MSK, &reg, 1, dev->intf_
1391:SensorLib\bme688/bme68x.c ****             if (dev->intf_rslt != 0)
1392:SensorLib\bme688/bme68x.c ****             {
1393:SensorLib\bme688/bme68x.c ****                 rslt = BME68X_E_COM_FAIL;
1394:SensorLib\bme688/bme68x.c ****             }
1395:SensorLib\bme688/bme68x.c **** 
1396:SensorLib\bme688/bme68x.c ****             if (rslt == BME68X_OK)
1397:SensorLib\bme688/bme68x.c ****             {
1398:SensorLib\bme688/bme68x.c ****                 reg = reg & (~BME68X_MEM_PAGE_MSK);
1399:SensorLib\bme688/bme68x.c ****                 reg = reg | (dev->mem_page & BME68X_MEM_PAGE_MSK);
1400:SensorLib\bme688/bme68x.c ****                 dev->intf_rslt = dev->write(BME68X_REG_MEM_PAGE & BME68X_SPI_WR_MSK, &reg, 1, dev->
1401:SensorLib\bme688/bme68x.c ****                 if (dev->intf_rslt != 0)
1402:SensorLib\bme688/bme68x.c ****                 {
1403:SensorLib\bme688/bme68x.c ****                     rslt = BME68X_E_COM_FAIL;
1404:SensorLib\bme688/bme68x.c ****                 }
1405:SensorLib\bme688/bme68x.c ****             }
1406:SensorLib\bme688/bme68x.c ****         }
1407:SensorLib\bme688/bme68x.c ****     }
1408:SensorLib\bme688/bme68x.c **** 
1409:SensorLib\bme688/bme68x.c ****     return rslt;
1410:SensorLib\bme688/bme68x.c **** }
1411:SensorLib\bme688/bme68x.c **** 
1412:SensorLib\bme688/bme68x.c **** /* This internal API is used to get the current SPI memory page */
1413:SensorLib\bme688/bme68x.c **** static int8_t get_mem_page(struct bme68x_dev *dev)
1414:SensorLib\bme688/bme68x.c **** {
1415:SensorLib\bme688/bme68x.c ****     int8_t rslt;
1416:SensorLib\bme688/bme68x.c ****     uint8_t reg;
1417:SensorLib\bme688/bme68x.c **** 
1418:SensorLib\bme688/bme68x.c ****     /* Check for null pointer in the device structure*/
1419:SensorLib\bme688/bme68x.c ****     rslt = null_ptr_check(dev);
1420:SensorLib\bme688/bme68x.c ****     if (rslt == BME68X_OK)
1421:SensorLib\bme688/bme68x.c ****     {
1422:SensorLib\bme688/bme68x.c ****         dev->intf_rslt = dev->read(BME68X_REG_MEM_PAGE | BME68X_SPI_RD_MSK, &reg, 1, dev->intf_ptr)
1423:SensorLib\bme688/bme68x.c ****         if (dev->intf_rslt != 0)
1424:SensorLib\bme688/bme68x.c ****         {
1425:SensorLib\bme688/bme68x.c ****             rslt = BME68X_E_COM_FAIL;
1426:SensorLib\bme688/bme68x.c ****         }
ARM GAS  C:\Users\CHRONI~1\AppData\Local\Temp\ccho61l0.s 			page 38


1427:SensorLib\bme688/bme68x.c ****         else
1428:SensorLib\bme688/bme68x.c ****         {
1429:SensorLib\bme688/bme68x.c ****             dev->mem_page = reg & BME68X_MEM_PAGE_MSK;
1430:SensorLib\bme688/bme68x.c ****         }
1431:SensorLib\bme688/bme68x.c ****     }
1432:SensorLib\bme688/bme68x.c **** 
1433:SensorLib\bme688/bme68x.c ****     return rslt;
1434:SensorLib\bme688/bme68x.c **** }
1435:SensorLib\bme688/bme68x.c **** 
1436:SensorLib\bme688/bme68x.c **** /* This internal API is used to limit the max value of a parameter */
1437:SensorLib\bme688/bme68x.c **** static int8_t boundary_check(uint8_t *value, uint8_t max, struct bme68x_dev *dev)
1438:SensorLib\bme688/bme68x.c **** {
1439:SensorLib\bme688/bme68x.c ****     int8_t rslt;
1440:SensorLib\bme688/bme68x.c **** 
1441:SensorLib\bme688/bme68x.c ****     rslt = null_ptr_check(dev);
1442:SensorLib\bme688/bme68x.c ****     if ((value != NULL) && (rslt == BME68X_OK))
1443:SensorLib\bme688/bme68x.c ****     {
1444:SensorLib\bme688/bme68x.c ****         /* Check if value is above maximum value */
1445:SensorLib\bme688/bme68x.c ****         if (*value > max)
1446:SensorLib\bme688/bme68x.c ****         {
1447:SensorLib\bme688/bme68x.c ****             /* Auto correct the invalid value to maximum value */
1448:SensorLib\bme688/bme68x.c ****             *value = max;
1449:SensorLib\bme688/bme68x.c ****             dev->info_msg |= BME68X_I_PARAM_CORR;
1450:SensorLib\bme688/bme68x.c ****         }
1451:SensorLib\bme688/bme68x.c ****     }
1452:SensorLib\bme688/bme68x.c ****     else
1453:SensorLib\bme688/bme68x.c ****     {
1454:SensorLib\bme688/bme68x.c ****         rslt = BME68X_E_NULL_PTR;
1455:SensorLib\bme688/bme68x.c ****     }
1456:SensorLib\bme688/bme68x.c **** 
1457:SensorLib\bme688/bme68x.c ****     return rslt;
1458:SensorLib\bme688/bme68x.c **** }
1459:SensorLib\bme688/bme68x.c **** 
1460:SensorLib\bme688/bme68x.c **** /* This internal API is used to check the bme68x_dev for null pointers */
1461:SensorLib\bme688/bme68x.c **** static int8_t null_ptr_check(const struct bme68x_dev *dev)
1462:SensorLib\bme688/bme68x.c **** {
 675              		.loc 1 1462 0
 676              		.cfi_startproc
 677              		@ args = 0, pretend = 0, frame = 0
 678              		@ frame_needed = 0, uses_anonymous_args = 0
 679              		@ link register save eliminated.
 680              	.LVL103:
1463:SensorLib\bme688/bme68x.c ****     int8_t rslt = BME68X_OK;
1464:SensorLib\bme688/bme68x.c **** 
1465:SensorLib\bme688/bme68x.c ****     if ((dev == NULL) || (dev->read == NULL) || (dev->write == NULL) || (dev->delay_us == NULL))
 681              		.loc 1 1465 0
 682 0000 38B1     		cbz	r0, .L32
 683              		.loc 1 1465 0 is_stmt 0 discriminator 1
 684 0002 026C     		ldr	r2, [r0, #64]
 685 0004 42B1     		cbz	r2, .L33
 686              		.loc 1 1465 0 discriminator 2
 687 0006 426C     		ldr	r2, [r0, #68]
 688 0008 4AB1     		cbz	r2, .L34
 689              		.loc 1 1465 0 discriminator 3
 690 000a 836C     		ldr	r3, [r0, #72]
 691 000c 53B1     		cbz	r3, .L35
1463:SensorLib\bme688/bme68x.c ****     int8_t rslt = BME68X_OK;
ARM GAS  C:\Users\CHRONI~1\AppData\Local\Temp\ccho61l0.s 			page 39


 692              		.loc 1 1463 0 is_stmt 1
 693 000e 0020     		movs	r0, #0
 694              	.LVL104:
 695 0010 7047     		bx	lr
 696              	.LVL105:
 697              	.L32:
1466:SensorLib\bme688/bme68x.c ****     {
1467:SensorLib\bme688/bme68x.c ****         /* Device structure pointer is not valid */
1468:SensorLib\bme688/bme68x.c ****         rslt = BME68X_E_NULL_PTR;
 698              		.loc 1 1468 0
 699 0012 4FF0FF30 		mov	r0, #-1
 700              	.LVL106:
 701 0016 7047     		bx	lr
 702              	.LVL107:
 703              	.L33:
 704 0018 4FF0FF30 		mov	r0, #-1
 705              	.LVL108:
 706 001c 7047     		bx	lr
 707              	.LVL109:
 708              	.L34:
 709 001e 4FF0FF30 		mov	r0, #-1
 710              	.LVL110:
 711 0022 7047     		bx	lr
 712              	.LVL111:
 713              	.L35:
 714 0024 4FF0FF30 		mov	r0, #-1
 715              	.LVL112:
1469:SensorLib\bme688/bme68x.c ****     }
1470:SensorLib\bme688/bme68x.c **** 
1471:SensorLib\bme688/bme68x.c ****     return rslt;
1472:SensorLib\bme688/bme68x.c **** }
 716              		.loc 1 1472 0
 717 0028 7047     		bx	lr
 718              		.cfi_endproc
 719              	.LFE26:
 720              		.size	null_ptr_check, .-null_ptr_check
 721 002a 00BF     		.section	.text.set_mem_page,"ax",%progbits
 722              		.align	2
 723              		.thumb
 724              		.thumb_func
 725              		.type	set_mem_page, %function
 726              	set_mem_page:
 727              	.LFB23:
1369:SensorLib\bme688/bme68x.c ****     int8_t rslt;
 728              		.loc 1 1369 0
 729              		.cfi_startproc
 730              		@ args = 0, pretend = 0, frame = 8
 731              		@ frame_needed = 0, uses_anonymous_args = 0
 732              	.LVL113:
 733 0000 70B5     		push	{r4, r5, r6, lr}
 734              		.cfi_def_cfa_offset 16
 735              		.cfi_offset 4, -16
 736              		.cfi_offset 5, -12
 737              		.cfi_offset 6, -8
 738              		.cfi_offset 14, -4
 739 0002 82B0     		sub	sp, sp, #8
 740              		.cfi_def_cfa_offset 24
ARM GAS  C:\Users\CHRONI~1\AppData\Local\Temp\ccho61l0.s 			page 40


 741 0004 0646     		mov	r6, r0
 742 0006 0C46     		mov	r4, r1
1375:SensorLib\bme688/bme68x.c ****     if (rslt == BME68X_OK)
 743              		.loc 1 1375 0
 744 0008 0846     		mov	r0, r1
 745              	.LVL114:
 746 000a FFF7FEFF 		bl	null_ptr_check
 747              	.LVL115:
1376:SensorLib\bme688/bme68x.c ****     {
 748              		.loc 1 1376 0
 749 000e 0546     		mov	r5, r0
 750 0010 58BB     		cbnz	r0, .L37
1378:SensorLib\bme688/bme68x.c ****         {
 751              		.loc 1 1378 0
 752 0012 16F0800F 		tst	r6, #128
 753 0016 01D0     		beq	.L40
1380:SensorLib\bme688/bme68x.c ****         }
 754              		.loc 1 1380 0
 755 0018 0023     		movs	r3, #0
 756 001a 00E0     		b	.L38
 757              	.L40:
1384:SensorLib\bme688/bme68x.c ****         }
 758              		.loc 1 1384 0
 759 001c 1023     		movs	r3, #16
 760              	.L38:
 761              	.LVL116:
1387:SensorLib\bme688/bme68x.c ****         {
 762              		.loc 1 1387 0
 763 001e 627B     		ldrb	r2, [r4, #13]	@ zero_extendqisi2
 764 0020 9342     		cmp	r3, r2
 765 0022 22D0     		beq	.L37
1389:SensorLib\bme688/bme68x.c ****             dev->intf_rslt = dev->read(BME68X_REG_MEM_PAGE | BME68X_SPI_RD_MSK, &reg, 1, dev->intf_
 766              		.loc 1 1389 0
 767 0024 6373     		strb	r3, [r4, #13]
1390:SensorLib\bme688/bme68x.c ****             if (dev->intf_rslt != 0)
 768              		.loc 1 1390 0
 769 0026 266C     		ldr	r6, [r4, #64]
 770 0028 6368     		ldr	r3, [r4, #4]
 771              	.LVL117:
 772 002a 0122     		movs	r2, #1
 773 002c 0DF10701 		add	r1, sp, #7
 774 0030 F320     		movs	r0, #243
 775              	.LVL118:
 776 0032 B047     		blx	r6
 777              	.LVL119:
 778 0034 84F84C00 		strb	r0, [r4, #76]
1391:SensorLib\bme688/bme68x.c ****             {
 779              		.loc 1 1391 0
 780 0038 08B1     		cbz	r0, .L39
1393:SensorLib\bme688/bme68x.c ****             }
 781              		.loc 1 1393 0
 782 003a 6FF00105 		mvn	r5, #1
 783              	.L39:
 784              	.LVL120:
1396:SensorLib\bme688/bme68x.c ****             {
 785              		.loc 1 1396 0
 786 003e A5B9     		cbnz	r5, .L37
ARM GAS  C:\Users\CHRONI~1\AppData\Local\Temp\ccho61l0.s 			page 41


1398:SensorLib\bme688/bme68x.c ****                 reg = reg | (dev->mem_page & BME68X_MEM_PAGE_MSK);
 787              		.loc 1 1398 0
 788 0040 9DF80730 		ldrb	r3, [sp, #7]	@ zero_extendqisi2
 789 0044 03F0EF02 		and	r2, r3, #239
1399:SensorLib\bme688/bme68x.c ****                 dev->intf_rslt = dev->write(BME68X_REG_MEM_PAGE & BME68X_SPI_WR_MSK, &reg, 1, dev->
 790              		.loc 1 1399 0
 791 0048 637B     		ldrb	r3, [r4, #13]	@ zero_extendqisi2
 792 004a 03F01003 		and	r3, r3, #16
 793 004e 1343     		orrs	r3, r3, r2
 794 0050 02A9     		add	r1, sp, #8
 795 0052 01F8013D 		strb	r3, [r1, #-1]!
1400:SensorLib\bme688/bme68x.c ****                 if (dev->intf_rslt != 0)
 796              		.loc 1 1400 0
 797 0056 666C     		ldr	r6, [r4, #68]
 798 0058 6368     		ldr	r3, [r4, #4]
 799 005a 0122     		movs	r2, #1
 800 005c 7320     		movs	r0, #115
 801 005e B047     		blx	r6
 802              	.LVL121:
 803 0060 84F84C00 		strb	r0, [r4, #76]
1401:SensorLib\bme688/bme68x.c ****                 {
 804              		.loc 1 1401 0
 805 0064 08B1     		cbz	r0, .L37
1403:SensorLib\bme688/bme68x.c ****                 }
 806              		.loc 1 1403 0
 807 0066 6FF00105 		mvn	r5, #1
 808              	.LVL122:
 809              	.L37:
1410:SensorLib\bme688/bme68x.c **** 
 810              		.loc 1 1410 0
 811 006a 2846     		mov	r0, r5
 812 006c 02B0     		add	sp, sp, #8
 813              		.cfi_def_cfa_offset 16
 814              		@ sp needed
 815 006e 70BD     		pop	{r4, r5, r6, pc}
 816              		.cfi_endproc
 817              	.LFE23:
 818              		.size	set_mem_page, .-set_mem_page
 819              		.section	.text.get_mem_page,"ax",%progbits
 820              		.align	2
 821              		.thumb
 822              		.thumb_func
 823              		.type	get_mem_page, %function
 824              	get_mem_page:
 825              	.LFB24:
1414:SensorLib\bme688/bme68x.c ****     int8_t rslt;
 826              		.loc 1 1414 0
 827              		.cfi_startproc
 828              		@ args = 0, pretend = 0, frame = 8
 829              		@ frame_needed = 0, uses_anonymous_args = 0
 830              	.LVL123:
 831 0000 70B5     		push	{r4, r5, r6, lr}
 832              		.cfi_def_cfa_offset 16
 833              		.cfi_offset 4, -16
 834              		.cfi_offset 5, -12
 835              		.cfi_offset 6, -8
 836              		.cfi_offset 14, -4
ARM GAS  C:\Users\CHRONI~1\AppData\Local\Temp\ccho61l0.s 			page 42


 837 0002 82B0     		sub	sp, sp, #8
 838              		.cfi_def_cfa_offset 24
 839 0004 0446     		mov	r4, r0
1419:SensorLib\bme688/bme68x.c ****     if (rslt == BME68X_OK)
 840              		.loc 1 1419 0
 841 0006 FFF7FEFF 		bl	null_ptr_check
 842              	.LVL124:
1420:SensorLib\bme688/bme68x.c ****     {
 843              		.loc 1 1420 0
 844 000a 0546     		mov	r5, r0
 845 000c 88B9     		cbnz	r0, .L45
1422:SensorLib\bme688/bme68x.c ****         if (dev->intf_rslt != 0)
 846              		.loc 1 1422 0
 847 000e 266C     		ldr	r6, [r4, #64]
 848 0010 6368     		ldr	r3, [r4, #4]
 849 0012 0122     		movs	r2, #1
 850 0014 0DF10701 		add	r1, sp, #7
 851 0018 F320     		movs	r0, #243
 852              	.LVL125:
 853 001a B047     		blx	r6
 854              	.LVL126:
 855 001c 84F84C00 		strb	r0, [r4, #76]
1423:SensorLib\bme688/bme68x.c ****         {
 856              		.loc 1 1423 0
 857 0020 28B9     		cbnz	r0, .L46
1429:SensorLib\bme688/bme68x.c ****         }
 858              		.loc 1 1429 0
 859 0022 9DF80730 		ldrb	r3, [sp, #7]	@ zero_extendqisi2
 860 0026 03F01003 		and	r3, r3, #16
 861 002a 6373     		strb	r3, [r4, #13]
 862 002c 01E0     		b	.L45
 863              	.L46:
1425:SensorLib\bme688/bme68x.c ****         }
 864              		.loc 1 1425 0
 865 002e 6FF00105 		mvn	r5, #1
 866              	.L45:
 867              	.LVL127:
1434:SensorLib\bme688/bme68x.c **** 
 868              		.loc 1 1434 0
 869 0032 2846     		mov	r0, r5
 870 0034 02B0     		add	sp, sp, #8
 871              		.cfi_def_cfa_offset 16
 872              		@ sp needed
 873 0036 70BD     		pop	{r4, r5, r6, pc}
 874              		.cfi_endproc
 875              	.LFE24:
 876              		.size	get_mem_page, .-get_mem_page
 877              		.section	.text.boundary_check,"ax",%progbits
 878              		.align	2
 879              		.thumb
 880              		.thumb_func
 881              		.type	boundary_check, %function
 882              	boundary_check:
 883              	.LFB25:
1438:SensorLib\bme688/bme68x.c ****     int8_t rslt;
 884              		.loc 1 1438 0
 885              		.cfi_startproc
ARM GAS  C:\Users\CHRONI~1\AppData\Local\Temp\ccho61l0.s 			page 43


 886              		@ args = 0, pretend = 0, frame = 0
 887              		@ frame_needed = 0, uses_anonymous_args = 0
 888              	.LVL128:
 889 0000 70B5     		push	{r4, r5, r6, lr}
 890              		.cfi_def_cfa_offset 16
 891              		.cfi_offset 4, -16
 892              		.cfi_offset 5, -12
 893              		.cfi_offset 6, -8
 894              		.cfi_offset 14, -4
 895 0002 0446     		mov	r4, r0
 896 0004 0E46     		mov	r6, r1
 897 0006 1546     		mov	r5, r2
1441:SensorLib\bme688/bme68x.c ****     if ((value != NULL) && (rslt == BME68X_OK))
 898              		.loc 1 1441 0
 899 0008 1046     		mov	r0, r2
 900              	.LVL129:
 901 000a FFF7FEFF 		bl	null_ptr_check
 902              	.LVL130:
1442:SensorLib\bme688/bme68x.c ****     {
 903              		.loc 1 1442 0
 904 000e 5CB1     		cbz	r4, .L50
1442:SensorLib\bme688/bme68x.c ****     {
 905              		.loc 1 1442 0 is_stmt 0 discriminator 1
 906 0010 68B9     		cbnz	r0, .L51
1445:SensorLib\bme688/bme68x.c ****         {
 907              		.loc 1 1445 0 is_stmt 1
 908 0012 2378     		ldrb	r3, [r4]	@ zero_extendqisi2
 909 0014 B342     		cmp	r3, r6
 910 0016 0CD9     		bls	.L49
1448:SensorLib\bme688/bme68x.c ****             dev->info_msg |= BME68X_I_PARAM_CORR;
 911              		.loc 1 1448 0
 912 0018 2670     		strb	r6, [r4]
1449:SensorLib\bme688/bme68x.c ****         }
 913              		.loc 1 1449 0
 914 001a 95F84D30 		ldrb	r3, [r5, #77]	@ zero_extendqisi2
 915 001e 43F00103 		orr	r3, r3, #1
 916 0022 85F84D30 		strb	r3, [r5, #77]
 917 0026 70BD     		pop	{r4, r5, r6, pc}
 918              	.LVL131:
 919              	.L50:
1454:SensorLib\bme688/bme68x.c ****     }
 920              		.loc 1 1454 0
 921 0028 4FF0FF30 		mov	r0, #-1
 922              	.LVL132:
 923 002c 70BD     		pop	{r4, r5, r6, pc}
 924              	.LVL133:
 925              	.L51:
 926 002e 4FF0FF30 		mov	r0, #-1
 927              	.LVL134:
 928              	.L49:
1458:SensorLib\bme688/bme68x.c **** 
 929              		.loc 1 1458 0
 930 0032 70BD     		pop	{r4, r5, r6, pc}
 931              		.cfi_endproc
 932              	.LFE25:
 933              		.size	boundary_check, .-boundary_check
 934              		.section	.text.calc_heatr_dur_shared,"ax",%progbits
ARM GAS  C:\Users\CHRONI~1\AppData\Local\Temp\ccho61l0.s 			page 44


 935              		.align	2
 936              		.thumb
 937              		.thumb_func
 938              		.type	calc_heatr_dur_shared, %function
 939              	calc_heatr_dur_shared:
 940              	.LFB28:
1473:SensorLib\bme688/bme68x.c **** 
1474:SensorLib\bme688/bme68x.c **** /* This internal API is used to set heater configurations */
1475:SensorLib\bme688/bme68x.c **** static int8_t set_conf(const struct bme68x_heatr_conf *conf, uint8_t op_mode, uint8_t *nb_conv, str
1476:SensorLib\bme688/bme68x.c **** {
1477:SensorLib\bme688/bme68x.c ****     int8_t rslt = BME68X_OK;
1478:SensorLib\bme688/bme68x.c ****     uint8_t i;
1479:SensorLib\bme688/bme68x.c ****     uint8_t shared_dur;
1480:SensorLib\bme688/bme68x.c ****     uint8_t write_len = 0;
1481:SensorLib\bme688/bme68x.c ****     uint8_t heater_dur_shared_addr = BME68X_REG_SHD_HEATR_DUR;
1482:SensorLib\bme688/bme68x.c ****     uint8_t rh_reg_addr[10] = { 0, 0, 0, 0, 0, 0, 0, 0, 0, 0 };
1483:SensorLib\bme688/bme68x.c ****     uint8_t rh_reg_data[10] = { 0, 0, 0, 0, 0, 0, 0, 0, 0, 0 };
1484:SensorLib\bme688/bme68x.c ****     uint8_t gw_reg_addr[10] = { 0, 0, 0, 0, 0, 0, 0, 0, 0, 0 };
1485:SensorLib\bme688/bme68x.c ****     uint8_t gw_reg_data[10] = { 0, 0, 0, 0, 0, 0, 0, 0, 0, 0 };
1486:SensorLib\bme688/bme68x.c **** 
1487:SensorLib\bme688/bme68x.c ****     switch (op_mode)
1488:SensorLib\bme688/bme68x.c ****     {
1489:SensorLib\bme688/bme68x.c ****         case BME68X_FORCED_MODE:
1490:SensorLib\bme688/bme68x.c ****             rh_reg_addr[0] = BME68X_REG_RES_HEAT0;
1491:SensorLib\bme688/bme68x.c ****             rh_reg_data[0] = calc_res_heat(conf->heatr_temp, dev);
1492:SensorLib\bme688/bme68x.c ****             gw_reg_addr[0] = BME68X_REG_GAS_WAIT0;
1493:SensorLib\bme688/bme68x.c ****             gw_reg_data[0] = calc_gas_wait(conf->heatr_dur);
1494:SensorLib\bme688/bme68x.c ****             (*nb_conv) = 0;
1495:SensorLib\bme688/bme68x.c ****             write_len = 1;
1496:SensorLib\bme688/bme68x.c ****             break;
1497:SensorLib\bme688/bme68x.c ****         case BME68X_SEQUENTIAL_MODE:
1498:SensorLib\bme688/bme68x.c ****             if ((!conf->heatr_dur_prof) || (!conf->heatr_temp_prof))
1499:SensorLib\bme688/bme68x.c ****             {
1500:SensorLib\bme688/bme68x.c ****                 rslt = BME68X_E_NULL_PTR;
1501:SensorLib\bme688/bme68x.c ****                 break;
1502:SensorLib\bme688/bme68x.c ****             }
1503:SensorLib\bme688/bme68x.c **** 
1504:SensorLib\bme688/bme68x.c ****             for (i = 0; i < conf->profile_len; i++)
1505:SensorLib\bme688/bme68x.c ****             {
1506:SensorLib\bme688/bme68x.c ****                 rh_reg_addr[i] = BME68X_REG_RES_HEAT0 + i;
1507:SensorLib\bme688/bme68x.c ****                 rh_reg_data[i] = calc_res_heat(conf->heatr_temp_prof[i], dev);
1508:SensorLib\bme688/bme68x.c ****                 gw_reg_addr[i] = BME68X_REG_GAS_WAIT0 + i;
1509:SensorLib\bme688/bme68x.c ****                 gw_reg_data[i] = calc_gas_wait(conf->heatr_dur_prof[i]);
1510:SensorLib\bme688/bme68x.c ****             }
1511:SensorLib\bme688/bme68x.c **** 
1512:SensorLib\bme688/bme68x.c ****             (*nb_conv) = conf->profile_len;
1513:SensorLib\bme688/bme68x.c ****             write_len = conf->profile_len;
1514:SensorLib\bme688/bme68x.c ****             break;
1515:SensorLib\bme688/bme68x.c ****         case BME68X_PARALLEL_MODE:
1516:SensorLib\bme688/bme68x.c ****             if ((!conf->heatr_dur_prof) || (!conf->heatr_temp_prof))
1517:SensorLib\bme688/bme68x.c ****             {
1518:SensorLib\bme688/bme68x.c ****                 rslt = BME68X_E_NULL_PTR;
1519:SensorLib\bme688/bme68x.c ****                 break;
1520:SensorLib\bme688/bme68x.c ****             }
1521:SensorLib\bme688/bme68x.c **** 
1522:SensorLib\bme688/bme68x.c ****             if (conf->shared_heatr_dur == 0)
1523:SensorLib\bme688/bme68x.c ****             {
ARM GAS  C:\Users\CHRONI~1\AppData\Local\Temp\ccho61l0.s 			page 45


1524:SensorLib\bme688/bme68x.c ****                 rslt = BME68X_W_DEFINE_SHD_HEATR_DUR;
1525:SensorLib\bme688/bme68x.c ****             }
1526:SensorLib\bme688/bme68x.c **** 
1527:SensorLib\bme688/bme68x.c ****             for (i = 0; i < conf->profile_len; i++)
1528:SensorLib\bme688/bme68x.c ****             {
1529:SensorLib\bme688/bme68x.c ****                 rh_reg_addr[i] = BME68X_REG_RES_HEAT0 + i;
1530:SensorLib\bme688/bme68x.c ****                 rh_reg_data[i] = calc_res_heat(conf->heatr_temp_prof[i], dev);
1531:SensorLib\bme688/bme68x.c ****                 gw_reg_addr[i] = BME68X_REG_GAS_WAIT0 + i;
1532:SensorLib\bme688/bme68x.c ****                 gw_reg_data[i] = (uint8_t) conf->heatr_dur_prof[i];
1533:SensorLib\bme688/bme68x.c ****             }
1534:SensorLib\bme688/bme68x.c **** 
1535:SensorLib\bme688/bme68x.c ****             (*nb_conv) = conf->profile_len;
1536:SensorLib\bme688/bme68x.c ****             write_len = conf->profile_len;
1537:SensorLib\bme688/bme68x.c ****             shared_dur = calc_heatr_dur_shared(conf->shared_heatr_dur);
1538:SensorLib\bme688/bme68x.c ****             if (rslt == BME68X_OK)
1539:SensorLib\bme688/bme68x.c ****             {
1540:SensorLib\bme688/bme68x.c ****                 rslt = bme68x_set_regs(&heater_dur_shared_addr, &shared_dur, 1, dev);
1541:SensorLib\bme688/bme68x.c ****             }
1542:SensorLib\bme688/bme68x.c **** 
1543:SensorLib\bme688/bme68x.c ****             break;
1544:SensorLib\bme688/bme68x.c ****         default:
1545:SensorLib\bme688/bme68x.c ****             rslt = BME68X_W_DEFINE_OP_MODE;
1546:SensorLib\bme688/bme68x.c ****     }
1547:SensorLib\bme688/bme68x.c **** 
1548:SensorLib\bme688/bme68x.c ****     if (rslt == BME68X_OK)
1549:SensorLib\bme688/bme68x.c ****     {
1550:SensorLib\bme688/bme68x.c ****         rslt = bme68x_set_regs(rh_reg_addr, rh_reg_data, write_len, dev);
1551:SensorLib\bme688/bme68x.c ****     }
1552:SensorLib\bme688/bme68x.c **** 
1553:SensorLib\bme688/bme68x.c ****     if (rslt == BME68X_OK)
1554:SensorLib\bme688/bme68x.c ****     {
1555:SensorLib\bme688/bme68x.c ****         rslt = bme68x_set_regs(gw_reg_addr, gw_reg_data, write_len, dev);
1556:SensorLib\bme688/bme68x.c ****     }
1557:SensorLib\bme688/bme68x.c **** 
1558:SensorLib\bme688/bme68x.c ****     return rslt;
1559:SensorLib\bme688/bme68x.c **** }
1560:SensorLib\bme688/bme68x.c **** 
1561:SensorLib\bme688/bme68x.c **** /* This internal API is used to calculate the register value for
1562:SensorLib\bme688/bme68x.c ****  * shared heater duration */
1563:SensorLib\bme688/bme68x.c **** static uint8_t calc_heatr_dur_shared(uint16_t dur)
1564:SensorLib\bme688/bme68x.c **** {
 941              		.loc 1 1564 0
 942              		.cfi_startproc
 943              		@ args = 0, pretend = 0, frame = 0
 944              		@ frame_needed = 0, uses_anonymous_args = 0
 945              		@ link register save eliminated.
 946              	.LVL135:
1565:SensorLib\bme688/bme68x.c ****     uint8_t factor = 0;
1566:SensorLib\bme688/bme68x.c ****     uint8_t heatdurval;
1567:SensorLib\bme688/bme68x.c **** 
1568:SensorLib\bme688/bme68x.c ****     if (dur >= 0x783)
 947              		.loc 1 1568 0
 948 0000 40F28273 		movw	r3, #1922
 949 0004 9842     		cmp	r0, r3
 950 0006 18D8     		bhi	.L57
1569:SensorLib\bme688/bme68x.c ****     {
1570:SensorLib\bme688/bme68x.c ****         heatdurval = 0xff; /* Max duration */
ARM GAS  C:\Users\CHRONI~1\AppData\Local\Temp\ccho61l0.s 			page 46


1571:SensorLib\bme688/bme68x.c ****     }
1572:SensorLib\bme688/bme68x.c ****     else
1573:SensorLib\bme688/bme68x.c ****     {
1574:SensorLib\bme688/bme68x.c ****         /* Step size of 0.477ms */
1575:SensorLib\bme688/bme68x.c ****         dur = (uint16_t)(((uint32_t)dur * 1000) / 477);
 951              		.loc 1 1575 0
 952 0008 4FF47A73 		mov	r3, #1000
 953 000c 03FB00F0 		mul	r0, r3, r0
 954              	.LVL136:
 955 0010 0B4B     		ldr	r3, .L58
 956 0012 A3FB0023 		umull	r2, r3, r3, r0
 957 0016 C01A     		subs	r0, r0, r3
 958 0018 03EB5000 		add	r0, r3, r0, lsr #1
 959 001c C0F30F20 		ubfx	r0, r0, #8, #16
 960              	.LVL137:
1565:SensorLib\bme688/bme68x.c ****     uint8_t factor = 0;
 961              		.loc 1 1565 0
 962 0020 0023     		movs	r3, #0
1576:SensorLib\bme688/bme68x.c ****         while (dur > 0x3F)
 963              		.loc 1 1576 0
 964 0022 02E0     		b	.L55
 965              	.LVL138:
 966              	.L56:
1577:SensorLib\bme688/bme68x.c ****         {
1578:SensorLib\bme688/bme68x.c ****             dur = dur >> 2;
 967              		.loc 1 1578 0
 968 0024 8008     		lsrs	r0, r0, #2
 969              	.LVL139:
1579:SensorLib\bme688/bme68x.c ****             factor += 1;
 970              		.loc 1 1579 0
 971 0026 0133     		adds	r3, r3, #1
 972              	.LVL140:
 973 0028 DBB2     		uxtb	r3, r3
 974              	.LVL141:
 975              	.L55:
1576:SensorLib\bme688/bme68x.c ****         while (dur > 0x3F)
 976              		.loc 1 1576 0
 977 002a 3F28     		cmp	r0, #63
 978 002c FAD8     		bhi	.L56
1580:SensorLib\bme688/bme68x.c ****         }
1581:SensorLib\bme688/bme68x.c **** 
1582:SensorLib\bme688/bme68x.c ****         heatdurval = (uint8_t)(dur + (factor * 64));
 979              		.loc 1 1582 0
 980 002e C0B2     		uxtb	r0, r0
 981              	.LVL142:
 982 0030 9B01     		lsls	r3, r3, #6
 983              	.LVL143:
 984 0032 DBB2     		uxtb	r3, r3
 985 0034 1844     		add	r0, r0, r3
 986 0036 C0B2     		uxtb	r0, r0
 987              	.LVL144:
 988 0038 7047     		bx	lr
 989              	.LVL145:
 990              	.L57:
1570:SensorLib\bme688/bme68x.c ****     }
 991              		.loc 1 1570 0
 992 003a FF20     		movs	r0, #255
ARM GAS  C:\Users\CHRONI~1\AppData\Local\Temp\ccho61l0.s 			page 47


 993              	.LVL146:
1583:SensorLib\bme688/bme68x.c ****     }
1584:SensorLib\bme688/bme68x.c **** 
1585:SensorLib\bme688/bme68x.c ****     return heatdurval;
1586:SensorLib\bme688/bme68x.c **** }
 994              		.loc 1 1586 0
 995 003c 7047     		bx	lr
 996              	.L59:
 997 003e 00BF     		.align	2
 998              	.L58:
 999 0040 9FB8C812 		.word	315144351
 1000              		.cfi_endproc
 1001              	.LFE28:
 1002              		.size	calc_heatr_dur_shared, .-calc_heatr_dur_shared
 1003              		.section	.text.swap_fields,"ax",%progbits
 1004              		.align	2
 1005              		.thumb
 1006              		.thumb_func
 1007              		.type	swap_fields, %function
 1008              	swap_fields:
 1009              	.LFB30:
1587:SensorLib\bme688/bme68x.c **** 
1588:SensorLib\bme688/bme68x.c **** /* This internal API is used sort the sensor data */
1589:SensorLib\bme688/bme68x.c **** static void sort_sensor_data(uint8_t low_index, uint8_t high_index, struct bme68x_data *field[])
1590:SensorLib\bme688/bme68x.c **** {
1591:SensorLib\bme688/bme68x.c ****     int16_t meas_index1;
1592:SensorLib\bme688/bme68x.c ****     int16_t meas_index2;
1593:SensorLib\bme688/bme68x.c **** 
1594:SensorLib\bme688/bme68x.c ****     meas_index1 = (int16_t)field[low_index]->meas_index;
1595:SensorLib\bme688/bme68x.c ****     meas_index2 = (int16_t)field[high_index]->meas_index;
1596:SensorLib\bme688/bme68x.c ****     if ((field[low_index]->status & BME68X_NEW_DATA_MSK) && (field[high_index]->status & BME68X_NEW
1597:SensorLib\bme688/bme68x.c ****     {
1598:SensorLib\bme688/bme68x.c ****         int16_t diff = meas_index2 - meas_index1;
1599:SensorLib\bme688/bme68x.c ****         if (((diff > -3) && (diff < 0)) || (diff > 2))
1600:SensorLib\bme688/bme68x.c ****         {
1601:SensorLib\bme688/bme68x.c ****             swap_fields(low_index, high_index, field);
1602:SensorLib\bme688/bme68x.c ****         }
1603:SensorLib\bme688/bme68x.c ****     }
1604:SensorLib\bme688/bme68x.c ****     else if (field[high_index]->status & BME68X_NEW_DATA_MSK)
1605:SensorLib\bme688/bme68x.c ****     {
1606:SensorLib\bme688/bme68x.c ****         swap_fields(low_index, high_index, field);
1607:SensorLib\bme688/bme68x.c ****     }
1608:SensorLib\bme688/bme68x.c **** 
1609:SensorLib\bme688/bme68x.c ****     /* Sorting field data
1610:SensorLib\bme688/bme68x.c ****      *
1611:SensorLib\bme688/bme68x.c ****      * The 3 fields are filled in a fixed order with data in an incrementing
1612:SensorLib\bme688/bme68x.c ****      * 8-bit sub-measurement index which looks like
1613:SensorLib\bme688/bme68x.c ****      * Field index | Sub-meas index
1614:SensorLib\bme688/bme68x.c ****      *      0      |        0
1615:SensorLib\bme688/bme68x.c ****      *      1      |        1
1616:SensorLib\bme688/bme68x.c ****      *      2      |        2
1617:SensorLib\bme688/bme68x.c ****      *      0      |        3
1618:SensorLib\bme688/bme68x.c ****      *      1      |        4
1619:SensorLib\bme688/bme68x.c ****      *      2      |        5
1620:SensorLib\bme688/bme68x.c ****      *      ...
1621:SensorLib\bme688/bme68x.c ****      *      0      |        252
1622:SensorLib\bme688/bme68x.c ****      *      1      |        253
ARM GAS  C:\Users\CHRONI~1\AppData\Local\Temp\ccho61l0.s 			page 48


1623:SensorLib\bme688/bme68x.c ****      *      2      |        254
1624:SensorLib\bme688/bme68x.c ****      *      0      |        255
1625:SensorLib\bme688/bme68x.c ****      *      1      |        0
1626:SensorLib\bme688/bme68x.c ****      *      2      |        1
1627:SensorLib\bme688/bme68x.c ****      *
1628:SensorLib\bme688/bme68x.c ****      * The fields are sorted in a way so as to always deal with only a snapshot
1629:SensorLib\bme688/bme68x.c ****      * of comparing 2 fields at a time. The order being
1630:SensorLib\bme688/bme68x.c ****      * field0 & field1
1631:SensorLib\bme688/bme68x.c ****      * field0 & field2
1632:SensorLib\bme688/bme68x.c ****      * field1 & field2
1633:SensorLib\bme688/bme68x.c ****      * Here the oldest data should be in field0 while the newest is in field2.
1634:SensorLib\bme688/bme68x.c ****      * In the following documentation, field0's position would referred to as
1635:SensorLib\bme688/bme68x.c ****      * the lowest and field2 as the highest.
1636:SensorLib\bme688/bme68x.c ****      *
1637:SensorLib\bme688/bme68x.c ****      * In order to sort we have to consider the following cases,
1638:SensorLib\bme688/bme68x.c ****      *
1639:SensorLib\bme688/bme68x.c ****      * Case A: No fields have new data
1640:SensorLib\bme688/bme68x.c ****      *     Then do not sort, as this data has already been read.
1641:SensorLib\bme688/bme68x.c ****      *
1642:SensorLib\bme688/bme68x.c ****      * Case B: Higher field has new data
1643:SensorLib\bme688/bme68x.c ****      *     Then the new field get's the lowest position.
1644:SensorLib\bme688/bme68x.c ****      *
1645:SensorLib\bme688/bme68x.c ****      * Case C: Both fields have new data
1646:SensorLib\bme688/bme68x.c ****      *     We have to put the oldest sample in the lowest position. Since the
1647:SensorLib\bme688/bme68x.c ****      *     sub-meas index contains in essence the age of the sample, we calculate
1648:SensorLib\bme688/bme68x.c ****      *     the difference between the higher field and the lower field.
1649:SensorLib\bme688/bme68x.c ****      *     Here we have 3 sub-cases,
1650:SensorLib\bme688/bme68x.c ****      *     Case 1: Regular read without overwrite
1651:SensorLib\bme688/bme68x.c ****      *         Field index | Sub-meas index
1652:SensorLib\bme688/bme68x.c ****      *              0      |        3
1653:SensorLib\bme688/bme68x.c ****      *              1      |        4
1654:SensorLib\bme688/bme68x.c ****      *
1655:SensorLib\bme688/bme68x.c ****      *         Field index | Sub-meas index
1656:SensorLib\bme688/bme68x.c ****      *              0      |        3
1657:SensorLib\bme688/bme68x.c ****      *              2      |        5
1658:SensorLib\bme688/bme68x.c ****      *
1659:SensorLib\bme688/bme68x.c ****      *         The difference is always <= 2. There is no need to swap as the
1660:SensorLib\bme688/bme68x.c ****      *         oldest sample is already in the lowest position.
1661:SensorLib\bme688/bme68x.c ****      *
1662:SensorLib\bme688/bme68x.c ****      *     Case 2: Regular read with an overflow and without an overwrite
1663:SensorLib\bme688/bme68x.c ****      *         Field index | Sub-meas index
1664:SensorLib\bme688/bme68x.c ****      *              0      |        255
1665:SensorLib\bme688/bme68x.c ****      *              1      |        0
1666:SensorLib\bme688/bme68x.c ****      *
1667:SensorLib\bme688/bme68x.c ****      *         Field index | Sub-meas index
1668:SensorLib\bme688/bme68x.c ****      *              0      |        254
1669:SensorLib\bme688/bme68x.c ****      *              2      |        0
1670:SensorLib\bme688/bme68x.c ****      *
1671:SensorLib\bme688/bme68x.c ****      *         The difference is always <= -3. There is no need to swap as the
1672:SensorLib\bme688/bme68x.c ****      *         oldest sample is already in the lowest position.
1673:SensorLib\bme688/bme68x.c ****      *
1674:SensorLib\bme688/bme68x.c ****      *     Case 3: Regular read with overwrite
1675:SensorLib\bme688/bme68x.c ****      *         Field index | Sub-meas index
1676:SensorLib\bme688/bme68x.c ****      *              0      |        6
1677:SensorLib\bme688/bme68x.c ****      *              1      |        4
1678:SensorLib\bme688/bme68x.c ****      *
1679:SensorLib\bme688/bme68x.c ****      *         Field index | Sub-meas index
ARM GAS  C:\Users\CHRONI~1\AppData\Local\Temp\ccho61l0.s 			page 49


1680:SensorLib\bme688/bme68x.c ****      *              0      |        6
1681:SensorLib\bme688/bme68x.c ****      *              2      |        5
1682:SensorLib\bme688/bme68x.c ****      *
1683:SensorLib\bme688/bme68x.c ****      *         The difference is always > -3. There is a need to swap as the
1684:SensorLib\bme688/bme68x.c ****      *         oldest sample is not in the lowest position.
1685:SensorLib\bme688/bme68x.c ****      *
1686:SensorLib\bme688/bme68x.c ****      *     Case 4: Regular read with overwrite and overflow
1687:SensorLib\bme688/bme68x.c ****      *         Field index | Sub-meas index
1688:SensorLib\bme688/bme68x.c ****      *              0      |        0
1689:SensorLib\bme688/bme68x.c ****      *              1      |        254
1690:SensorLib\bme688/bme68x.c ****      *
1691:SensorLib\bme688/bme68x.c ****      *         Field index | Sub-meas index
1692:SensorLib\bme688/bme68x.c ****      *              0      |        0
1693:SensorLib\bme688/bme68x.c ****      *              2      |        255
1694:SensorLib\bme688/bme68x.c ****      *
1695:SensorLib\bme688/bme68x.c ****      *         The difference is always > 2. There is a need to swap as the
1696:SensorLib\bme688/bme68x.c ****      *         oldest sample is not in the lowest position.
1697:SensorLib\bme688/bme68x.c ****      *
1698:SensorLib\bme688/bme68x.c ****      * To summarize, we have to swap when
1699:SensorLib\bme688/bme68x.c ****      *     - The higher field has new data and the lower field does not.
1700:SensorLib\bme688/bme68x.c ****      *     - If both fields have new data, then the difference of sub-meas index
1701:SensorLib\bme688/bme68x.c ****      *         between the higher field and the lower field creates the
1702:SensorLib\bme688/bme68x.c ****      *         following condition for swapping.
1703:SensorLib\bme688/bme68x.c ****      *         - (diff > -3) && (diff < 0), combination of cases 1, 2, and 3.
1704:SensorLib\bme688/bme68x.c ****      *         - diff > 2, case 4.
1705:SensorLib\bme688/bme68x.c ****      *
1706:SensorLib\bme688/bme68x.c ****      *     Here the limits of -3 and 2 derive from the fact that there are 3 fields.
1707:SensorLib\bme688/bme68x.c ****      *     These values decrease or increase respectively if the number of fields increases.
1708:SensorLib\bme688/bme68x.c ****      */
1709:SensorLib\bme688/bme68x.c **** }
1710:SensorLib\bme688/bme68x.c **** 
1711:SensorLib\bme688/bme68x.c **** /* This internal API is used sort the sensor data */
1712:SensorLib\bme688/bme68x.c **** static void swap_fields(uint8_t index1, uint8_t index2, struct bme68x_data *field[])
1713:SensorLib\bme688/bme68x.c **** {
 1010              		.loc 1 1713 0
 1011              		.cfi_startproc
 1012              		@ args = 0, pretend = 0, frame = 0
 1013              		@ frame_needed = 0, uses_anonymous_args = 0
 1014              		@ link register save eliminated.
 1015              	.LVL147:
 1016 0000 10B4     		push	{r4}
 1017              		.cfi_def_cfa_offset 4
 1018              		.cfi_offset 4, -4
1714:SensorLib\bme688/bme68x.c ****     struct bme68x_data *temp;
1715:SensorLib\bme688/bme68x.c **** 
1716:SensorLib\bme688/bme68x.c ****     temp = field[index1];
 1019              		.loc 1 1716 0
 1020 0002 52F82030 		ldr	r3, [r2, r0, lsl #2]
 1021              	.LVL148:
1717:SensorLib\bme688/bme68x.c ****     field[index1] = field[index2];
 1022              		.loc 1 1717 0
 1023 0006 52F82140 		ldr	r4, [r2, r1, lsl #2]
 1024 000a 42F82040 		str	r4, [r2, r0, lsl #2]
1718:SensorLib\bme688/bme68x.c ****     field[index2] = temp;
 1025              		.loc 1 1718 0
 1026 000e 42F82130 		str	r3, [r2, r1, lsl #2]
1719:SensorLib\bme688/bme68x.c **** }
ARM GAS  C:\Users\CHRONI~1\AppData\Local\Temp\ccho61l0.s 			page 50


 1027              		.loc 1 1719 0
 1028 0012 10BC     		pop	{r4}
 1029              		.cfi_restore 4
 1030              		.cfi_def_cfa_offset 0
 1031 0014 7047     		bx	lr
 1032              		.cfi_endproc
 1033              	.LFE30:
 1034              		.size	swap_fields, .-swap_fields
 1035 0016 00BF     		.section	.text.sort_sensor_data,"ax",%progbits
 1036              		.align	2
 1037              		.thumb
 1038              		.thumb_func
 1039              		.type	sort_sensor_data, %function
 1040              	sort_sensor_data:
 1041              	.LFB29:
1590:SensorLib\bme688/bme68x.c ****     int16_t meas_index1;
 1042              		.loc 1 1590 0
 1043              		.cfi_startproc
 1044              		@ args = 0, pretend = 0, frame = 0
 1045              		@ frame_needed = 0, uses_anonymous_args = 0
 1046              	.LVL149:
 1047 0000 70B5     		push	{r4, r5, r6, lr}
 1048              		.cfi_def_cfa_offset 16
 1049              		.cfi_offset 4, -16
 1050              		.cfi_offset 5, -12
 1051              		.cfi_offset 6, -8
 1052              		.cfi_offset 14, -4
1594:SensorLib\bme688/bme68x.c ****     meas_index2 = (int16_t)field[high_index]->meas_index;
 1053              		.loc 1 1594 0
 1054 0002 52F82040 		ldr	r4, [r2, r0, lsl #2]
 1055 0006 A678     		ldrb	r6, [r4, #2]	@ zero_extendqisi2
 1056              	.LVL150:
1595:SensorLib\bme688/bme68x.c ****     if ((field[low_index]->status & BME68X_NEW_DATA_MSK) && (field[high_index]->status & BME68X_NEW
 1057              		.loc 1 1595 0
 1058 0008 52F82130 		ldr	r3, [r2, r1, lsl #2]
 1059 000c 9D78     		ldrb	r5, [r3, #2]	@ zero_extendqisi2
 1060              	.LVL151:
1596:SensorLib\bme688/bme68x.c ****     {
 1061              		.loc 1 1596 0
 1062 000e 94F90040 		ldrsb	r4, [r4]
 1063 0012 002C     		cmp	r4, #0
 1064 0014 0FDA     		bge	.L63
1596:SensorLib\bme688/bme68x.c ****     {
 1065              		.loc 1 1596 0 is_stmt 0 discriminator 1
 1066 0016 93F90040 		ldrsb	r4, [r3]
 1067 001a 002C     		cmp	r4, #0
 1068 001c 0BDA     		bge	.L63
 1069              	.LBB2:
1598:SensorLib\bme688/bme68x.c ****         if (((diff > -3) && (diff < 0)) || (diff > 2))
 1070              		.loc 1 1598 0 is_stmt 1
 1071 001e AD1B     		subs	r5, r5, r6
 1072              	.LVL152:
 1073 0020 ADB2     		uxth	r5, r5
 1074 0022 2BB2     		sxth	r3, r5
 1075              	.LVL153:
1599:SensorLib\bme688/bme68x.c ****         {
 1076              		.loc 1 1599 0
ARM GAS  C:\Users\CHRONI~1\AppData\Local\Temp\ccho61l0.s 			page 51


 1077 0024 0235     		adds	r5, r5, #2
 1078 0026 ADB2     		uxth	r5, r5
 1079 0028 012D     		cmp	r5, #1
 1080 002a 01D9     		bls	.L64
1599:SensorLib\bme688/bme68x.c ****         {
 1081              		.loc 1 1599 0 is_stmt 0 discriminator 1
 1082 002c 022B     		cmp	r3, #2
 1083 002e 08DD     		ble	.L62
 1084              	.L64:
1601:SensorLib\bme688/bme68x.c ****         }
 1085              		.loc 1 1601 0 is_stmt 1
 1086 0030 FFF7FEFF 		bl	swap_fields
 1087              	.LVL154:
 1088 0034 70BD     		pop	{r4, r5, r6, pc}
 1089              	.LVL155:
 1090              	.L63:
 1091              	.LBE2:
1604:SensorLib\bme688/bme68x.c ****     {
 1092              		.loc 1 1604 0
 1093 0036 93F90030 		ldrsb	r3, [r3]
 1094 003a 002B     		cmp	r3, #0
 1095 003c 01DA     		bge	.L62
1606:SensorLib\bme688/bme68x.c ****     }
 1096              		.loc 1 1606 0
 1097 003e FFF7FEFF 		bl	swap_fields
 1098              	.LVL156:
 1099              	.L62:
 1100 0042 70BD     		pop	{r4, r5, r6, pc}
 1101              		.cfi_endproc
 1102              	.LFE29:
 1103              		.size	sort_sensor_data, .-sort_sensor_data
 1104              		.section	.text.analyze_sensor_data,"ax",%progbits
 1105              		.align	2
 1106              		.thumb
 1107              		.thumb_func
 1108              		.type	analyze_sensor_data, %function
 1109              	analyze_sensor_data:
 1110              	.LFB31:
1720:SensorLib\bme688/bme68x.c **** 
1721:SensorLib\bme688/bme68x.c **** /* This Function is to analyze the sensor data */
1722:SensorLib\bme688/bme68x.c **** static int8_t analyze_sensor_data(const struct bme68x_data *data, uint8_t n_meas)
1723:SensorLib\bme688/bme68x.c **** {
 1111              		.loc 1 1723 0
 1112              		.cfi_startproc
 1113              		@ args = 0, pretend = 0, frame = 0
 1114              		@ frame_needed = 0, uses_anonymous_args = 0
 1115              		@ link register save eliminated.
 1116              	.LVL157:
 1117 0000 30B4     		push	{r4, r5}
 1118              		.cfi_def_cfa_offset 8
 1119              		.cfi_offset 4, -8
 1120              		.cfi_offset 5, -4
 1121              	.LVL158:
1724:SensorLib\bme688/bme68x.c ****     int8_t rslt = BME68X_OK;
1725:SensorLib\bme688/bme68x.c ****     uint8_t self_test_failed = 0, i;
1726:SensorLib\bme688/bme68x.c ****     uint32_t cent_res = 0;
1727:SensorLib\bme688/bme68x.c **** 
ARM GAS  C:\Users\CHRONI~1\AppData\Local\Temp\ccho61l0.s 			page 52


1728:SensorLib\bme688/bme68x.c ****     if ((data[0].temperature < BME68X_MIN_TEMPERATURE) || (data[0].temperature > BME68X_MAX_TEMPERA
 1122              		.loc 1 1728 0
 1123 0002 C288     		ldrh	r2, [r0, #6]
 1124 0004 41F27073 		movw	r3, #6000
 1125 0008 9A42     		cmp	r2, r3
 1126 000a 01D8     		bhi	.L77
1725:SensorLib\bme688/bme68x.c ****     uint32_t cent_res = 0;
 1127              		.loc 1 1725 0
 1128 000c 0025     		movs	r5, #0
 1129 000e 00E0     		b	.L68
 1130              	.L77:
1729:SensorLib\bme688/bme68x.c ****     {
1730:SensorLib\bme688/bme68x.c ****         self_test_failed++;
 1131              		.loc 1 1730 0
 1132 0010 0125     		movs	r5, #1
 1133              	.L68:
 1134              	.LVL159:
1731:SensorLib\bme688/bme68x.c ****     }
1732:SensorLib\bme688/bme68x.c **** 
1733:SensorLib\bme688/bme68x.c ****     if ((data[0].pressure < BME68X_MIN_PRESSURE) || (data[0].pressure > BME68X_MAX_PRESSURE))
 1135              		.loc 1 1733 0
 1136 0012 8368     		ldr	r3, [r0, #8]
 1137 0014 A3F5AF33 		sub	r3, r3, #89600
 1138 0018 A3F5C873 		sub	r3, r3, #400
 1139 001c 44F62062 		movw	r2, #20000
 1140 0020 9342     		cmp	r3, r2
 1141 0022 01D9     		bls	.L69
1734:SensorLib\bme688/bme68x.c ****     {
1735:SensorLib\bme688/bme68x.c ****         self_test_failed++;
 1142              		.loc 1 1735 0
 1143 0024 0135     		adds	r5, r5, #1
 1144              	.LVL160:
 1145 0026 EDB2     		uxtb	r5, r5
 1146              	.LVL161:
 1147              	.L69:
1736:SensorLib\bme688/bme68x.c ****     }
1737:SensorLib\bme688/bme68x.c **** 
1738:SensorLib\bme688/bme68x.c ****     if ((data[0].humidity < BME68X_MIN_HUMIDITY) || (data[0].humidity > BME68X_MAX_HUMIDITY))
 1148              		.loc 1 1738 0
 1149 0028 C368     		ldr	r3, [r0, #12]
 1150 002a A3F59C43 		sub	r3, r3, #19968
 1151 002e 203B     		subs	r3, r3, #32
 1152 0030 4EF66022 		movw	r2, #60000
 1153 0034 9342     		cmp	r3, r2
 1154 0036 01D9     		bls	.L70
1739:SensorLib\bme688/bme68x.c ****     {
1740:SensorLib\bme688/bme68x.c ****         self_test_failed++;
 1155              		.loc 1 1740 0
 1156 0038 0135     		adds	r5, r5, #1
 1157              	.LVL162:
 1158 003a EDB2     		uxtb	r5, r5
 1159              	.LVL163:
 1160              	.L70:
1730:SensorLib\bme688/bme68x.c ****     }
 1161              		.loc 1 1730 0 discriminator 1
 1162 003c 0023     		movs	r3, #0
 1163 003e 0AE0     		b	.L71
ARM GAS  C:\Users\CHRONI~1\AppData\Local\Temp\ccho61l0.s 			page 53


 1164              	.LVL164:
 1165              	.L73:
1741:SensorLib\bme688/bme68x.c ****     }
1742:SensorLib\bme688/bme68x.c **** 
1743:SensorLib\bme688/bme68x.c ****     for (i = 0; i < n_meas; i++) /* Every gas measurement should be valid */
1744:SensorLib\bme688/bme68x.c ****     {
1745:SensorLib\bme688/bme68x.c ****         if (!(data[i].status & BME68X_GASM_VALID_MSK))
 1166              		.loc 1 1745 0
 1167 0040 03EB8304 		add	r4, r3, r3, lsl #2
 1168 0044 A200     		lsls	r2, r4, #2
 1169 0046 825C     		ldrb	r2, [r0, r2]	@ zero_extendqisi2
 1170 0048 12F0200F 		tst	r2, #32
 1171 004c 01D1     		bne	.L72
1746:SensorLib\bme688/bme68x.c ****         {
1747:SensorLib\bme688/bme68x.c ****             self_test_failed++;
 1172              		.loc 1 1747 0
 1173 004e 0135     		adds	r5, r5, #1
 1174              	.LVL165:
 1175 0050 EDB2     		uxtb	r5, r5
 1176              	.LVL166:
 1177              	.L72:
1743:SensorLib\bme688/bme68x.c ****     {
 1178              		.loc 1 1743 0 discriminator 2
 1179 0052 0133     		adds	r3, r3, #1
 1180              	.LVL167:
 1181 0054 DBB2     		uxtb	r3, r3
 1182              	.LVL168:
 1183              	.L71:
1743:SensorLib\bme688/bme68x.c ****     {
 1184              		.loc 1 1743 0 is_stmt 0 discriminator 1
 1185 0056 8B42     		cmp	r3, r1
 1186 0058 F2D3     		bcc	.L73
1748:SensorLib\bme688/bme68x.c ****         }
1749:SensorLib\bme688/bme68x.c ****     }
1750:SensorLib\bme688/bme68x.c **** 
1751:SensorLib\bme688/bme68x.c ****     if (n_meas >= 6)
 1187              		.loc 1 1751 0 is_stmt 1
 1188 005a 0529     		cmp	r1, #5
 1189 005c 09D9     		bls	.L78
1752:SensorLib\bme688/bme68x.c ****     {
1753:SensorLib\bme688/bme68x.c ****         cent_res = (uint32_t)((5 * (data[3].gas_resistance + data[5].gas_resistance)) / (2 * data[4
 1190              		.loc 1 1753 0
 1191 005e C26C     		ldr	r2, [r0, #76]
 1192 0060 436F     		ldr	r3, [r0, #116]
 1193              	.LVL169:
 1194 0062 1344     		add	r3, r3, r2
 1195 0064 03EB8303 		add	r3, r3, r3, lsl #2
 1196 0068 026E     		ldr	r2, [r0, #96]
 1197 006a 5200     		lsls	r2, r2, #1
 1198 006c B3FBF2F3 		udiv	r3, r3, r2
 1199              	.LVL170:
 1200 0070 00E0     		b	.L74
 1201              	.LVL171:
 1202              	.L78:
1726:SensorLib\bme688/bme68x.c **** 
 1203              		.loc 1 1726 0
 1204 0072 0023     		movs	r3, #0
ARM GAS  C:\Users\CHRONI~1\AppData\Local\Temp\ccho61l0.s 			page 54


 1205              	.LVL172:
 1206              	.L74:
1754:SensorLib\bme688/bme68x.c ****     }
1755:SensorLib\bme688/bme68x.c **** 
1756:SensorLib\bme688/bme68x.c ****     if (cent_res < 6)
 1207              		.loc 1 1756 0
 1208 0074 052B     		cmp	r3, #5
 1209 0076 01D8     		bhi	.L75
1757:SensorLib\bme688/bme68x.c ****     {
1758:SensorLib\bme688/bme68x.c ****         self_test_failed++;
 1210              		.loc 1 1758 0
 1211 0078 0135     		adds	r5, r5, #1
 1212              	.LVL173:
 1213 007a EDB2     		uxtb	r5, r5
 1214              	.LVL174:
 1215              	.L75:
1759:SensorLib\bme688/bme68x.c ****     }
1760:SensorLib\bme688/bme68x.c **** 
1761:SensorLib\bme688/bme68x.c ****     if (self_test_failed)
 1216              		.loc 1 1761 0
 1217 007c 0DB9     		cbnz	r5, .L79
1724:SensorLib\bme688/bme68x.c ****     uint8_t self_test_failed = 0, i;
 1218              		.loc 1 1724 0
 1219 007e 0020     		movs	r0, #0
 1220              	.LVL175:
 1221 0080 01E0     		b	.L76
 1222              	.LVL176:
 1223              	.L79:
1762:SensorLib\bme688/bme68x.c ****     {
1763:SensorLib\bme688/bme68x.c ****         rslt = BME68X_E_SELF_TEST;
 1224              		.loc 1 1763 0
 1225 0082 6FF00400 		mvn	r0, #4
 1226              	.LVL177:
 1227              	.L76:
1764:SensorLib\bme688/bme68x.c ****     }
1765:SensorLib\bme688/bme68x.c **** 
1766:SensorLib\bme688/bme68x.c ****     return rslt;
1767:SensorLib\bme688/bme68x.c **** }
 1228              		.loc 1 1767 0
 1229 0086 30BC     		pop	{r4, r5}
 1230              		.cfi_restore 5
 1231              		.cfi_restore 4
 1232              		.cfi_def_cfa_offset 0
 1233              	.LVL178:
 1234 0088 7047     		bx	lr
 1235              		.cfi_endproc
 1236              	.LFE31:
 1237              		.size	analyze_sensor_data, .-analyze_sensor_data
 1238 008a 00BF     		.section	.text.bme68x_set_regs,"ax",%progbits
 1239              		.align	2
 1240              		.global	bme68x_set_regs
 1241              		.thumb
 1242              		.thumb_func
 1243              		.type	bme68x_set_regs, %function
 1244              	bme68x_set_regs:
 1245              	.LFB2:
 179:SensorLib\bme688/bme68x.c ****     int8_t rslt;
ARM GAS  C:\Users\CHRONI~1\AppData\Local\Temp\ccho61l0.s 			page 55


 1246              		.loc 1 179 0
 1247              		.cfi_startproc
 1248              		@ args = 0, pretend = 0, frame = 24
 1249              		@ frame_needed = 0, uses_anonymous_args = 0
 1250              	.LVL179:
 1251 0000 2DE9F047 		push	{r4, r5, r6, r7, r8, r9, r10, lr}
 1252              		.cfi_def_cfa_offset 32
 1253              		.cfi_offset 4, -32
 1254              		.cfi_offset 5, -28
 1255              		.cfi_offset 6, -24
 1256              		.cfi_offset 7, -20
 1257              		.cfi_offset 8, -16
 1258              		.cfi_offset 9, -12
 1259              		.cfi_offset 10, -8
 1260              		.cfi_offset 14, -4
 1261 0004 86B0     		sub	sp, sp, #24
 1262              		.cfi_def_cfa_offset 56
 1263 0006 0646     		mov	r6, r0
 1264 0008 8846     		mov	r8, r1
 1265 000a 1746     		mov	r7, r2
 1266 000c 1D46     		mov	r5, r3
 183:SensorLib\bme688/bme68x.c ****     uint16_t index;
 1267              		.loc 1 183 0
 1268 000e 0023     		movs	r3, #0
 1269              	.LVL180:
 1270 0010 0193     		str	r3, [sp, #4]
 1271 0012 0293     		str	r3, [sp, #8]
 1272 0014 0393     		str	r3, [sp, #12]
 1273 0016 0493     		str	r3, [sp, #16]
 1274 0018 0593     		str	r3, [sp, #20]
 187:SensorLib\bme688/bme68x.c ****     if ((rslt == BME68X_OK) && reg_addr && reg_data)
 1275              		.loc 1 187 0
 1276 001a 2846     		mov	r0, r5
 1277              	.LVL181:
 1278 001c FFF7FEFF 		bl	null_ptr_check
 1279              	.LVL182:
 188:SensorLib\bme688/bme68x.c ****     {
 1280              		.loc 1 188 0
 1281 0020 0028     		cmp	r0, #0
 1282 0022 43D1     		bne	.L87
 1283 0024 8146     		mov	r9, r0
 188:SensorLib\bme688/bme68x.c ****     {
 1284              		.loc 1 188 0 is_stmt 0 discriminator 1
 1285 0026 002E     		cmp	r6, #0
 1286 0028 43D0     		beq	.L88
 188:SensorLib\bme688/bme68x.c ****     {
 1287              		.loc 1 188 0 discriminator 2
 1288 002a B8F1000F 		cmp	r8, #0
 1289 002e 43D0     		beq	.L89
 190:SensorLib\bme688/bme68x.c ****         {
 1290              		.loc 1 190 0 is_stmt 1
 1291 0030 7B1E     		subs	r3, r7, #1
 1292 0032 092B     		cmp	r3, #9
 1293 0034 26D9     		bls	.L90
 221:SensorLib\bme688/bme68x.c ****         }
 1294              		.loc 1 221 0
 1295 0036 6FF00309 		mvn	r9, #3
ARM GAS  C:\Users\CHRONI~1\AppData\Local\Temp\ccho61l0.s 			page 56


 1296 003a 42E0     		b	.L82
 1297              	.LVL183:
 1298              	.L86:
 195:SensorLib\bme688/bme68x.c ****                 {
 1299              		.loc 1 195 0
 1300 003c 2B7B     		ldrb	r3, [r5, #12]	@ zero_extendqisi2
 1301 003e 7BB9     		cbnz	r3, .L84
 198:SensorLib\bme688/bme68x.c ****                     tmp_buff[(2 * index)] = reg_addr[index] & BME68X_SPI_WR_MSK;
 1302              		.loc 1 198 0
 1303 0040 2946     		mov	r1, r5
 1304 0042 16F80A00 		ldrb	r0, [r6, r10]	@ zero_extendqisi2
 1305 0046 FFF7FEFF 		bl	set_mem_page
 1306              	.LVL184:
 1307 004a 8146     		mov	r9, r0
 1308              	.LVL185:
 199:SensorLib\bme688/bme68x.c ****                 }
 1309              		.loc 1 199 0
 1310 004c 16F80A20 		ldrb	r2, [r6, r10]	@ zero_extendqisi2
 1311 0050 02F07F02 		and	r2, r2, #127
 1312 0054 06AB     		add	r3, sp, #24
 1313 0056 03EB4403 		add	r3, r3, r4, lsl #1
 1314 005a 03F8142C 		strb	r2, [r3, #-20]
 1315 005e 06E0     		b	.L85
 1316              	.L84:
 203:SensorLib\bme688/bme68x.c ****                 }
 1317              		.loc 1 203 0
 1318 0060 16F80A20 		ldrb	r2, [r6, r10]	@ zero_extendqisi2
 1319 0064 06AB     		add	r3, sp, #24
 1320 0066 03EB4403 		add	r3, r3, r4, lsl #1
 1321 006a 03F8142C 		strb	r2, [r3, #-20]
 1322              	.L85:
 206:SensorLib\bme688/bme68x.c ****             }
 1323              		.loc 1 206 0 discriminator 2
 1324 006e 6300     		lsls	r3, r4, #1
 1325 0070 0133     		adds	r3, r3, #1
 1326 0072 18F80A20 		ldrb	r2, [r8, r10]	@ zero_extendqisi2
 1327 0076 06A9     		add	r1, sp, #24
 1328 0078 0B44     		add	r3, r3, r1
 1329 007a 03F8142C 		strb	r2, [r3, #-20]
 193:SensorLib\bme688/bme68x.c ****             {
 1330              		.loc 1 193 0 discriminator 2
 1331 007e 0134     		adds	r4, r4, #1
 1332              	.LVL186:
 1333 0080 A4B2     		uxth	r4, r4
 1334              	.LVL187:
 1335 0082 00E0     		b	.L83
 1336              	.LVL188:
 1337              	.L90:
 1338 0084 0024     		movs	r4, #0
 1339              	.LVL189:
 1340              	.L83:
 193:SensorLib\bme688/bme68x.c ****             {
 1341              		.loc 1 193 0 is_stmt 0 discriminator 1
 1342 0086 A246     		mov	r10, r4
 1343 0088 A742     		cmp	r7, r4
 1344 008a D7D8     		bhi	.L86
 210:SensorLib\bme688/bme68x.c ****             {
ARM GAS  C:\Users\CHRONI~1\AppData\Local\Temp\ccho61l0.s 			page 57


 1345              		.loc 1 210 0 is_stmt 1
 1346 008c B9F1000F 		cmp	r9, #0
 1347 0090 17D1     		bne	.L82
 212:SensorLib\bme688/bme68x.c ****                 if (dev->intf_rslt != 0)
 1348              		.loc 1 212 0
 1349 0092 6C6C     		ldr	r4, [r5, #68]
 1350              	.LVL190:
 1351 0094 7A00     		lsls	r2, r7, #1
 1352 0096 6B68     		ldr	r3, [r5, #4]
 1353 0098 013A     		subs	r2, r2, #1
 1354 009a 0DF10501 		add	r1, sp, #5
 1355 009e 9DF80400 		ldrb	r0, [sp, #4]	@ zero_extendqisi2
 1356 00a2 A047     		blx	r4
 1357              	.LVL191:
 1358 00a4 85F84C00 		strb	r0, [r5, #76]
 213:SensorLib\bme688/bme68x.c ****                 {
 1359              		.loc 1 213 0
 1360 00a8 58B1     		cbz	r0, .L82
 1361 00aa 08E0     		b	.L91
 1362              	.LVL192:
 1363              	.L87:
 226:SensorLib\bme688/bme68x.c ****     }
 1364              		.loc 1 226 0
 1365 00ac 4FF0FF39 		mov	r9, #-1
 1366 00b0 07E0     		b	.L82
 1367              	.L88:
 1368 00b2 4FF0FF39 		mov	r9, #-1
 1369 00b6 04E0     		b	.L82
 1370              	.L89:
 1371 00b8 4FF0FF39 		mov	r9, #-1
 1372 00bc 01E0     		b	.L82
 1373              	.LVL193:
 1374              	.L91:
 215:SensorLib\bme688/bme68x.c ****                 }
 1375              		.loc 1 215 0
 1376 00be 6FF00109 		mvn	r9, #1
 1377              	.LVL194:
 1378              	.L82:
 230:SensorLib\bme688/bme68x.c **** 
 1379              		.loc 1 230 0
 1380 00c2 4846     		mov	r0, r9
 1381 00c4 06B0     		add	sp, sp, #24
 1382              		.cfi_def_cfa_offset 32
 1383              		@ sp needed
 1384 00c6 BDE8F087 		pop	{r4, r5, r6, r7, r8, r9, r10, pc}
 1385              		.cfi_endproc
 1386              	.LFE2:
 1387              		.size	bme68x_set_regs, .-bme68x_set_regs
 1388 00ca 00BF     		.section	.text.set_conf,"ax",%progbits
 1389              		.align	2
 1390              		.thumb
 1391              		.thumb_func
 1392              		.type	set_conf, %function
 1393              	set_conf:
 1394              	.LFB27:
1476:SensorLib\bme688/bme68x.c ****     int8_t rslt = BME68X_OK;
 1395              		.loc 1 1476 0
ARM GAS  C:\Users\CHRONI~1\AppData\Local\Temp\ccho61l0.s 			page 58


 1396              		.cfi_startproc
 1397              		@ args = 0, pretend = 0, frame = 48
 1398              		@ frame_needed = 0, uses_anonymous_args = 0
 1399              	.LVL195:
 1400 0000 2DE9F047 		push	{r4, r5, r6, r7, r8, r9, r10, lr}
 1401              		.cfi_def_cfa_offset 32
 1402              		.cfi_offset 4, -32
 1403              		.cfi_offset 5, -28
 1404              		.cfi_offset 6, -24
 1405              		.cfi_offset 7, -20
 1406              		.cfi_offset 8, -16
 1407              		.cfi_offset 9, -12
 1408              		.cfi_offset 10, -8
 1409              		.cfi_offset 14, -4
 1410 0004 8CB0     		sub	sp, sp, #48
 1411              		.cfi_def_cfa_offset 80
 1412 0006 0546     		mov	r5, r0
 1413 0008 9046     		mov	r8, r2
 1414 000a 1F46     		mov	r7, r3
 1415              	.LVL196:
1481:SensorLib\bme688/bme68x.c ****     uint8_t rh_reg_addr[10] = { 0, 0, 0, 0, 0, 0, 0, 0, 0, 0 };
 1416              		.loc 1 1481 0
 1417 000c 6E23     		movs	r3, #110
 1418              	.LVL197:
 1419 000e 8DF82E30 		strb	r3, [sp, #46]
1482:SensorLib\bme688/bme68x.c ****     uint8_t rh_reg_data[10] = { 0, 0, 0, 0, 0, 0, 0, 0, 0, 0 };
 1420              		.loc 1 1482 0
 1421 0012 0023     		movs	r3, #0
 1422 0014 0993     		str	r3, [sp, #36]
 1423 0016 0A93     		str	r3, [sp, #40]
 1424 0018 ADF82C30 		strh	r3, [sp, #44]	@ movhi
1483:SensorLib\bme688/bme68x.c ****     uint8_t gw_reg_addr[10] = { 0, 0, 0, 0, 0, 0, 0, 0, 0, 0 };
 1425              		.loc 1 1483 0
 1426 001c 0693     		str	r3, [sp, #24]
 1427 001e 0793     		str	r3, [sp, #28]
 1428 0020 ADF82030 		strh	r3, [sp, #32]	@ movhi
1484:SensorLib\bme688/bme68x.c ****     uint8_t gw_reg_data[10] = { 0, 0, 0, 0, 0, 0, 0, 0, 0, 0 };
 1429              		.loc 1 1484 0
 1430 0024 0393     		str	r3, [sp, #12]
 1431 0026 0493     		str	r3, [sp, #16]
 1432 0028 ADF81430 		strh	r3, [sp, #20]	@ movhi
1485:SensorLib\bme688/bme68x.c **** 
 1433              		.loc 1 1485 0
 1434 002c 0093     		str	r3, [sp]
 1435 002e 0193     		str	r3, [sp, #4]
 1436 0030 ADF80830 		strh	r3, [sp, #8]	@ movhi
1487:SensorLib\bme688/bme68x.c ****     {
 1437              		.loc 1 1487 0
 1438 0034 0229     		cmp	r1, #2
 1439 0036 48D0     		beq	.L95
 1440 0038 0329     		cmp	r1, #3
 1441 003a 19D0     		beq	.L96
 1442 003c 0129     		cmp	r1, #1
 1443 003e 40F08580 		bne	.L111
1490:SensorLib\bme688/bme68x.c ****             rh_reg_data[0] = calc_res_heat(conf->heatr_temp, dev);
 1444              		.loc 1 1490 0
 1445 0042 5A23     		movs	r3, #90
ARM GAS  C:\Users\CHRONI~1\AppData\Local\Temp\ccho61l0.s 			page 59


 1446 0044 8DF82430 		strb	r3, [sp, #36]
1491:SensorLib\bme688/bme68x.c ****             gw_reg_addr[0] = BME68X_REG_GAS_WAIT0;
 1447              		.loc 1 1491 0
 1448 0048 3946     		mov	r1, r7
 1449              	.LVL198:
 1450 004a 4088     		ldrh	r0, [r0, #2]
 1451              	.LVL199:
 1452 004c FFF7FEFF 		bl	calc_res_heat
 1453              	.LVL200:
 1454 0050 8DF81800 		strb	r0, [sp, #24]
1492:SensorLib\bme688/bme68x.c ****             gw_reg_data[0] = calc_gas_wait(conf->heatr_dur);
 1455              		.loc 1 1492 0
 1456 0054 6423     		movs	r3, #100
 1457 0056 8DF80C30 		strb	r3, [sp, #12]
1493:SensorLib\bme688/bme68x.c ****             (*nb_conv) = 0;
 1458              		.loc 1 1493 0
 1459 005a A888     		ldrh	r0, [r5, #4]
 1460 005c FFF7FEFF 		bl	calc_gas_wait
 1461              	.LVL201:
 1462 0060 8DF80000 		strb	r0, [sp]
1494:SensorLib\bme688/bme68x.c ****             write_len = 1;
 1463              		.loc 1 1494 0
 1464 0064 4FF00009 		mov	r9, #0
 1465 0068 88F80090 		strb	r9, [r8]
 1466              	.LVL202:
1495:SensorLib\bme688/bme68x.c ****             break;
 1467              		.loc 1 1495 0
 1468 006c 0124     		movs	r4, #1
1496:SensorLib\bme688/bme68x.c ****         case BME68X_SEQUENTIAL_MODE:
 1469              		.loc 1 1496 0
 1470 006e 80E0     		b	.L94
 1471              	.LVL203:
 1472              	.L96:
1498:SensorLib\bme688/bme68x.c ****             {
 1473              		.loc 1 1498 0
 1474 0070 D0F80C90 		ldr	r9, [r0, #12]
 1475 0074 B9F1000F 		cmp	r9, #0
 1476 0078 6CD0     		beq	.L106
1498:SensorLib\bme688/bme68x.c ****             {
 1477              		.loc 1 1498 0 is_stmt 0 discriminator 1
 1478 007a 8368     		ldr	r3, [r0, #8]
 1479 007c 002B     		cmp	r3, #0
 1480 007e 6DD0     		beq	.L107
 1481 0080 0024     		movs	r4, #0
 1482 0082 19E0     		b	.L98
 1483              	.LVL204:
 1484              	.L99:
1506:SensorLib\bme688/bme68x.c ****                 rh_reg_data[i] = calc_res_heat(conf->heatr_temp_prof[i], dev);
 1485              		.loc 1 1506 0 is_stmt 1 discriminator 3
 1486 0084 0CAB     		add	r3, sp, #48
 1487 0086 1E19     		adds	r6, r3, r4
 1488 0088 04F15A03 		add	r3, r4, #90
 1489 008c 06F80C3C 		strb	r3, [r6, #-12]
1507:SensorLib\bme688/bme68x.c ****                 gw_reg_addr[i] = BME68X_REG_GAS_WAIT0 + i;
 1490              		.loc 1 1507 0 discriminator 3
 1491 0090 AB68     		ldr	r3, [r5, #8]
 1492 0092 3946     		mov	r1, r7
ARM GAS  C:\Users\CHRONI~1\AppData\Local\Temp\ccho61l0.s 			page 60


 1493 0094 33F81400 		ldrh	r0, [r3, r4, lsl #1]
 1494 0098 FFF7FEFF 		bl	calc_res_heat
 1495              	.LVL205:
 1496 009c 06F8180C 		strb	r0, [r6, #-24]
1508:SensorLib\bme688/bme68x.c ****                 gw_reg_data[i] = calc_gas_wait(conf->heatr_dur_prof[i]);
 1497              		.loc 1 1508 0 discriminator 3
 1498 00a0 04F16403 		add	r3, r4, #100
 1499 00a4 06F8243C 		strb	r3, [r6, #-36]
1509:SensorLib\bme688/bme68x.c ****             }
 1500              		.loc 1 1509 0 discriminator 3
 1501 00a8 39F81400 		ldrh	r0, [r9, r4, lsl #1]
 1502 00ac FFF7FEFF 		bl	calc_gas_wait
 1503              	.LVL206:
 1504 00b0 06F8300C 		strb	r0, [r6, #-48]
1504:SensorLib\bme688/bme68x.c ****             {
 1505              		.loc 1 1504 0 discriminator 3
 1506 00b4 0134     		adds	r4, r4, #1
 1507              	.LVL207:
 1508 00b6 E4B2     		uxtb	r4, r4
 1509              	.LVL208:
 1510              	.L98:
1504:SensorLib\bme688/bme68x.c ****             {
 1511              		.loc 1 1504 0 is_stmt 0 discriminator 1
 1512 00b8 2B7C     		ldrb	r3, [r5, #16]	@ zero_extendqisi2
 1513 00ba 9C42     		cmp	r4, r3
 1514 00bc E2D3     		bcc	.L99
1512:SensorLib\bme688/bme68x.c ****             write_len = conf->profile_len;
 1515              		.loc 1 1512 0 is_stmt 1
 1516 00be 88F80030 		strb	r3, [r8]
1513:SensorLib\bme688/bme68x.c ****             break;
 1517              		.loc 1 1513 0
 1518 00c2 2C7C     		ldrb	r4, [r5, #16]	@ zero_extendqisi2
 1519              	.LVL209:
1477:SensorLib\bme688/bme68x.c ****     uint8_t i;
 1520              		.loc 1 1477 0
 1521 00c4 4FF00009 		mov	r9, #0
1514:SensorLib\bme688/bme68x.c ****         case BME68X_PARALLEL_MODE:
 1522              		.loc 1 1514 0
 1523 00c8 53E0     		b	.L94
 1524              	.LVL210:
 1525              	.L95:
1516:SensorLib\bme688/bme68x.c ****             {
 1526              		.loc 1 1516 0
 1527 00ca D0F80CA0 		ldr	r10, [r0, #12]
 1528 00ce BAF1000F 		cmp	r10, #0
 1529 00d2 47D0     		beq	.L108
1516:SensorLib\bme688/bme68x.c ****             {
 1530              		.loc 1 1516 0 is_stmt 0 discriminator 1
 1531 00d4 8368     		ldr	r3, [r0, #8]
 1532 00d6 002B     		cmp	r3, #0
 1533 00d8 48D0     		beq	.L109
1522:SensorLib\bme688/bme68x.c ****             {
 1534              		.loc 1 1522 0 is_stmt 1
 1535 00da 438A     		ldrh	r3, [r0, #18]
 1536 00dc 13B1     		cbz	r3, .L110
1477:SensorLib\bme688/bme68x.c ****     uint8_t i;
 1537              		.loc 1 1477 0
ARM GAS  C:\Users\CHRONI~1\AppData\Local\Temp\ccho61l0.s 			page 61


 1538 00de 4FF00009 		mov	r9, #0
 1539 00e2 01E0     		b	.L100
 1540              	.L110:
1524:SensorLib\bme688/bme68x.c ****             }
 1541              		.loc 1 1524 0
 1542 00e4 4FF00309 		mov	r9, #3
 1543              	.L100:
 1544              	.LVL211:
1527:SensorLib\bme688/bme68x.c ****             {
 1545              		.loc 1 1527 0
 1546 00e8 0024     		movs	r4, #0
 1547 00ea 17E0     		b	.L101
 1548              	.LVL212:
 1549              	.L102:
1529:SensorLib\bme688/bme68x.c ****                 rh_reg_data[i] = calc_res_heat(conf->heatr_temp_prof[i], dev);
 1550              		.loc 1 1529 0 discriminator 3
 1551 00ec 0CAB     		add	r3, sp, #48
 1552 00ee 1E19     		adds	r6, r3, r4
 1553 00f0 04F15A03 		add	r3, r4, #90
 1554 00f4 06F80C3C 		strb	r3, [r6, #-12]
1530:SensorLib\bme688/bme68x.c ****                 gw_reg_addr[i] = BME68X_REG_GAS_WAIT0 + i;
 1555              		.loc 1 1530 0 discriminator 3
 1556 00f8 AB68     		ldr	r3, [r5, #8]
 1557 00fa 3946     		mov	r1, r7
 1558 00fc 33F81400 		ldrh	r0, [r3, r4, lsl #1]
 1559 0100 FFF7FEFF 		bl	calc_res_heat
 1560              	.LVL213:
 1561 0104 06F8180C 		strb	r0, [r6, #-24]
1531:SensorLib\bme688/bme68x.c ****                 gw_reg_data[i] = (uint8_t) conf->heatr_dur_prof[i];
 1562              		.loc 1 1531 0 discriminator 3
 1563 0108 04F16403 		add	r3, r4, #100
 1564 010c 06F8243C 		strb	r3, [r6, #-36]
1532:SensorLib\bme688/bme68x.c ****             }
 1565              		.loc 1 1532 0 discriminator 3
 1566 0110 1AF81430 		ldrb	r3, [r10, r4, lsl #1]	@ zero_extendqisi2
 1567 0114 06F8303C 		strb	r3, [r6, #-48]
1527:SensorLib\bme688/bme68x.c ****             {
 1568              		.loc 1 1527 0 discriminator 3
 1569 0118 0134     		adds	r4, r4, #1
 1570              	.LVL214:
 1571 011a E4B2     		uxtb	r4, r4
 1572              	.LVL215:
 1573              	.L101:
1527:SensorLib\bme688/bme68x.c ****             {
 1574              		.loc 1 1527 0 is_stmt 0 discriminator 1
 1575 011c 2B7C     		ldrb	r3, [r5, #16]	@ zero_extendqisi2
 1576 011e 9C42     		cmp	r4, r3
 1577 0120 E4D3     		bcc	.L102
1535:SensorLib\bme688/bme68x.c ****             write_len = conf->profile_len;
 1578              		.loc 1 1535 0 is_stmt 1
 1579 0122 88F80030 		strb	r3, [r8]
1536:SensorLib\bme688/bme68x.c ****             shared_dur = calc_heatr_dur_shared(conf->shared_heatr_dur);
 1580              		.loc 1 1536 0
 1581 0126 2C7C     		ldrb	r4, [r5, #16]	@ zero_extendqisi2
 1582              	.LVL216:
1537:SensorLib\bme688/bme68x.c ****             if (rslt == BME68X_OK)
 1583              		.loc 1 1537 0
ARM GAS  C:\Users\CHRONI~1\AppData\Local\Temp\ccho61l0.s 			page 62


 1584 0128 688A     		ldrh	r0, [r5, #18]
 1585 012a FFF7FEFF 		bl	calc_heatr_dur_shared
 1586              	.LVL217:
 1587 012e 8DF82F00 		strb	r0, [sp, #47]
1538:SensorLib\bme688/bme68x.c ****             {
 1588              		.loc 1 1538 0
 1589 0132 B9F1000F 		cmp	r9, #0
 1590 0136 1CD1     		bne	.L94
1540:SensorLib\bme688/bme68x.c ****             }
 1591              		.loc 1 1540 0
 1592 0138 3B46     		mov	r3, r7
 1593 013a 0122     		movs	r2, #1
 1594 013c 0DF12F01 		add	r1, sp, #47
 1595 0140 0DF12E00 		add	r0, sp, #46
 1596 0144 FFF7FEFF 		bl	bme68x_set_regs
 1597              	.LVL218:
 1598 0148 8146     		mov	r9, r0
 1599              	.LVL219:
 1600 014a 12E0     		b	.L94
 1601              	.LVL220:
 1602              	.L111:
1480:SensorLib\bme688/bme68x.c ****     uint8_t heater_dur_shared_addr = BME68X_REG_SHD_HEATR_DUR;
 1603              		.loc 1 1480 0
 1604 014c 0024     		movs	r4, #0
1545:SensorLib\bme688/bme68x.c ****     }
 1605              		.loc 1 1545 0
 1606 014e 4FF00109 		mov	r9, #1
 1607 0152 0EE0     		b	.L94
 1608              	.L106:
1480:SensorLib\bme688/bme68x.c ****     uint8_t heater_dur_shared_addr = BME68X_REG_SHD_HEATR_DUR;
 1609              		.loc 1 1480 0
 1610 0154 0024     		movs	r4, #0
1500:SensorLib\bme688/bme68x.c ****                 break;
 1611              		.loc 1 1500 0
 1612 0156 4FF0FF39 		mov	r9, #-1
 1613 015a 0AE0     		b	.L94
 1614              	.L107:
1480:SensorLib\bme688/bme68x.c ****     uint8_t heater_dur_shared_addr = BME68X_REG_SHD_HEATR_DUR;
 1615              		.loc 1 1480 0
 1616 015c 0024     		movs	r4, #0
1500:SensorLib\bme688/bme68x.c ****                 break;
 1617              		.loc 1 1500 0
 1618 015e 4FF0FF39 		mov	r9, #-1
 1619 0162 06E0     		b	.L94
 1620              	.L108:
1480:SensorLib\bme688/bme68x.c ****     uint8_t heater_dur_shared_addr = BME68X_REG_SHD_HEATR_DUR;
 1621              		.loc 1 1480 0
 1622 0164 0024     		movs	r4, #0
1518:SensorLib\bme688/bme68x.c ****                 break;
 1623              		.loc 1 1518 0
 1624 0166 4FF0FF39 		mov	r9, #-1
 1625 016a 02E0     		b	.L94
 1626              	.L109:
1480:SensorLib\bme688/bme68x.c ****     uint8_t heater_dur_shared_addr = BME68X_REG_SHD_HEATR_DUR;
 1627              		.loc 1 1480 0
 1628 016c 0024     		movs	r4, #0
1518:SensorLib\bme688/bme68x.c ****                 break;
ARM GAS  C:\Users\CHRONI~1\AppData\Local\Temp\ccho61l0.s 			page 63


 1629              		.loc 1 1518 0
 1630 016e 4FF0FF39 		mov	r9, #-1
 1631              	.LVL221:
 1632              	.L94:
1548:SensorLib\bme688/bme68x.c ****     {
 1633              		.loc 1 1548 0
 1634 0172 B9F1000F 		cmp	r9, #0
 1635 0176 06D1     		bne	.L103
1550:SensorLib\bme688/bme68x.c ****     }
 1636              		.loc 1 1550 0
 1637 0178 3B46     		mov	r3, r7
 1638 017a 2246     		mov	r2, r4
 1639 017c 06A9     		add	r1, sp, #24
 1640 017e 09A8     		add	r0, sp, #36
 1641 0180 FFF7FEFF 		bl	bme68x_set_regs
 1642              	.LVL222:
 1643 0184 8146     		mov	r9, r0
 1644              	.LVL223:
 1645              	.L103:
1553:SensorLib\bme688/bme68x.c ****     {
 1646              		.loc 1 1553 0
 1647 0186 B9F1000F 		cmp	r9, #0
 1648 018a 06D1     		bne	.L104
1555:SensorLib\bme688/bme68x.c ****     }
 1649              		.loc 1 1555 0
 1650 018c 3B46     		mov	r3, r7
 1651 018e 2246     		mov	r2, r4
 1652 0190 6946     		mov	r1, sp
 1653 0192 03A8     		add	r0, sp, #12
 1654 0194 FFF7FEFF 		bl	bme68x_set_regs
 1655              	.LVL224:
 1656 0198 8146     		mov	r9, r0
 1657              	.LVL225:
 1658              	.L104:
1559:SensorLib\bme688/bme68x.c **** 
 1659              		.loc 1 1559 0
 1660 019a 4846     		mov	r0, r9
 1661 019c 0CB0     		add	sp, sp, #48
 1662              		.cfi_def_cfa_offset 32
 1663              		@ sp needed
 1664 019e BDE8F087 		pop	{r4, r5, r6, r7, r8, r9, r10, pc}
 1665              		.cfi_endproc
 1666              	.LFE27:
 1667              		.size	set_conf, .-set_conf
 1668 01a2 00BF     		.section	.text.bme68x_get_regs,"ax",%progbits
 1669              		.align	2
 1670              		.global	bme68x_get_regs
 1671              		.thumb
 1672              		.thumb_func
 1673              		.type	bme68x_get_regs, %function
 1674              	bme68x_get_regs:
 1675              	.LFB3:
 236:SensorLib\bme688/bme68x.c ****     int8_t rslt;
 1676              		.loc 1 236 0
 1677              		.cfi_startproc
 1678              		@ args = 0, pretend = 0, frame = 0
 1679              		@ frame_needed = 0, uses_anonymous_args = 0
ARM GAS  C:\Users\CHRONI~1\AppData\Local\Temp\ccho61l0.s 			page 64


 1680              	.LVL226:
 1681 0000 2DE9F843 		push	{r3, r4, r5, r6, r7, r8, r9, lr}
 1682              		.cfi_def_cfa_offset 32
 1683              		.cfi_offset 3, -32
 1684              		.cfi_offset 4, -28
 1685              		.cfi_offset 5, -24
 1686              		.cfi_offset 6, -20
 1687              		.cfi_offset 7, -16
 1688              		.cfi_offset 8, -12
 1689              		.cfi_offset 9, -8
 1690              		.cfi_offset 14, -4
 1691 0004 0646     		mov	r6, r0
 1692 0006 0D46     		mov	r5, r1
 1693 0008 9146     		mov	r9, r2
 1694 000a 1C46     		mov	r4, r3
 240:SensorLib\bme688/bme68x.c ****     if ((rslt == BME68X_OK) && reg_data)
 1695              		.loc 1 240 0
 1696 000c 1846     		mov	r0, r3
 1697              	.LVL227:
 1698 000e FFF7FEFF 		bl	null_ptr_check
 1699              	.LVL228:
 241:SensorLib\bme688/bme68x.c ****     {
 1700              		.loc 1 241 0
 1701 0012 A8B9     		cbnz	r0, .L116
 1702 0014 8046     		mov	r8, r0
 241:SensorLib\bme688/bme68x.c ****     {
 1703              		.loc 1 241 0 is_stmt 0 discriminator 1
 1704 0016 B5B1     		cbz	r5, .L117
 243:SensorLib\bme688/bme68x.c ****         {
 1705              		.loc 1 243 0 is_stmt 1
 1706 0018 237B     		ldrb	r3, [r4, #12]	@ zero_extendqisi2
 1707 001a 3BB9     		cbnz	r3, .L115
 246:SensorLib\bme688/bme68x.c ****             if (rslt == BME68X_OK)
 1708              		.loc 1 246 0
 1709 001c 2146     		mov	r1, r4
 1710 001e 3046     		mov	r0, r6
 1711              	.LVL229:
 1712 0020 FFF7FEFF 		bl	set_mem_page
 1713              	.LVL230:
 247:SensorLib\bme688/bme68x.c ****             {
 1714              		.loc 1 247 0
 1715 0024 8046     		mov	r8, r0
 1716 0026 08B9     		cbnz	r0, .L115
 249:SensorLib\bme688/bme68x.c ****             }
 1717              		.loc 1 249 0
 1718 0028 46F08006 		orr	r6, r6, #128
 1719              	.LVL231:
 1720              	.L115:
 253:SensorLib\bme688/bme68x.c ****         if (dev->intf_rslt != 0)
 1721              		.loc 1 253 0
 1722 002c 276C     		ldr	r7, [r4, #64]
 1723 002e 6368     		ldr	r3, [r4, #4]
 1724 0030 4A46     		mov	r2, r9
 1725 0032 2946     		mov	r1, r5
 1726 0034 3046     		mov	r0, r6
 1727 0036 B847     		blx	r7
 1728              	.LVL232:
ARM GAS  C:\Users\CHRONI~1\AppData\Local\Temp\ccho61l0.s 			page 65


 1729 0038 84F84C00 		strb	r0, [r4, #76]
 254:SensorLib\bme688/bme68x.c ****         {
 1730              		.loc 1 254 0
 1731 003c 40B1     		cbz	r0, .L114
 1732 003e 05E0     		b	.L118
 1733              	.LVL233:
 1734              	.L116:
 261:SensorLib\bme688/bme68x.c ****     }
 1735              		.loc 1 261 0
 1736 0040 4FF0FF38 		mov	r8, #-1
 1737 0044 04E0     		b	.L114
 1738              	.L117:
 1739 0046 4FF0FF38 		mov	r8, #-1
 1740 004a 01E0     		b	.L114
 1741              	.LVL234:
 1742              	.L118:
 256:SensorLib\bme688/bme68x.c ****         }
 1743              		.loc 1 256 0
 1744 004c 6FF00108 		mvn	r8, #1
 1745              	.LVL235:
 1746              	.L114:
 265:SensorLib\bme688/bme68x.c **** 
 1747              		.loc 1 265 0
 1748 0050 4046     		mov	r0, r8
 1749 0052 BDE8F883 		pop	{r3, r4, r5, r6, r7, r8, r9, pc}
 1750              		.cfi_endproc
 1751              	.LFE3:
 1752              		.size	bme68x_get_regs, .-bme68x_get_regs
 1753 0056 00BF     		.section	.text.read_variant_id,"ax",%progbits
 1754              		.align	2
 1755              		.thumb
 1756              		.thumb_func
 1757              		.type	read_variant_id, %function
 1758              	read_variant_id:
 1759              	.LFB33:
1768:SensorLib\bme688/bme68x.c **** 
1769:SensorLib\bme688/bme68x.c **** /* This internal API is used to read the calibration coefficients */
1770:SensorLib\bme688/bme68x.c **** static int8_t get_calib_data(struct bme68x_dev *dev)
1771:SensorLib\bme688/bme68x.c **** {
1772:SensorLib\bme688/bme68x.c ****     int8_t rslt;
1773:SensorLib\bme688/bme68x.c ****     uint8_t coeff_array[BME68X_LEN_COEFF_ALL];
1774:SensorLib\bme688/bme68x.c **** 
1775:SensorLib\bme688/bme68x.c ****     rslt = bme68x_get_regs(BME68X_REG_COEFF1, coeff_array, BME68X_LEN_COEFF1, dev);
1776:SensorLib\bme688/bme68x.c ****     if (rslt == BME68X_OK)
1777:SensorLib\bme688/bme68x.c ****     {
1778:SensorLib\bme688/bme68x.c ****         rslt = bme68x_get_regs(BME68X_REG_COEFF2, &coeff_array[BME68X_LEN_COEFF1], BME68X_LEN_COEFF
1779:SensorLib\bme688/bme68x.c ****     }
1780:SensorLib\bme688/bme68x.c **** 
1781:SensorLib\bme688/bme68x.c ****     if (rslt == BME68X_OK)
1782:SensorLib\bme688/bme68x.c ****     {
1783:SensorLib\bme688/bme68x.c ****         rslt = bme68x_get_regs(BME68X_REG_COEFF3,
1784:SensorLib\bme688/bme68x.c ****                                &coeff_array[BME68X_LEN_COEFF1 + BME68X_LEN_COEFF2],
1785:SensorLib\bme688/bme68x.c ****                                BME68X_LEN_COEFF3,
1786:SensorLib\bme688/bme68x.c ****                                dev);
1787:SensorLib\bme688/bme68x.c ****     }
1788:SensorLib\bme688/bme68x.c **** 
1789:SensorLib\bme688/bme68x.c ****     if (rslt == BME68X_OK)
ARM GAS  C:\Users\CHRONI~1\AppData\Local\Temp\ccho61l0.s 			page 66


1790:SensorLib\bme688/bme68x.c ****     {
1791:SensorLib\bme688/bme68x.c ****         /* Temperature related coefficients */
1792:SensorLib\bme688/bme68x.c ****         dev->calib.par_t1 =
1793:SensorLib\bme688/bme68x.c ****             (uint16_t)(BME68X_CONCAT_BYTES(coeff_array[BME68X_IDX_T1_MSB], coeff_array[BME68X_IDX_T
1794:SensorLib\bme688/bme68x.c ****         dev->calib.par_t2 =
1795:SensorLib\bme688/bme68x.c ****             (int16_t)(BME68X_CONCAT_BYTES(coeff_array[BME68X_IDX_T2_MSB], coeff_array[BME68X_IDX_T2
1796:SensorLib\bme688/bme68x.c ****         dev->calib.par_t3 = (int8_t)(coeff_array[BME68X_IDX_T3]);
1797:SensorLib\bme688/bme68x.c **** 
1798:SensorLib\bme688/bme68x.c ****         /* Pressure related coefficients */
1799:SensorLib\bme688/bme68x.c ****         dev->calib.par_p1 =
1800:SensorLib\bme688/bme68x.c ****             (uint16_t)(BME68X_CONCAT_BYTES(coeff_array[BME68X_IDX_P1_MSB], coeff_array[BME68X_IDX_P
1801:SensorLib\bme688/bme68x.c ****         dev->calib.par_p2 =
1802:SensorLib\bme688/bme68x.c ****             (int16_t)(BME68X_CONCAT_BYTES(coeff_array[BME68X_IDX_P2_MSB], coeff_array[BME68X_IDX_P2
1803:SensorLib\bme688/bme68x.c ****         dev->calib.par_p3 = (int8_t)coeff_array[BME68X_IDX_P3];
1804:SensorLib\bme688/bme68x.c ****         dev->calib.par_p4 =
1805:SensorLib\bme688/bme68x.c ****             (int16_t)(BME68X_CONCAT_BYTES(coeff_array[BME68X_IDX_P4_MSB], coeff_array[BME68X_IDX_P4
1806:SensorLib\bme688/bme68x.c ****         dev->calib.par_p5 =
1807:SensorLib\bme688/bme68x.c ****             (int16_t)(BME68X_CONCAT_BYTES(coeff_array[BME68X_IDX_P5_MSB], coeff_array[BME68X_IDX_P5
1808:SensorLib\bme688/bme68x.c ****         dev->calib.par_p6 = (int8_t)(coeff_array[BME68X_IDX_P6]);
1809:SensorLib\bme688/bme68x.c ****         dev->calib.par_p7 = (int8_t)(coeff_array[BME68X_IDX_P7]);
1810:SensorLib\bme688/bme68x.c ****         dev->calib.par_p8 =
1811:SensorLib\bme688/bme68x.c ****             (int16_t)(BME68X_CONCAT_BYTES(coeff_array[BME68X_IDX_P8_MSB], coeff_array[BME68X_IDX_P8
1812:SensorLib\bme688/bme68x.c ****         dev->calib.par_p9 =
1813:SensorLib\bme688/bme68x.c ****             (int16_t)(BME68X_CONCAT_BYTES(coeff_array[BME68X_IDX_P9_MSB], coeff_array[BME68X_IDX_P9
1814:SensorLib\bme688/bme68x.c ****         dev->calib.par_p10 = (uint8_t)(coeff_array[BME68X_IDX_P10]);
1815:SensorLib\bme688/bme68x.c **** 
1816:SensorLib\bme688/bme68x.c ****         /* Humidity related coefficients */
1817:SensorLib\bme688/bme68x.c ****         dev->calib.par_h1 =
1818:SensorLib\bme688/bme68x.c ****             (uint16_t)(((uint16_t)coeff_array[BME68X_IDX_H1_MSB] << 4) |
1819:SensorLib\bme688/bme68x.c ****                        (coeff_array[BME68X_IDX_H1_LSB] & BME68X_BIT_H1_DATA_MSK));
1820:SensorLib\bme688/bme68x.c ****         dev->calib.par_h2 =
1821:SensorLib\bme688/bme68x.c ****             (uint16_t)(((uint16_t)coeff_array[BME68X_IDX_H2_MSB] << 4) | ((coeff_array[BME68X_IDX_H
1822:SensorLib\bme688/bme68x.c ****         dev->calib.par_h3 = (int8_t)coeff_array[BME68X_IDX_H3];
1823:SensorLib\bme688/bme68x.c ****         dev->calib.par_h4 = (int8_t)coeff_array[BME68X_IDX_H4];
1824:SensorLib\bme688/bme68x.c ****         dev->calib.par_h5 = (int8_t)coeff_array[BME68X_IDX_H5];
1825:SensorLib\bme688/bme68x.c ****         dev->calib.par_h6 = (uint8_t)coeff_array[BME68X_IDX_H6];
1826:SensorLib\bme688/bme68x.c ****         dev->calib.par_h7 = (int8_t)coeff_array[BME68X_IDX_H7];
1827:SensorLib\bme688/bme68x.c **** 
1828:SensorLib\bme688/bme68x.c ****         /* Gas heater related coefficients */
1829:SensorLib\bme688/bme68x.c ****         dev->calib.par_gh1 = (int8_t)coeff_array[BME68X_IDX_GH1];
1830:SensorLib\bme688/bme68x.c ****         dev->calib.par_gh2 =
1831:SensorLib\bme688/bme68x.c ****             (int16_t)(BME68X_CONCAT_BYTES(coeff_array[BME68X_IDX_GH2_MSB], coeff_array[BME68X_IDX_G
1832:SensorLib\bme688/bme68x.c ****         dev->calib.par_gh3 = (int8_t)coeff_array[BME68X_IDX_GH3];
1833:SensorLib\bme688/bme68x.c **** 
1834:SensorLib\bme688/bme68x.c ****         /* Other coefficients */
1835:SensorLib\bme688/bme68x.c ****         dev->calib.res_heat_range = ((coeff_array[BME68X_IDX_RES_HEAT_RANGE] & BME68X_RHRANGE_MSK) 
1836:SensorLib\bme688/bme68x.c ****         dev->calib.res_heat_val = (int8_t)coeff_array[BME68X_IDX_RES_HEAT_VAL];
1837:SensorLib\bme688/bme68x.c ****         dev->calib.range_sw_err = ((int8_t)(coeff_array[BME68X_IDX_RANGE_SW_ERR] & BME68X_RSERROR_M
1838:SensorLib\bme688/bme68x.c ****     }
1839:SensorLib\bme688/bme68x.c **** 
1840:SensorLib\bme688/bme68x.c ****     return rslt;
1841:SensorLib\bme688/bme68x.c **** }
1842:SensorLib\bme688/bme68x.c **** 
1843:SensorLib\bme688/bme68x.c **** /* This internal API is used to read variant ID information from the register */
1844:SensorLib\bme688/bme68x.c **** static int8_t read_variant_id(struct bme68x_dev *dev)
1845:SensorLib\bme688/bme68x.c **** {
 1760              		.loc 1 1845 0
ARM GAS  C:\Users\CHRONI~1\AppData\Local\Temp\ccho61l0.s 			page 67


 1761              		.cfi_startproc
 1762              		@ args = 0, pretend = 0, frame = 8
 1763              		@ frame_needed = 0, uses_anonymous_args = 0
 1764              	.LVL236:
 1765 0000 10B5     		push	{r4, lr}
 1766              		.cfi_def_cfa_offset 8
 1767              		.cfi_offset 4, -8
 1768              		.cfi_offset 14, -4
 1769 0002 82B0     		sub	sp, sp, #8
 1770              		.cfi_def_cfa_offset 16
 1771 0004 0446     		mov	r4, r0
1846:SensorLib\bme688/bme68x.c ****     int8_t rslt;
1847:SensorLib\bme688/bme68x.c ****     uint8_t reg_data = 0;
 1772              		.loc 1 1847 0
 1773 0006 02A9     		add	r1, sp, #8
 1774 0008 0023     		movs	r3, #0
 1775 000a 01F8013D 		strb	r3, [r1, #-1]!
1848:SensorLib\bme688/bme68x.c **** 
1849:SensorLib\bme688/bme68x.c ****     /* Read variant ID information register */
1850:SensorLib\bme688/bme68x.c ****     rslt = bme68x_get_regs(BME68X_REG_VARIANT_ID, &reg_data, 1, dev);
 1776              		.loc 1 1850 0
 1777 000e 0346     		mov	r3, r0
 1778 0010 0122     		movs	r2, #1
 1779 0012 F020     		movs	r0, #240
 1780              	.LVL237:
 1781 0014 FFF7FEFF 		bl	bme68x_get_regs
 1782              	.LVL238:
1851:SensorLib\bme688/bme68x.c **** 
1852:SensorLib\bme688/bme68x.c ****     if (rslt == BME68X_OK)
 1783              		.loc 1 1852 0
 1784 0018 0346     		mov	r3, r0
 1785 001a 10B9     		cbnz	r0, .L121
1853:SensorLib\bme688/bme68x.c ****     {
1854:SensorLib\bme688/bme68x.c ****         dev->variant_id = reg_data;
 1786              		.loc 1 1854 0
 1787 001c 9DF80720 		ldrb	r2, [sp, #7]	@ zero_extendqisi2
 1788 0020 A260     		str	r2, [r4, #8]
 1789              	.L121:
1855:SensorLib\bme688/bme68x.c ****     }
1856:SensorLib\bme688/bme68x.c **** 
1857:SensorLib\bme688/bme68x.c ****     return rslt;
1858:SensorLib\bme688/bme68x.c **** }
 1790              		.loc 1 1858 0
 1791 0022 1846     		mov	r0, r3
 1792              	.LVL239:
 1793 0024 02B0     		add	sp, sp, #8
 1794              		.cfi_def_cfa_offset 8
 1795              		@ sp needed
 1796 0026 10BD     		pop	{r4, pc}
 1797              		.cfi_endproc
 1798              	.LFE33:
 1799              		.size	read_variant_id, .-read_variant_id
 1800              		.section	.text.get_calib_data,"ax",%progbits
 1801              		.align	2
 1802              		.thumb
 1803              		.thumb_func
 1804              		.type	get_calib_data, %function
ARM GAS  C:\Users\CHRONI~1\AppData\Local\Temp\ccho61l0.s 			page 68


 1805              	get_calib_data:
 1806              	.LFB32:
1771:SensorLib\bme688/bme68x.c ****     int8_t rslt;
 1807              		.loc 1 1771 0
 1808              		.cfi_startproc
 1809              		@ args = 0, pretend = 0, frame = 48
 1810              		@ frame_needed = 0, uses_anonymous_args = 0
 1811              	.LVL240:
 1812 0000 10B5     		push	{r4, lr}
 1813              		.cfi_def_cfa_offset 8
 1814              		.cfi_offset 4, -8
 1815              		.cfi_offset 14, -4
 1816 0002 8CB0     		sub	sp, sp, #48
 1817              		.cfi_def_cfa_offset 56
 1818 0004 0446     		mov	r4, r0
1775:SensorLib\bme688/bme68x.c ****     if (rslt == BME68X_OK)
 1819              		.loc 1 1775 0
 1820 0006 0346     		mov	r3, r0
 1821 0008 1722     		movs	r2, #23
 1822 000a 01A9     		add	r1, sp, #4
 1823 000c 8A20     		movs	r0, #138
 1824              	.LVL241:
 1825 000e FFF7FEFF 		bl	bme68x_get_regs
 1826              	.LVL242:
1776:SensorLib\bme688/bme68x.c ****     {
 1827              		.loc 1 1776 0
 1828 0012 0346     		mov	r3, r0
 1829 0014 38B9     		cbnz	r0, .L124
1778:SensorLib\bme688/bme68x.c ****     }
 1830              		.loc 1 1778 0
 1831 0016 2346     		mov	r3, r4
 1832 0018 0E22     		movs	r2, #14
 1833 001a 0DF11B01 		add	r1, sp, #27
 1834 001e E120     		movs	r0, #225
 1835              	.LVL243:
 1836 0020 FFF7FEFF 		bl	bme68x_get_regs
 1837              	.LVL244:
 1838 0024 0346     		mov	r3, r0
 1839              	.LVL245:
 1840              	.L124:
1781:SensorLib\bme688/bme68x.c ****     {
 1841              		.loc 1 1781 0
 1842 0026 3BB9     		cbnz	r3, .L125
1783:SensorLib\bme688/bme68x.c ****                                &coeff_array[BME68X_LEN_COEFF1 + BME68X_LEN_COEFF2],
 1843              		.loc 1 1783 0
 1844 0028 2346     		mov	r3, r4
 1845              	.LVL246:
 1846 002a 0522     		movs	r2, #5
 1847 002c 0DF12901 		add	r1, sp, #41
 1848 0030 0020     		movs	r0, #0
 1849 0032 FFF7FEFF 		bl	bme68x_get_regs
 1850              	.LVL247:
 1851 0036 0346     		mov	r3, r0
 1852              	.LVL248:
 1853              	.L125:
1789:SensorLib\bme688/bme68x.c ****     {
 1854              		.loc 1 1789 0
ARM GAS  C:\Users\CHRONI~1\AppData\Local\Temp\ccho61l0.s 			page 69


 1855 0038 002B     		cmp	r3, #0
 1856 003a 40F08780 		bne	.L126
1793:SensorLib\bme688/bme68x.c ****         dev->calib.par_t2 =
 1857              		.loc 1 1793 0
 1858 003e 9DF82410 		ldrb	r1, [sp, #36]	@ zero_extendqisi2
 1859 0042 9DF82320 		ldrb	r2, [sp, #35]	@ zero_extendqisi2
 1860 0046 42EA0122 		orr	r2, r2, r1, lsl #8
1792:SensorLib\bme688/bme68x.c ****             (uint16_t)(BME68X_CONCAT_BYTES(coeff_array[BME68X_IDX_T1_MSB], coeff_array[BME68X_IDX_T
 1861              		.loc 1 1792 0
 1862 004a E283     		strh	r2, [r4, #30]	@ movhi
1795:SensorLib\bme688/bme68x.c ****         dev->calib.par_t3 = (int8_t)(coeff_array[BME68X_IDX_T3]);
 1863              		.loc 1 1795 0
 1864 004c 9DF80510 		ldrb	r1, [sp, #5]	@ zero_extendqisi2
 1865 0050 9DF80420 		ldrb	r2, [sp, #4]	@ zero_extendqisi2
 1866 0054 42EA0122 		orr	r2, r2, r1, lsl #8
1794:SensorLib\bme688/bme68x.c ****             (int16_t)(BME68X_CONCAT_BYTES(coeff_array[BME68X_IDX_T2_MSB], coeff_array[BME68X_IDX_T2
 1867              		.loc 1 1794 0
 1868 0058 2284     		strh	r2, [r4, #32]	@ movhi
1796:SensorLib\bme688/bme68x.c **** 
 1869              		.loc 1 1796 0
 1870 005a 9DF90620 		ldrsb	r2, [sp, #6]
 1871 005e 84F82220 		strb	r2, [r4, #34]
1800:SensorLib\bme688/bme68x.c ****         dev->calib.par_p2 =
 1872              		.loc 1 1800 0
 1873 0062 9DF80910 		ldrb	r1, [sp, #9]	@ zero_extendqisi2
 1874 0066 9DF80820 		ldrb	r2, [sp, #8]	@ zero_extendqisi2
 1875 006a 42EA0122 		orr	r2, r2, r1, lsl #8
1799:SensorLib\bme688/bme68x.c ****             (uint16_t)(BME68X_CONCAT_BYTES(coeff_array[BME68X_IDX_P1_MSB], coeff_array[BME68X_IDX_P
 1876              		.loc 1 1799 0
 1877 006e A284     		strh	r2, [r4, #36]	@ movhi
1802:SensorLib\bme688/bme68x.c ****         dev->calib.par_p3 = (int8_t)coeff_array[BME68X_IDX_P3];
 1878              		.loc 1 1802 0
 1879 0070 9DF80B10 		ldrb	r1, [sp, #11]	@ zero_extendqisi2
 1880 0074 9DF80A20 		ldrb	r2, [sp, #10]	@ zero_extendqisi2
 1881 0078 42EA0122 		orr	r2, r2, r1, lsl #8
1801:SensorLib\bme688/bme68x.c ****             (int16_t)(BME68X_CONCAT_BYTES(coeff_array[BME68X_IDX_P2_MSB], coeff_array[BME68X_IDX_P2
 1882              		.loc 1 1801 0
 1883 007c E284     		strh	r2, [r4, #38]	@ movhi
1803:SensorLib\bme688/bme68x.c ****         dev->calib.par_p4 =
 1884              		.loc 1 1803 0
 1885 007e 9DF90C20 		ldrsb	r2, [sp, #12]
 1886 0082 84F82820 		strb	r2, [r4, #40]
1805:SensorLib\bme688/bme68x.c ****         dev->calib.par_p5 =
 1887              		.loc 1 1805 0
 1888 0086 9DF80F10 		ldrb	r1, [sp, #15]	@ zero_extendqisi2
 1889 008a 9DF80E20 		ldrb	r2, [sp, #14]	@ zero_extendqisi2
 1890 008e 42EA0122 		orr	r2, r2, r1, lsl #8
1804:SensorLib\bme688/bme68x.c ****             (int16_t)(BME68X_CONCAT_BYTES(coeff_array[BME68X_IDX_P4_MSB], coeff_array[BME68X_IDX_P4
 1891              		.loc 1 1804 0
 1892 0092 6285     		strh	r2, [r4, #42]	@ movhi
1807:SensorLib\bme688/bme68x.c ****         dev->calib.par_p6 = (int8_t)(coeff_array[BME68X_IDX_P6]);
 1893              		.loc 1 1807 0
 1894 0094 9DF81110 		ldrb	r1, [sp, #17]	@ zero_extendqisi2
 1895 0098 9DF81020 		ldrb	r2, [sp, #16]	@ zero_extendqisi2
 1896 009c 42EA0122 		orr	r2, r2, r1, lsl #8
1806:SensorLib\bme688/bme68x.c ****             (int16_t)(BME68X_CONCAT_BYTES(coeff_array[BME68X_IDX_P5_MSB], coeff_array[BME68X_IDX_P5
 1897              		.loc 1 1806 0
ARM GAS  C:\Users\CHRONI~1\AppData\Local\Temp\ccho61l0.s 			page 70


 1898 00a0 A285     		strh	r2, [r4, #44]	@ movhi
1808:SensorLib\bme688/bme68x.c ****         dev->calib.par_p7 = (int8_t)(coeff_array[BME68X_IDX_P7]);
 1899              		.loc 1 1808 0
 1900 00a2 9DF91320 		ldrsb	r2, [sp, #19]
 1901 00a6 84F82E20 		strb	r2, [r4, #46]
1809:SensorLib\bme688/bme68x.c ****         dev->calib.par_p8 =
 1902              		.loc 1 1809 0
 1903 00aa 9DF91220 		ldrsb	r2, [sp, #18]
 1904 00ae 84F82F20 		strb	r2, [r4, #47]
1811:SensorLib\bme688/bme68x.c ****         dev->calib.par_p9 =
 1905              		.loc 1 1811 0
 1906 00b2 9DF81710 		ldrb	r1, [sp, #23]	@ zero_extendqisi2
 1907 00b6 9DF81620 		ldrb	r2, [sp, #22]	@ zero_extendqisi2
 1908 00ba 42EA0122 		orr	r2, r2, r1, lsl #8
1810:SensorLib\bme688/bme68x.c ****             (int16_t)(BME68X_CONCAT_BYTES(coeff_array[BME68X_IDX_P8_MSB], coeff_array[BME68X_IDX_P8
 1909              		.loc 1 1810 0
 1910 00be 2286     		strh	r2, [r4, #48]	@ movhi
1813:SensorLib\bme688/bme68x.c ****         dev->calib.par_p10 = (uint8_t)(coeff_array[BME68X_IDX_P10]);
 1911              		.loc 1 1813 0
 1912 00c0 9DF81910 		ldrb	r1, [sp, #25]	@ zero_extendqisi2
 1913 00c4 9DF81820 		ldrb	r2, [sp, #24]	@ zero_extendqisi2
 1914 00c8 42EA0122 		orr	r2, r2, r1, lsl #8
1812:SensorLib\bme688/bme68x.c ****             (int16_t)(BME68X_CONCAT_BYTES(coeff_array[BME68X_IDX_P9_MSB], coeff_array[BME68X_IDX_P9
 1915              		.loc 1 1812 0
 1916 00cc 6286     		strh	r2, [r4, #50]	@ movhi
1814:SensorLib\bme688/bme68x.c **** 
 1917              		.loc 1 1814 0
 1918 00ce 9DF81A20 		ldrb	r2, [sp, #26]	@ zero_extendqisi2
 1919 00d2 84F83420 		strb	r2, [r4, #52]
1818:SensorLib\bme688/bme68x.c ****                        (coeff_array[BME68X_IDX_H1_LSB] & BME68X_BIT_H1_DATA_MSK));
 1920              		.loc 1 1818 0
 1921 00d6 9DF81D00 		ldrb	r0, [sp, #29]	@ zero_extendqisi2
1819:SensorLib\bme688/bme68x.c ****         dev->calib.par_h2 =
 1922              		.loc 1 1819 0
 1923 00da 9DF81C20 		ldrb	r2, [sp, #28]	@ zero_extendqisi2
1818:SensorLib\bme688/bme68x.c ****                        (coeff_array[BME68X_IDX_H1_LSB] & BME68X_BIT_H1_DATA_MSK));
 1924              		.loc 1 1818 0
 1925 00de 02F00F01 		and	r1, r2, #15
 1926 00e2 41EA0011 		orr	r1, r1, r0, lsl #4
1817:SensorLib\bme688/bme68x.c ****             (uint16_t)(((uint16_t)coeff_array[BME68X_IDX_H1_MSB] << 4) |
 1927              		.loc 1 1817 0
 1928 00e6 2182     		strh	r1, [r4, #16]	@ movhi
1821:SensorLib\bme688/bme68x.c ****         dev->calib.par_h3 = (int8_t)coeff_array[BME68X_IDX_H3];
 1929              		.loc 1 1821 0
 1930 00e8 9DF81B10 		ldrb	r1, [sp, #27]	@ zero_extendqisi2
 1931 00ec 1209     		lsrs	r2, r2, #4
 1932 00ee 42EA0112 		orr	r2, r2, r1, lsl #4
1820:SensorLib\bme688/bme68x.c ****             (uint16_t)(((uint16_t)coeff_array[BME68X_IDX_H2_MSB] << 4) | ((coeff_array[BME68X_IDX_H
 1933              		.loc 1 1820 0
 1934 00f2 6282     		strh	r2, [r4, #18]	@ movhi
1822:SensorLib\bme688/bme68x.c ****         dev->calib.par_h4 = (int8_t)coeff_array[BME68X_IDX_H4];
 1935              		.loc 1 1822 0
 1936 00f4 9DF91E20 		ldrsb	r2, [sp, #30]
 1937 00f8 2275     		strb	r2, [r4, #20]
1823:SensorLib\bme688/bme68x.c ****         dev->calib.par_h5 = (int8_t)coeff_array[BME68X_IDX_H5];
 1938              		.loc 1 1823 0
 1939 00fa 9DF91F20 		ldrsb	r2, [sp, #31]
ARM GAS  C:\Users\CHRONI~1\AppData\Local\Temp\ccho61l0.s 			page 71


 1940 00fe 6275     		strb	r2, [r4, #21]
1824:SensorLib\bme688/bme68x.c ****         dev->calib.par_h6 = (uint8_t)coeff_array[BME68X_IDX_H6];
 1941              		.loc 1 1824 0
 1942 0100 9DF92020 		ldrsb	r2, [sp, #32]
 1943 0104 A275     		strb	r2, [r4, #22]
1825:SensorLib\bme688/bme68x.c ****         dev->calib.par_h7 = (int8_t)coeff_array[BME68X_IDX_H7];
 1944              		.loc 1 1825 0
 1945 0106 9DF82120 		ldrb	r2, [sp, #33]	@ zero_extendqisi2
 1946 010a E275     		strb	r2, [r4, #23]
1826:SensorLib\bme688/bme68x.c **** 
 1947              		.loc 1 1826 0
 1948 010c 9DF92220 		ldrsb	r2, [sp, #34]
 1949 0110 2276     		strb	r2, [r4, #24]
1829:SensorLib\bme688/bme68x.c ****         dev->calib.par_gh2 =
 1950              		.loc 1 1829 0
 1951 0112 9DF92720 		ldrsb	r2, [sp, #39]
 1952 0116 6276     		strb	r2, [r4, #25]
1831:SensorLib\bme688/bme68x.c ****         dev->calib.par_gh3 = (int8_t)coeff_array[BME68X_IDX_GH3];
 1953              		.loc 1 1831 0
 1954 0118 9DF82610 		ldrb	r1, [sp, #38]	@ zero_extendqisi2
 1955 011c 9DF82520 		ldrb	r2, [sp, #37]	@ zero_extendqisi2
 1956 0120 42EA0122 		orr	r2, r2, r1, lsl #8
1830:SensorLib\bme688/bme68x.c ****             (int16_t)(BME68X_CONCAT_BYTES(coeff_array[BME68X_IDX_GH2_MSB], coeff_array[BME68X_IDX_G
 1957              		.loc 1 1830 0
 1958 0124 6283     		strh	r2, [r4, #26]	@ movhi
1832:SensorLib\bme688/bme68x.c **** 
 1959              		.loc 1 1832 0
 1960 0126 9DF92820 		ldrsb	r2, [sp, #40]
 1961 012a 2277     		strb	r2, [r4, #28]
1835:SensorLib\bme688/bme68x.c ****         dev->calib.res_heat_val = (int8_t)coeff_array[BME68X_IDX_RES_HEAT_VAL];
 1962              		.loc 1 1835 0
 1963 012c 9DF82B20 		ldrb	r2, [sp, #43]	@ zero_extendqisi2
 1964 0130 02F03002 		and	r2, r2, #48
 1965 0134 1211     		asrs	r2, r2, #4
 1966 0136 84F83C20 		strb	r2, [r4, #60]
1836:SensorLib\bme688/bme68x.c ****         dev->calib.range_sw_err = ((int8_t)(coeff_array[BME68X_IDX_RANGE_SW_ERR] & BME68X_RSERROR_M
 1967              		.loc 1 1836 0
 1968 013a 9DF92920 		ldrsb	r2, [sp, #41]
 1969 013e 84F83D20 		strb	r2, [r4, #61]
1837:SensorLib\bme688/bme68x.c ****     }
 1970              		.loc 1 1837 0
 1971 0142 9DF92D20 		ldrsb	r2, [sp, #45]
 1972 0146 1211     		asrs	r2, r2, #4
 1973 0148 84F83E20 		strb	r2, [r4, #62]
 1974              	.L126:
1841:SensorLib\bme688/bme68x.c **** 
 1975              		.loc 1 1841 0
 1976 014c 1846     		mov	r0, r3
 1977 014e 0CB0     		add	sp, sp, #48
 1978              		.cfi_def_cfa_offset 8
 1979              		@ sp needed
 1980 0150 10BD     		pop	{r4, pc}
 1981              		.cfi_endproc
 1982              	.LFE32:
 1983              		.size	get_calib_data, .-get_calib_data
 1984 0152 00BF     		.section	.text.read_field_data,"ax",%progbits
 1985              		.align	2
ARM GAS  C:\Users\CHRONI~1\AppData\Local\Temp\ccho61l0.s 			page 72


 1986              		.thumb
 1987              		.thumb_func
 1988              		.type	read_field_data, %function
 1989              	read_field_data:
 1990              	.LFB21:
1202:SensorLib\bme688/bme68x.c ****     int8_t rslt = BME68X_OK;
 1991              		.loc 1 1202 0
 1992              		.cfi_startproc
 1993              		@ args = 0, pretend = 0, frame = 40
 1994              		@ frame_needed = 0, uses_anonymous_args = 0
 1995              	.LVL249:
 1996 0000 2DE9F04F 		push	{r4, r5, r6, r7, r8, r9, r10, fp, lr}
 1997              		.cfi_def_cfa_offset 36
 1998              		.cfi_offset 4, -36
 1999              		.cfi_offset 5, -32
 2000              		.cfi_offset 6, -28
 2001              		.cfi_offset 7, -24
 2002              		.cfi_offset 8, -20
 2003              		.cfi_offset 9, -16
 2004              		.cfi_offset 10, -12
 2005              		.cfi_offset 11, -8
 2006              		.cfi_offset 14, -4
 2007 0004 8BB0     		sub	sp, sp, #44
 2008              		.cfi_def_cfa_offset 80
 2009 0006 8246     		mov	r10, r0
 2010 0008 0D46     		mov	r5, r1
 2011 000a 9146     		mov	r9, r2
 2012              	.LVL250:
1204:SensorLib\bme688/bme68x.c ****     uint8_t gas_range_l, gas_range_h;
 2013              		.loc 1 1204 0
 2014 000c 0026     		movs	r6, #0
 2015 000e 0596     		str	r6, [sp, #20]
 2016 0010 0696     		str	r6, [sp, #24]
 2017 0012 0796     		str	r6, [sp, #28]
 2018 0014 0896     		str	r6, [sp, #32]
 2019 0016 8DF82460 		strb	r6, [sp, #36]
 2020              	.LVL251:
1210:SensorLib\bme688/bme68x.c **** 
 2021              		.loc 1 1210 0
 2022 001a 0527     		movs	r7, #5
1212:SensorLib\bme688/bme68x.c ****     {
 2023              		.loc 1 1212 0
 2024 001c B0E0     		b	.L130
 2025              	.LVL252:
 2026              	.L139:
1214:SensorLib\bme688/bme68x.c ****                                buff,
 2027              		.loc 1 1214 0
 2028 001e 0AEB0A10 		add	r0, r10, r10, lsl #4
 2029 0022 1D30     		adds	r0, r0, #29
 2030 0024 4B46     		mov	r3, r9
 2031 0026 1122     		movs	r2, #17
 2032 0028 05A9     		add	r1, sp, #20
 2033 002a C0B2     		uxtb	r0, r0
 2034 002c FFF7FEFF 		bl	bme68x_get_regs
 2035              	.LVL253:
 2036 0030 0646     		mov	r6, r0
 2037              	.LVL254:
ARM GAS  C:\Users\CHRONI~1\AppData\Local\Temp\ccho61l0.s 			page 73


1218:SensorLib\bme688/bme68x.c ****         {
 2038              		.loc 1 1218 0
 2039 0032 002D     		cmp	r5, #0
 2040 0034 00F0A980 		beq	.L140
1224:SensorLib\bme688/bme68x.c ****         data->gas_index = buff[0] & BME68X_GAS_INDEX_MSK;
 2041              		.loc 1 1224 0
 2042 0038 9DF81430 		ldrb	r3, [sp, #20]	@ zero_extendqisi2
 2043 003c 03F08002 		and	r2, r3, #128
 2044 0040 2A70     		strb	r2, [r5]
1225:SensorLib\bme688/bme68x.c ****         data->meas_index = buff[1];
 2045              		.loc 1 1225 0
 2046 0042 03F00F03 		and	r3, r3, #15
 2047 0046 6B70     		strb	r3, [r5, #1]
1226:SensorLib\bme688/bme68x.c **** 
 2048              		.loc 1 1226 0
 2049 0048 9DF81530 		ldrb	r3, [sp, #21]	@ zero_extendqisi2
 2050 004c AB70     		strb	r3, [r5, #2]
1229:SensorLib\bme688/bme68x.c ****         adc_temp = (uint32_t)(((uint32_t)buff[5] * 4096) | ((uint32_t)buff[6] * 16) | ((uint32_t)bu
 2051              		.loc 1 1229 0
 2052 004e 9DF81640 		ldrb	r4, [sp, #22]	@ zero_extendqisi2
 2053 0052 9DF81730 		ldrb	r3, [sp, #23]	@ zero_extendqisi2
 2054 0056 1B01     		lsls	r3, r3, #4
 2055 0058 43EA0433 		orr	r3, r3, r4, lsl #12
 2056 005c 9DF81840 		ldrb	r4, [sp, #24]	@ zero_extendqisi2
 2057 0060 43EA1414 		orr	r4, r3, r4, lsr #4
 2058              	.LVL255:
1230:SensorLib\bme688/bme68x.c ****         adc_hum = (uint16_t)(((uint32_t)buff[8] * 256) | (uint32_t)buff[9]);
 2059              		.loc 1 1230 0
 2060 0064 9DF81910 		ldrb	r1, [sp, #25]	@ zero_extendqisi2
 2061 0068 9DF81A30 		ldrb	r3, [sp, #26]	@ zero_extendqisi2
 2062 006c 1B01     		lsls	r3, r3, #4
 2063 006e 43EA0133 		orr	r3, r3, r1, lsl #12
 2064 0072 9DF81B10 		ldrb	r1, [sp, #27]	@ zero_extendqisi2
 2065 0076 43EA1113 		orr	r3, r3, r1, lsr #4
 2066 007a 0093     		str	r3, [sp]
 2067              	.LVL256:
1231:SensorLib\bme688/bme68x.c ****         adc_gas_res_low = (uint16_t)((uint32_t)buff[13] * 4 | (((uint32_t)buff[14]) / 64));
 2068              		.loc 1 1231 0
 2069 007c 9DF81C80 		ldrb	r8, [sp, #28]	@ zero_extendqisi2
 2070 0080 9DF81D30 		ldrb	r3, [sp, #29]	@ zero_extendqisi2
 2071              	.LVL257:
 2072 0084 43EA0828 		orr	r8, r3, r8, lsl #8
 2073              	.LVL258:
1232:SensorLib\bme688/bme68x.c ****         adc_gas_res_high = (uint16_t)((uint32_t)buff[15] * 4 | (((uint32_t)buff[16]) / 64));
 2074              		.loc 1 1232 0
 2075 0088 9DF82100 		ldrb	r0, [sp, #33]	@ zero_extendqisi2
 2076 008c 9DF82230 		ldrb	r3, [sp, #34]	@ zero_extendqisi2
 2077 0090 9909     		lsrs	r1, r3, #6
 2078 0092 41EA8001 		orr	r1, r1, r0, lsl #2
 2079 0096 0191     		str	r1, [sp, #4]
 2080              	.LVL259:
1233:SensorLib\bme688/bme68x.c ****         gas_range_l = buff[14] & BME68X_GAS_RANGE_MSK;
 2081              		.loc 1 1233 0
 2082 0098 9DF823E0 		ldrb	lr, [sp, #35]	@ zero_extendqisi2
 2083 009c 9DF82410 		ldrb	r1, [sp, #36]	@ zero_extendqisi2
 2084 00a0 8809     		lsrs	r0, r1, #6
 2085 00a2 40EA8E00 		orr	r0, r0, lr, lsl #2
ARM GAS  C:\Users\CHRONI~1\AppData\Local\Temp\ccho61l0.s 			page 74


 2086 00a6 0290     		str	r0, [sp, #8]
 2087              	.LVL260:
1234:SensorLib\bme688/bme68x.c ****         gas_range_h = buff[16] & BME68X_GAS_RANGE_MSK;
 2088              		.loc 1 1234 0
 2089 00a8 03F00F00 		and	r0, r3, #15
 2090 00ac 0390     		str	r0, [sp, #12]
 2091              	.LVL261:
1235:SensorLib\bme688/bme68x.c ****         if (dev->variant_id == BME68X_VARIANT_GAS_HIGH)
 2092              		.loc 1 1235 0
 2093 00ae 01F00F0B 		and	fp, r1, #15
 2094              	.LVL262:
1236:SensorLib\bme688/bme68x.c ****         {
 2095              		.loc 1 1236 0
 2096 00b2 D9F80800 		ldr	r0, [r9, #8]
 2097 00b6 0128     		cmp	r0, #1
 2098 00b8 0AD1     		bne	.L132
1238:SensorLib\bme688/bme68x.c ****             data->status |= buff[16] & BME68X_HEAT_STAB_MSK;
 2099              		.loc 1 1238 0
 2100 00ba 01F02001 		and	r1, r1, #32
 2101 00be 0A43     		orrs	r2, r2, r1
 2102 00c0 52B2     		sxtb	r2, r2
1239:SensorLib\bme688/bme68x.c ****         }
 2103              		.loc 1 1239 0
 2104 00c2 9DF82430 		ldrb	r3, [sp, #36]	@ zero_extendqisi2
 2105 00c6 03F01003 		and	r3, r3, #16
 2106 00ca 1A43     		orrs	r2, r2, r3
 2107 00cc 2A70     		strb	r2, [r5]
 2108 00ce 09E0     		b	.L133
 2109              	.L132:
1243:SensorLib\bme688/bme68x.c ****             data->status |= buff[14] & BME68X_HEAT_STAB_MSK;
 2110              		.loc 1 1243 0
 2111 00d0 03F02003 		and	r3, r3, #32
 2112 00d4 1A43     		orrs	r2, r2, r3
 2113 00d6 52B2     		sxtb	r2, r2
1244:SensorLib\bme688/bme68x.c ****         }
 2114              		.loc 1 1244 0
 2115 00d8 9DF82230 		ldrb	r3, [sp, #34]	@ zero_extendqisi2
 2116 00dc 03F01003 		and	r3, r3, #16
 2117 00e0 1A43     		orrs	r2, r2, r3
 2118 00e2 2A70     		strb	r2, [r5]
 2119              	.L133:
1247:SensorLib\bme688/bme68x.c ****         {
 2120              		.loc 1 1247 0
 2121 00e4 95F90030 		ldrsb	r3, [r5]
 2122 00e8 002B     		cmp	r3, #0
 2123 00ea 3FDA     		bge	.L134
1247:SensorLib\bme688/bme68x.c ****         {
 2124              		.loc 1 1247 0 is_stmt 0 discriminator 1
 2125 00ec 002E     		cmp	r6, #0
 2126 00ee 3DD1     		bne	.L134
1249:SensorLib\bme688/bme68x.c ****             if (rslt == BME68X_OK)
 2127              		.loc 1 1249 0 is_stmt 1
 2128 00f0 6878     		ldrb	r0, [r5, #1]	@ zero_extendqisi2
 2129 00f2 5A30     		adds	r0, r0, #90
 2130 00f4 4B46     		mov	r3, r9
 2131 00f6 0122     		movs	r2, #1
 2132 00f8 E91C     		adds	r1, r5, #3
ARM GAS  C:\Users\CHRONI~1\AppData\Local\Temp\ccho61l0.s 			page 75


 2133 00fa C0B2     		uxtb	r0, r0
 2134 00fc FFF7FEFF 		bl	bme68x_get_regs
 2135              	.LVL263:
1250:SensorLib\bme688/bme68x.c ****             {
 2136              		.loc 1 1250 0
 2137 0100 0646     		mov	r6, r0
 2138 0102 40B9     		cbnz	r0, .L135
1252:SensorLib\bme688/bme68x.c ****             }
 2139              		.loc 1 1252 0
 2140 0104 6878     		ldrb	r0, [r5, #1]	@ zero_extendqisi2
 2141              	.LVL264:
 2142 0106 5030     		adds	r0, r0, #80
 2143 0108 4B46     		mov	r3, r9
 2144 010a 0122     		movs	r2, #1
 2145 010c 291D     		adds	r1, r5, #4
 2146 010e C0B2     		uxtb	r0, r0
 2147 0110 FFF7FEFF 		bl	bme68x_get_regs
 2148              	.LVL265:
 2149 0114 0646     		mov	r6, r0
 2150              	.LVL266:
 2151              	.L135:
1255:SensorLib\bme688/bme68x.c ****             {
 2152              		.loc 1 1255 0
 2153 0116 46B9     		cbnz	r6, .L136
1257:SensorLib\bme688/bme68x.c ****             }
 2154              		.loc 1 1257 0
 2155 0118 6878     		ldrb	r0, [r5, #1]	@ zero_extendqisi2
 2156 011a 6430     		adds	r0, r0, #100
 2157 011c 4B46     		mov	r3, r9
 2158 011e 0122     		movs	r2, #1
 2159 0120 691D     		adds	r1, r5, #5
 2160 0122 C0B2     		uxtb	r0, r0
 2161 0124 FFF7FEFF 		bl	bme68x_get_regs
 2162              	.LVL267:
 2163 0128 0646     		mov	r6, r0
 2164              	.LVL268:
 2165              	.L136:
1260:SensorLib\bme688/bme68x.c ****             {
 2166              		.loc 1 1260 0
 2167 012a FEB9     		cbnz	r6, .L134
1262:SensorLib\bme688/bme68x.c ****                 data->pressure = calc_pressure(adc_pres, dev);
 2168              		.loc 1 1262 0
 2169 012c 4946     		mov	r1, r9
 2170 012e 0098     		ldr	r0, [sp]
 2171 0130 FFF7FEFF 		bl	calc_temperature
 2172              	.LVL269:
 2173 0134 E880     		strh	r0, [r5, #6]	@ movhi
1263:SensorLib\bme688/bme68x.c ****                 data->humidity = calc_humidity(adc_hum, dev);
 2174              		.loc 1 1263 0
 2175 0136 4946     		mov	r1, r9
 2176 0138 2046     		mov	r0, r4
 2177 013a FFF7FEFF 		bl	calc_pressure
 2178              	.LVL270:
 2179 013e A860     		str	r0, [r5, #8]
1264:SensorLib\bme688/bme68x.c ****                 if (dev->variant_id == BME68X_VARIANT_GAS_HIGH)
 2180              		.loc 1 1264 0
 2181 0140 4946     		mov	r1, r9
ARM GAS  C:\Users\CHRONI~1\AppData\Local\Temp\ccho61l0.s 			page 76


 2182 0142 4046     		mov	r0, r8
 2183 0144 FFF7FEFF 		bl	calc_humidity
 2184              	.LVL271:
 2185 0148 E860     		str	r0, [r5, #12]
1265:SensorLib\bme688/bme68x.c ****                 {
 2186              		.loc 1 1265 0
 2187 014a D9F80830 		ldr	r3, [r9, #8]
 2188 014e 012B     		cmp	r3, #1
 2189 0150 05D1     		bne	.L137
1267:SensorLib\bme688/bme68x.c ****                 }
 2190              		.loc 1 1267 0
 2191 0152 5946     		mov	r1, fp
 2192 0154 0298     		ldr	r0, [sp, #8]
 2193 0156 FFF7FEFF 		bl	calc_gas_resistance_high
 2194              	.LVL272:
 2195 015a 2861     		str	r0, [r5, #16]
 2196 015c 17E0     		b	.L131
 2197              	.L137:
1271:SensorLib\bme688/bme68x.c ****                 }
 2198              		.loc 1 1271 0
 2199 015e 4A46     		mov	r2, r9
 2200 0160 0399     		ldr	r1, [sp, #12]
 2201 0162 0198     		ldr	r0, [sp, #4]
 2202 0164 FFF7FEFF 		bl	calc_gas_resistance_low
 2203              	.LVL273:
 2204 0168 2861     		str	r0, [r5, #16]
 2205 016a 10E0     		b	.L131
 2206              	.L134:
1278:SensorLib\bme688/bme68x.c ****         {
 2207              		.loc 1 1278 0
 2208 016c 36B9     		cbnz	r6, .L138
1280:SensorLib\bme688/bme68x.c ****         }
 2209              		.loc 1 1280 0
 2210 016e D9F84830 		ldr	r3, [r9, #72]
 2211 0172 D9F80410 		ldr	r1, [r9, #4]
 2212 0176 42F21070 		movw	r0, #10000
 2213 017a 9847     		blx	r3
 2214              	.LVL274:
 2215              	.L138:
1283:SensorLib\bme688/bme68x.c ****     }
 2216              		.loc 1 1283 0
 2217 017c 013F     		subs	r7, r7, #1
 2218              	.LVL275:
 2219 017e FFB2     		uxtb	r7, r7
 2220              	.LVL276:
 2221              	.L130:
1212:SensorLib\bme688/bme68x.c ****     {
 2222              		.loc 1 1212 0
 2223 0180 2FB1     		cbz	r7, .L131
1212:SensorLib\bme688/bme68x.c ****     {
 2224              		.loc 1 1212 0 is_stmt 0 discriminator 1
 2225 0182 002E     		cmp	r6, #0
 2226 0184 3FF44BAF 		beq	.L139
 2227 0188 01E0     		b	.L131
 2228              	.L140:
1220:SensorLib\bme688/bme68x.c ****             break;
 2229              		.loc 1 1220 0 is_stmt 1
ARM GAS  C:\Users\CHRONI~1\AppData\Local\Temp\ccho61l0.s 			page 77


 2230 018a 4FF0FF36 		mov	r6, #-1
 2231              	.LVL277:
 2232              	.L131:
1287:SensorLib\bme688/bme68x.c **** 
 2233              		.loc 1 1287 0
 2234 018e 3046     		mov	r0, r6
 2235 0190 0BB0     		add	sp, sp, #44
 2236              		.cfi_def_cfa_offset 36
 2237              		@ sp needed
 2238 0192 BDE8F08F 		pop	{r4, r5, r6, r7, r8, r9, r10, fp, pc}
 2239              		.cfi_endproc
 2240              	.LFE21:
 2241              		.size	read_field_data, .-read_field_data
 2242 0196 00BF     		.section	.text.read_all_field_data,"ax",%progbits
 2243              		.align	2
 2244              		.thumb
 2245              		.thumb_func
 2246              		.type	read_all_field_data, %function
 2247              	read_all_field_data:
 2248              	.LFB22:
1291:SensorLib\bme688/bme68x.c ****     int8_t rslt = BME68X_OK;
 2249              		.loc 1 1291 0
 2250              		.cfi_startproc
 2251              		@ args = 0, pretend = 0, frame = 104
 2252              		@ frame_needed = 0, uses_anonymous_args = 0
 2253              	.LVL278:
 2254 0000 2DE9F04F 		push	{r4, r5, r6, r7, r8, r9, r10, fp, lr}
 2255              		.cfi_def_cfa_offset 36
 2256              		.cfi_offset 4, -36
 2257              		.cfi_offset 5, -32
 2258              		.cfi_offset 6, -28
 2259              		.cfi_offset 7, -24
 2260              		.cfi_offset 8, -20
 2261              		.cfi_offset 9, -16
 2262              		.cfi_offset 10, -12
 2263              		.cfi_offset 11, -8
 2264              		.cfi_offset 14, -4
 2265 0004 9BB0     		sub	sp, sp, #108
 2266              		.cfi_def_cfa_offset 144
 2267 0006 8346     		mov	fp, r0
 2268 0008 8846     		mov	r8, r1
 2269              	.LVL279:
1293:SensorLib\bme688/bme68x.c ****     uint8_t gas_range_l, gas_range_h;
 2270              		.loc 1 1293 0
 2271 000a 3322     		movs	r2, #51
 2272 000c 0021     		movs	r1, #0
 2273              	.LVL280:
 2274 000e 0DA8     		add	r0, sp, #52
 2275              	.LVL281:
 2276 0010 FFF7FEFF 		bl	memset
 2277              	.LVL282:
1300:SensorLib\bme688/bme68x.c ****     uint8_t i;
 2278              		.loc 1 1300 0
 2279 0014 1E22     		movs	r2, #30
 2280 0016 0021     		movs	r1, #0
 2281 0018 05A8     		add	r0, sp, #20
 2282 001a FFF7FEFF 		bl	memset
ARM GAS  C:\Users\CHRONI~1\AppData\Local\Temp\ccho61l0.s 			page 78


 2283              	.LVL283:
1303:SensorLib\bme688/bme68x.c ****     {
 2284              		.loc 1 1303 0
 2285 001e DBF80030 		ldr	r3, [fp]
 2286 0022 43B9     		cbnz	r3, .L154
1303:SensorLib\bme688/bme68x.c ****     {
 2287              		.loc 1 1303 0 is_stmt 0 discriminator 1
 2288 0024 DBF80430 		ldr	r3, [fp, #4]
 2289 0028 43B9     		cbnz	r3, .L155
1303:SensorLib\bme688/bme68x.c ****     {
 2290              		.loc 1 1303 0 discriminator 2
 2291 002a DBF80830 		ldr	r3, [fp, #8]
 2292 002e 43B1     		cbz	r3, .L156
1292:SensorLib\bme688/bme68x.c ****     uint8_t buff[BME68X_LEN_FIELD * 3] = { 0 };
 2293              		.loc 1 1292 0 is_stmt 1
 2294 0030 0023     		movs	r3, #0
 2295 0032 0093     		str	r3, [sp]
 2296 0034 08E0     		b	.L144
 2297              	.L154:
 2298 0036 0023     		movs	r3, #0
 2299 0038 0093     		str	r3, [sp]
 2300 003a 05E0     		b	.L144
 2301              	.L155:
 2302 003c 0023     		movs	r3, #0
 2303 003e 0093     		str	r3, [sp]
 2304 0040 02E0     		b	.L144
 2305              	.L156:
1305:SensorLib\bme688/bme68x.c ****     }
 2306              		.loc 1 1305 0
 2307 0042 4FF0FF33 		mov	r3, #-1
 2308 0046 0093     		str	r3, [sp]
 2309              	.L144:
 2310              	.LVL284:
1308:SensorLib\bme688/bme68x.c ****     {
 2311              		.loc 1 1308 0
 2312 0048 009B     		ldr	r3, [sp]
 2313 004a 33B9     		cbnz	r3, .L145
1310:SensorLib\bme688/bme68x.c ****     }
 2314              		.loc 1 1310 0
 2315 004c 4346     		mov	r3, r8
 2316 004e 3322     		movs	r2, #51
 2317 0050 0DA9     		add	r1, sp, #52
 2318 0052 1D20     		movs	r0, #29
 2319 0054 FFF7FEFF 		bl	bme68x_get_regs
 2320              	.LVL285:
 2321 0058 0090     		str	r0, [sp]
 2322              	.LVL286:
 2323              	.L145:
1313:SensorLib\bme688/bme68x.c ****     {
 2324              		.loc 1 1313 0
 2325 005a 009B     		ldr	r3, [sp]
 2326 005c 33B9     		cbnz	r3, .L146
1315:SensorLib\bme688/bme68x.c ****     }
 2327              		.loc 1 1315 0
 2328 005e 4346     		mov	r3, r8
 2329 0060 1E22     		movs	r2, #30
 2330 0062 05A9     		add	r1, sp, #20
ARM GAS  C:\Users\CHRONI~1\AppData\Local\Temp\ccho61l0.s 			page 79


 2331 0064 5020     		movs	r0, #80
 2332 0066 FFF7FEFF 		bl	bme68x_get_regs
 2333              	.LVL287:
 2334 006a 0090     		str	r0, [sp]
 2335              	.LVL288:
 2336              	.L146:
1318:SensorLib\bme688/bme68x.c ****     {
 2337              		.loc 1 1318 0
 2338 006c 4FF0000A 		mov	r10, #0
 2339 0070 DDE0     		b	.L147
 2340              	.LVL289:
 2341              	.L153:
1320:SensorLib\bme688/bme68x.c ****         data[i]->status = buff[off] & BME68X_NEW_DATA_MSK;
 2342              		.loc 1 1320 0
 2343 0072 0AEB0A13 		add	r3, r10, r10, lsl #4
 2344 0076 DBB2     		uxtb	r3, r3
 2345              	.LVL290:
1321:SensorLib\bme688/bme68x.c ****         data[i]->gas_index = buff[off] & BME68X_GAS_INDEX_MSK;
 2346              		.loc 1 1321 0
 2347 0078 4FEA8A05 		lsl	r5, r10, #2
 2348 007c 5BF82A10 		ldr	r1, [fp, r10, lsl #2]
 2349 0080 1AAA     		add	r2, sp, #104
 2350 0082 D018     		adds	r0, r2, r3
 2351 0084 10F8342C 		ldrb	r2, [r0, #-52]	@ zero_extendqisi2
 2352 0088 22F07F02 		bic	r2, r2, #127
 2353 008c 0A70     		strb	r2, [r1]
1322:SensorLib\bme688/bme68x.c ****         data[i]->meas_index = buff[off + 1];
 2354              		.loc 1 1322 0
 2355 008e 5BF82A10 		ldr	r1, [fp, r10, lsl #2]
 2356 0092 10F8342C 		ldrb	r2, [r0, #-52]	@ zero_extendqisi2
 2357 0096 02F00F02 		and	r2, r2, #15
 2358 009a 4A70     		strb	r2, [r1, #1]
1323:SensorLib\bme688/bme68x.c **** 
 2359              		.loc 1 1323 0
 2360 009c 5BF82A10 		ldr	r1, [fp, r10, lsl #2]
 2361 00a0 5A1C     		adds	r2, r3, #1
 2362 00a2 1AA8     		add	r0, sp, #104
 2363 00a4 0244     		add	r2, r2, r0
 2364 00a6 12F8342C 		ldrb	r2, [r2, #-52]	@ zero_extendqisi2
 2365 00aa 8A70     		strb	r2, [r1, #2]
1327:SensorLib\bme688/bme68x.c ****                         ((uint32_t) buff[off + 4] / 16));
 2366              		.loc 1 1327 0
 2367 00ac 9A1C     		adds	r2, r3, #2
 2368 00ae 0244     		add	r2, r2, r0
 2369 00b0 12F8344C 		ldrb	r4, [r2, #-52]	@ zero_extendqisi2
 2370 00b4 D91C     		adds	r1, r3, #3
 2371 00b6 0144     		add	r1, r1, r0
 2372 00b8 11F8342C 		ldrb	r2, [r1, #-52]	@ zero_extendqisi2
 2373 00bc 1201     		lsls	r2, r2, #4
 2374 00be 42EA0432 		orr	r2, r2, r4, lsl #12
1328:SensorLib\bme688/bme68x.c ****         adc_temp =
 2375              		.loc 1 1328 0
 2376 00c2 191D     		adds	r1, r3, #4
 2377 00c4 0144     		add	r1, r1, r0
 2378 00c6 11F8344C 		ldrb	r4, [r1, #-52]	@ zero_extendqisi2
1326:SensorLib\bme688/bme68x.c ****             (uint32_t) (((uint32_t) buff[off + 2] * 4096) | ((uint32_t) buff[off + 3] * 16) |
 2379              		.loc 1 1326 0
ARM GAS  C:\Users\CHRONI~1\AppData\Local\Temp\ccho61l0.s 			page 80


 2380 00ca 42EA1414 		orr	r4, r2, r4, lsr #4
 2381              	.LVL291:
1330:SensorLib\bme688/bme68x.c ****                         ((uint32_t) buff[off + 7] / 16));
 2382              		.loc 1 1330 0
 2383 00ce 5A1D     		adds	r2, r3, #5
 2384 00d0 0244     		add	r2, r2, r0
 2385 00d2 12F8340C 		ldrb	r0, [r2, #-52]	@ zero_extendqisi2
 2386 00d6 991D     		adds	r1, r3, #6
 2387 00d8 1AAA     		add	r2, sp, #104
 2388 00da 1144     		add	r1, r1, r2
 2389 00dc 11F8342C 		ldrb	r2, [r1, #-52]	@ zero_extendqisi2
 2390 00e0 1201     		lsls	r2, r2, #4
 2391 00e2 42EA0032 		orr	r2, r2, r0, lsl #12
1331:SensorLib\bme688/bme68x.c ****         adc_hum = (uint16_t) (((uint32_t) buff[off + 8] * 256) | (uint32_t) buff[off + 9]);
 2392              		.loc 1 1331 0
 2393 00e6 D91D     		adds	r1, r3, #7
 2394 00e8 1AA8     		add	r0, sp, #104
 2395 00ea 0144     		add	r1, r1, r0
 2396 00ec 11F8340C 		ldrb	r0, [r1, #-52]	@ zero_extendqisi2
1329:SensorLib\bme688/bme68x.c ****             (uint32_t) (((uint32_t) buff[off + 5] * 4096) | ((uint32_t) buff[off + 6] * 16) |
 2397              		.loc 1 1329 0
 2398 00f0 42EA1010 		orr	r0, r2, r0, lsr #4
 2399              	.LVL292:
1332:SensorLib\bme688/bme68x.c ****         adc_gas_res_low = (uint16_t) ((uint32_t) buff[off + 13] * 4 | (((uint32_t) buff[off + 14]) 
 2400              		.loc 1 1332 0
 2401 00f4 03F10802 		add	r2, r3, #8
 2402 00f8 1AA9     		add	r1, sp, #104
 2403 00fa 0A44     		add	r2, r2, r1
 2404 00fc 12F8346C 		ldrb	r6, [r2, #-52]	@ zero_extendqisi2
 2405 0100 03F10902 		add	r2, r3, #9
 2406 0104 0A44     		add	r2, r2, r1
 2407 0106 12F8342C 		ldrb	r2, [r2, #-52]	@ zero_extendqisi2
 2408 010a 42EA0626 		orr	r6, r2, r6, lsl #8
 2409              	.LVL293:
1333:SensorLib\bme688/bme68x.c ****         adc_gas_res_high = (uint16_t) ((uint32_t) buff[off + 15] * 4 | (((uint32_t) buff[off + 16])
 2410              		.loc 1 1333 0
 2411 010e 03F10D02 		add	r2, r3, #13
 2412 0112 0A44     		add	r2, r2, r1
 2413 0114 12F8347C 		ldrb	r7, [r2, #-52]	@ zero_extendqisi2
 2414 0118 03F10E0E 		add	lr, r3, #14
 2415 011c 0A46     		mov	r2, r1
 2416 011e 7244     		add	r2, r2, lr
 2417 0120 12F8342C 		ldrb	r2, [r2, #-52]	@ zero_extendqisi2
 2418 0124 9109     		lsrs	r1, r2, #6
 2419 0126 41EA8701 		orr	r1, r1, r7, lsl #2
 2420 012a 0191     		str	r1, [sp, #4]
 2421              	.LVL294:
1334:SensorLib\bme688/bme68x.c ****         gas_range_l = buff[off + 14] & BME68X_GAS_RANGE_MSK;
 2422              		.loc 1 1334 0
 2423 012c 03F10F01 		add	r1, r3, #15
 2424 0130 1AAF     		add	r7, sp, #104
 2425 0132 3944     		add	r1, r1, r7
 2426 0134 11F834CC 		ldrb	ip, [r1, #-52]	@ zero_extendqisi2
 2427 0138 1033     		adds	r3, r3, #16
 2428              	.LVL295:
 2429 013a 3946     		mov	r1, r7
 2430 013c 1944     		add	r1, r1, r3
ARM GAS  C:\Users\CHRONI~1\AppData\Local\Temp\ccho61l0.s 			page 81


 2431 013e 11F8347C 		ldrb	r7, [r1, #-52]	@ zero_extendqisi2
 2432 0142 B909     		lsrs	r1, r7, #6
 2433 0144 41EA8C01 		orr	r1, r1, ip, lsl #2
 2434 0148 0291     		str	r1, [sp, #8]
 2435              	.LVL296:
1335:SensorLib\bme688/bme68x.c ****         gas_range_h = buff[off + 16] & BME68X_GAS_RANGE_MSK;
 2436              		.loc 1 1335 0
 2437 014a 02F00F09 		and	r9, r2, #15
 2438              	.LVL297:
1336:SensorLib\bme688/bme68x.c ****         if (dev->variant_id == BME68X_VARIANT_GAS_HIGH)
 2439              		.loc 1 1336 0
 2440 014e 07F00F01 		and	r1, r7, #15
 2441 0152 0391     		str	r1, [sp, #12]
 2442              	.LVL298:
1337:SensorLib\bme688/bme68x.c ****         {
 2443              		.loc 1 1337 0
 2444 0154 D8F80810 		ldr	r1, [r8, #8]
 2445 0158 0129     		cmp	r1, #1
 2446 015a 12D1     		bne	.L148
1339:SensorLib\bme688/bme68x.c ****             data[i]->status |= buff[off + 16] & BME68X_HEAT_STAB_MSK;
 2447              		.loc 1 1339 0
 2448 015c 5BF82A20 		ldr	r2, [fp, r10, lsl #2]
 2449 0160 07F02007 		and	r7, r7, #32
 2450 0164 1178     		ldrb	r1, [r2]	@ zero_extendqisi2
 2451 0166 0F43     		orrs	r7, r7, r1
 2452 0168 1770     		strb	r7, [r2]
1340:SensorLib\bme688/bme68x.c ****         }
 2453              		.loc 1 1340 0
 2454 016a 5BF82A20 		ldr	r2, [fp, r10, lsl #2]
 2455 016e 1AA9     		add	r1, sp, #104
 2456 0170 0B44     		add	r3, r3, r1
 2457              	.LVL299:
 2458 0172 13F8343C 		ldrb	r3, [r3, #-52]	@ zero_extendqisi2
 2459 0176 03F01003 		and	r3, r3, #16
 2460 017a 1178     		ldrb	r1, [r2]	@ zero_extendqisi2
 2461 017c 0B43     		orrs	r3, r3, r1
 2462 017e 1370     		strb	r3, [r2]
 2463 0180 11E0     		b	.L149
 2464              	.L148:
1344:SensorLib\bme688/bme68x.c ****             data[i]->status |= buff[off + 14] & BME68X_HEAT_STAB_MSK;
 2465              		.loc 1 1344 0
 2466 0182 5BF82A30 		ldr	r3, [fp, r10, lsl #2]
 2467 0186 02F02002 		and	r2, r2, #32
 2468 018a 1978     		ldrb	r1, [r3]	@ zero_extendqisi2
 2469 018c 0A43     		orrs	r2, r2, r1
 2470 018e 1A70     		strb	r2, [r3]
1345:SensorLib\bme688/bme68x.c ****         }
 2471              		.loc 1 1345 0
 2472 0190 5BF82A20 		ldr	r2, [fp, r10, lsl #2]
 2473 0194 1AAB     		add	r3, sp, #104
 2474 0196 9E44     		add	lr, lr, r3
 2475              	.LVL300:
 2476 0198 1EF8343C 		ldrb	r3, [lr, #-52]	@ zero_extendqisi2
 2477 019c 03F01003 		and	r3, r3, #16
 2478 01a0 1178     		ldrb	r1, [r2]	@ zero_extendqisi2
 2479 01a2 0B43     		orrs	r3, r3, r1
 2480 01a4 1370     		strb	r3, [r2]
ARM GAS  C:\Users\CHRONI~1\AppData\Local\Temp\ccho61l0.s 			page 82


 2481              	.L149:
1348:SensorLib\bme688/bme68x.c ****         data[i]->res_heat = set_val[10 + data[i]->gas_index];
 2482              		.loc 1 1348 0
 2483 01a6 5BF80520 		ldr	r2, [fp, r5]
 2484 01aa 5378     		ldrb	r3, [r2, #1]	@ zero_extendqisi2
 2485 01ac 1AA9     		add	r1, sp, #104
 2486 01ae 0B44     		add	r3, r3, r1
 2487 01b0 13F8543C 		ldrb	r3, [r3, #-84]	@ zero_extendqisi2
 2488 01b4 1371     		strb	r3, [r2, #4]
1349:SensorLib\bme688/bme68x.c ****         data[i]->gas_wait = set_val[20 + data[i]->gas_index];
 2489              		.loc 1 1349 0
 2490 01b6 5BF80520 		ldr	r2, [fp, r5]
 2491 01ba 5378     		ldrb	r3, [r2, #1]	@ zero_extendqisi2
 2492 01bc 0A33     		adds	r3, r3, #10
 2493 01be 0B44     		add	r3, r3, r1
 2494 01c0 13F8543C 		ldrb	r3, [r3, #-84]	@ zero_extendqisi2
 2495 01c4 D370     		strb	r3, [r2, #3]
1350:SensorLib\bme688/bme68x.c ****         data[i]->temperature = calc_temperature(adc_temp, dev);
 2496              		.loc 1 1350 0
 2497 01c6 5BF80520 		ldr	r2, [fp, r5]
 2498 01ca 5378     		ldrb	r3, [r2, #1]	@ zero_extendqisi2
 2499 01cc 1433     		adds	r3, r3, #20
 2500 01ce 0B44     		add	r3, r3, r1
 2501 01d0 13F8543C 		ldrb	r3, [r3, #-84]	@ zero_extendqisi2
 2502 01d4 5371     		strb	r3, [r2, #5]
1351:SensorLib\bme688/bme68x.c ****         data[i]->pressure = calc_pressure(adc_pres, dev);
 2503              		.loc 1 1351 0
 2504 01d6 5BF80570 		ldr	r7, [fp, r5]
 2505 01da 4146     		mov	r1, r8
 2506 01dc FFF7FEFF 		bl	calc_temperature
 2507              	.LVL301:
 2508 01e0 F880     		strh	r0, [r7, #6]	@ movhi
1352:SensorLib\bme688/bme68x.c ****         data[i]->humidity = calc_humidity(adc_hum, dev);
 2509              		.loc 1 1352 0
 2510 01e2 5BF80570 		ldr	r7, [fp, r5]
 2511 01e6 4146     		mov	r1, r8
 2512 01e8 2046     		mov	r0, r4
 2513 01ea FFF7FEFF 		bl	calc_pressure
 2514              	.LVL302:
 2515 01ee B860     		str	r0, [r7, #8]
1353:SensorLib\bme688/bme68x.c ****         if (dev->variant_id == BME68X_VARIANT_GAS_HIGH)
 2516              		.loc 1 1353 0
 2517 01f0 5BF80540 		ldr	r4, [fp, r5]
 2518              	.LVL303:
 2519 01f4 4146     		mov	r1, r8
 2520 01f6 3046     		mov	r0, r6
 2521 01f8 FFF7FEFF 		bl	calc_humidity
 2522              	.LVL304:
 2523 01fc E060     		str	r0, [r4, #12]
1354:SensorLib\bme688/bme68x.c ****         {
 2524              		.loc 1 1354 0
 2525 01fe D8F80830 		ldr	r3, [r8, #8]
 2526 0202 012B     		cmp	r3, #1
 2527 0204 07D1     		bne	.L150
1356:SensorLib\bme688/bme68x.c ****         }
 2528              		.loc 1 1356 0
 2529 0206 5BF80540 		ldr	r4, [fp, r5]
ARM GAS  C:\Users\CHRONI~1\AppData\Local\Temp\ccho61l0.s 			page 83


 2530 020a 0399     		ldr	r1, [sp, #12]
 2531 020c 0298     		ldr	r0, [sp, #8]
 2532 020e FFF7FEFF 		bl	calc_gas_resistance_high
 2533              	.LVL305:
 2534 0212 2061     		str	r0, [r4, #16]
 2535 0214 07E0     		b	.L151
 2536              	.L150:
1360:SensorLib\bme688/bme68x.c ****         }
 2537              		.loc 1 1360 0
 2538 0216 5BF80540 		ldr	r4, [fp, r5]
 2539 021a 4246     		mov	r2, r8
 2540 021c 4946     		mov	r1, r9
 2541 021e 0198     		ldr	r0, [sp, #4]
 2542 0220 FFF7FEFF 		bl	calc_gas_resistance_low
 2543              	.LVL306:
 2544 0224 2061     		str	r0, [r4, #16]
 2545              	.L151:
1318:SensorLib\bme688/bme68x.c ****     {
 2546              		.loc 1 1318 0 discriminator 2
 2547 0226 0AF1010A 		add	r10, r10, #1
 2548              	.LVL307:
 2549 022a 5FFA8AFA 		uxtb	r10, r10
 2550              	.LVL308:
 2551              	.L147:
1318:SensorLib\bme688/bme68x.c ****     {
 2552              		.loc 1 1318 0 is_stmt 0 discriminator 1
 2553 022e BAF1020F 		cmp	r10, #2
 2554 0232 03D8     		bhi	.L152
1318:SensorLib\bme688/bme68x.c ****     {
 2555              		.loc 1 1318 0 discriminator 3
 2556 0234 009B     		ldr	r3, [sp]
 2557 0236 002B     		cmp	r3, #0
 2558 0238 3FF41BAF 		beq	.L153
 2559              	.L152:
1365:SensorLib\bme688/bme68x.c **** 
 2560              		.loc 1 1365 0 is_stmt 1
 2561 023c 0098     		ldr	r0, [sp]
 2562 023e 1BB0     		add	sp, sp, #108
 2563              		.cfi_def_cfa_offset 36
 2564              	.LVL309:
 2565              		@ sp needed
 2566 0240 BDE8F08F 		pop	{r4, r5, r6, r7, r8, r9, r10, fp, pc}
