ARM GAS  C:\Users\CHRONI~1\AppData\Local\Temp\ccho61l0.s 			page 1


   1              		.syntax unified
   2              		.cpu cortex-m3
   3              		.fpu softvfp
   4              		.eabi_attribute 20, 1
   5              		.eabi_attribute 21, 1
   6              		.eabi_attribute 23, 3
   7              		.eabi_attribute 24, 1
   8              		.eabi_attribute 25, 1
   9              		.eabi_attribute 26, 1
  10              		.eabi_attribute 30, 1
  11              		.eabi_attribute 34, 1
  12              		.eabi_attribute 18, 4
  13              		.thumb
  14              		.syntax unified
  15              		.file	"bme68x.c"
  16              		.text
  17              	.Ltext0:
  18              		.cfi_sections	.debug_frame
  19              		.section	.text.calc_temperature,"ax",%progbits
  20              		.align	2
  21              		.thumb
  22              		.thumb_func
  23              		.type	calc_temperature, %function
  24              	calc_temperature:
  25              	.LFB14:
  26              		.file 1 "SensorLib\\bme688\\bme68x.c"
   1:SensorLib\bme688/bme68x.c **** /**
   2:SensorLib\bme688/bme68x.c **** * Copyright (c) 2023 Bosch Sensortec GmbH. All rights reserved.
   3:SensorLib\bme688/bme68x.c **** *
   4:SensorLib\bme688/bme68x.c **** * BSD-3-Clause
   5:SensorLib\bme688/bme68x.c **** *
   6:SensorLib\bme688/bme68x.c **** * Redistribution and use in source and binary forms, with or without
   7:SensorLib\bme688/bme68x.c **** * modification, are permitted provided that the following conditions are met:
   8:SensorLib\bme688/bme68x.c **** *
   9:SensorLib\bme688/bme68x.c **** * 1. Redistributions of source code must retain the above copyright
  10:SensorLib\bme688/bme68x.c **** *    notice, this list of conditions and the following disclaimer.
  11:SensorLib\bme688/bme68x.c **** *
  12:SensorLib\bme688/bme68x.c **** * 2. Redistributions in binary form must reproduce the above copyright
  13:SensorLib\bme688/bme68x.c **** *    notice, this list of conditions and the following disclaimer in the
  14:SensorLib\bme688/bme68x.c **** *    documentation and/or other materials provided with the distribution.
  15:SensorLib\bme688/bme68x.c **** *
  16:SensorLib\bme688/bme68x.c **** * 3. Neither the name of the copyright holder nor the names of its
  17:SensorLib\bme688/bme68x.c **** *    contributors may be used to endorse or promote products derived from
  18:SensorLib\bme688/bme68x.c **** *    this software without specific prior written permission.
  19:SensorLib\bme688/bme68x.c **** *
  20:SensorLib\bme688/bme68x.c **** * THIS SOFTWARE IS PROVIDED BY THE COPYRIGHT HOLDERS AND CONTRIBUTORS
  21:SensorLib\bme688/bme68x.c **** * "AS IS" AND ANY EXPRESS OR IMPLIED WARRANTIES, INCLUDING, BUT NOT
  22:SensorLib\bme688/bme68x.c **** * LIMITED TO, THE IMPLIED WARRANTIES OF MERCHANTABILITY AND FITNESS
  23:SensorLib\bme688/bme68x.c **** * FOR A PARTICULAR PURPOSE ARE DISCLAIMED. IN NO EVENT SHALL THE
  24:SensorLib\bme688/bme68x.c **** * COPYRIGHT HOLDER OR CONTRIBUTORS BE LIABLE FOR ANY DIRECT, INDIRECT,
  25:SensorLib\bme688/bme68x.c **** * INCIDENTAL, SPECIAL, EXEMPLARY, OR CONSEQUENTIAL DAMAGES
  26:SensorLib\bme688/bme68x.c **** * (INCLUDING, BUT NOT LIMITED TO, PROCUREMENT OF SUBSTITUTE GOODS OR
  27:SensorLib\bme688/bme68x.c **** * SERVICES; LOSS OF USE, DATA, OR PROFITS; OR BUSINESS INTERRUPTION)
  28:SensorLib\bme688/bme68x.c **** * HOWEVER CAUSED AND ON ANY THEORY OF LIABILITY, WHETHER IN CONTRACT,
  29:SensorLib\bme688/bme68x.c **** * STRICT LIABILITY, OR TORT (INCLUDING NEGLIGENCE OR OTHERWISE) ARISING
  30:SensorLib\bme688/bme68x.c **** * IN ANY WAY OUT OF THE USE OF THIS SOFTWARE, EVEN IF ADVISED OF THE
  31:SensorLib\bme688/bme68x.c **** * POSSIBILITY OF SUCH DAMAGE.
ARM GAS  C:\Users\CHRONI~1\AppData\Local\Temp\ccho61l0.s 			page 2


  32:SensorLib\bme688/bme68x.c **** *
  33:SensorLib\bme688/bme68x.c **** * @file       bme68x.c
  34:SensorLib\bme688/bme68x.c **** * @date       2023-02-07
  35:SensorLib\bme688/bme68x.c **** * @version    v4.4.8
  36:SensorLib\bme688/bme68x.c **** *
  37:SensorLib\bme688/bme68x.c **** */
  38:SensorLib\bme688/bme68x.c **** 
  39:SensorLib\bme688/bme68x.c **** #include "bme68x.h"
  40:SensorLib\bme688/bme68x.c **** #include <stdio.h>
  41:SensorLib\bme688/bme68x.c **** 
  42:SensorLib\bme688/bme68x.c **** /* This internal API is used to read the calibration coefficients */
  43:SensorLib\bme688/bme68x.c **** static int8_t get_calib_data(struct bme68x_dev *dev);
  44:SensorLib\bme688/bme68x.c **** 
  45:SensorLib\bme688/bme68x.c **** /* This internal API is used to read variant ID information register status */
  46:SensorLib\bme688/bme68x.c **** static int8_t read_variant_id(struct bme68x_dev *dev);
  47:SensorLib\bme688/bme68x.c **** 
  48:SensorLib\bme688/bme68x.c **** /* This internal API is used to calculate the gas wait */
  49:SensorLib\bme688/bme68x.c **** static uint8_t calc_gas_wait(uint16_t dur);
  50:SensorLib\bme688/bme68x.c **** 
  51:SensorLib\bme688/bme68x.c **** #ifndef BME68X_USE_FPU
  52:SensorLib\bme688/bme68x.c **** 
  53:SensorLib\bme688/bme68x.c **** /* This internal API is used to calculate the temperature in integer */
  54:SensorLib\bme688/bme68x.c **** static int16_t calc_temperature(uint32_t temp_adc, struct bme68x_dev *dev);
  55:SensorLib\bme688/bme68x.c **** 
  56:SensorLib\bme688/bme68x.c **** /* This internal API is used to calculate the pressure in integer */
  57:SensorLib\bme688/bme68x.c **** static uint32_t calc_pressure(uint32_t pres_adc, const struct bme68x_dev *dev);
  58:SensorLib\bme688/bme68x.c **** 
  59:SensorLib\bme688/bme68x.c **** /* This internal API is used to calculate the humidity in integer */
  60:SensorLib\bme688/bme68x.c **** static uint32_t calc_humidity(uint16_t hum_adc, const struct bme68x_dev *dev);
  61:SensorLib\bme688/bme68x.c **** 
  62:SensorLib\bme688/bme68x.c **** /* This internal API is used to calculate the gas resistance high */
  63:SensorLib\bme688/bme68x.c **** static uint32_t calc_gas_resistance_high(uint16_t gas_res_adc, uint8_t gas_range);
  64:SensorLib\bme688/bme68x.c **** 
  65:SensorLib\bme688/bme68x.c **** /* This internal API is used to calculate the gas resistance low */
  66:SensorLib\bme688/bme68x.c **** static uint32_t calc_gas_resistance_low(uint16_t gas_res_adc, uint8_t gas_range, const struct bme68
  67:SensorLib\bme688/bme68x.c **** 
  68:SensorLib\bme688/bme68x.c **** /* This internal API is used to calculate the heater resistance using integer */
  69:SensorLib\bme688/bme68x.c **** static uint8_t calc_res_heat(uint16_t temp, const struct bme68x_dev *dev);
  70:SensorLib\bme688/bme68x.c **** 
  71:SensorLib\bme688/bme68x.c **** #else
  72:SensorLib\bme688/bme68x.c **** 
  73:SensorLib\bme688/bme68x.c **** /* This internal API is used to calculate the temperature value in float */
  74:SensorLib\bme688/bme68x.c **** static float calc_temperature(uint32_t temp_adc, struct bme68x_dev *dev);
  75:SensorLib\bme688/bme68x.c **** 
  76:SensorLib\bme688/bme68x.c **** /* This internal API is used to calculate the pressure value in float */
  77:SensorLib\bme688/bme68x.c **** static float calc_pressure(uint32_t pres_adc, const struct bme68x_dev *dev);
  78:SensorLib\bme688/bme68x.c **** 
  79:SensorLib\bme688/bme68x.c **** /* This internal API is used to calculate the humidity value in float */
  80:SensorLib\bme688/bme68x.c **** static float calc_humidity(uint16_t hum_adc, const struct bme68x_dev *dev);
  81:SensorLib\bme688/bme68x.c **** 
  82:SensorLib\bme688/bme68x.c **** /* This internal API is used to calculate the gas resistance high value in float */
  83:SensorLib\bme688/bme68x.c **** static float calc_gas_resistance_high(uint16_t gas_res_adc, uint8_t gas_range);
  84:SensorLib\bme688/bme68x.c **** 
  85:SensorLib\bme688/bme68x.c **** /* This internal API is used to calculate the gas resistance low value in float */
  86:SensorLib\bme688/bme68x.c **** static float calc_gas_resistance_low(uint16_t gas_res_adc, uint8_t gas_range, const struct bme68x_d
  87:SensorLib\bme688/bme68x.c **** 
  88:SensorLib\bme688/bme68x.c **** /* This internal API is used to calculate the heater resistance value using float */
ARM GAS  C:\Users\CHRONI~1\AppData\Local\Temp\ccho61l0.s 			page 3


  89:SensorLib\bme688/bme68x.c **** static uint8_t calc_res_heat(uint16_t temp, const struct bme68x_dev *dev);
  90:SensorLib\bme688/bme68x.c **** 
  91:SensorLib\bme688/bme68x.c **** #endif
  92:SensorLib\bme688/bme68x.c **** 
  93:SensorLib\bme688/bme68x.c **** /* This internal API is used to read a single data of the sensor */
  94:SensorLib\bme688/bme68x.c **** static int8_t read_field_data(uint8_t index, struct bme68x_data *data, struct bme68x_dev *dev);
  95:SensorLib\bme688/bme68x.c **** 
  96:SensorLib\bme688/bme68x.c **** /* This internal API is used to read all data fields of the sensor */
  97:SensorLib\bme688/bme68x.c **** static int8_t read_all_field_data(struct bme68x_data * const data[], struct bme68x_dev *dev);
  98:SensorLib\bme688/bme68x.c **** 
  99:SensorLib\bme688/bme68x.c **** /* This internal API is used to switch between SPI memory pages */
 100:SensorLib\bme688/bme68x.c **** static int8_t set_mem_page(uint8_t reg_addr, struct bme68x_dev *dev);
 101:SensorLib\bme688/bme68x.c **** 
 102:SensorLib\bme688/bme68x.c **** /* This internal API is used to get the current SPI memory page */
 103:SensorLib\bme688/bme68x.c **** static int8_t get_mem_page(struct bme68x_dev *dev);
 104:SensorLib\bme688/bme68x.c **** 
 105:SensorLib\bme688/bme68x.c **** /* This internal API is used to check the bme68x_dev for null pointers */
 106:SensorLib\bme688/bme68x.c **** static int8_t null_ptr_check(const struct bme68x_dev *dev);
 107:SensorLib\bme688/bme68x.c **** 
 108:SensorLib\bme688/bme68x.c **** /* This internal API is used to set heater configurations */
 109:SensorLib\bme688/bme68x.c **** static int8_t set_conf(const struct bme68x_heatr_conf *conf, uint8_t op_mode, uint8_t *nb_conv, str
 110:SensorLib\bme688/bme68x.c **** 
 111:SensorLib\bme688/bme68x.c **** /* This internal API is used to limit the max value of a parameter */
 112:SensorLib\bme688/bme68x.c **** static int8_t boundary_check(uint8_t *value, uint8_t max, struct bme68x_dev *dev);
 113:SensorLib\bme688/bme68x.c **** 
 114:SensorLib\bme688/bme68x.c **** /* This internal API is used to calculate the register value for
 115:SensorLib\bme688/bme68x.c ****  * shared heater duration */
 116:SensorLib\bme688/bme68x.c **** static uint8_t calc_heatr_dur_shared(uint16_t dur);
 117:SensorLib\bme688/bme68x.c **** 
 118:SensorLib\bme688/bme68x.c **** /* This internal API is used to swap two fields */
 119:SensorLib\bme688/bme68x.c **** static void swap_fields(uint8_t index1, uint8_t index2, struct bme68x_data *field[]);
 120:SensorLib\bme688/bme68x.c **** 
 121:SensorLib\bme688/bme68x.c **** /* This internal API is used sort the sensor data */
 122:SensorLib\bme688/bme68x.c **** static void sort_sensor_data(uint8_t low_index, uint8_t high_index, struct bme68x_data *field[]);
 123:SensorLib\bme688/bme68x.c **** 
 124:SensorLib\bme688/bme68x.c **** /*
 125:SensorLib\bme688/bme68x.c ****  * @brief       Function to analyze the sensor data
 126:SensorLib\bme688/bme68x.c ****  *
 127:SensorLib\bme688/bme68x.c ****  * @param[in]   data    Array of measurement data
 128:SensorLib\bme688/bme68x.c ****  * @param[in]   n_meas  Number of measurements
 129:SensorLib\bme688/bme68x.c ****  *
 130:SensorLib\bme688/bme68x.c ****  * @return Result of API execution status
 131:SensorLib\bme688/bme68x.c ****  * @retval 0 -> Success
 132:SensorLib\bme688/bme68x.c ****  * @retval < 0 -> Fail
 133:SensorLib\bme688/bme68x.c ****  */
 134:SensorLib\bme688/bme68x.c **** static int8_t analyze_sensor_data(const struct bme68x_data *data, uint8_t n_meas);
 135:SensorLib\bme688/bme68x.c **** 
 136:SensorLib\bme688/bme68x.c **** /******************************************************************************************/
 137:SensorLib\bme688/bme68x.c **** /*                                 Global API definitions                                 */
 138:SensorLib\bme688/bme68x.c **** /******************************************************************************************/
 139:SensorLib\bme688/bme68x.c **** 
 140:SensorLib\bme688/bme68x.c **** /* @brief This API reads the chip-id of the sensor which is the first step to
 141:SensorLib\bme688/bme68x.c **** * verify the sensor and also calibrates the sensor
 142:SensorLib\bme688/bme68x.c **** * As this API is the entry point, call this API before using other APIs.
 143:SensorLib\bme688/bme68x.c **** */
 144:SensorLib\bme688/bme68x.c **** int8_t bme68x_init(struct bme68x_dev *dev)
 145:SensorLib\bme688/bme68x.c **** {
ARM GAS  C:\Users\CHRONI~1\AppData\Local\Temp\ccho61l0.s 			page 4


 146:SensorLib\bme688/bme68x.c ****   
 147:SensorLib\bme688/bme68x.c ****     int8_t rslt;
 148:SensorLib\bme688/bme68x.c **** 
 149:SensorLib\bme688/bme68x.c ****     (void) bme68x_soft_reset(dev);
 150:SensorLib\bme688/bme68x.c **** 
 151:SensorLib\bme688/bme68x.c ****     rslt = bme68x_get_regs(BME68X_REG_CHIP_ID, &dev->chip_id, 1, dev);
 152:SensorLib\bme688/bme68x.c **** 
 153:SensorLib\bme688/bme68x.c ****     if (rslt == BME68X_OK)
 154:SensorLib\bme688/bme68x.c ****     {
 155:SensorLib\bme688/bme68x.c ****         if (dev->chip_id == BME68X_CHIP_ID)
 156:SensorLib\bme688/bme68x.c ****         {
 157:SensorLib\bme688/bme68x.c ****             /* Read Variant ID */
 158:SensorLib\bme688/bme68x.c ****             rslt = read_variant_id(dev);
 159:SensorLib\bme688/bme68x.c **** 
 160:SensorLib\bme688/bme68x.c ****             if (rslt == BME68X_OK)
 161:SensorLib\bme688/bme68x.c ****             {
 162:SensorLib\bme688/bme68x.c ****                 /* Get the Calibration data */
 163:SensorLib\bme688/bme68x.c ****                 rslt = get_calib_data(dev);
 164:SensorLib\bme688/bme68x.c ****             }
 165:SensorLib\bme688/bme68x.c ****         }
 166:SensorLib\bme688/bme68x.c ****         else
 167:SensorLib\bme688/bme68x.c ****         {
 168:SensorLib\bme688/bme68x.c ****             rslt = BME68X_E_DEV_NOT_FOUND;
 169:SensorLib\bme688/bme68x.c ****         }
 170:SensorLib\bme688/bme68x.c ****     }
 171:SensorLib\bme688/bme68x.c **** 
 172:SensorLib\bme688/bme68x.c ****     return rslt;
 173:SensorLib\bme688/bme68x.c **** }
 174:SensorLib\bme688/bme68x.c **** 
 175:SensorLib\bme688/bme68x.c **** /*
 176:SensorLib\bme688/bme68x.c ****  * @brief This API writes the given data to the register address of the sensor
 177:SensorLib\bme688/bme68x.c ****  */
 178:SensorLib\bme688/bme68x.c **** int8_t bme68x_set_regs(const uint8_t *reg_addr, const uint8_t *reg_data, uint32_t len, struct bme68
 179:SensorLib\bme688/bme68x.c **** {
 180:SensorLib\bme688/bme68x.c ****     int8_t rslt;
 181:SensorLib\bme688/bme68x.c **** 
 182:SensorLib\bme688/bme68x.c ****     /* Length of the temporary buffer is 2*(length of register)*/
 183:SensorLib\bme688/bme68x.c ****     uint8_t tmp_buff[BME68X_LEN_INTERLEAVE_BUFF] = { 0 };
 184:SensorLib\bme688/bme68x.c ****     uint16_t index;
 185:SensorLib\bme688/bme68x.c **** 
 186:SensorLib\bme688/bme68x.c ****     /* Check for null pointer in the device structure*/
 187:SensorLib\bme688/bme68x.c ****     rslt = null_ptr_check(dev);
 188:SensorLib\bme688/bme68x.c ****     if ((rslt == BME68X_OK) && reg_addr && reg_data)
 189:SensorLib\bme688/bme68x.c ****     {
 190:SensorLib\bme688/bme68x.c ****         if ((len > 0) && (len <= (BME68X_LEN_INTERLEAVE_BUFF / 2)))
 191:SensorLib\bme688/bme68x.c ****         {
 192:SensorLib\bme688/bme68x.c ****             /* Interleave the 2 arrays */
 193:SensorLib\bme688/bme68x.c ****             for (index = 0; index < len; index++)
 194:SensorLib\bme688/bme68x.c ****             {
 195:SensorLib\bme688/bme68x.c ****                 if (dev->intf == BME68X_SPI_INTF)
 196:SensorLib\bme688/bme68x.c ****                 {
 197:SensorLib\bme688/bme68x.c ****                     /* Set the memory page */
 198:SensorLib\bme688/bme68x.c ****                     rslt = set_mem_page(reg_addr[index], dev);
 199:SensorLib\bme688/bme68x.c ****                     tmp_buff[(2 * index)] = reg_addr[index] & BME68X_SPI_WR_MSK;
 200:SensorLib\bme688/bme68x.c ****                 }
 201:SensorLib\bme688/bme68x.c ****                 else
 202:SensorLib\bme688/bme68x.c ****                 {
ARM GAS  C:\Users\CHRONI~1\AppData\Local\Temp\ccho61l0.s 			page 5


 203:SensorLib\bme688/bme68x.c ****                     tmp_buff[(2 * index)] = reg_addr[index];
 204:SensorLib\bme688/bme68x.c ****                 }
 205:SensorLib\bme688/bme68x.c **** 
 206:SensorLib\bme688/bme68x.c ****                 tmp_buff[(2 * index) + 1] = reg_data[index];
 207:SensorLib\bme688/bme68x.c ****             }
 208:SensorLib\bme688/bme68x.c **** 
 209:SensorLib\bme688/bme68x.c ****             /* Write the interleaved array */
 210:SensorLib\bme688/bme68x.c ****             if (rslt == BME68X_OK)
 211:SensorLib\bme688/bme68x.c ****             {
 212:SensorLib\bme688/bme68x.c ****                 dev->intf_rslt = dev->write(tmp_buff[0], &tmp_buff[1], (2 * len) - 1, dev->intf_ptr
 213:SensorLib\bme688/bme68x.c ****                 if (dev->intf_rslt != 0)
 214:SensorLib\bme688/bme68x.c ****                 {
 215:SensorLib\bme688/bme68x.c ****                     rslt = BME68X_E_COM_FAIL;
 216:SensorLib\bme688/bme68x.c ****                 }
 217:SensorLib\bme688/bme68x.c ****             }
 218:SensorLib\bme688/bme68x.c ****         }
 219:SensorLib\bme688/bme68x.c ****         else
 220:SensorLib\bme688/bme68x.c ****         {
 221:SensorLib\bme688/bme68x.c ****             rslt = BME68X_E_INVALID_LENGTH;
 222:SensorLib\bme688/bme68x.c ****         }
 223:SensorLib\bme688/bme68x.c ****     }
 224:SensorLib\bme688/bme68x.c ****     else
 225:SensorLib\bme688/bme68x.c ****     {
 226:SensorLib\bme688/bme68x.c ****         rslt = BME68X_E_NULL_PTR;
 227:SensorLib\bme688/bme68x.c ****     }
 228:SensorLib\bme688/bme68x.c **** 
 229:SensorLib\bme688/bme68x.c ****     return rslt;
 230:SensorLib\bme688/bme68x.c **** }
 231:SensorLib\bme688/bme68x.c **** 
 232:SensorLib\bme688/bme68x.c **** /*
 233:SensorLib\bme688/bme68x.c ****  * @brief This API reads the data from the given register address of sensor.
 234:SensorLib\bme688/bme68x.c ****  */
 235:SensorLib\bme688/bme68x.c **** int8_t bme68x_get_regs(uint8_t reg_addr, uint8_t *reg_data, uint32_t len, struct bme68x_dev *dev)
 236:SensorLib\bme688/bme68x.c **** {
 237:SensorLib\bme688/bme68x.c ****     int8_t rslt;
 238:SensorLib\bme688/bme68x.c **** 
 239:SensorLib\bme688/bme68x.c ****     /* Check for null pointer in the device structure*/
 240:SensorLib\bme688/bme68x.c ****     rslt = null_ptr_check(dev);
 241:SensorLib\bme688/bme68x.c ****     if ((rslt == BME68X_OK) && reg_data)
 242:SensorLib\bme688/bme68x.c ****     {
 243:SensorLib\bme688/bme68x.c ****         if (dev->intf == BME68X_SPI_INTF)
 244:SensorLib\bme688/bme68x.c ****         {
 245:SensorLib\bme688/bme68x.c ****             /* Set the memory page */
 246:SensorLib\bme688/bme68x.c ****             rslt = set_mem_page(reg_addr, dev);
 247:SensorLib\bme688/bme68x.c ****             if (rslt == BME68X_OK)
 248:SensorLib\bme688/bme68x.c ****             {
 249:SensorLib\bme688/bme68x.c ****                 reg_addr = reg_addr | BME68X_SPI_RD_MSK;
 250:SensorLib\bme688/bme68x.c ****             }
 251:SensorLib\bme688/bme68x.c ****         }
 252:SensorLib\bme688/bme68x.c **** 
 253:SensorLib\bme688/bme68x.c ****         dev->intf_rslt = dev->read(reg_addr, reg_data, len, dev->intf_ptr);
 254:SensorLib\bme688/bme68x.c ****         if (dev->intf_rslt != 0)
 255:SensorLib\bme688/bme68x.c ****         {
 256:SensorLib\bme688/bme68x.c ****             rslt = BME68X_E_COM_FAIL;
 257:SensorLib\bme688/bme68x.c ****         }
 258:SensorLib\bme688/bme68x.c ****     }
 259:SensorLib\bme688/bme68x.c ****     else
ARM GAS  C:\Users\CHRONI~1\AppData\Local\Temp\ccho61l0.s 			page 6


 260:SensorLib\bme688/bme68x.c ****     {
 261:SensorLib\bme688/bme68x.c ****         rslt = BME68X_E_NULL_PTR;
 262:SensorLib\bme688/bme68x.c ****     }
 263:SensorLib\bme688/bme68x.c **** 
 264:SensorLib\bme688/bme68x.c ****     return rslt;
 265:SensorLib\bme688/bme68x.c **** }
 266:SensorLib\bme688/bme68x.c **** 
 267:SensorLib\bme688/bme68x.c **** /*
 268:SensorLib\bme688/bme68x.c ****  * @brief This API soft-resets the sensor.
 269:SensorLib\bme688/bme68x.c ****  */
 270:SensorLib\bme688/bme68x.c **** int8_t bme68x_soft_reset(struct bme68x_dev *dev)
 271:SensorLib\bme688/bme68x.c **** {
 272:SensorLib\bme688/bme68x.c ****     int8_t rslt;
 273:SensorLib\bme688/bme68x.c ****     uint8_t reg_addr = BME68X_REG_SOFT_RESET;
 274:SensorLib\bme688/bme68x.c **** 
 275:SensorLib\bme688/bme68x.c ****     /* 0xb6 is the soft reset command */
 276:SensorLib\bme688/bme68x.c ****     uint8_t soft_rst_cmd = BME68X_SOFT_RESET_CMD;
 277:SensorLib\bme688/bme68x.c **** 
 278:SensorLib\bme688/bme68x.c ****     /* Check for null pointer in the device structure*/
 279:SensorLib\bme688/bme68x.c ****     rslt = null_ptr_check(dev);
 280:SensorLib\bme688/bme68x.c ****     if (rslt == BME68X_OK)
 281:SensorLib\bme688/bme68x.c ****     {
 282:SensorLib\bme688/bme68x.c ****         if (dev->intf == BME68X_SPI_INTF)
 283:SensorLib\bme688/bme68x.c ****         {
 284:SensorLib\bme688/bme68x.c ****             rslt = get_mem_page(dev);
 285:SensorLib\bme688/bme68x.c ****         }
 286:SensorLib\bme688/bme68x.c **** 
 287:SensorLib\bme688/bme68x.c ****         /* Reset the device */
 288:SensorLib\bme688/bme68x.c ****         if (rslt == BME68X_OK)
 289:SensorLib\bme688/bme68x.c ****         {
 290:SensorLib\bme688/bme68x.c ****             rslt = bme68x_set_regs(&reg_addr, &soft_rst_cmd, 1, dev);
 291:SensorLib\bme688/bme68x.c **** 
 292:SensorLib\bme688/bme68x.c ****             if (rslt == BME68X_OK)
 293:SensorLib\bme688/bme68x.c ****             {
 294:SensorLib\bme688/bme68x.c ****                 /* Wait for 5ms */
 295:SensorLib\bme688/bme68x.c ****                 dev->delay_us(BME68X_PERIOD_RESET, dev->intf_ptr);
 296:SensorLib\bme688/bme68x.c **** 
 297:SensorLib\bme688/bme68x.c ****                 /* After reset get the memory page */
 298:SensorLib\bme688/bme68x.c ****                 if (dev->intf == BME68X_SPI_INTF)
 299:SensorLib\bme688/bme68x.c ****                 {
 300:SensorLib\bme688/bme68x.c ****                     rslt = get_mem_page(dev);
 301:SensorLib\bme688/bme68x.c ****                 }
 302:SensorLib\bme688/bme68x.c ****             }
 303:SensorLib\bme688/bme68x.c ****         }
 304:SensorLib\bme688/bme68x.c ****     }
 305:SensorLib\bme688/bme68x.c **** 
 306:SensorLib\bme688/bme68x.c ****     return rslt;
 307:SensorLib\bme688/bme68x.c **** }
 308:SensorLib\bme688/bme68x.c **** 
 309:SensorLib\bme688/bme68x.c **** /*
 310:SensorLib\bme688/bme68x.c ****  * @brief This API is used to set the oversampling, filter and odr configuration
 311:SensorLib\bme688/bme68x.c ****  */
 312:SensorLib\bme688/bme68x.c **** int8_t bme68x_set_conf(struct bme68x_conf *conf, struct bme68x_dev *dev)
 313:SensorLib\bme688/bme68x.c **** {
 314:SensorLib\bme688/bme68x.c ****     int8_t rslt;
 315:SensorLib\bme688/bme68x.c ****     uint8_t odr20 = 0, odr3 = 1;
 316:SensorLib\bme688/bme68x.c ****     uint8_t current_op_mode;
ARM GAS  C:\Users\CHRONI~1\AppData\Local\Temp\ccho61l0.s 			page 7


 317:SensorLib\bme688/bme68x.c **** 
 318:SensorLib\bme688/bme68x.c ****     /* Register data starting from BME68X_REG_CTRL_GAS_1(0x71) up to BME68X_REG_CONFIG(0x75) */
 319:SensorLib\bme688/bme68x.c ****     uint8_t reg_array[BME68X_LEN_CONFIG] = { 0x71, 0x72, 0x73, 0x74, 0x75 };
 320:SensorLib\bme688/bme68x.c ****     uint8_t data_array[BME68X_LEN_CONFIG] = { 0 };
 321:SensorLib\bme688/bme68x.c **** 
 322:SensorLib\bme688/bme68x.c ****     rslt = bme68x_get_op_mode(&current_op_mode, dev);
 323:SensorLib\bme688/bme68x.c ****     if (rslt == BME68X_OK)
 324:SensorLib\bme688/bme68x.c ****     {
 325:SensorLib\bme688/bme68x.c ****         /* Configure only in the sleep mode */
 326:SensorLib\bme688/bme68x.c ****         rslt = bme68x_set_op_mode(BME68X_SLEEP_MODE, dev);
 327:SensorLib\bme688/bme68x.c ****     }
 328:SensorLib\bme688/bme68x.c **** 
 329:SensorLib\bme688/bme68x.c ****     if (conf == NULL)
 330:SensorLib\bme688/bme68x.c ****     {
 331:SensorLib\bme688/bme68x.c ****         rslt = BME68X_E_NULL_PTR;
 332:SensorLib\bme688/bme68x.c ****     }
 333:SensorLib\bme688/bme68x.c ****     else if (rslt == BME68X_OK)
 334:SensorLib\bme688/bme68x.c ****     {
 335:SensorLib\bme688/bme68x.c ****         /* Read the whole configuration and write it back once later */
 336:SensorLib\bme688/bme68x.c ****         rslt = bme68x_get_regs(reg_array[0], data_array, BME68X_LEN_CONFIG, dev);
 337:SensorLib\bme688/bme68x.c ****         dev->info_msg = BME68X_OK;
 338:SensorLib\bme688/bme68x.c ****         if (rslt == BME68X_OK)
 339:SensorLib\bme688/bme68x.c ****         {
 340:SensorLib\bme688/bme68x.c ****             rslt = boundary_check(&conf->filter, BME68X_FILTER_SIZE_127, dev);
 341:SensorLib\bme688/bme68x.c ****         }
 342:SensorLib\bme688/bme68x.c **** 
 343:SensorLib\bme688/bme68x.c ****         if (rslt == BME68X_OK)
 344:SensorLib\bme688/bme68x.c ****         {
 345:SensorLib\bme688/bme68x.c ****             rslt = boundary_check(&conf->os_temp, BME68X_OS_16X, dev);
 346:SensorLib\bme688/bme68x.c ****         }
 347:SensorLib\bme688/bme68x.c **** 
 348:SensorLib\bme688/bme68x.c ****         if (rslt == BME68X_OK)
 349:SensorLib\bme688/bme68x.c ****         {
 350:SensorLib\bme688/bme68x.c ****             rslt = boundary_check(&conf->os_pres, BME68X_OS_16X, dev);
 351:SensorLib\bme688/bme68x.c ****         }
 352:SensorLib\bme688/bme68x.c **** 
 353:SensorLib\bme688/bme68x.c ****         if (rslt == BME68X_OK)
 354:SensorLib\bme688/bme68x.c ****         {
 355:SensorLib\bme688/bme68x.c ****             rslt = boundary_check(&conf->os_hum, BME68X_OS_16X, dev);
 356:SensorLib\bme688/bme68x.c ****         }
 357:SensorLib\bme688/bme68x.c **** 
 358:SensorLib\bme688/bme68x.c ****         if (rslt == BME68X_OK)
 359:SensorLib\bme688/bme68x.c ****         {
 360:SensorLib\bme688/bme68x.c ****             rslt = boundary_check(&conf->odr, BME68X_ODR_NONE, dev);
 361:SensorLib\bme688/bme68x.c ****         }
 362:SensorLib\bme688/bme68x.c **** 
 363:SensorLib\bme688/bme68x.c ****         if (rslt == BME68X_OK)
 364:SensorLib\bme688/bme68x.c ****         {
 365:SensorLib\bme688/bme68x.c ****             data_array[4] = BME68X_SET_BITS(data_array[4], BME68X_FILTER, conf->filter);
 366:SensorLib\bme688/bme68x.c ****             data_array[3] = BME68X_SET_BITS(data_array[3], BME68X_OST, conf->os_temp);
 367:SensorLib\bme688/bme68x.c ****             data_array[3] = BME68X_SET_BITS(data_array[3], BME68X_OSP, conf->os_pres);
 368:SensorLib\bme688/bme68x.c ****             data_array[1] = BME68X_SET_BITS_POS_0(data_array[1], BME68X_OSH, conf->os_hum);
 369:SensorLib\bme688/bme68x.c ****             if (conf->odr != BME68X_ODR_NONE)
 370:SensorLib\bme688/bme68x.c ****             {
 371:SensorLib\bme688/bme68x.c ****                 odr20 = conf->odr;
 372:SensorLib\bme688/bme68x.c ****                 odr3 = 0;
 373:SensorLib\bme688/bme68x.c ****             }
ARM GAS  C:\Users\CHRONI~1\AppData\Local\Temp\ccho61l0.s 			page 8


 374:SensorLib\bme688/bme68x.c **** 
 375:SensorLib\bme688/bme68x.c ****             data_array[4] = BME68X_SET_BITS(data_array[4], BME68X_ODR20, odr20);
 376:SensorLib\bme688/bme68x.c ****             data_array[0] = BME68X_SET_BITS(data_array[0], BME68X_ODR3, odr3);
 377:SensorLib\bme688/bme68x.c ****         }
 378:SensorLib\bme688/bme68x.c ****     }
 379:SensorLib\bme688/bme68x.c **** 
 380:SensorLib\bme688/bme68x.c ****     if (rslt == BME68X_OK)
 381:SensorLib\bme688/bme68x.c ****     {
 382:SensorLib\bme688/bme68x.c ****         rslt = bme68x_set_regs(reg_array, data_array, BME68X_LEN_CONFIG, dev);
 383:SensorLib\bme688/bme68x.c ****     }
 384:SensorLib\bme688/bme68x.c **** 
 385:SensorLib\bme688/bme68x.c ****     if ((current_op_mode != BME68X_SLEEP_MODE) && (rslt == BME68X_OK))
 386:SensorLib\bme688/bme68x.c ****     {
 387:SensorLib\bme688/bme68x.c ****         rslt = bme68x_set_op_mode(current_op_mode, dev);
 388:SensorLib\bme688/bme68x.c ****     }
 389:SensorLib\bme688/bme68x.c **** 
 390:SensorLib\bme688/bme68x.c ****     return rslt;
 391:SensorLib\bme688/bme68x.c **** }
 392:SensorLib\bme688/bme68x.c **** 
 393:SensorLib\bme688/bme68x.c **** /*
 394:SensorLib\bme688/bme68x.c ****  * @brief This API is used to get the oversampling, filter and odr
 395:SensorLib\bme688/bme68x.c ****  */
 396:SensorLib\bme688/bme68x.c **** int8_t bme68x_get_conf(struct bme68x_conf *conf, struct bme68x_dev *dev)
 397:SensorLib\bme688/bme68x.c **** {
 398:SensorLib\bme688/bme68x.c ****     int8_t rslt;
 399:SensorLib\bme688/bme68x.c **** 
 400:SensorLib\bme688/bme68x.c ****     /* starting address of the register array for burst read*/
 401:SensorLib\bme688/bme68x.c ****     uint8_t reg_addr = BME68X_REG_CTRL_GAS_1;
 402:SensorLib\bme688/bme68x.c ****     uint8_t data_array[BME68X_LEN_CONFIG];
 403:SensorLib\bme688/bme68x.c **** 
 404:SensorLib\bme688/bme68x.c ****     rslt = bme68x_get_regs(reg_addr, data_array, 5, dev);
 405:SensorLib\bme688/bme68x.c ****     if (!conf)
 406:SensorLib\bme688/bme68x.c ****     {
 407:SensorLib\bme688/bme68x.c ****         rslt = BME68X_E_NULL_PTR;
 408:SensorLib\bme688/bme68x.c ****     }
 409:SensorLib\bme688/bme68x.c ****     else if (rslt == BME68X_OK)
 410:SensorLib\bme688/bme68x.c ****     {
 411:SensorLib\bme688/bme68x.c ****         conf->os_hum = BME68X_GET_BITS_POS_0(data_array[1], BME68X_OSH);
 412:SensorLib\bme688/bme68x.c ****         conf->filter = BME68X_GET_BITS(data_array[4], BME68X_FILTER);
 413:SensorLib\bme688/bme68x.c ****         conf->os_temp = BME68X_GET_BITS(data_array[3], BME68X_OST);
 414:SensorLib\bme688/bme68x.c ****         conf->os_pres = BME68X_GET_BITS(data_array[3], BME68X_OSP);
 415:SensorLib\bme688/bme68x.c ****         if (BME68X_GET_BITS(data_array[0], BME68X_ODR3))
 416:SensorLib\bme688/bme68x.c ****         {
 417:SensorLib\bme688/bme68x.c ****             conf->odr = BME68X_ODR_NONE;
 418:SensorLib\bme688/bme68x.c ****         }
 419:SensorLib\bme688/bme68x.c ****         else
 420:SensorLib\bme688/bme68x.c ****         {
 421:SensorLib\bme688/bme68x.c ****             conf->odr = BME68X_GET_BITS(data_array[4], BME68X_ODR20);
 422:SensorLib\bme688/bme68x.c ****         }
 423:SensorLib\bme688/bme68x.c ****     }
 424:SensorLib\bme688/bme68x.c **** 
 425:SensorLib\bme688/bme68x.c ****     return rslt;
 426:SensorLib\bme688/bme68x.c **** }
 427:SensorLib\bme688/bme68x.c **** 
 428:SensorLib\bme688/bme68x.c **** /*
 429:SensorLib\bme688/bme68x.c ****  * @brief This API is used to set the operation mode of the sensor
 430:SensorLib\bme688/bme68x.c ****  */
ARM GAS  C:\Users\CHRONI~1\AppData\Local\Temp\ccho61l0.s 			page 9


 431:SensorLib\bme688/bme68x.c **** int8_t bme68x_set_op_mode(const uint8_t op_mode, struct bme68x_dev *dev)
 432:SensorLib\bme688/bme68x.c **** {
 433:SensorLib\bme688/bme68x.c ****     int8_t rslt;
 434:SensorLib\bme688/bme68x.c ****     uint8_t tmp_pow_mode;
 435:SensorLib\bme688/bme68x.c ****     uint8_t pow_mode = 0;
 436:SensorLib\bme688/bme68x.c ****     uint8_t reg_addr = BME68X_REG_CTRL_MEAS;
 437:SensorLib\bme688/bme68x.c **** 
 438:SensorLib\bme688/bme68x.c ****     /* Call until in sleep */
 439:SensorLib\bme688/bme68x.c ****     do
 440:SensorLib\bme688/bme68x.c ****     {
 441:SensorLib\bme688/bme68x.c ****         rslt = bme68x_get_regs(BME68X_REG_CTRL_MEAS, &tmp_pow_mode, 1, dev);
 442:SensorLib\bme688/bme68x.c ****         if (rslt == BME68X_OK)
 443:SensorLib\bme688/bme68x.c ****         {
 444:SensorLib\bme688/bme68x.c ****             /* Put to sleep before changing mode */
 445:SensorLib\bme688/bme68x.c ****             pow_mode = (tmp_pow_mode & BME68X_MODE_MSK);
 446:SensorLib\bme688/bme68x.c ****             if (pow_mode != BME68X_SLEEP_MODE)
 447:SensorLib\bme688/bme68x.c ****             {
 448:SensorLib\bme688/bme68x.c ****                 tmp_pow_mode &= ~BME68X_MODE_MSK; /* Set to sleep */
 449:SensorLib\bme688/bme68x.c ****                 rslt = bme68x_set_regs(&reg_addr, &tmp_pow_mode, 1, dev);
 450:SensorLib\bme688/bme68x.c ****                 dev->delay_us(BME68X_PERIOD_POLL, dev->intf_ptr);
 451:SensorLib\bme688/bme68x.c ****             }
 452:SensorLib\bme688/bme68x.c ****         }
 453:SensorLib\bme688/bme68x.c ****     } while ((pow_mode != BME68X_SLEEP_MODE) && (rslt == BME68X_OK));
 454:SensorLib\bme688/bme68x.c **** 
 455:SensorLib\bme688/bme68x.c ****     /* Already in sleep */
 456:SensorLib\bme688/bme68x.c ****     if ((op_mode != BME68X_SLEEP_MODE) && (rslt == BME68X_OK))
 457:SensorLib\bme688/bme68x.c ****     {
 458:SensorLib\bme688/bme68x.c ****         tmp_pow_mode = (tmp_pow_mode & ~BME68X_MODE_MSK) | (op_mode & BME68X_MODE_MSK);
 459:SensorLib\bme688/bme68x.c ****         rslt = bme68x_set_regs(&reg_addr, &tmp_pow_mode, 1, dev);
 460:SensorLib\bme688/bme68x.c ****     }
 461:SensorLib\bme688/bme68x.c **** 
 462:SensorLib\bme688/bme68x.c ****     return rslt;
 463:SensorLib\bme688/bme68x.c **** }
 464:SensorLib\bme688/bme68x.c **** 
 465:SensorLib\bme688/bme68x.c **** /*
 466:SensorLib\bme688/bme68x.c ****  * @brief This API is used to get the operation mode of the sensor.
 467:SensorLib\bme688/bme68x.c ****  */
 468:SensorLib\bme688/bme68x.c **** int8_t bme68x_get_op_mode(uint8_t *op_mode, struct bme68x_dev *dev)
 469:SensorLib\bme688/bme68x.c **** {
 470:SensorLib\bme688/bme68x.c ****     int8_t rslt;
 471:SensorLib\bme688/bme68x.c ****     uint8_t mode;
 472:SensorLib\bme688/bme68x.c **** 
 473:SensorLib\bme688/bme68x.c ****     if (op_mode)
 474:SensorLib\bme688/bme68x.c ****     {
 475:SensorLib\bme688/bme68x.c ****         rslt = bme68x_get_regs(BME68X_REG_CTRL_MEAS, &mode, 1, dev);
 476:SensorLib\bme688/bme68x.c **** 
 477:SensorLib\bme688/bme68x.c ****         /* Masking the other register bit info*/
 478:SensorLib\bme688/bme68x.c ****         *op_mode = mode & BME68X_MODE_MSK;
 479:SensorLib\bme688/bme68x.c ****     }
 480:SensorLib\bme688/bme68x.c ****     else
 481:SensorLib\bme688/bme68x.c ****     {
 482:SensorLib\bme688/bme68x.c ****         rslt = BME68X_E_NULL_PTR;
 483:SensorLib\bme688/bme68x.c ****     }
 484:SensorLib\bme688/bme68x.c **** 
 485:SensorLib\bme688/bme68x.c ****     return rslt;
 486:SensorLib\bme688/bme68x.c **** }
 487:SensorLib\bme688/bme68x.c **** 
ARM GAS  C:\Users\CHRONI~1\AppData\Local\Temp\ccho61l0.s 			page 10


 488:SensorLib\bme688/bme68x.c **** /*
 489:SensorLib\bme688/bme68x.c ****  * @brief This API is used to get the remaining duration that can be used for heating.
 490:SensorLib\bme688/bme68x.c ****  */
 491:SensorLib\bme688/bme68x.c **** uint32_t bme68x_get_meas_dur(const uint8_t op_mode, struct bme68x_conf *conf, struct bme68x_dev *de
 492:SensorLib\bme688/bme68x.c **** {
 493:SensorLib\bme688/bme68x.c ****     int8_t rslt;
 494:SensorLib\bme688/bme68x.c ****     uint32_t meas_dur = 0; /* Calculate in us */
 495:SensorLib\bme688/bme68x.c ****     uint32_t meas_cycles;
 496:SensorLib\bme688/bme68x.c ****     uint8_t os_to_meas_cycles[6] = { 0, 1, 2, 4, 8, 16 };
 497:SensorLib\bme688/bme68x.c **** 
 498:SensorLib\bme688/bme68x.c ****     if (conf != NULL)
 499:SensorLib\bme688/bme68x.c ****     {
 500:SensorLib\bme688/bme68x.c ****         /* Boundary check for temperature oversampling */
 501:SensorLib\bme688/bme68x.c ****         rslt = boundary_check(&conf->os_temp, BME68X_OS_16X, dev);
 502:SensorLib\bme688/bme68x.c **** 
 503:SensorLib\bme688/bme68x.c ****         if (rslt == BME68X_OK)
 504:SensorLib\bme688/bme68x.c ****         {
 505:SensorLib\bme688/bme68x.c ****             /* Boundary check for pressure oversampling */
 506:SensorLib\bme688/bme68x.c ****             rslt = boundary_check(&conf->os_pres, BME68X_OS_16X, dev);
 507:SensorLib\bme688/bme68x.c ****         }
 508:SensorLib\bme688/bme68x.c **** 
 509:SensorLib\bme688/bme68x.c ****         if (rslt == BME68X_OK)
 510:SensorLib\bme688/bme68x.c ****         {
 511:SensorLib\bme688/bme68x.c ****             /* Boundary check for humidity oversampling */
 512:SensorLib\bme688/bme68x.c ****             rslt = boundary_check(&conf->os_hum, BME68X_OS_16X, dev);
 513:SensorLib\bme688/bme68x.c ****         }
 514:SensorLib\bme688/bme68x.c **** 
 515:SensorLib\bme688/bme68x.c ****         if (rslt == BME68X_OK)
 516:SensorLib\bme688/bme68x.c ****         {
 517:SensorLib\bme688/bme68x.c ****             meas_cycles = os_to_meas_cycles[conf->os_temp];
 518:SensorLib\bme688/bme68x.c ****             meas_cycles += os_to_meas_cycles[conf->os_pres];
 519:SensorLib\bme688/bme68x.c ****             meas_cycles += os_to_meas_cycles[conf->os_hum];
 520:SensorLib\bme688/bme68x.c **** 
 521:SensorLib\bme688/bme68x.c ****             /* TPH measurement duration */
 522:SensorLib\bme688/bme68x.c ****             meas_dur = meas_cycles * UINT32_C(1963);
 523:SensorLib\bme688/bme68x.c ****             meas_dur += UINT32_C(477 * 4); /* TPH switching duration */
 524:SensorLib\bme688/bme68x.c ****             meas_dur += UINT32_C(477 * 5); /* Gas measurement duration */
 525:SensorLib\bme688/bme68x.c **** 
 526:SensorLib\bme688/bme68x.c ****             if (op_mode != BME68X_PARALLEL_MODE)
 527:SensorLib\bme688/bme68x.c ****             {
 528:SensorLib\bme688/bme68x.c ****                 meas_dur += UINT32_C(1000); /* Wake up duration of 1ms */
 529:SensorLib\bme688/bme68x.c ****             }
 530:SensorLib\bme688/bme68x.c ****         }
 531:SensorLib\bme688/bme68x.c ****     }
 532:SensorLib\bme688/bme68x.c **** 
 533:SensorLib\bme688/bme68x.c ****     return meas_dur;
 534:SensorLib\bme688/bme68x.c **** }
 535:SensorLib\bme688/bme68x.c **** 
 536:SensorLib\bme688/bme68x.c **** /*
 537:SensorLib\bme688/bme68x.c ****  * @brief This API reads the pressure, temperature and humidity and gas data
 538:SensorLib\bme688/bme68x.c ****  * from the sensor, compensates the data and store it in the bme68x_data
 539:SensorLib\bme688/bme68x.c ****  * structure instance passed by the user.
 540:SensorLib\bme688/bme68x.c ****  */
 541:SensorLib\bme688/bme68x.c **** int8_t bme68x_get_data(uint8_t op_mode, struct bme68x_data *data, uint8_t *n_data, struct bme68x_de
 542:SensorLib\bme688/bme68x.c **** {
 543:SensorLib\bme688/bme68x.c ****     int8_t rslt;
 544:SensorLib\bme688/bme68x.c ****     uint8_t i = 0, j = 0, new_fields = 0;
ARM GAS  C:\Users\CHRONI~1\AppData\Local\Temp\ccho61l0.s 			page 11


 545:SensorLib\bme688/bme68x.c ****     struct bme68x_data *field_ptr[3] = { 0 };
 546:SensorLib\bme688/bme68x.c ****     struct bme68x_data field_data[3] = { { 0 } };
 547:SensorLib\bme688/bme68x.c **** 
 548:SensorLib\bme688/bme68x.c ****     field_ptr[0] = &field_data[0];
 549:SensorLib\bme688/bme68x.c ****     field_ptr[1] = &field_data[1];
 550:SensorLib\bme688/bme68x.c ****     field_ptr[2] = &field_data[2];
 551:SensorLib\bme688/bme68x.c **** 
 552:SensorLib\bme688/bme68x.c ****     rslt = null_ptr_check(dev);
 553:SensorLib\bme688/bme68x.c ****     if ((rslt == BME68X_OK) && (data != NULL))
 554:SensorLib\bme688/bme68x.c ****     {
 555:SensorLib\bme688/bme68x.c ****         /* Reading the sensor data in forced mode only */
 556:SensorLib\bme688/bme68x.c ****         if (op_mode == BME68X_FORCED_MODE)
 557:SensorLib\bme688/bme68x.c ****         {
 558:SensorLib\bme688/bme68x.c ****             rslt = read_field_data(0, data, dev);
 559:SensorLib\bme688/bme68x.c ****             if (rslt == BME68X_OK)
 560:SensorLib\bme688/bme68x.c ****             {
 561:SensorLib\bme688/bme68x.c ****                 if (data->status & BME68X_NEW_DATA_MSK)
 562:SensorLib\bme688/bme68x.c ****                 {
 563:SensorLib\bme688/bme68x.c ****                     new_fields = 1;
 564:SensorLib\bme688/bme68x.c ****                 }
 565:SensorLib\bme688/bme68x.c ****                 else
 566:SensorLib\bme688/bme68x.c ****                 {
 567:SensorLib\bme688/bme68x.c ****                     new_fields = 0;
 568:SensorLib\bme688/bme68x.c ****                     rslt = BME68X_W_NO_NEW_DATA;
 569:SensorLib\bme688/bme68x.c ****                 }
 570:SensorLib\bme688/bme68x.c ****             }
 571:SensorLib\bme688/bme68x.c ****         }
 572:SensorLib\bme688/bme68x.c ****         else if ((op_mode == BME68X_PARALLEL_MODE) || (op_mode == BME68X_SEQUENTIAL_MODE))
 573:SensorLib\bme688/bme68x.c ****         {
 574:SensorLib\bme688/bme68x.c ****             /* Read the 3 fields and count the number of new data fields */
 575:SensorLib\bme688/bme68x.c ****             rslt = read_all_field_data(field_ptr, dev);
 576:SensorLib\bme688/bme68x.c **** 
 577:SensorLib\bme688/bme68x.c ****             new_fields = 0;
 578:SensorLib\bme688/bme68x.c ****             for (i = 0; (i < 3) && (rslt == BME68X_OK); i++)
 579:SensorLib\bme688/bme68x.c ****             {
 580:SensorLib\bme688/bme68x.c ****                 if (field_ptr[i]->status & BME68X_NEW_DATA_MSK)
 581:SensorLib\bme688/bme68x.c ****                 {
 582:SensorLib\bme688/bme68x.c ****                     new_fields++;
 583:SensorLib\bme688/bme68x.c ****                 }
 584:SensorLib\bme688/bme68x.c ****             }
 585:SensorLib\bme688/bme68x.c **** 
 586:SensorLib\bme688/bme68x.c ****             /* Sort the sensor data in parallel & sequential modes*/
 587:SensorLib\bme688/bme68x.c ****             for (i = 0; (i < 2) && (rslt == BME68X_OK); i++)
 588:SensorLib\bme688/bme68x.c ****             {
 589:SensorLib\bme688/bme68x.c ****                 for (j = i + 1; j < 3; j++)
 590:SensorLib\bme688/bme68x.c ****                 {
 591:SensorLib\bme688/bme68x.c ****                     sort_sensor_data(i, j, field_ptr);
 592:SensorLib\bme688/bme68x.c ****                 }
 593:SensorLib\bme688/bme68x.c ****             }
 594:SensorLib\bme688/bme68x.c **** 
 595:SensorLib\bme688/bme68x.c ****             /* Copy the sorted data */
 596:SensorLib\bme688/bme68x.c ****             for (i = 0; ((i < 3) && (rslt == BME68X_OK)); i++)
 597:SensorLib\bme688/bme68x.c ****             {
 598:SensorLib\bme688/bme68x.c ****                 data[i] = *field_ptr[i];
 599:SensorLib\bme688/bme68x.c ****             }
 600:SensorLib\bme688/bme68x.c **** 
 601:SensorLib\bme688/bme68x.c ****             if (new_fields == 0)
ARM GAS  C:\Users\CHRONI~1\AppData\Local\Temp\ccho61l0.s 			page 12


 602:SensorLib\bme688/bme68x.c ****             {
 603:SensorLib\bme688/bme68x.c ****                 rslt = BME68X_W_NO_NEW_DATA;
 604:SensorLib\bme688/bme68x.c ****             }
 605:SensorLib\bme688/bme68x.c ****         }
 606:SensorLib\bme688/bme68x.c ****         else
 607:SensorLib\bme688/bme68x.c ****         {
 608:SensorLib\bme688/bme68x.c ****             rslt = BME68X_W_DEFINE_OP_MODE;
 609:SensorLib\bme688/bme68x.c ****         }
 610:SensorLib\bme688/bme68x.c **** 
 611:SensorLib\bme688/bme68x.c ****         if (n_data == NULL)
 612:SensorLib\bme688/bme68x.c ****         {
 613:SensorLib\bme688/bme68x.c ****             rslt = BME68X_E_NULL_PTR;
 614:SensorLib\bme688/bme68x.c ****         }
 615:SensorLib\bme688/bme68x.c ****         else
 616:SensorLib\bme688/bme68x.c ****         {
 617:SensorLib\bme688/bme68x.c ****             *n_data = new_fields;
 618:SensorLib\bme688/bme68x.c ****         }
 619:SensorLib\bme688/bme68x.c ****     }
 620:SensorLib\bme688/bme68x.c ****     else
 621:SensorLib\bme688/bme68x.c ****     {
 622:SensorLib\bme688/bme68x.c ****         rslt = BME68X_E_NULL_PTR;
 623:SensorLib\bme688/bme68x.c ****     }
 624:SensorLib\bme688/bme68x.c **** 
 625:SensorLib\bme688/bme68x.c ****     return rslt;
 626:SensorLib\bme688/bme68x.c **** }
 627:SensorLib\bme688/bme68x.c **** 
 628:SensorLib\bme688/bme68x.c **** /*
 629:SensorLib\bme688/bme68x.c ****  * @brief This API is used to set the gas configuration of the sensor.
 630:SensorLib\bme688/bme68x.c ****  */
 631:SensorLib\bme688/bme68x.c **** int8_t bme68x_set_heatr_conf(uint8_t op_mode, const struct bme68x_heatr_conf *conf, struct bme68x_d
 632:SensorLib\bme688/bme68x.c **** {
 633:SensorLib\bme688/bme68x.c ****     int8_t rslt;
 634:SensorLib\bme688/bme68x.c ****     uint8_t nb_conv = 0;
 635:SensorLib\bme688/bme68x.c ****     uint8_t hctrl, run_gas = 0;
 636:SensorLib\bme688/bme68x.c ****     uint8_t ctrl_gas_data[2];
 637:SensorLib\bme688/bme68x.c ****     uint8_t ctrl_gas_addr[2] = { BME68X_REG_CTRL_GAS_0, BME68X_REG_CTRL_GAS_1 };
 638:SensorLib\bme688/bme68x.c **** 
 639:SensorLib\bme688/bme68x.c ****     if (conf != NULL)
 640:SensorLib\bme688/bme68x.c ****     {
 641:SensorLib\bme688/bme68x.c ****         rslt = bme68x_set_op_mode(BME68X_SLEEP_MODE, dev);
 642:SensorLib\bme688/bme68x.c ****         if (rslt == BME68X_OK)
 643:SensorLib\bme688/bme68x.c ****         {
 644:SensorLib\bme688/bme68x.c ****             rslt = set_conf(conf, op_mode, &nb_conv, dev);
 645:SensorLib\bme688/bme68x.c ****         }
 646:SensorLib\bme688/bme68x.c **** 
 647:SensorLib\bme688/bme68x.c ****         if (rslt == BME68X_OK)
 648:SensorLib\bme688/bme68x.c ****         {
 649:SensorLib\bme688/bme68x.c ****             rslt = bme68x_get_regs(BME68X_REG_CTRL_GAS_0, ctrl_gas_data, 2, dev);
 650:SensorLib\bme688/bme68x.c ****             if (rslt == BME68X_OK)
 651:SensorLib\bme688/bme68x.c ****             {
 652:SensorLib\bme688/bme68x.c ****                 if (conf->enable == BME68X_ENABLE)
 653:SensorLib\bme688/bme68x.c ****                 {
 654:SensorLib\bme688/bme68x.c ****                     hctrl = BME68X_ENABLE_HEATER;
 655:SensorLib\bme688/bme68x.c ****                     if (dev->variant_id == BME68X_VARIANT_GAS_HIGH)
 656:SensorLib\bme688/bme68x.c ****                     {
 657:SensorLib\bme688/bme68x.c ****                         run_gas = BME68X_ENABLE_GAS_MEAS_H;
 658:SensorLib\bme688/bme68x.c ****                     }
ARM GAS  C:\Users\CHRONI~1\AppData\Local\Temp\ccho61l0.s 			page 13


 659:SensorLib\bme688/bme68x.c ****                     else
 660:SensorLib\bme688/bme68x.c ****                     {
 661:SensorLib\bme688/bme68x.c ****                         run_gas = BME68X_ENABLE_GAS_MEAS_L;
 662:SensorLib\bme688/bme68x.c ****                     }
 663:SensorLib\bme688/bme68x.c ****                 }
 664:SensorLib\bme688/bme68x.c ****                 else
 665:SensorLib\bme688/bme68x.c ****                 {
 666:SensorLib\bme688/bme68x.c ****                     hctrl = BME68X_DISABLE_HEATER;
 667:SensorLib\bme688/bme68x.c ****                     run_gas = BME68X_DISABLE_GAS_MEAS;
 668:SensorLib\bme688/bme68x.c ****                 }
 669:SensorLib\bme688/bme68x.c **** 
 670:SensorLib\bme688/bme68x.c ****                 ctrl_gas_data[0] = BME68X_SET_BITS(ctrl_gas_data[0], BME68X_HCTRL, hctrl);
 671:SensorLib\bme688/bme68x.c ****                 ctrl_gas_data[1] = BME68X_SET_BITS_POS_0(ctrl_gas_data[1], BME68X_NBCONV, nb_conv);
 672:SensorLib\bme688/bme68x.c ****                 ctrl_gas_data[1] = BME68X_SET_BITS(ctrl_gas_data[1], BME68X_RUN_GAS, run_gas);
 673:SensorLib\bme688/bme68x.c ****                 rslt = bme68x_set_regs(ctrl_gas_addr, ctrl_gas_data, 2, dev);
 674:SensorLib\bme688/bme68x.c ****             }
 675:SensorLib\bme688/bme68x.c ****         }
 676:SensorLib\bme688/bme68x.c ****     }
 677:SensorLib\bme688/bme68x.c ****     else
 678:SensorLib\bme688/bme68x.c ****     {
 679:SensorLib\bme688/bme68x.c ****         rslt = BME68X_E_NULL_PTR;
 680:SensorLib\bme688/bme68x.c ****     }
 681:SensorLib\bme688/bme68x.c **** 
 682:SensorLib\bme688/bme68x.c ****     return rslt;
 683:SensorLib\bme688/bme68x.c **** }
 684:SensorLib\bme688/bme68x.c **** 
 685:SensorLib\bme688/bme68x.c **** /*!
 686:SensorLib\bme688/bme68x.c ****  * @brief This API is used to get the gas configuration of the sensor.
 687:SensorLib\bme688/bme68x.c ****  */
 688:SensorLib\bme688/bme68x.c **** int8_t bme68x_get_heatr_conf(const struct bme68x_heatr_conf *conf, struct bme68x_dev *dev)
 689:SensorLib\bme688/bme68x.c **** {
 690:SensorLib\bme688/bme68x.c ****     int8_t rslt = BME68X_OK;
 691:SensorLib\bme688/bme68x.c ****     uint8_t data_array[10] = { 0 };
 692:SensorLib\bme688/bme68x.c ****     uint8_t i;
 693:SensorLib\bme688/bme68x.c **** 
 694:SensorLib\bme688/bme68x.c ****     if ((conf != NULL) && (conf->heatr_dur_prof != NULL) && (conf->heatr_temp_prof != NULL))
 695:SensorLib\bme688/bme68x.c ****     {
 696:SensorLib\bme688/bme68x.c ****         /* FIXME: Add conversion to deg C and ms and add the other parameters */
 697:SensorLib\bme688/bme68x.c ****         rslt = bme68x_get_regs(BME68X_REG_RES_HEAT0, data_array, 10, dev);
 698:SensorLib\bme688/bme68x.c **** 
 699:SensorLib\bme688/bme68x.c ****         if (rslt == BME68X_OK)
 700:SensorLib\bme688/bme68x.c ****         {
 701:SensorLib\bme688/bme68x.c ****             for (i = 0; i < conf->profile_len; i++)
 702:SensorLib\bme688/bme68x.c ****             {
 703:SensorLib\bme688/bme68x.c ****                 conf->heatr_temp_prof[i] = data_array[i];
 704:SensorLib\bme688/bme68x.c ****             }
 705:SensorLib\bme688/bme68x.c **** 
 706:SensorLib\bme688/bme68x.c ****             rslt = bme68x_get_regs(BME68X_REG_GAS_WAIT0, data_array, 10, dev);
 707:SensorLib\bme688/bme68x.c **** 
 708:SensorLib\bme688/bme68x.c ****             if (rslt == BME68X_OK)
 709:SensorLib\bme688/bme68x.c ****             {
 710:SensorLib\bme688/bme68x.c ****                 for (i = 0; i < conf->profile_len; i++)
 711:SensorLib\bme688/bme68x.c ****                 {
 712:SensorLib\bme688/bme68x.c ****                     conf->heatr_dur_prof[i] = data_array[i];
 713:SensorLib\bme688/bme68x.c ****                 }
 714:SensorLib\bme688/bme68x.c ****             }
 715:SensorLib\bme688/bme68x.c ****         }
ARM GAS  C:\Users\CHRONI~1\AppData\Local\Temp\ccho61l0.s 			page 14


 716:SensorLib\bme688/bme68x.c ****     }
 717:SensorLib\bme688/bme68x.c ****     else
 718:SensorLib\bme688/bme68x.c ****     {
 719:SensorLib\bme688/bme68x.c ****         rslt = BME68X_E_NULL_PTR;
 720:SensorLib\bme688/bme68x.c ****     }
 721:SensorLib\bme688/bme68x.c **** 
 722:SensorLib\bme688/bme68x.c ****     return rslt;
 723:SensorLib\bme688/bme68x.c **** }
 724:SensorLib\bme688/bme68x.c **** 
 725:SensorLib\bme688/bme68x.c **** /*
 726:SensorLib\bme688/bme68x.c ****  * @brief This API performs Self-test of low and high gas variants of BME68X
 727:SensorLib\bme688/bme68x.c ****  */
 728:SensorLib\bme688/bme68x.c **** int8_t bme68x_selftest_check(const struct bme68x_dev *dev)
 729:SensorLib\bme688/bme68x.c **** {
 730:SensorLib\bme688/bme68x.c ****     int8_t rslt;
 731:SensorLib\bme688/bme68x.c ****     uint8_t n_fields;
 732:SensorLib\bme688/bme68x.c ****     uint8_t i = 0;
 733:SensorLib\bme688/bme68x.c ****     struct bme68x_data data[BME68X_N_MEAS] = { { 0 } };
 734:SensorLib\bme688/bme68x.c ****     struct bme68x_dev t_dev;
 735:SensorLib\bme688/bme68x.c ****     struct bme68x_conf conf;
 736:SensorLib\bme688/bme68x.c ****     struct bme68x_heatr_conf heatr_conf;
 737:SensorLib\bme688/bme68x.c **** 
 738:SensorLib\bme688/bme68x.c ****     rslt = null_ptr_check(dev);
 739:SensorLib\bme688/bme68x.c **** 
 740:SensorLib\bme688/bme68x.c ****     if (rslt == BME68X_OK)
 741:SensorLib\bme688/bme68x.c ****     {
 742:SensorLib\bme688/bme68x.c ****         /* Copy required parameters from reference bme68x_dev struct */
 743:SensorLib\bme688/bme68x.c ****         t_dev.amb_temp = 25;
 744:SensorLib\bme688/bme68x.c ****         t_dev.read = dev->read;
 745:SensorLib\bme688/bme68x.c ****         t_dev.write = dev->write;
 746:SensorLib\bme688/bme68x.c ****         t_dev.intf = dev->intf;
 747:SensorLib\bme688/bme68x.c ****         t_dev.delay_us = dev->delay_us;
 748:SensorLib\bme688/bme68x.c ****         t_dev.intf_ptr = dev->intf_ptr;
 749:SensorLib\bme688/bme68x.c **** 
 750:SensorLib\bme688/bme68x.c ****         rslt = bme68x_init(&t_dev);
 751:SensorLib\bme688/bme68x.c ****     }
 752:SensorLib\bme688/bme68x.c **** 
 753:SensorLib\bme688/bme68x.c ****     if (rslt == BME68X_OK)
 754:SensorLib\bme688/bme68x.c ****     {
 755:SensorLib\bme688/bme68x.c ****         /* Set the temperature, pressure and humidity & filter settings */
 756:SensorLib\bme688/bme68x.c ****         conf.os_hum = BME68X_OS_1X;
 757:SensorLib\bme688/bme68x.c ****         conf.os_pres = BME68X_OS_16X;
 758:SensorLib\bme688/bme68x.c ****         conf.os_temp = BME68X_OS_2X;
 759:SensorLib\bme688/bme68x.c **** 
 760:SensorLib\bme688/bme68x.c ****         /* Set the remaining gas sensor settings and link the heating profile */
 761:SensorLib\bme688/bme68x.c ****         heatr_conf.enable = BME68X_ENABLE;
 762:SensorLib\bme688/bme68x.c ****         heatr_conf.heatr_dur = BME68X_HEATR_DUR1;
 763:SensorLib\bme688/bme68x.c ****         heatr_conf.heatr_temp = BME68X_HIGH_TEMP;
 764:SensorLib\bme688/bme68x.c ****         rslt = bme68x_set_heatr_conf(BME68X_FORCED_MODE, &heatr_conf, &t_dev);
 765:SensorLib\bme688/bme68x.c ****         if (rslt == BME68X_OK)
 766:SensorLib\bme688/bme68x.c ****         {
 767:SensorLib\bme688/bme68x.c ****             rslt = bme68x_set_conf(&conf, &t_dev);
 768:SensorLib\bme688/bme68x.c ****             if (rslt == BME68X_OK)
 769:SensorLib\bme688/bme68x.c ****             {
 770:SensorLib\bme688/bme68x.c ****                 rslt = bme68x_set_op_mode(BME68X_FORCED_MODE, &t_dev); /* Trigger a measurement */
 771:SensorLib\bme688/bme68x.c ****                 if (rslt == BME68X_OK)
 772:SensorLib\bme688/bme68x.c ****                 {
ARM GAS  C:\Users\CHRONI~1\AppData\Local\Temp\ccho61l0.s 			page 15


 773:SensorLib\bme688/bme68x.c ****                     /* Wait for the measurement to complete */
 774:SensorLib\bme688/bme68x.c ****                     t_dev.delay_us(BME68X_HEATR_DUR1_DELAY, t_dev.intf_ptr);
 775:SensorLib\bme688/bme68x.c ****                     rslt = bme68x_get_data(BME68X_FORCED_MODE, &data[0], &n_fields, &t_dev);
 776:SensorLib\bme688/bme68x.c ****                     if (rslt == BME68X_OK)
 777:SensorLib\bme688/bme68x.c ****                     {
 778:SensorLib\bme688/bme68x.c ****                         if ((data[0].idac != 0x00) && (data[0].idac != 0xFF) &&
 779:SensorLib\bme688/bme68x.c ****                             (data[0].status & BME68X_GASM_VALID_MSK))
 780:SensorLib\bme688/bme68x.c ****                         {
 781:SensorLib\bme688/bme68x.c ****                             rslt = BME68X_OK;
 782:SensorLib\bme688/bme68x.c ****                         }
 783:SensorLib\bme688/bme68x.c ****                         else
 784:SensorLib\bme688/bme68x.c ****                         {
 785:SensorLib\bme688/bme68x.c ****                             rslt = BME68X_E_SELF_TEST;
 786:SensorLib\bme688/bme68x.c ****                         }
 787:SensorLib\bme688/bme68x.c ****                     }
 788:SensorLib\bme688/bme68x.c ****                 }
 789:SensorLib\bme688/bme68x.c ****             }
 790:SensorLib\bme688/bme68x.c ****         }
 791:SensorLib\bme688/bme68x.c **** 
 792:SensorLib\bme688/bme68x.c ****         heatr_conf.heatr_dur = BME68X_HEATR_DUR2;
 793:SensorLib\bme688/bme68x.c ****         while ((rslt == BME68X_OK) && (i < BME68X_N_MEAS))
 794:SensorLib\bme688/bme68x.c ****         {
 795:SensorLib\bme688/bme68x.c ****             if (i % 2 == 0)
 796:SensorLib\bme688/bme68x.c ****             {
 797:SensorLib\bme688/bme68x.c ****                 heatr_conf.heatr_temp = BME68X_HIGH_TEMP; /* Higher temperature */
 798:SensorLib\bme688/bme68x.c ****             }
 799:SensorLib\bme688/bme68x.c ****             else
 800:SensorLib\bme688/bme68x.c ****             {
 801:SensorLib\bme688/bme68x.c ****                 heatr_conf.heatr_temp = BME68X_LOW_TEMP; /* Lower temperature */
 802:SensorLib\bme688/bme68x.c ****             }
 803:SensorLib\bme688/bme68x.c **** 
 804:SensorLib\bme688/bme68x.c ****             rslt = bme68x_set_heatr_conf(BME68X_FORCED_MODE, &heatr_conf, &t_dev);
 805:SensorLib\bme688/bme68x.c ****             if (rslt == BME68X_OK)
 806:SensorLib\bme688/bme68x.c ****             {
 807:SensorLib\bme688/bme68x.c ****                 rslt = bme68x_set_conf(&conf, &t_dev);
 808:SensorLib\bme688/bme68x.c ****                 if (rslt == BME68X_OK)
 809:SensorLib\bme688/bme68x.c ****                 {
 810:SensorLib\bme688/bme68x.c ****                     rslt = bme68x_set_op_mode(BME68X_FORCED_MODE, &t_dev); /* Trigger a measurement
 811:SensorLib\bme688/bme68x.c ****                     if (rslt == BME68X_OK)
 812:SensorLib\bme688/bme68x.c ****                     {
 813:SensorLib\bme688/bme68x.c ****                         /* Wait for the measurement to complete */
 814:SensorLib\bme688/bme68x.c ****                         t_dev.delay_us(BME68X_HEATR_DUR2_DELAY, t_dev.intf_ptr);
 815:SensorLib\bme688/bme68x.c ****                         rslt = bme68x_get_data(BME68X_FORCED_MODE, &data[i], &n_fields, &t_dev);
 816:SensorLib\bme688/bme68x.c ****                     }
 817:SensorLib\bme688/bme68x.c ****                 }
 818:SensorLib\bme688/bme68x.c ****             }
 819:SensorLib\bme688/bme68x.c **** 
 820:SensorLib\bme688/bme68x.c ****             i++;
 821:SensorLib\bme688/bme68x.c ****         }
 822:SensorLib\bme688/bme68x.c **** 
 823:SensorLib\bme688/bme68x.c ****         if (rslt == BME68X_OK)
 824:SensorLib\bme688/bme68x.c ****         {
 825:SensorLib\bme688/bme68x.c ****             rslt = analyze_sensor_data(data, BME68X_N_MEAS);
 826:SensorLib\bme688/bme68x.c ****         }
 827:SensorLib\bme688/bme68x.c ****     }
 828:SensorLib\bme688/bme68x.c **** 
 829:SensorLib\bme688/bme68x.c ****     return rslt;
ARM GAS  C:\Users\CHRONI~1\AppData\Local\Temp\ccho61l0.s 			page 16


 830:SensorLib\bme688/bme68x.c **** }
 831:SensorLib\bme688/bme68x.c **** 
 832:SensorLib\bme688/bme68x.c **** /*****************************INTERNAL APIs***********************************************/
 833:SensorLib\bme688/bme68x.c **** #ifndef BME68X_USE_FPU
 834:SensorLib\bme688/bme68x.c **** 
 835:SensorLib\bme688/bme68x.c **** /* @brief This internal API is used to calculate the temperature value. */
 836:SensorLib\bme688/bme68x.c **** static int16_t calc_temperature(uint32_t temp_adc, struct bme68x_dev *dev)
 837:SensorLib\bme688/bme68x.c **** {
  27              		.loc 1 837 0
  28              		.cfi_startproc
  29              		@ args = 0, pretend = 0, frame = 0
  30              		@ frame_needed = 0, uses_anonymous_args = 0
  31              		@ link register save eliminated.
  32              	.LVL0:
  33 0000 F0B4     		push	{r4, r5, r6, r7}
  34              		.cfi_def_cfa_offset 16
  35              		.cfi_offset 4, -16
  36              		.cfi_offset 5, -12
  37              		.cfi_offset 6, -8
  38              		.cfi_offset 7, -4
 838:SensorLib\bme688/bme68x.c ****     int64_t var1;
 839:SensorLib\bme688/bme68x.c ****     int64_t var2;
 840:SensorLib\bme688/bme68x.c ****     int64_t var3;
 841:SensorLib\bme688/bme68x.c ****     int16_t calc_temp;
 842:SensorLib\bme688/bme68x.c **** 
 843:SensorLib\bme688/bme68x.c ****     /*lint -save -e701 -e702 -e704 */
 844:SensorLib\bme688/bme68x.c ****     var1 = ((int32_t)temp_adc >> 3) - ((int32_t)dev->calib.par_t1 << 1);
  39              		.loc 1 844 0
  40 0002 CC8B     		ldrh	r4, [r1, #30]
  41 0004 6400     		lsls	r4, r4, #1
  42 0006 C4EBE000 		rsb	r0, r4, r0, asr #3
  43              	.LVL1:
  44 000a 0246     		mov	r2, r0
  45 000c C317     		asrs	r3, r0, #31
  46              	.LVL2:
 845:SensorLib\bme688/bme68x.c ****     var2 = (var1 * (int32_t)dev->calib.par_t2) >> 11;
  47              		.loc 1 845 0
  48 000e B1F92040 		ldrsh	r4, [r1, #32]
  49 0012 E517     		asrs	r5, r4, #31
  50 0014 04FB03F6 		mul	r6, r4, r3
  51 0018 00FB0566 		mla	r6, r0, r5, r6
  52 001c A4FB0045 		umull	r4, r5, r4, r0
  53 0020 3544     		add	r5, r5, r6
  54 0022 E00A     		lsrs	r0, r4, #11
  55 0024 40EA4550 		orr	r0, r0, r5, lsl #21
  56              	.LVL3:
 846:SensorLib\bme688/bme68x.c ****     var3 = ((var1 >> 1) * (var1 >> 1)) >> 12;
  57              		.loc 1 846 0
  58 0028 5B10     		movs	r3, r3, asr #1
  59 002a 4FEA3202 		mov	r2, r2, rrx
  60              	.LVL4:
  61 002e 02FB03F4 		mul	r4, r2, r3
  62              	.LVL5:
  63 0032 A2FB0223 		umull	r2, r3, r2, r2
  64 0036 03EB4403 		add	r3, r3, r4, lsl #1
  65 003a 140B     		lsrs	r4, r2, #12
  66 003c 44EA0354 		orr	r4, r4, r3, lsl #20
ARM GAS  C:\Users\CHRONI~1\AppData\Local\Temp\ccho61l0.s 			page 17


  67 0040 1A13     		asrs	r2, r3, #12
  68              	.LVL6:
 847:SensorLib\bme688/bme68x.c ****     var3 = ((var3) * ((int32_t)dev->calib.par_t3 << 4)) >> 14;
  69              		.loc 1 847 0
  70 0042 91F92230 		ldrsb	r3, [r1, #34]
  71 0046 1B01     		lsls	r3, r3, #4
  72 0048 DF17     		asrs	r7, r3, #31
  73 004a 03FB02F2 		mul	r2, r3, r2
  74              	.LVL7:
  75 004e 04FB0722 		mla	r2, r4, r7, r2
  76 0052 A3FB0445 		umull	r4, r5, r3, r4
  77 0056 1544     		add	r5, r5, r2
  78 0058 A30B     		lsrs	r3, r4, #14
  79 005a 43EA8543 		orr	r3, r3, r5, lsl #18
  80              	.LVL8:
 848:SensorLib\bme688/bme68x.c ****     dev->calib.t_fine = (int32_t)(var2 + var3);
  81              		.loc 1 848 0
  82 005e 1844     		add	r0, r0, r3
  83              	.LVL9:
  84 0060 8863     		str	r0, [r1, #56]
 849:SensorLib\bme688/bme68x.c ****     calc_temp = (int16_t)(((dev->calib.t_fine * 5) + 128) >> 8);
  85              		.loc 1 849 0
  86 0062 00EB8000 		add	r0, r0, r0, lsl #2
  87 0066 8030     		adds	r0, r0, #128
  88              	.LVL10:
 850:SensorLib\bme688/bme68x.c **** 
 851:SensorLib\bme688/bme68x.c ****     /*lint -restore */
 852:SensorLib\bme688/bme68x.c ****     return calc_temp;
 853:SensorLib\bme688/bme68x.c **** }
  89              		.loc 1 853 0
  90 0068 40F30F20 		sbfx	r0, r0, #8, #16
  91              	.LVL11:
  92 006c F0BC     		pop	{r4, r5, r6, r7}
  93              		.cfi_restore 7
  94              		.cfi_restore 6
  95              		.cfi_restore 5
  96              		.cfi_restore 4
  97              		.cfi_def_cfa_offset 0
  98              	.LVL12:
  99 006e 7047     		bx	lr
 100              		.cfi_endproc
 101              	.LFE14:
 102              		.size	calc_temperature, .-calc_temperature
 103              		.section	.text.calc_pressure,"ax",%progbits
 104              		.align	2
 105              		.thumb
 106              		.thumb_func
 107              		.type	calc_pressure, %function
 108              	calc_pressure:
 109              	.LFB15:
 854:SensorLib\bme688/bme68x.c **** 
 855:SensorLib\bme688/bme68x.c **** /* @brief This internal API is used to calculate the pressure value. */
 856:SensorLib\bme688/bme68x.c **** static uint32_t calc_pressure(uint32_t pres_adc, const struct bme68x_dev *dev)
 857:SensorLib\bme688/bme68x.c **** {
 110              		.loc 1 857 0
 111              		.cfi_startproc
 112              		@ args = 0, pretend = 0, frame = 0
ARM GAS  C:\Users\CHRONI~1\AppData\Local\Temp\ccho61l0.s 			page 18


 113              		@ frame_needed = 0, uses_anonymous_args = 0
 114              		@ link register save eliminated.
 115              	.LVL13:
 116 0000 30B4     		push	{r4, r5}
 117              		.cfi_def_cfa_offset 8
 118              		.cfi_offset 4, -8
 119              		.cfi_offset 5, -4
 120              	.LVL14:
 858:SensorLib\bme688/bme68x.c ****     int32_t var1;
 859:SensorLib\bme688/bme68x.c ****     int32_t var2;
 860:SensorLib\bme688/bme68x.c ****     int32_t var3;
 861:SensorLib\bme688/bme68x.c ****     int32_t pressure_comp;
 862:SensorLib\bme688/bme68x.c **** 
 863:SensorLib\bme688/bme68x.c ****     /* This value is used to check precedence to multiplication or division
 864:SensorLib\bme688/bme68x.c ****      * in the pressure compensation equation to achieve least loss of precision and
 865:SensorLib\bme688/bme68x.c ****      * avoiding overflows.
 866:SensorLib\bme688/bme68x.c ****      * i.e Comparing value, pres_ovf_check = (1 << 31) >> 1
 867:SensorLib\bme688/bme68x.c ****      */
 868:SensorLib\bme688/bme68x.c ****     const int32_t pres_ovf_check = INT32_C(0x40000000);
 869:SensorLib\bme688/bme68x.c **** 
 870:SensorLib\bme688/bme68x.c ****     /*lint -save -e701 -e702 -e713 */
 871:SensorLib\bme688/bme68x.c ****     var1 = (((int32_t)dev->calib.t_fine) >> 1) - 64000;
 121              		.loc 1 871 0
 122 0002 8C6B     		ldr	r4, [r1, #56]
 123 0004 6410     		asrs	r4, r4, #1
 124 0006 A4F57A44 		sub	r4, r4, #64000
 125              	.LVL15:
 872:SensorLib\bme688/bme68x.c ****     var2 = ((((var1 >> 2) * (var1 >> 2)) >> 11) * (int32_t)dev->calib.par_p6) >> 2;
 126              		.loc 1 872 0
 127 000a A510     		asrs	r5, r4, #2
 128 000c 05FB05F5 		mul	r5, r5, r5
 129 0010 EA12     		asrs	r2, r5, #11
 130 0012 91F92E30 		ldrsb	r3, [r1, #46]
 131 0016 03FB02F2 		mul	r2, r3, r2
 132              	.LVL16:
 873:SensorLib\bme688/bme68x.c ****     var2 = var2 + ((var1 * (int32_t)dev->calib.par_p5) << 1);
 133              		.loc 1 873 0
 134 001a B1F92C30 		ldrsh	r3, [r1, #44]
 135 001e 03FB04F3 		mul	r3, r3, r4
 136 0022 5B00     		lsls	r3, r3, #1
 137 0024 03EBA203 		add	r3, r3, r2, asr #2
 138              	.LVL17:
 874:SensorLib\bme688/bme68x.c ****     var2 = (var2 >> 2) + ((int32_t)dev->calib.par_p4 << 16);
 139              		.loc 1 874 0
 140 0028 B1F92A20 		ldrsh	r2, [r1, #42]
 141 002c 1204     		lsls	r2, r2, #16
 142 002e 02EBA303 		add	r3, r2, r3, asr #2
 143              	.LVL18:
 875:SensorLib\bme688/bme68x.c ****     var1 = (((((var1 >> 2) * (var1 >> 2)) >> 13) * ((int32_t)dev->calib.par_p3 << 5)) >> 3) +
 144              		.loc 1 875 0
 145 0032 6D13     		asrs	r5, r5, #13
 146 0034 91F92820 		ldrsb	r2, [r1, #40]
 147 0038 5201     		lsls	r2, r2, #5
 148 003a 02FB05F2 		mul	r2, r2, r5
 876:SensorLib\bme688/bme68x.c ****            (((int32_t)dev->calib.par_p2 * var1) >> 1);
 149              		.loc 1 876 0
 150 003e B1F92650 		ldrsh	r5, [r1, #38]
ARM GAS  C:\Users\CHRONI~1\AppData\Local\Temp\ccho61l0.s 			page 19


 151 0042 05FB04F4 		mul	r4, r5, r4
 152              	.LVL19:
 153 0046 6410     		asrs	r4, r4, #1
 875:SensorLib\bme688/bme68x.c ****     var1 = (((((var1 >> 2) * (var1 >> 2)) >> 13) * ((int32_t)dev->calib.par_p3 << 5)) >> 3) +
 154              		.loc 1 875 0
 155 0048 04EBE202 		add	r2, r4, r2, asr #3
 156              	.LVL20:
 877:SensorLib\bme688/bme68x.c ****     var1 = var1 >> 18;
 157              		.loc 1 877 0
 158 004c 9214     		asrs	r2, r2, #18
 159              	.LVL21:
 878:SensorLib\bme688/bme68x.c ****     var1 = ((32768 + var1) * (int32_t)dev->calib.par_p1) >> 15;
 160              		.loc 1 878 0
 161 004e 02F50042 		add	r2, r2, #32768
 162              	.LVL22:
 163 0052 8C8C     		ldrh	r4, [r1, #36]
 164 0054 04FB02F2 		mul	r2, r4, r2
 165              	.LVL23:
 166 0058 D213     		asrs	r2, r2, #15
 167              	.LVL24:
 879:SensorLib\bme688/bme68x.c ****     pressure_comp = 1048576 - pres_adc;
 168              		.loc 1 879 0
 169 005a C0F58010 		rsb	r0, r0, #1048576
 170              	.LVL25:
 880:SensorLib\bme688/bme68x.c ****     pressure_comp = (int32_t)((pressure_comp - (var2 >> 12)) * ((uint32_t)3125));
 171              		.loc 1 880 0
 172 005e A0EB2333 		sub	r3, r0, r3, asr #12
 173              	.LVL26:
 174 0062 40F63544 		movw	r4, #3125
 175 0066 04FB03F0 		mul	r0, r4, r3
 176              	.LVL27:
 881:SensorLib\bme688/bme68x.c ****     if (pressure_comp >= pres_ovf_check)
 177              		.loc 1 881 0
 178 006a B0F1804F 		cmp	r0, #1073741824
 179 006e 03DB     		blt	.L4
 882:SensorLib\bme688/bme68x.c ****     {
 883:SensorLib\bme688/bme68x.c ****         pressure_comp = ((pressure_comp / var1) << 1);
 180              		.loc 1 883 0
 181 0070 90FBF2F3 		sdiv	r3, r0, r2
 182 0074 5B00     		lsls	r3, r3, #1
 183              	.LVL28:
 184 0076 02E0     		b	.L5
 185              	.LVL29:
 186              	.L4:
 884:SensorLib\bme688/bme68x.c ****     }
 885:SensorLib\bme688/bme68x.c ****     else
 886:SensorLib\bme688/bme68x.c ****     {
 887:SensorLib\bme688/bme68x.c ****         pressure_comp = ((pressure_comp << 1) / var1);
 187              		.loc 1 887 0
 188 0078 4000     		lsls	r0, r0, #1
 189              	.LVL30:
 190 007a 90FBF2F3 		sdiv	r3, r0, r2
 191              	.LVL31:
 192              	.L5:
 888:SensorLib\bme688/bme68x.c ****     }
 889:SensorLib\bme688/bme68x.c **** 
 890:SensorLib\bme688/bme68x.c ****     var1 = ((int32_t)dev->calib.par_p9 * (int32_t)(((pressure_comp >> 3) * (pressure_comp >> 3)) >>
ARM GAS  C:\Users\CHRONI~1\AppData\Local\Temp\ccho61l0.s 			page 20


 193              		.loc 1 890 0
 194 007e B1F93220 		ldrsh	r2, [r1, #50]
 195              	.LVL32:
 196 0082 DC10     		asrs	r4, r3, #3
 197 0084 04FB04F4 		mul	r4, r4, r4
 198 0088 6413     		asrs	r4, r4, #13
 199 008a 04FB02F5 		mul	r5, r4, r2
 200              	.LVL33:
 891:SensorLib\bme688/bme68x.c ****     var2 = ((int32_t)(pressure_comp >> 2) * (int32_t)dev->calib.par_p8) >> 13;
 201              		.loc 1 891 0
 202 008e 9A10     		asrs	r2, r3, #2
 203 0090 B1F93040 		ldrsh	r4, [r1, #48]
 204 0094 04FB02F2 		mul	r2, r4, r2
 205 0098 5213     		asrs	r2, r2, #13
 206              	.LVL34:
 892:SensorLib\bme688/bme68x.c ****     var3 =
 893:SensorLib\bme688/bme68x.c ****         ((int32_t)(pressure_comp >> 8) * (int32_t)(pressure_comp >> 8) * (int32_t)(pressure_comp >>
 207              		.loc 1 893 0
 208 009a 1C12     		asrs	r4, r3, #8
 209 009c 04FB04F0 		mul	r0, r4, r4
 210 00a0 00FB04F0 		mul	r0, r0, r4
 894:SensorLib\bme688/bme68x.c ****          (int32_t)dev->calib.par_p10) >> 17;
 211              		.loc 1 894 0
 212 00a4 91F83440 		ldrb	r4, [r1, #52]	@ zero_extendqisi2
 893:SensorLib\bme688/bme68x.c ****          (int32_t)dev->calib.par_p10) >> 17;
 213              		.loc 1 893 0
 214 00a8 04FB00F0 		mul	r0, r4, r0
 215              	.LVL35:
 895:SensorLib\bme688/bme68x.c ****     pressure_comp = (int32_t)(pressure_comp) + ((var1 + var2 + var3 + ((int32_t)dev->calib.par_p7 <
 216              		.loc 1 895 0
 217 00ac 02EB2532 		add	r2, r2, r5, asr #12
 218              	.LVL36:
 219 00b0 02EB6040 		add	r0, r2, r0, asr #17
 220              	.LVL37:
 221 00b4 91F92F20 		ldrsb	r2, [r1, #47]
 222 00b8 00EBC210 		add	r0, r0, r2, lsl #7
 223              	.LVL38:
 896:SensorLib\bme688/bme68x.c **** 
 897:SensorLib\bme688/bme68x.c ****     /*lint -restore */
 898:SensorLib\bme688/bme68x.c ****     return (uint32_t)pressure_comp;
 899:SensorLib\bme688/bme68x.c **** }
 224              		.loc 1 899 0
 225 00bc 03EB2010 		add	r0, r3, r0, asr #4
 226              	.LVL39:
 227 00c0 30BC     		pop	{r4, r5}
 228              		.cfi_restore 5
 229              		.cfi_restore 4
 230              		.cfi_def_cfa_offset 0
 231              	.LVL40:
 232 00c2 7047     		bx	lr
 233              		.cfi_endproc
 234              	.LFE15:
 235              		.size	calc_pressure, .-calc_pressure
 236              		.section	.text.calc_humidity,"ax",%progbits
 237              		.align	2
 238              		.thumb
 239              		.thumb_func
ARM GAS  C:\Users\CHRONI~1\AppData\Local\Temp\ccho61l0.s 			page 21


 240              		.type	calc_humidity, %function
 241              	calc_humidity:
 242              	.LFB16:
 900:SensorLib\bme688/bme68x.c **** 
 901:SensorLib\bme688/bme68x.c **** /* This internal API is used to calculate the humidity in integer */
 902:SensorLib\bme688/bme68x.c **** static uint32_t calc_humidity(uint16_t hum_adc, const struct bme68x_dev *dev)
 903:SensorLib\bme688/bme68x.c **** {
 243              		.loc 1 903 0
 244              		.cfi_startproc
 245              		@ args = 0, pretend = 0, frame = 0
 246              		@ frame_needed = 0, uses_anonymous_args = 0
 247              	.LVL41:
 248 0000 F0B5     		push	{r4, r5, r6, r7, lr}
 249              		.cfi_def_cfa_offset 20
 250              		.cfi_offset 4, -20
 251              		.cfi_offset 5, -16
 252              		.cfi_offset 6, -12
 253              		.cfi_offset 7, -8
 254              		.cfi_offset 14, -4
 904:SensorLib\bme688/bme68x.c ****     int32_t var1;
 905:SensorLib\bme688/bme68x.c ****     int32_t var2;
 906:SensorLib\bme688/bme68x.c ****     int32_t var3;
 907:SensorLib\bme688/bme68x.c ****     int32_t var4;
 908:SensorLib\bme688/bme68x.c ****     int32_t var5;
 909:SensorLib\bme688/bme68x.c ****     int32_t var6;
 910:SensorLib\bme688/bme68x.c ****     int32_t temp_scaled;
 911:SensorLib\bme688/bme68x.c ****     int32_t calc_hum;
 912:SensorLib\bme688/bme68x.c **** 
 913:SensorLib\bme688/bme68x.c ****     /*lint -save -e702 -e704 */
 914:SensorLib\bme688/bme68x.c ****     temp_scaled = (((int32_t)dev->calib.t_fine * 5) + 128) >> 8;
 255              		.loc 1 914 0
 256 0002 8C6B     		ldr	r4, [r1, #56]
 257 0004 04EB8404 		add	r4, r4, r4, lsl #2
 258 0008 8034     		adds	r4, r4, #128
 259 000a 2412     		asrs	r4, r4, #8
 260              	.LVL42:
 915:SensorLib\bme688/bme68x.c ****     var1 = (int32_t)(hum_adc - ((int32_t)((int32_t)dev->calib.par_h1 * 16))) -
 261              		.loc 1 915 0
 262 000c 0B8A     		ldrh	r3, [r1, #16]
 263 000e A0EB0310 		sub	r0, r0, r3, lsl #4
 264              	.LVL43:
 916:SensorLib\bme688/bme68x.c ****            (((temp_scaled * (int32_t)dev->calib.par_h3) / ((int32_t)100)) >> 1);
 265              		.loc 1 916 0
 266 0012 91F91430 		ldrsb	r3, [r1, #20]
 267 0016 03FB04F3 		mul	r3, r3, r4
 268 001a 284D     		ldr	r5, .L12
 269 001c 85FB0362 		smull	r6, r2, r5, r3
 270 0020 DB17     		asrs	r3, r3, #31
 271 0022 C3EB6213 		rsb	r3, r3, r2, asr #5
 915:SensorLib\bme688/bme68x.c ****     var1 = (int32_t)(hum_adc - ((int32_t)((int32_t)dev->calib.par_h1 * 16))) -
 272              		.loc 1 915 0
 273 0026 A0EB6300 		sub	r0, r0, r3, asr #1
 274              	.LVL44:
 917:SensorLib\bme688/bme68x.c ****     var2 =
 918:SensorLib\bme688/bme68x.c ****         ((int32_t)dev->calib.par_h2 *
 275              		.loc 1 918 0
 276 002a 4E8A     		ldrh	r6, [r1, #18]
ARM GAS  C:\Users\CHRONI~1\AppData\Local\Temp\ccho61l0.s 			page 22


 919:SensorLib\bme688/bme68x.c ****          (((temp_scaled * (int32_t)dev->calib.par_h4) / ((int32_t)100)) +
 277              		.loc 1 919 0
 278 002c 91F91520 		ldrsb	r2, [r1, #21]
 279 0030 02FB04F2 		mul	r2, r2, r4
 280 0034 85FB0273 		smull	r7, r3, r5, r2
 281 0038 D217     		asrs	r2, r2, #31
 282 003a C2EB6317 		rsb	r7, r2, r3, asr #5
 920:SensorLib\bme688/bme68x.c ****           (((temp_scaled * ((temp_scaled * (int32_t)dev->calib.par_h5) / ((int32_t)100))) >> 6) / (
 283              		.loc 1 920 0
 284 003e 91F91620 		ldrsb	r2, [r1, #22]
 285 0042 02FB04F2 		mul	r2, r2, r4
 286 0046 85FB02E3 		smull	lr, r3, r5, r2
 287 004a D217     		asrs	r2, r2, #31
 288 004c C2EB6312 		rsb	r2, r2, r3, asr #5
 289 0050 02FB04F3 		mul	r3, r2, r4
 290 0054 9A11     		asrs	r2, r3, #6
 291 0056 85FB022E 		smull	r2, lr, r5, r2
 292 005a DA17     		asrs	r2, r3, #31
 293 005c C2EB6E12 		rsb	r2, r2, lr, asr #5
 919:SensorLib\bme688/bme68x.c ****          (((temp_scaled * (int32_t)dev->calib.par_h4) / ((int32_t)100)) +
 294              		.loc 1 919 0
 295 0060 BB18     		adds	r3, r7, r2
 296              		.loc 1 920 0
 297 0062 03F58043 		add	r3, r3, #16384
 918:SensorLib\bme688/bme68x.c ****          (((temp_scaled * (int32_t)dev->calib.par_h4) / ((int32_t)100)) +
 298              		.loc 1 918 0
 299 0066 03FB06F3 		mul	r3, r3, r6
 917:SensorLib\bme688/bme68x.c ****         ((int32_t)dev->calib.par_h2 *
 300              		.loc 1 917 0
 301 006a 9B12     		asrs	r3, r3, #10
 302              	.LVL45:
 921:SensorLib\bme688/bme68x.c ****           (int32_t)(1 << 14))) >> 10;
 922:SensorLib\bme688/bme68x.c ****     var3 = var1 * var2;
 303              		.loc 1 922 0
 304 006c 03FB00F0 		mul	r0, r3, r0
 305              	.LVL46:
 923:SensorLib\bme688/bme68x.c ****     var4 = (int32_t)dev->calib.par_h6 << 7;
 306              		.loc 1 923 0
 307 0070 CA7D     		ldrb	r2, [r1, #23]	@ zero_extendqisi2
 308              	.LVL47:
 924:SensorLib\bme688/bme68x.c ****     var4 = ((var4) + ((temp_scaled * (int32_t)dev->calib.par_h7) / ((int32_t)100))) >> 4;
 309              		.loc 1 924 0
 310 0072 91F91830 		ldrsb	r3, [r1, #24]
 311              	.LVL48:
 312 0076 03FB04F4 		mul	r4, r3, r4
 313              	.LVL49:
 314 007a 85FB0435 		smull	r3, r5, r5, r4
 315              	.LVL50:
 316 007e E317     		asrs	r3, r4, #31
 317 0080 C3EB6514 		rsb	r4, r3, r5, asr #5
 318 0084 04EBC214 		add	r4, r4, r2, lsl #7
 319 0088 2411     		asrs	r4, r4, #4
 320              	.LVL51:
 925:SensorLib\bme688/bme68x.c ****     var5 = ((var3 >> 14) * (var3 >> 14)) >> 10;
 321              		.loc 1 925 0
 322 008a 8313     		asrs	r3, r0, #14
 323 008c 03FB03F3 		mul	r3, r3, r3
ARM GAS  C:\Users\CHRONI~1\AppData\Local\Temp\ccho61l0.s 			page 23


 324 0090 9B12     		asrs	r3, r3, #10
 325              	.LVL52:
 926:SensorLib\bme688/bme68x.c ****     var6 = (var4 * var5) >> 1;
 326              		.loc 1 926 0
 327 0092 03FB04F4 		mul	r4, r3, r4
 328              	.LVL53:
 927:SensorLib\bme688/bme68x.c ****     calc_hum = (((var3 + var6) >> 10) * ((int32_t)1000)) >> 12;
 329              		.loc 1 927 0
 330 0096 00EB6400 		add	r0, r0, r4, asr #1
 331              	.LVL54:
 332 009a 8012     		asrs	r0, r0, #10
 333 009c 4FF47A72 		mov	r2, #1000
 334              	.LVL55:
 335 00a0 02FB00F0 		mul	r0, r2, r0
 336 00a4 0013     		asrs	r0, r0, #12
 337              	.LVL56:
 928:SensorLib\bme688/bme68x.c ****     if (calc_hum > 100000) /* Cap at 100%rH */
 338              		.loc 1 928 0
 339 00a6 064B     		ldr	r3, .L12+4
 340              	.LVL57:
 341 00a8 9842     		cmp	r0, r3
 342 00aa 02DC     		bgt	.L9
 929:SensorLib\bme688/bme68x.c ****     {
 930:SensorLib\bme688/bme68x.c ****         calc_hum = 100000;
 931:SensorLib\bme688/bme68x.c ****     }
 932:SensorLib\bme688/bme68x.c ****     else if (calc_hum < 0)
 343              		.loc 1 932 0
 344 00ac 0028     		cmp	r0, #0
 345 00ae 03DA     		bge	.L8
 346 00b0 01E0     		b	.L10
 347              	.L9:
 930:SensorLib\bme688/bme68x.c ****     }
 348              		.loc 1 930 0
 349 00b2 0348     		ldr	r0, .L12+4
 350              	.LVL58:
 351 00b4 F0BD     		pop	{r4, r5, r6, r7, pc}
 352              	.LVL59:
 353              	.L10:
 933:SensorLib\bme688/bme68x.c ****     {
 934:SensorLib\bme688/bme68x.c ****         calc_hum = 0;
 354              		.loc 1 934 0
 355 00b6 0020     		movs	r0, #0
 356              	.LVL60:
 357              	.L8:
 935:SensorLib\bme688/bme68x.c ****     }
 936:SensorLib\bme688/bme68x.c **** 
 937:SensorLib\bme688/bme68x.c ****     /*lint -restore */
 938:SensorLib\bme688/bme68x.c ****     return (uint32_t)calc_hum;
 939:SensorLib\bme688/bme68x.c **** }
 358              		.loc 1 939 0
 359 00b8 F0BD     		pop	{r4, r5, r6, r7, pc}
 360              	.LVL61:
 361              	.L13:
 362 00ba 00BF     		.align	2
 363              	.L12:
 364 00bc 1F85EB51 		.word	1374389535
 365 00c0 A0860100 		.word	100000
ARM GAS  C:\Users\CHRONI~1\AppData\Local\Temp\ccho61l0.s 			page 24


 366              		.cfi_endproc
 367              	.LFE16:
 368              		.size	calc_humidity, .-calc_humidity
 369              		.global	__aeabi_ldivmod
 370              		.section	.text.calc_gas_resistance_low,"ax",%progbits
 371              		.align	2
 372              		.thumb
 373              		.thumb_func
 374              		.type	calc_gas_resistance_low, %function
 375              	calc_gas_resistance_low:
 376              	.LFB17:
 940:SensorLib\bme688/bme68x.c **** 
 941:SensorLib\bme688/bme68x.c **** /* This internal API is used to calculate the gas resistance low */
 942:SensorLib\bme688/bme68x.c **** static uint32_t calc_gas_resistance_low(uint16_t gas_res_adc, uint8_t gas_range, const struct bme68
 943:SensorLib\bme688/bme68x.c **** {
 377              		.loc 1 943 0
 378              		.cfi_startproc
 379              		@ args = 0, pretend = 0, frame = 128
 380              		@ frame_needed = 0, uses_anonymous_args = 0
 381              	.LVL62:
 382 0000 F0B5     		push	{r4, r5, r6, r7, lr}
 383              		.cfi_def_cfa_offset 20
 384              		.cfi_offset 4, -20
 385              		.cfi_offset 5, -16
 386              		.cfi_offset 6, -12
 387              		.cfi_offset 7, -8
 388              		.cfi_offset 14, -4
 389 0002 A1B0     		sub	sp, sp, #132
 390              		.cfi_def_cfa_offset 152
 391 0004 0746     		mov	r7, r0
 392 0006 8E46     		mov	lr, r1
 393 0008 9446     		mov	ip, r2
 944:SensorLib\bme688/bme68x.c ****     int64_t var1;
 945:SensorLib\bme688/bme68x.c ****     uint64_t var2;
 946:SensorLib\bme688/bme68x.c ****     int64_t var3;
 947:SensorLib\bme688/bme68x.c ****     uint32_t calc_gas_res;
 948:SensorLib\bme688/bme68x.c ****     uint32_t lookup_table1[16] = {
 394              		.loc 1 948 0
 395 000a 274C     		ldr	r4, .L16
 396 000c 10AD     		add	r5, sp, #64
 397 000e 2646     		mov	r6, r4
 398 0010 0FCE     		ldmia	r6!, {r0, r1, r2, r3}
 399              	.LVL63:
 400 0012 0FC5     		stmia	r5!, {r0, r1, r2, r3}
 401 0014 0FCE     		ldmia	r6!, {r0, r1, r2, r3}
 402 0016 0FC5     		stmia	r5!, {r0, r1, r2, r3}
 403 0018 0FCE     		ldmia	r6!, {r0, r1, r2, r3}
 404 001a 0FC5     		stmia	r5!, {r0, r1, r2, r3}
 405 001c 96E80F00 		ldmia	r6, {r0, r1, r2, r3}
 406 0020 85E80F00 		stmia	r5, {r0, r1, r2, r3}
 949:SensorLib\bme688/bme68x.c ****         UINT32_C(2147483647), UINT32_C(2147483647), UINT32_C(2147483647), UINT32_C(2147483647), UIN
 950:SensorLib\bme688/bme68x.c ****         UINT32_C(2126008810), UINT32_C(2147483647), UINT32_C(2130303777), UINT32_C(2147483647), UIN
 951:SensorLib\bme688/bme68x.c ****         UINT32_C(2143188679), UINT32_C(2136746228), UINT32_C(2147483647), UINT32_C(2126008810), UIN
 952:SensorLib\bme688/bme68x.c ****         UINT32_C(2147483647)
 953:SensorLib\bme688/bme68x.c ****     };
 954:SensorLib\bme688/bme68x.c ****     uint32_t lookup_table2[16] = {
 407              		.loc 1 954 0
ARM GAS  C:\Users\CHRONI~1\AppData\Local\Temp\ccho61l0.s 			page 25


 408 0024 6D46     		mov	r5, sp
 409 0026 4034     		adds	r4, r4, #64
 410 0028 0FCC     		ldmia	r4!, {r0, r1, r2, r3}
 411 002a 0FC5     		stmia	r5!, {r0, r1, r2, r3}
 412 002c 0FCC     		ldmia	r4!, {r0, r1, r2, r3}
 413 002e 0FC5     		stmia	r5!, {r0, r1, r2, r3}
 414 0030 0FCC     		ldmia	r4!, {r0, r1, r2, r3}
 415 0032 0FC5     		stmia	r5!, {r0, r1, r2, r3}
 416 0034 94E80F00 		ldmia	r4, {r0, r1, r2, r3}
 417 0038 85E80F00 		stmia	r5, {r0, r1, r2, r3}
 955:SensorLib\bme688/bme68x.c ****         UINT32_C(4096000000), UINT32_C(2048000000), UINT32_C(1024000000), UINT32_C(512000000), UINT
 956:SensorLib\bme688/bme68x.c ****         UINT32_C(127110228), UINT32_C(64000000), UINT32_C(32258064), UINT32_C(16016016), UINT32_C(8
 957:SensorLib\bme688/bme68x.c ****             4000000), UINT32_C(2000000), UINT32_C(1000000), UINT32_C(500000), UINT32_C(250000), UIN
 958:SensorLib\bme688/bme68x.c ****     };
 959:SensorLib\bme688/bme68x.c **** 
 960:SensorLib\bme688/bme68x.c ****     /*lint -save -e704 */
 961:SensorLib\bme688/bme68x.c ****     var1 = (int64_t)((1340 + (5 * (int64_t)dev->calib.range_sw_err)) * ((int64_t)lookup_table1[gas_
 418              		.loc 1 961 0
 419 003c 9CF93E20 		ldrsb	r2, [ip, #62]
 420 0040 D317     		asrs	r3, r2, #31
 421 0042 9C00     		lsls	r4, r3, #2
 422 0044 9000     		lsls	r0, r2, #2
 423 0046 44EA9271 		orr	r1, r4, r2, lsr #30
 424 004a 1218     		adds	r2, r2, r0
 425 004c 4B41     		adcs	r3, r3, r1
 426 004e 40F23C50 		movw	r0, #1340
 427 0052 0021     		movs	r1, #0
 428 0054 1218     		adds	r2, r2, r0
 429 0056 4B41     		adcs	r3, r3, r1
 430 0058 20A9     		add	r1, sp, #128
 431 005a 01EB8E0E 		add	lr, r1, lr, lsl #2
 432 005e 5EF8401C 		ldr	r1, [lr, #-64]
 433 0062 A2FB0145 		umull	r4, r5, r2, r1
 434 0066 01FB0355 		mla	r5, r1, r3, r5
 435 006a 200C     		lsrs	r0, r4, #16
 436 006c 40EA0540 		orr	r0, r0, r5, lsl #16
 437 0070 2914     		asrs	r1, r5, #16
 438              	.LVL64:
 962:SensorLib\bme688/bme68x.c ****     var2 = (((int64_t)((int64_t)gas_res_adc << 15) - (int64_t)(16777216)) + var1);
 439              		.loc 1 962 0
 440 0072 0023     		movs	r3, #0
 441 0074 FA03     		lsls	r2, r7, #15
 442 0076 12F17F42 		adds	r2, r2, #-16777216
 443 007a 43F1FF33 		adc	r3, r3, #-1
 444 007e 1218     		adds	r2, r2, r0
 445 0080 4B41     		adcs	r3, r3, r1
 446              	.LVL65:
 963:SensorLib\bme688/bme68x.c ****     var3 = (((int64_t)lookup_table2[gas_range] * (int64_t)var1) >> 9);
 447              		.loc 1 963 0
 448 0082 5EF8806C 		ldr	r6, [lr, #-128]
 449 0086 A0FB0645 		umull	r4, r5, r0, r6
 450 008a 06FB0155 		mla	r5, r6, r1, r5
 451 008e 600A     		lsrs	r0, r4, #9
 452              	.LVL66:
 453 0090 40EAC550 		orr	r0, r0, r5, lsl #23
 454 0094 6912     		asrs	r1, r5, #9
 455              	.LVL67:
ARM GAS  C:\Users\CHRONI~1\AppData\Local\Temp\ccho61l0.s 			page 26


 964:SensorLib\bme688/bme68x.c ****     calc_gas_res = (uint32_t)((var3 + ((int64_t)var2 >> 1)) / (int64_t)var2);
 456              		.loc 1 964 0
 457 0096 5D10     		movs	r5, r3, asr #1
 458 0098 4FEA3204 		mov	r4, r2, rrx
 459 009c 0019     		adds	r0, r0, r4
 460              	.LVL68:
 461 009e 6941     		adcs	r1, r1, r5
 462 00a0 FFF7FEFF 		bl	__aeabi_ldivmod
 463              	.LVL69:
 965:SensorLib\bme688/bme68x.c **** 
 966:SensorLib\bme688/bme68x.c ****     /*lint -restore */
 967:SensorLib\bme688/bme68x.c ****     return calc_gas_res;
 968:SensorLib\bme688/bme68x.c **** }
 464              		.loc 1 968 0
 465 00a4 21B0     		add	sp, sp, #132
 466              		.cfi_def_cfa_offset 20
 467              		@ sp needed
 468 00a6 F0BD     		pop	{r4, r5, r6, r7, pc}
 469              	.L17:
 470              		.align	2
 471              	.L16:
 472 00a8 00000000 		.word	.LANCHOR0
 473              		.cfi_endproc
 474              	.LFE17:
 475              		.size	calc_gas_resistance_low, .-calc_gas_resistance_low
 476              		.section	.text.calc_gas_resistance_high,"ax",%progbits
 477              		.align	2
 478              		.thumb
 479              		.thumb_func
 480              		.type	calc_gas_resistance_high, %function
 481              	calc_gas_resistance_high:
 482              	.LFB18:
 969:SensorLib\bme688/bme68x.c **** 
 970:SensorLib\bme688/bme68x.c **** /* This internal API is used to calculate the gas resistance */
 971:SensorLib\bme688/bme68x.c **** static uint32_t calc_gas_resistance_high(uint16_t gas_res_adc, uint8_t gas_range)
 972:SensorLib\bme688/bme68x.c **** {
 483              		.loc 1 972 0
 484              		.cfi_startproc
 485              		@ args = 0, pretend = 0, frame = 0
 486              		@ frame_needed = 0, uses_anonymous_args = 0
 487              		@ link register save eliminated.
 488              	.LVL70:
 973:SensorLib\bme688/bme68x.c ****     uint32_t calc_gas_res;
 974:SensorLib\bme688/bme68x.c ****     uint32_t var1 = UINT32_C(262144) >> gas_range;
 489              		.loc 1 974 0
 490 0000 4FF48023 		mov	r3, #262144
 491 0004 23FA01F1 		lsr	r1, r3, r1
 492              	.LVL71:
 975:SensorLib\bme688/bme68x.c ****     int32_t var2 = (int32_t)gas_res_adc - INT32_C(512);
 493              		.loc 1 975 0
 494 0008 A0F50070 		sub	r0, r0, #512
 495              	.LVL72:
 976:SensorLib\bme688/bme68x.c **** 
 977:SensorLib\bme688/bme68x.c ****     var2 *= INT32_C(3);
 496              		.loc 1 977 0
 497 000c 00EB4000 		add	r0, r0, r0, lsl #1
 498              	.LVL73:
ARM GAS  C:\Users\CHRONI~1\AppData\Local\Temp\ccho61l0.s 			page 27


 978:SensorLib\bme688/bme68x.c ****     var2 = INT32_C(4096) + var2;
 499              		.loc 1 978 0
 500 0010 00F58050 		add	r0, r0, #4096
 501              	.LVL74:
 979:SensorLib\bme688/bme68x.c **** 
 980:SensorLib\bme688/bme68x.c ****     /* multiplying 10000 then dividing then multiplying by 100 instead of multiplying by 1000000 to
 981:SensorLib\bme688/bme68x.c ****     calc_gas_res = (UINT32_C(10000) * var1) / (uint32_t)var2;
 502              		.loc 1 981 0
 503 0014 42F21073 		movw	r3, #10000
 504 0018 03FB01F1 		mul	r1, r3, r1
 505              	.LVL75:
 506 001c B1FBF0F0 		udiv	r0, r1, r0
 507              	.LVL76:
 982:SensorLib\bme688/bme68x.c ****     calc_gas_res = calc_gas_res * 100;
 983:SensorLib\bme688/bme68x.c **** 
 984:SensorLib\bme688/bme68x.c ****     return calc_gas_res;
 985:SensorLib\bme688/bme68x.c **** }
 508              		.loc 1 985 0
 509 0020 6423     		movs	r3, #100
 510 0022 03FB00F0 		mul	r0, r3, r0
 511              	.LVL77:
 512 0026 7047     		bx	lr
 513              		.cfi_endproc
 514              	.LFE18:
 515              		.size	calc_gas_resistance_high, .-calc_gas_resistance_high
 516              		.section	.text.calc_res_heat,"ax",%progbits
 517              		.align	2
 518              		.thumb
 519              		.thumb_func
 520              		.type	calc_res_heat, %function
 521              	calc_res_heat:
 522              	.LFB19:
 986:SensorLib\bme688/bme68x.c **** 
 987:SensorLib\bme688/bme68x.c **** /* This internal API is used to calculate the heater resistance value using integer */
 988:SensorLib\bme688/bme68x.c **** static uint8_t calc_res_heat(uint16_t temp, const struct bme68x_dev *dev)
 989:SensorLib\bme688/bme68x.c **** {
 523              		.loc 1 989 0
 524              		.cfi_startproc
 525              		@ args = 0, pretend = 0, frame = 0
 526              		@ frame_needed = 0, uses_anonymous_args = 0
 527              	.LVL78:
 528 0000 F0B5     		push	{r4, r5, r6, r7, lr}
 529              		.cfi_def_cfa_offset 20
 530              		.cfi_offset 4, -20
 531              		.cfi_offset 5, -16
 532              		.cfi_offset 6, -12
 533              		.cfi_offset 7, -8
 534              		.cfi_offset 14, -4
 990:SensorLib\bme688/bme68x.c ****     uint8_t heatr_res;
 991:SensorLib\bme688/bme68x.c ****     int32_t var1;
 992:SensorLib\bme688/bme68x.c ****     int32_t var2;
 993:SensorLib\bme688/bme68x.c ****     int32_t var3;
 994:SensorLib\bme688/bme68x.c ****     int32_t var4;
 995:SensorLib\bme688/bme68x.c ****     int32_t var5;
 996:SensorLib\bme688/bme68x.c ****     int32_t heatr_res_x100;
 997:SensorLib\bme688/bme68x.c **** 
 998:SensorLib\bme688/bme68x.c ****     if (temp > 400) /* Cap temperature */
ARM GAS  C:\Users\CHRONI~1\AppData\Local\Temp\ccho61l0.s 			page 28


 535              		.loc 1 998 0
 536 0002 B0F5C87F 		cmp	r0, #400
 537 0006 01D9     		bls	.L20
 999:SensorLib\bme688/bme68x.c ****     {
1000:SensorLib\bme688/bme68x.c ****         temp = 400;
 538              		.loc 1 1000 0
 539 0008 4FF4C870 		mov	r0, #400
 540              	.LVL79:
 541              	.L20:
1001:SensorLib\bme688/bme68x.c ****     }
1002:SensorLib\bme688/bme68x.c **** 
1003:SensorLib\bme688/bme68x.c ****     var1 = (((int32_t)dev->amb_temp * dev->calib.par_gh3) / 1000) * 256;
 542              		.loc 1 1003 0
 543 000c 91F90E20 		ldrsb	r2, [r1, #14]
 544 0010 91F91C50 		ldrsb	r5, [r1, #28]
 545 0014 02FB05F5 		mul	r5, r2, r5
 546 0018 224C     		ldr	r4, .L23
 547 001a 84FB0534 		smull	r3, r4, r4, r5
 548 001e ED17     		asrs	r5, r5, #31
 549 0020 C5EBA417 		rsb	r7, r5, r4, asr #6
 550              	.LVL80:
1004:SensorLib\bme688/bme68x.c ****     var2 = (dev->calib.par_gh1 + 784) * (((((dev->calib.par_gh2 + 154009) * temp * 5) / 100) + 3276
 551              		.loc 1 1004 0
 552 0024 91F91920 		ldrsb	r2, [r1, #25]
 553 0028 02F5447E 		add	lr, r2, #784
 554 002c B1F91A50 		ldrsh	r5, [r1, #26]
 555 0030 05F51633 		add	r3, r5, #153600
 556 0034 03F29913 		addw	r3, r3, #409
 557 0038 03FB00F3 		mul	r3, r3, r0
 558 003c 03EB8303 		add	r3, r3, r3, lsl #2
 559 0040 194E     		ldr	r6, .L23+4
 560 0042 86FB0324 		smull	r2, r4, r6, r3
 561 0046 DB17     		asrs	r3, r3, #31
 562 0048 C3EB6414 		rsb	r4, r3, r4, asr #5
 563 004c 04F54814 		add	r4, r4, #3276800
 564 0050 164A     		ldr	r2, .L23+8
 565 0052 82FB0432 		smull	r3, r2, r2, r4
 566 0056 E517     		asrs	r5, r4, #31
 567 0058 C5EBA205 		rsb	r5, r5, r2, asr #2
 568 005c 05FB0EF2 		mul	r2, r5, lr
 569              	.LVL81:
1005:SensorLib\bme688/bme68x.c ****     var3 = var1 + (var2 / 2);
 570              		.loc 1 1005 0
 571 0060 02EBD272 		add	r2, r2, r2, lsr #31
 572              	.LVL82:
 573 0064 5210     		asrs	r2, r2, #1
 574 0066 02EB0724 		add	r4, r2, r7, lsl #8
 575              	.LVL83:
1006:SensorLib\bme688/bme68x.c ****     var4 = (var3 / (dev->calib.res_heat_range + 4));
 576              		.loc 1 1006 0
 577 006a 91F83C30 		ldrb	r3, [r1, #60]	@ zero_extendqisi2
 578 006e 0433     		adds	r3, r3, #4
 579 0070 94FBF3F2 		sdiv	r2, r4, r3
 580              	.LVL84:
1007:SensorLib\bme688/bme68x.c ****     var5 = (131 * dev->calib.res_heat_val) + 65536;
 581              		.loc 1 1007 0
 582 0074 91F93D30 		ldrsb	r3, [r1, #61]
ARM GAS  C:\Users\CHRONI~1\AppData\Local\Temp\ccho61l0.s 			page 29


 583 0078 03EB8311 		add	r1, r3, r3, lsl #6
 584              	.LVL85:
 585 007c 03EB4103 		add	r3, r3, r1, lsl #1
 586 0080 03F58033 		add	r3, r3, #65536
 587              	.LVL86:
1008:SensorLib\bme688/bme68x.c ****     heatr_res_x100 = (int32_t)(((var4 / var5) - 250) * 34);
 588              		.loc 1 1008 0
 589 0084 92FBF3F3 		sdiv	r3, r2, r3
 590              	.LVL87:
 591 0088 FA3B     		subs	r3, r3, #250
 592 008a 03EB0313 		add	r3, r3, r3, lsl #4
 593 008e 5800     		lsls	r0, r3, #1
 594              	.LVL88:
1009:SensorLib\bme688/bme68x.c ****     heatr_res = (uint8_t)((heatr_res_x100 + 50) / 100);
 595              		.loc 1 1009 0
 596 0090 00F13203 		add	r3, r0, #50
 597 0094 86FB0320 		smull	r2, r0, r6, r3
 598              	.LVL89:
 599 0098 DB17     		asrs	r3, r3, #31
 600              	.LVL90:
 601 009a C3EB6010 		rsb	r0, r3, r0, asr #5
 602              	.LVL91:
1010:SensorLib\bme688/bme68x.c **** 
1011:SensorLib\bme688/bme68x.c ****     return heatr_res;
1012:SensorLib\bme688/bme68x.c **** }
 603              		.loc 1 1012 0
 604 009e C0B2     		uxtb	r0, r0
 605 00a0 F0BD     		pop	{r4, r5, r6, r7, pc}
 606              	.LVL92:
 607              	.L24:
 608 00a2 00BF     		.align	2
 609              	.L23:
 610 00a4 D34D6210 		.word	274877907
 611 00a8 1F85EB51 		.word	1374389535
 612 00ac 67666666 		.word	1717986919
 613              		.cfi_endproc
 614              	.LFE19:
 615              		.size	calc_res_heat, .-calc_res_heat
 616              		.section	.text.calc_gas_wait,"ax",%progbits
 617              		.align	2
 618              		.thumb
 619              		.thumb_func
 620              		.type	calc_gas_wait, %function
 621              	calc_gas_wait:
 622              	.LFB20:
1013:SensorLib\bme688/bme68x.c **** 
1014:SensorLib\bme688/bme68x.c **** #else
1015:SensorLib\bme688/bme68x.c **** 
1016:SensorLib\bme688/bme68x.c **** /* @brief This internal API is used to calculate the temperature value. */
1017:SensorLib\bme688/bme68x.c **** static float calc_temperature(uint32_t temp_adc, struct bme68x_dev *dev)
1018:SensorLib\bme688/bme68x.c **** {
1019:SensorLib\bme688/bme68x.c ****     float var1;
1020:SensorLib\bme688/bme68x.c ****     float var2;
1021:SensorLib\bme688/bme68x.c ****     float calc_temp;
1022:SensorLib\bme688/bme68x.c **** 
1023:SensorLib\bme688/bme68x.c ****     /* calculate var1 data */
1024:SensorLib\bme688/bme68x.c ****     var1 = ((((float)temp_adc / 16384.0f) - ((float)dev->calib.par_t1 / 1024.0f)) * ((float)dev->ca
ARM GAS  C:\Users\CHRONI~1\AppData\Local\Temp\ccho61l0.s 			page 30


1025:SensorLib\bme688/bme68x.c **** 
1026:SensorLib\bme688/bme68x.c ****     /* calculate var2 data */
1027:SensorLib\bme688/bme68x.c ****     var2 =
1028:SensorLib\bme688/bme68x.c ****         (((((float)temp_adc / 131072.0f) - ((float)dev->calib.par_t1 / 8192.0f)) *
1029:SensorLib\bme688/bme68x.c ****           (((float)temp_adc / 131072.0f) - ((float)dev->calib.par_t1 / 8192.0f))) * ((float)dev->ca
1030:SensorLib\bme688/bme68x.c **** 
1031:SensorLib\bme688/bme68x.c ****     /* t_fine value*/
1032:SensorLib\bme688/bme68x.c ****     dev->calib.t_fine = (var1 + var2);
1033:SensorLib\bme688/bme68x.c **** 
1034:SensorLib\bme688/bme68x.c ****     /* compensated temperature data*/
1035:SensorLib\bme688/bme68x.c ****     calc_temp = ((dev->calib.t_fine) / 5120.0f);
1036:SensorLib\bme688/bme68x.c **** 
1037:SensorLib\bme688/bme68x.c ****     return calc_temp;
1038:SensorLib\bme688/bme68x.c **** }
1039:SensorLib\bme688/bme68x.c **** 
1040:SensorLib\bme688/bme68x.c **** /* @brief This internal API is used to calculate the pressure value. */
1041:SensorLib\bme688/bme68x.c **** static float calc_pressure(uint32_t pres_adc, const struct bme68x_dev *dev)
1042:SensorLib\bme688/bme68x.c **** {
1043:SensorLib\bme688/bme68x.c ****     float var1;
1044:SensorLib\bme688/bme68x.c ****     float var2;
1045:SensorLib\bme688/bme68x.c ****     float var3;
1046:SensorLib\bme688/bme68x.c ****     float calc_pres;
1047:SensorLib\bme688/bme68x.c **** 
1048:SensorLib\bme688/bme68x.c ****     var1 = (((float)dev->calib.t_fine / 2.0f) - 64000.0f);
1049:SensorLib\bme688/bme68x.c ****     var2 = var1 * var1 * (((float)dev->calib.par_p6) / (131072.0f));
1050:SensorLib\bme688/bme68x.c ****     var2 = var2 + (var1 * ((float)dev->calib.par_p5) * 2.0f);
1051:SensorLib\bme688/bme68x.c ****     var2 = (var2 / 4.0f) + (((float)dev->calib.par_p4) * 65536.0f);
1052:SensorLib\bme688/bme68x.c ****     var1 = (((((float)dev->calib.par_p3 * var1 * var1) / 16384.0f) + ((float)dev->calib.par_p2 * va
1053:SensorLib\bme688/bme68x.c ****     var1 = ((1.0f + (var1 / 32768.0f)) * ((float)dev->calib.par_p1));
1054:SensorLib\bme688/bme68x.c ****     calc_pres = (1048576.0f - ((float)pres_adc));
1055:SensorLib\bme688/bme68x.c **** 
1056:SensorLib\bme688/bme68x.c ****     /* Avoid exception caused by division by zero */
1057:SensorLib\bme688/bme68x.c ****     if ((int)var1 != 0)
1058:SensorLib\bme688/bme68x.c ****     {
1059:SensorLib\bme688/bme68x.c ****         calc_pres = (((calc_pres - (var2 / 4096.0f)) * 6250.0f) / var1);
1060:SensorLib\bme688/bme68x.c ****         var1 = (((float)dev->calib.par_p9) * calc_pres * calc_pres) / 2147483648.0f;
1061:SensorLib\bme688/bme68x.c ****         var2 = calc_pres * (((float)dev->calib.par_p8) / 32768.0f);
1062:SensorLib\bme688/bme68x.c ****         var3 = ((calc_pres / 256.0f) * (calc_pres / 256.0f) * (calc_pres / 256.0f) * (dev->calib.pa
1063:SensorLib\bme688/bme68x.c ****         calc_pres = (calc_pres + (var1 + var2 + var3 + ((float)dev->calib.par_p7 * 128.0f)) / 16.0f
1064:SensorLib\bme688/bme68x.c ****     }
1065:SensorLib\bme688/bme68x.c ****     else
1066:SensorLib\bme688/bme68x.c ****     {
1067:SensorLib\bme688/bme68x.c ****         calc_pres = 0;
1068:SensorLib\bme688/bme68x.c ****     }
1069:SensorLib\bme688/bme68x.c **** 
1070:SensorLib\bme688/bme68x.c ****     return calc_pres;
1071:SensorLib\bme688/bme68x.c **** }
1072:SensorLib\bme688/bme68x.c **** 
1073:SensorLib\bme688/bme68x.c **** /* This internal API is used to calculate the humidity in integer */
1074:SensorLib\bme688/bme68x.c **** static float calc_humidity(uint16_t hum_adc, const struct bme68x_dev *dev)
1075:SensorLib\bme688/bme68x.c **** {
1076:SensorLib\bme688/bme68x.c ****     float calc_hum;
1077:SensorLib\bme688/bme68x.c ****     float var1;
1078:SensorLib\bme688/bme68x.c ****     float var2;
1079:SensorLib\bme688/bme68x.c ****     float var3;
1080:SensorLib\bme688/bme68x.c ****     float var4;
1081:SensorLib\bme688/bme68x.c ****     float temp_comp;
ARM GAS  C:\Users\CHRONI~1\AppData\Local\Temp\ccho61l0.s 			page 31


1082:SensorLib\bme688/bme68x.c **** 
1083:SensorLib\bme688/bme68x.c ****     /* compensated temperature data*/
1084:SensorLib\bme688/bme68x.c ****     temp_comp = ((dev->calib.t_fine) / 5120.0f);
1085:SensorLib\bme688/bme68x.c ****     var1 = (float)((float)hum_adc) -
1086:SensorLib\bme688/bme68x.c ****            (((float)dev->calib.par_h1 * 16.0f) + (((float)dev->calib.par_h3 / 2.0f) * temp_comp));
1087:SensorLib\bme688/bme68x.c ****     var2 = var1 *
1088:SensorLib\bme688/bme68x.c ****            ((float)(((float)dev->calib.par_h2 / 262144.0f) *
1089:SensorLib\bme688/bme68x.c ****                     (1.0f + (((float)dev->calib.par_h4 / 16384.0f) * temp_comp) +
1090:SensorLib\bme688/bme68x.c ****                      (((float)dev->calib.par_h5 / 1048576.0f) * temp_comp * temp_comp))));
1091:SensorLib\bme688/bme68x.c ****     var3 = (float)dev->calib.par_h6 / 16384.0f;
1092:SensorLib\bme688/bme68x.c ****     var4 = (float)dev->calib.par_h7 / 2097152.0f;
1093:SensorLib\bme688/bme68x.c ****     calc_hum = var2 + ((var3 + (var4 * temp_comp)) * var2 * var2);
1094:SensorLib\bme688/bme68x.c ****     if (calc_hum > 100.0f)
1095:SensorLib\bme688/bme68x.c ****     {
1096:SensorLib\bme688/bme68x.c ****         calc_hum = 100.0f;
1097:SensorLib\bme688/bme68x.c ****     }
1098:SensorLib\bme688/bme68x.c ****     else if (calc_hum < 0.0f)
1099:SensorLib\bme688/bme68x.c ****     {
1100:SensorLib\bme688/bme68x.c ****         calc_hum = 0.0f;
1101:SensorLib\bme688/bme68x.c ****     }
1102:SensorLib\bme688/bme68x.c **** 
1103:SensorLib\bme688/bme68x.c ****     return calc_hum;
1104:SensorLib\bme688/bme68x.c **** }
1105:SensorLib\bme688/bme68x.c **** 
1106:SensorLib\bme688/bme68x.c **** /* This internal API is used to calculate the gas resistance low value in float */
1107:SensorLib\bme688/bme68x.c **** static float calc_gas_resistance_low(uint16_t gas_res_adc, uint8_t gas_range, const struct bme68x_d
1108:SensorLib\bme688/bme68x.c **** {
1109:SensorLib\bme688/bme68x.c ****     float calc_gas_res;
1110:SensorLib\bme688/bme68x.c ****     float var1;
1111:SensorLib\bme688/bme68x.c ****     float var2;
1112:SensorLib\bme688/bme68x.c ****     float var3;
1113:SensorLib\bme688/bme68x.c ****     float gas_res_f = gas_res_adc;
1114:SensorLib\bme688/bme68x.c ****     float gas_range_f = (1U << gas_range); /*lint !e790 / Suspicious truncation, integral to float 
1115:SensorLib\bme688/bme68x.c ****     const float lookup_k1_range[16] = {
1116:SensorLib\bme688/bme68x.c ****         0.0f, 0.0f, 0.0f, 0.0f, 0.0f, -1.0f, 0.0f, -0.8f, 0.0f, 0.0f, -0.2f, -0.5f, 0.0f, -1.0f, 0.
1117:SensorLib\bme688/bme68x.c ****     };
1118:SensorLib\bme688/bme68x.c ****     const float lookup_k2_range[16] = {
1119:SensorLib\bme688/bme68x.c ****         0.0f, 0.0f, 0.0f, 0.0f, 0.1f, 0.7f, 0.0f, -0.8f, -0.1f, 0.0f, 0.0f, 0.0f, 0.0f, 0.0f, 0.0f,
1120:SensorLib\bme688/bme68x.c ****     };
1121:SensorLib\bme688/bme68x.c **** 
1122:SensorLib\bme688/bme68x.c ****     var1 = (1340.0f + (5.0f * dev->calib.range_sw_err));
1123:SensorLib\bme688/bme68x.c ****     var2 = (var1) * (1.0f + lookup_k1_range[gas_range] / 100.0f);
1124:SensorLib\bme688/bme68x.c ****     var3 = 1.0f + (lookup_k2_range[gas_range] / 100.0f);
1125:SensorLib\bme688/bme68x.c ****     calc_gas_res = 1.0f / (float)(var3 * (0.000000125f) * gas_range_f * (((gas_res_f - 512.0f) / va
1126:SensorLib\bme688/bme68x.c **** 
1127:SensorLib\bme688/bme68x.c ****     return calc_gas_res;
1128:SensorLib\bme688/bme68x.c **** }
1129:SensorLib\bme688/bme68x.c **** 
1130:SensorLib\bme688/bme68x.c **** /* This internal API is used to calculate the gas resistance value in float */
1131:SensorLib\bme688/bme68x.c **** static float calc_gas_resistance_high(uint16_t gas_res_adc, uint8_t gas_range)
1132:SensorLib\bme688/bme68x.c **** {
1133:SensorLib\bme688/bme68x.c ****     float calc_gas_res;
1134:SensorLib\bme688/bme68x.c ****     uint32_t var1 = UINT32_C(262144) >> gas_range;
1135:SensorLib\bme688/bme68x.c ****     int32_t var2 = (int32_t)gas_res_adc - INT32_C(512);
1136:SensorLib\bme688/bme68x.c **** 
1137:SensorLib\bme688/bme68x.c ****     var2 *= INT32_C(3);
1138:SensorLib\bme688/bme68x.c ****     var2 = INT32_C(4096) + var2;
ARM GAS  C:\Users\CHRONI~1\AppData\Local\Temp\ccho61l0.s 			page 32


1139:SensorLib\bme688/bme68x.c **** 
1140:SensorLib\bme688/bme68x.c ****     calc_gas_res = 1000000.0f * (float)var1 / (float)var2;
1141:SensorLib\bme688/bme68x.c **** 
1142:SensorLib\bme688/bme68x.c ****     return calc_gas_res;
1143:SensorLib\bme688/bme68x.c **** }
1144:SensorLib\bme688/bme68x.c **** 
1145:SensorLib\bme688/bme68x.c **** /* This internal API is used to calculate the heater resistance value using float */
1146:SensorLib\bme688/bme68x.c **** static uint8_t calc_res_heat(uint16_t temp, const struct bme68x_dev *dev)
1147:SensorLib\bme688/bme68x.c **** {
1148:SensorLib\bme688/bme68x.c ****     float var1;
1149:SensorLib\bme688/bme68x.c ****     float var2;
1150:SensorLib\bme688/bme68x.c ****     float var3;
1151:SensorLib\bme688/bme68x.c ****     float var4;
1152:SensorLib\bme688/bme68x.c ****     float var5;
1153:SensorLib\bme688/bme68x.c ****     uint8_t res_heat;
1154:SensorLib\bme688/bme68x.c **** 
1155:SensorLib\bme688/bme68x.c ****     if (temp > 400) /* Cap temperature */
1156:SensorLib\bme688/bme68x.c ****     {
1157:SensorLib\bme688/bme68x.c ****         temp = 400;
1158:SensorLib\bme688/bme68x.c ****     }
1159:SensorLib\bme688/bme68x.c **** 
1160:SensorLib\bme688/bme68x.c ****     var1 = (((float)dev->calib.par_gh1 / (16.0f)) + 49.0f);
1161:SensorLib\bme688/bme68x.c ****     var2 = ((((float)dev->calib.par_gh2 / (32768.0f)) * (0.0005f)) + 0.00235f);
1162:SensorLib\bme688/bme68x.c ****     var3 = ((float)dev->calib.par_gh3 / (1024.0f));
1163:SensorLib\bme688/bme68x.c ****     var4 = (var1 * (1.0f + (var2 * (float)temp)));
1164:SensorLib\bme688/bme68x.c ****     var5 = (var4 + (var3 * (float)dev->amb_temp));
1165:SensorLib\bme688/bme68x.c ****     res_heat =
1166:SensorLib\bme688/bme68x.c ****         (uint8_t)(3.4f *
1167:SensorLib\bme688/bme68x.c ****                   ((var5 * (4 / (4 + (float)dev->calib.res_heat_range)) *
1168:SensorLib\bme688/bme68x.c ****                     (1 / (1 + ((float)dev->calib.res_heat_val * 0.002f)))) -
1169:SensorLib\bme688/bme68x.c ****                    25));
1170:SensorLib\bme688/bme68x.c **** 
1171:SensorLib\bme688/bme68x.c ****     return res_heat;
1172:SensorLib\bme688/bme68x.c **** }
1173:SensorLib\bme688/bme68x.c **** 
1174:SensorLib\bme688/bme68x.c **** #endif
1175:SensorLib\bme688/bme68x.c **** 
1176:SensorLib\bme688/bme68x.c **** /* This internal API is used to calculate the gas wait */
1177:SensorLib\bme688/bme68x.c **** static uint8_t calc_gas_wait(uint16_t dur)
1178:SensorLib\bme688/bme68x.c **** {
 623              		.loc 1 1178 0
 624              		.cfi_startproc
 625              		@ args = 0, pretend = 0, frame = 0
 626              		@ frame_needed = 0, uses_anonymous_args = 0
 627              		@ link register save eliminated.
 628              	.LVL93:
1179:SensorLib\bme688/bme68x.c ****     uint8_t factor = 0;
1180:SensorLib\bme688/bme68x.c ****     uint8_t durval;
1181:SensorLib\bme688/bme68x.c **** 
1182:SensorLib\bme688/bme68x.c ****     if (dur >= 0xfc0)
 629              		.loc 1 1182 0
 630 0000 B0F57C6F 		cmp	r0, #4032
 631 0004 0CD2     		bcs	.L29
 632 0006 0023     		movs	r3, #0
 633 0008 02E0     		b	.L27
 634              	.LVL94:
 635              	.L28:
ARM GAS  C:\Users\CHRONI~1\AppData\Local\Temp\ccho61l0.s 			page 33


1183:SensorLib\bme688/bme68x.c ****     {
1184:SensorLib\bme688/bme68x.c ****         durval = 0xff; /* Max duration*/
1185:SensorLib\bme688/bme68x.c ****     }
1186:SensorLib\bme688/bme68x.c ****     else
1187:SensorLib\bme688/bme68x.c ****     {
1188:SensorLib\bme688/bme68x.c ****         while (dur > 0x3F)
1189:SensorLib\bme688/bme68x.c ****         {
1190:SensorLib\bme688/bme68x.c ****             dur = dur / 4;
 636              		.loc 1 1190 0
 637 000a 8008     		lsrs	r0, r0, #2
 638              	.LVL95:
1191:SensorLib\bme688/bme68x.c ****             factor += 1;
 639              		.loc 1 1191 0
 640 000c 0133     		adds	r3, r3, #1
 641              	.LVL96:
 642 000e DBB2     		uxtb	r3, r3
 643              	.LVL97:
 644              	.L27:
1188:SensorLib\bme688/bme68x.c ****         {
 645              		.loc 1 1188 0
 646 0010 3F28     		cmp	r0, #63
 647 0012 FAD8     		bhi	.L28
1192:SensorLib\bme688/bme68x.c ****         }
1193:SensorLib\bme688/bme68x.c **** 
1194:SensorLib\bme688/bme68x.c ****         durval = (uint8_t)(dur + (factor * 64));
 648              		.loc 1 1194 0
 649 0014 C0B2     		uxtb	r0, r0
 650              	.LVL98:
 651 0016 9B01     		lsls	r3, r3, #6
 652              	.LVL99:
 653 0018 DBB2     		uxtb	r3, r3
 654 001a 1844     		add	r0, r0, r3
 655 001c C0B2     		uxtb	r0, r0
 656              	.LVL100:
 657 001e 7047     		bx	lr
 658              	.LVL101:
 659              	.L29:
1184:SensorLib\bme688/bme68x.c ****     }
 660              		.loc 1 1184 0
 661 0020 FF20     		movs	r0, #255
 662              	.LVL102:
1195:SensorLib\bme688/bme68x.c ****     }
1196:SensorLib\bme688/bme68x.c **** 
1197:SensorLib\bme688/bme68x.c ****     return durval;
1198:SensorLib\bme688/bme68x.c **** }
 663              		.loc 1 1198 0
 664 0022 7047     		bx	lr
 665              		.cfi_endproc
 666              	.LFE20:
 667              		.size	calc_gas_wait, .-calc_gas_wait
 668              		.section	.text.null_ptr_check,"ax",%progbits
 669              		.align	2
 670              		.thumb
 671              		.thumb_func
 672              		.type	null_ptr_check, %function
 673              	null_ptr_check:
 674              	.LFB26:
ARM GAS  C:\Users\CHRONI~1\AppData\Local\Temp\ccho61l0.s 			page 34


1199:SensorLib\bme688/bme68x.c **** 
1200:SensorLib\bme688/bme68x.c **** /* This internal API is used to read a single data of the sensor */
1201:SensorLib\bme688/bme68x.c **** static int8_t read_field_data(uint8_t index, struct bme68x_data *data, struct bme68x_dev *dev)
1202:SensorLib\bme688/bme68x.c **** {
1203:SensorLib\bme688/bme68x.c ****     int8_t rslt = BME68X_OK;
1204:SensorLib\bme688/bme68x.c ****     uint8_t buff[BME68X_LEN_FIELD] = { 0 };
1205:SensorLib\bme688/bme68x.c ****     uint8_t gas_range_l, gas_range_h;
1206:SensorLib\bme688/bme68x.c ****     uint32_t adc_temp;
1207:SensorLib\bme688/bme68x.c ****     uint32_t adc_pres;
1208:SensorLib\bme688/bme68x.c ****     uint16_t adc_hum;
1209:SensorLib\bme688/bme68x.c ****     uint16_t adc_gas_res_low, adc_gas_res_high;
1210:SensorLib\bme688/bme68x.c ****     uint8_t tries = 5;
1211:SensorLib\bme688/bme68x.c **** 
1212:SensorLib\bme688/bme68x.c ****     while ((tries) && (rslt == BME68X_OK))
1213:SensorLib\bme688/bme68x.c ****     {
1214:SensorLib\bme688/bme68x.c ****         rslt = bme68x_get_regs(((uint8_t)(BME68X_REG_FIELD0 + (index * BME68X_LEN_FIELD_OFFSET))),
1215:SensorLib\bme688/bme68x.c ****                                buff,
1216:SensorLib\bme688/bme68x.c ****                                (uint16_t)BME68X_LEN_FIELD,
1217:SensorLib\bme688/bme68x.c ****                                dev);
1218:SensorLib\bme688/bme68x.c ****         if (!data)
1219:SensorLib\bme688/bme68x.c ****         {
1220:SensorLib\bme688/bme68x.c ****             rslt = BME68X_E_NULL_PTR;
1221:SensorLib\bme688/bme68x.c ****             break;
1222:SensorLib\bme688/bme68x.c ****         }
1223:SensorLib\bme688/bme68x.c **** 
1224:SensorLib\bme688/bme68x.c ****         data->status = buff[0] & BME68X_NEW_DATA_MSK;
1225:SensorLib\bme688/bme68x.c ****         data->gas_index = buff[0] & BME68X_GAS_INDEX_MSK;
1226:SensorLib\bme688/bme68x.c ****         data->meas_index = buff[1];
1227:SensorLib\bme688/bme68x.c **** 
1228:SensorLib\bme688/bme68x.c ****         /* read the raw data from the sensor */
1229:SensorLib\bme688/bme68x.c ****         adc_pres = (uint32_t)(((uint32_t)buff[2] * 4096) | ((uint32_t)buff[3] * 16) | ((uint32_t)bu
1230:SensorLib\bme688/bme68x.c ****         adc_temp = (uint32_t)(((uint32_t)buff[5] * 4096) | ((uint32_t)buff[6] * 16) | ((uint32_t)bu
1231:SensorLib\bme688/bme68x.c ****         adc_hum = (uint16_t)(((uint32_t)buff[8] * 256) | (uint32_t)buff[9]);
1232:SensorLib\bme688/bme68x.c ****         adc_gas_res_low = (uint16_t)((uint32_t)buff[13] * 4 | (((uint32_t)buff[14]) / 64));
1233:SensorLib\bme688/bme68x.c ****         adc_gas_res_high = (uint16_t)((uint32_t)buff[15] * 4 | (((uint32_t)buff[16]) / 64));
1234:SensorLib\bme688/bme68x.c ****         gas_range_l = buff[14] & BME68X_GAS_RANGE_MSK;
1235:SensorLib\bme688/bme68x.c ****         gas_range_h = buff[16] & BME68X_GAS_RANGE_MSK;
1236:SensorLib\bme688/bme68x.c ****         if (dev->variant_id == BME68X_VARIANT_GAS_HIGH)
1237:SensorLib\bme688/bme68x.c ****         {
1238:SensorLib\bme688/bme68x.c ****             data->status |= buff[16] & BME68X_GASM_VALID_MSK;
1239:SensorLib\bme688/bme68x.c ****             data->status |= buff[16] & BME68X_HEAT_STAB_MSK;
1240:SensorLib\bme688/bme68x.c ****         }
1241:SensorLib\bme688/bme68x.c ****         else
1242:SensorLib\bme688/bme68x.c ****         {
1243:SensorLib\bme688/bme68x.c ****             data->status |= buff[14] & BME68X_GASM_VALID_MSK;
1244:SensorLib\bme688/bme68x.c ****             data->status |= buff[14] & BME68X_HEAT_STAB_MSK;
1245:SensorLib\bme688/bme68x.c ****         }
1246:SensorLib\bme688/bme68x.c **** 
1247:SensorLib\bme688/bme68x.c ****         if ((data->status & BME68X_NEW_DATA_MSK) && (rslt == BME68X_OK))
1248:SensorLib\bme688/bme68x.c ****         {
1249:SensorLib\bme688/bme68x.c ****             rslt = bme68x_get_regs(BME68X_REG_RES_HEAT0 + data->gas_index, &data->res_heat, 1, dev)
1250:SensorLib\bme688/bme68x.c ****             if (rslt == BME68X_OK)
1251:SensorLib\bme688/bme68x.c ****             {
1252:SensorLib\bme688/bme68x.c ****                 rslt = bme68x_get_regs(BME68X_REG_IDAC_HEAT0 + data->gas_index, &data->idac, 1, dev
1253:SensorLib\bme688/bme68x.c ****             }
1254:SensorLib\bme688/bme68x.c **** 
1255:SensorLib\bme688/bme68x.c ****             if (rslt == BME68X_OK)
ARM GAS  C:\Users\CHRONI~1\AppData\Local\Temp\ccho61l0.s 			page 35


1256:SensorLib\bme688/bme68x.c ****             {
1257:SensorLib\bme688/bme68x.c ****                 rslt = bme68x_get_regs(BME68X_REG_GAS_WAIT0 + data->gas_index, &data->gas_wait, 1, 
1258:SensorLib\bme688/bme68x.c ****             }
1259:SensorLib\bme688/bme68x.c **** 
1260:SensorLib\bme688/bme68x.c ****             if (rslt == BME68X_OK)
1261:SensorLib\bme688/bme68x.c ****             {
1262:SensorLib\bme688/bme68x.c ****                 data->temperature = calc_temperature(adc_temp, dev);
1263:SensorLib\bme688/bme68x.c ****                 data->pressure = calc_pressure(adc_pres, dev);
1264:SensorLib\bme688/bme68x.c ****                 data->humidity = calc_humidity(adc_hum, dev);
1265:SensorLib\bme688/bme68x.c ****                 if (dev->variant_id == BME68X_VARIANT_GAS_HIGH)
1266:SensorLib\bme688/bme68x.c ****                 {
1267:SensorLib\bme688/bme68x.c ****                     data->gas_resistance = calc_gas_resistance_high(adc_gas_res_high, gas_range_h);
1268:SensorLib\bme688/bme68x.c ****                 }
1269:SensorLib\bme688/bme68x.c ****                 else
1270:SensorLib\bme688/bme68x.c ****                 {
1271:SensorLib\bme688/bme68x.c ****                     data->gas_resistance = calc_gas_resistance_low(adc_gas_res_low, gas_range_l, de
1272:SensorLib\bme688/bme68x.c ****                 }
1273:SensorLib\bme688/bme68x.c **** 
1274:SensorLib\bme688/bme68x.c ****                 break;
1275:SensorLib\bme688/bme68x.c ****             }
1276:SensorLib\bme688/bme68x.c ****         }
1277:SensorLib\bme688/bme68x.c **** 
1278:SensorLib\bme688/bme68x.c ****         if (rslt == BME68X_OK)
1279:SensorLib\bme688/bme68x.c ****         {
1280:SensorLib\bme688/bme68x.c ****             dev->delay_us(BME68X_PERIOD_POLL, dev->intf_ptr);
1281:SensorLib\bme688/bme68x.c ****         }
1282:SensorLib\bme688/bme68x.c **** 
1283:SensorLib\bme688/bme68x.c ****         tries--;
1284:SensorLib\bme688/bme68x.c ****     }
1285:SensorLib\bme688/bme68x.c **** 
1286:SensorLib\bme688/bme68x.c ****     return rslt;
1287:SensorLib\bme688/bme68x.c **** }
1288:SensorLib\bme688/bme68x.c **** 
1289:SensorLib\bme688/bme68x.c **** /* This internal API is used to read all data fields of the sensor */
1290:SensorLib\bme688/bme68x.c **** static int8_t read_all_field_data(struct bme68x_data * const data[], struct bme68x_dev *dev)
1291:SensorLib\bme688/bme68x.c **** {
1292:SensorLib\bme688/bme68x.c ****     int8_t rslt = BME68X_OK;
1293:SensorLib\bme688/bme68x.c ****     uint8_t buff[BME68X_LEN_FIELD * 3] = { 0 };
1294:SensorLib\bme688/bme68x.c ****     uint8_t gas_range_l, gas_range_h;
1295:SensorLib\bme688/bme68x.c ****     uint32_t adc_temp;
1296:SensorLib\bme688/bme68x.c ****     uint32_t adc_pres;
1297:SensorLib\bme688/bme68x.c ****     uint16_t adc_hum;
1298:SensorLib\bme688/bme68x.c ****     uint16_t adc_gas_res_low, adc_gas_res_high;
1299:SensorLib\bme688/bme68x.c ****     uint8_t off;
1300:SensorLib\bme688/bme68x.c ****     uint8_t set_val[30] = { 0 }; /* idac, res_heat, gas_wait */
1301:SensorLib\bme688/bme68x.c ****     uint8_t i;
1302:SensorLib\bme688/bme68x.c **** 
1303:SensorLib\bme688/bme68x.c ****     if (!data[0] && !data[1] && !data[2])
1304:SensorLib\bme688/bme68x.c ****     {
1305:SensorLib\bme688/bme68x.c ****         rslt = BME68X_E_NULL_PTR;
1306:SensorLib\bme688/bme68x.c ****     }
1307:SensorLib\bme688/bme68x.c **** 
1308:SensorLib\bme688/bme68x.c ****     if (rslt == BME68X_OK)
1309:SensorLib\bme688/bme68x.c ****     {
1310:SensorLib\bme688/bme68x.c ****         rslt = bme68x_get_regs(BME68X_REG_FIELD0, buff, (uint32_t) BME68X_LEN_FIELD * 3, dev);
1311:SensorLib\bme688/bme68x.c ****     }
1312:SensorLib\bme688/bme68x.c **** 
ARM GAS  C:\Users\CHRONI~1\AppData\Local\Temp\ccho61l0.s 			page 36


1313:SensorLib\bme688/bme68x.c ****     if (rslt == BME68X_OK)
1314:SensorLib\bme688/bme68x.c ****     {
1315:SensorLib\bme688/bme68x.c ****         rslt = bme68x_get_regs(BME68X_REG_IDAC_HEAT0, set_val, 30, dev);
1316:SensorLib\bme688/bme68x.c ****     }
1317:SensorLib\bme688/bme68x.c **** 
1318:SensorLib\bme688/bme68x.c ****     for (i = 0; ((i < 3) && (rslt == BME68X_OK)); i++)
1319:SensorLib\bme688/bme68x.c ****     {
1320:SensorLib\bme688/bme68x.c ****         off = (uint8_t)(i * BME68X_LEN_FIELD);
1321:SensorLib\bme688/bme68x.c ****         data[i]->status = buff[off] & BME68X_NEW_DATA_MSK;
1322:SensorLib\bme688/bme68x.c ****         data[i]->gas_index = buff[off] & BME68X_GAS_INDEX_MSK;
1323:SensorLib\bme688/bme68x.c ****         data[i]->meas_index = buff[off + 1];
1324:SensorLib\bme688/bme68x.c **** 
1325:SensorLib\bme688/bme68x.c ****         /* read the raw data from the sensor */
1326:SensorLib\bme688/bme68x.c ****         adc_pres =
1327:SensorLib\bme688/bme68x.c ****             (uint32_t) (((uint32_t) buff[off + 2] * 4096) | ((uint32_t) buff[off + 3] * 16) |
1328:SensorLib\bme688/bme68x.c ****                         ((uint32_t) buff[off + 4] / 16));
1329:SensorLib\bme688/bme68x.c ****         adc_temp =
1330:SensorLib\bme688/bme68x.c ****             (uint32_t) (((uint32_t) buff[off + 5] * 4096) | ((uint32_t) buff[off + 6] * 16) |
1331:SensorLib\bme688/bme68x.c ****                         ((uint32_t) buff[off + 7] / 16));
1332:SensorLib\bme688/bme68x.c ****         adc_hum = (uint16_t) (((uint32_t) buff[off + 8] * 256) | (uint32_t) buff[off + 9]);
1333:SensorLib\bme688/bme68x.c ****         adc_gas_res_low = (uint16_t) ((uint32_t) buff[off + 13] * 4 | (((uint32_t) buff[off + 14]) 
1334:SensorLib\bme688/bme68x.c ****         adc_gas_res_high = (uint16_t) ((uint32_t) buff[off + 15] * 4 | (((uint32_t) buff[off + 16])
1335:SensorLib\bme688/bme68x.c ****         gas_range_l = buff[off + 14] & BME68X_GAS_RANGE_MSK;
1336:SensorLib\bme688/bme68x.c ****         gas_range_h = buff[off + 16] & BME68X_GAS_RANGE_MSK;
1337:SensorLib\bme688/bme68x.c ****         if (dev->variant_id == BME68X_VARIANT_GAS_HIGH)
1338:SensorLib\bme688/bme68x.c ****         {
1339:SensorLib\bme688/bme68x.c ****             data[i]->status |= buff[off + 16] & BME68X_GASM_VALID_MSK;
1340:SensorLib\bme688/bme68x.c ****             data[i]->status |= buff[off + 16] & BME68X_HEAT_STAB_MSK;
1341:SensorLib\bme688/bme68x.c ****         }
1342:SensorLib\bme688/bme68x.c ****         else
1343:SensorLib\bme688/bme68x.c ****         {
1344:SensorLib\bme688/bme68x.c ****             data[i]->status |= buff[off + 14] & BME68X_GASM_VALID_MSK;
1345:SensorLib\bme688/bme68x.c ****             data[i]->status |= buff[off + 14] & BME68X_HEAT_STAB_MSK;
1346:SensorLib\bme688/bme68x.c ****         }
1347:SensorLib\bme688/bme68x.c **** 
1348:SensorLib\bme688/bme68x.c ****         data[i]->idac = set_val[data[i]->gas_index];
1349:SensorLib\bme688/bme68x.c ****         data[i]->res_heat = set_val[10 + data[i]->gas_index];
1350:SensorLib\bme688/bme68x.c ****         data[i]->gas_wait = set_val[20 + data[i]->gas_index];
1351:SensorLib\bme688/bme68x.c ****         data[i]->temperature = calc_temperature(adc_temp, dev);
1352:SensorLib\bme688/bme68x.c ****         data[i]->pressure = calc_pressure(adc_pres, dev);
1353:SensorLib\bme688/bme68x.c ****         data[i]->humidity = calc_humidity(adc_hum, dev);
1354:SensorLib\bme688/bme68x.c ****         if (dev->variant_id == BME68X_VARIANT_GAS_HIGH)
1355:SensorLib\bme688/bme68x.c ****         {
1356:SensorLib\bme688/bme68x.c ****             data[i]->gas_resistance = calc_gas_resistance_high(adc_gas_res_high, gas_range_h);
1357:SensorLib\bme688/bme68x.c ****         }
1358:SensorLib\bme688/bme68x.c ****         else
1359:SensorLib\bme688/bme68x.c ****         {
1360:SensorLib\bme688/bme68x.c ****             data[i]->gas_resistance = calc_gas_resistance_low(adc_gas_res_low, gas_range_l, dev);
1361:SensorLib\bme688/bme68x.c ****         }
1362:SensorLib\bme688/bme68x.c ****     }
1363:SensorLib\bme688/bme68x.c **** 
1364:SensorLib\bme688/bme68x.c ****     return rslt;
1365:SensorLib\bme688/bme68x.c **** }
1366:SensorLib\bme688/bme68x.c **** 
1367:SensorLib\bme688/bme68x.c **** /* This internal API is used to switch between SPI memory pages */
1368:SensorLib\bme688/bme68x.c **** static int8_t set_mem_page(uint8_t reg_addr, struct bme68x_dev *dev)
1369:SensorLib\bme688/bme68x.c **** {
ARM GAS  C:\Users\CHRONI~1\AppData\Local\Temp\ccho61l0.s 			page 37


1370:SensorLib\bme688/bme68x.c ****     int8_t rslt;
1371:SensorLib\bme688/bme68x.c ****     uint8_t reg;
1372:SensorLib\bme688/bme68x.c ****     uint8_t mem_page;
1373:SensorLib\bme688/bme68x.c **** 
1374:SensorLib\bme688/bme68x.c ****     /* Check for null pointers in the device structure*/
1375:SensorLib\bme688/bme68x.c ****     rslt = null_ptr_check(dev);
1376:SensorLib\bme688/bme68x.c ****     if (rslt == BME68X_OK)
1377:SensorLib\bme688/bme68x.c ****     {
1378:SensorLib\bme688/bme68x.c ****         if (reg_addr > 0x7f)
1379:SensorLib\bme688/bme68x.c ****         {
1380:SensorLib\bme688/bme68x.c ****             mem_page = BME68X_MEM_PAGE1;
1381:SensorLib\bme688/bme68x.c ****         }
1382:SensorLib\bme688/bme68x.c ****         else
1383:SensorLib\bme688/bme68x.c ****         {
1384:SensorLib\bme688/bme68x.c ****             mem_page = BME68X_MEM_PAGE0;
1385:SensorLib\bme688/bme68x.c ****         }
1386:SensorLib\bme688/bme68x.c **** 
1387:SensorLib\bme688/bme68x.c ****         if (mem_page != dev->mem_page)
1388:SensorLib\bme688/bme68x.c ****         {
1389:SensorLib\bme688/bme68x.c ****             dev->mem_page = mem_page;
1390:SensorLib\bme688/bme68x.c ****             dev->intf_rslt = dev->read(BME68X_REG_MEM_PAGE | BME68X_SPI_RD_MSK, &reg, 1, dev->intf_
1391:SensorLib\bme688/bme68x.c ****             if (dev->intf_rslt != 0)
1392:SensorLib\bme688/bme68x.c ****             {
1393:SensorLib\bme688/bme68x.c ****                 rslt = BME68X_E_COM_FAIL;
1394:SensorLib\bme688/bme68x.c ****             }
1395:SensorLib\bme688/bme68x.c **** 
1396:SensorLib\bme688/bme68x.c ****             if (rslt == BME68X_OK)
1397:SensorLib\bme688/bme68x.c ****             {
1398:SensorLib\bme688/bme68x.c ****                 reg = reg & (~BME68X_MEM_PAGE_MSK);
1399:SensorLib\bme688/bme68x.c ****                 reg = reg | (dev->mem_page & BME68X_MEM_PAGE_MSK);
1400:SensorLib\bme688/bme68x.c ****                 dev->intf_rslt = dev->write(BME68X_REG_MEM_PAGE & BME68X_SPI_WR_MSK, &reg, 1, dev->
1401:SensorLib\bme688/bme68x.c ****                 if (dev->intf_rslt != 0)
1402:SensorLib\bme688/bme68x.c ****                 {
1403:SensorLib\bme688/bme68x.c ****                     rslt = BME68X_E_COM_FAIL;
1404:SensorLib\bme688/bme68x.c ****                 }
1405:SensorLib\bme688/bme68x.c ****             }
1406:SensorLib\bme688/bme68x.c ****         }
1407:SensorLib\bme688/bme68x.c ****     }
1408:SensorLib\bme688/bme68x.c **** 
1409:SensorLib\bme688/bme68x.c ****     return rslt;
1410:SensorLib\bme688/bme68x.c **** }
1411:SensorLib\bme688/bme68x.c **** 
1412:SensorLib\bme688/bme68x.c **** /* This internal API is used to get the current SPI memory page */
1413:SensorLib\bme688/bme68x.c **** static int8_t get_mem_page(struct bme68x_dev *dev)
1414:SensorLib\bme688/bme68x.c **** {
1415:SensorLib\bme688/bme68x.c ****     int8_t rslt;
1416:SensorLib\bme688/bme68x.c ****     uint8_t reg;
1417:SensorLib\bme688/bme68x.c **** 
1418:SensorLib\bme688/bme68x.c ****     /* Check for null pointer in the device structure*/
1419:SensorLib\bme688/bme68x.c ****     rslt = null_ptr_check(dev);
1420:SensorLib\bme688/bme68x.c ****     if (rslt == BME68X_OK)
1421:SensorLib\bme688/bme68x.c ****     {
1422:SensorLib\bme688/bme68x.c ****         dev->intf_rslt = dev->read(BME68X_REG_MEM_PAGE | BME68X_SPI_RD_MSK, &reg, 1, dev->intf_ptr)
1423:SensorLib\bme688/bme68x.c ****         if (dev->intf_rslt != 0)
1424:SensorLib\bme688/bme68x.c ****         {
1425:SensorLib\bme688/bme68x.c ****             rslt = BME68X_E_COM_FAIL;
1426:SensorLib\bme688/bme68x.c ****         }
ARM GAS  C:\Users\CHRONI~1\AppData\Local\Temp\ccho61l0.s 			page 38


1427:SensorLib\bme688/bme68x.c ****         else
1428:SensorLib\bme688/bme68x.c ****         {
1429:SensorLib\bme688/bme68x.c ****             dev->mem_page = reg & BME68X_MEM_PAGE_MSK;
1430:SensorLib\bme688/bme68x.c ****         }
1431:SensorLib\bme688/bme68x.c ****     }
1432:SensorLib\bme688/bme68x.c **** 
1433:SensorLib\bme688/bme68x.c ****     return rslt;
1434:SensorLib\bme688/bme68x.c **** }
1435:SensorLib\bme688/bme68x.c **** 
1436:SensorLib\bme688/bme68x.c **** /* This internal API is used to limit the max value of a parameter */
1437:SensorLib\bme688/bme68x.c **** static int8_t boundary_check(uint8_t *value, uint8_t max, struct bme68x_dev *dev)
1438:SensorLib\bme688/bme68x.c **** {
1439:SensorLib\bme688/bme68x.c ****     int8_t rslt;
1440:SensorLib\bme688/bme68x.c **** 
1441:SensorLib\bme688/bme68x.c ****     rslt = null_ptr_check(dev);
1442:SensorLib\bme688/bme68x.c ****     if ((value != NULL) && (rslt == BME68X_OK))
1443:SensorLib\bme688/bme68x.c ****     {
1444:SensorLib\bme688/bme68x.c ****         /* Check if value is above maximum value */
1445:SensorLib\bme688/bme68x.c ****         if (*value > max)
1446:SensorLib\bme688/bme68x.c ****         {
1447:SensorLib\bme688/bme68x.c ****             /* Auto correct the invalid value to maximum value */
1448:SensorLib\bme688/bme68x.c ****             *value = max;
1449:SensorLib\bme688/bme68x.c ****             dev->info_msg |= BME68X_I_PARAM_CORR;
1450:SensorLib\bme688/bme68x.c ****         }
1451:SensorLib\bme688/bme68x.c ****     }
1452:SensorLib\bme688/bme68x.c ****     else
1453:SensorLib\bme688/bme68x.c ****     {
1454:SensorLib\bme688/bme68x.c ****         rslt = BME68X_E_NULL_PTR;
1455:SensorLib\bme688/bme68x.c ****     }
1456:SensorLib\bme688/bme68x.c **** 
1457:SensorLib\bme688/bme68x.c ****     return rslt;
1458:SensorLib\bme688/bme68x.c **** }
1459:SensorLib\bme688/bme68x.c **** 
1460:SensorLib\bme688/bme68x.c **** /* This internal API is used to check the bme68x_dev for null pointers */
1461:SensorLib\bme688/bme68x.c **** static int8_t null_ptr_check(const struct bme68x_dev *dev)
1462:SensorLib\bme688/bme68x.c **** {
 675              		.loc 1 1462 0
 676              		.cfi_startproc
 677              		@ args = 0, pretend = 0, frame = 0
 678              		@ frame_needed = 0, uses_anonymous_args = 0
 679              		@ link register save eliminated.
 680              	.LVL103:
1463:SensorLib\bme688/bme68x.c ****     int8_t rslt = BME68X_OK;
1464:SensorLib\bme688/bme68x.c **** 
1465:SensorLib\bme688/bme68x.c ****     if ((dev == NULL) || (dev->read == NULL) || (dev->write == NULL) || (dev->delay_us == NULL))
 681              		.loc 1 1465 0
 682 0000 38B1     		cbz	r0, .L32
 683              		.loc 1 1465 0 is_stmt 0 discriminator 1
 684 0002 026C     		ldr	r2, [r0, #64]
 685 0004 42B1     		cbz	r2, .L33
 686              		.loc 1 1465 0 discriminator 2
 687 0006 426C     		ldr	r2, [r0, #68]
 688 0008 4AB1     		cbz	r2, .L34
 689              		.loc 1 1465 0 discriminator 3
 690 000a 836C     		ldr	r3, [r0, #72]
 691 000c 53B1     		cbz	r3, .L35
1463:SensorLib\bme688/bme68x.c ****     int8_t rslt = BME68X_OK;
ARM GAS  C:\Users\CHRONI~1\AppData\Local\Temp\ccho61l0.s 			page 39


 692              		.loc 1 1463 0 is_stmt 1
 693 000e 0020     		movs	r0, #0
 694              	.LVL104:
 695 0010 7047     		bx	lr
 696              	.LVL105:
 697              	.L32:
1466:SensorLib\bme688/bme68x.c ****     {
1467:SensorLib\bme688/bme68x.c ****         /* Device structure pointer is not valid */
1468:SensorLib\bme688/bme68x.c ****         rslt = BME68X_E_NULL_PTR;
 698              		.loc 1 1468 0
 699 0012 4FF0FF30 		mov	r0, #-1
 700              	.LVL106:
 701 0016 7047     		bx	lr
 702              	.LVL107:
 703              	.L33:
 704 0018 4FF0FF30 		mov	r0, #-1
 705              	.LVL108:
 706 001c 7047     		bx	lr
 707              	.LVL109:
 708              	.L34:
 709 001e 4FF0FF30 		mov	r0, #-1
 710              	.LVL110:
 711 0022 7047     		bx	lr
 712              	.LVL111:
 713              	.L35:
 714 0024 4FF0FF30 		mov	r0, #-1
 715              	.LVL112:
1469:SensorLib\bme688/bme68x.c ****     }
1470:SensorLib\bme688/bme68x.c **** 
1471:SensorLib\bme688/bme68x.c ****     return rslt;
1472:SensorLib\bme688/bme68x.c **** }
 716              		.loc 1 1472 0
 717 0028 7047     		bx	lr
 718              		.cfi_endproc
 719              	.LFE26:
 720              		.size	null_ptr_check, .-null_ptr_check
 721 002a 00BF     		.section	.text.set_mem_page,"ax",%progbits
 722              		.align	2
 723              		.thumb
 724              		.thumb_func
 725              		.type	set_mem_page, %function
 726              	set_mem_page:
 727              	.LFB23:
1369:SensorLib\bme688/bme68x.c ****     int8_t rslt;
 728              		.loc 1 1369 0
 729              		.cfi_startproc
 730              		@ args = 0, pretend = 0, frame = 8
 731              		@ frame_needed = 0, uses_anonymous_args = 0
 732              	.LVL113:
 733 0000 70B5     		push	{r4, r5, r6, lr}
 734              		.cfi_def_cfa_offset 16
 735              		.cfi_offset 4, -16
 736              		.cfi_offset 5, -12
 737              		.cfi_offset 6, -8
 738              		.cfi_offset 14, -4
 739 0002 82B0     		sub	sp, sp, #8
 740              		.cfi_def_cfa_offset 24
ARM GAS  C:\Users\CHRONI~1\AppData\Local\Temp\ccho61l0.s 			page 40


 741 0004 0646     		mov	r6, r0
 742 0006 0C46     		mov	r4, r1
1375:SensorLib\bme688/bme68x.c ****     if (rslt == BME68X_OK)
 743              		.loc 1 1375 0
 744 0008 0846     		mov	r0, r1
 745              	.LVL114:
 746 000a FFF7FEFF 		bl	null_ptr_check
 747              	.LVL115:
1376:SensorLib\bme688/bme68x.c ****     {
 748              		.loc 1 1376 0
 749 000e 0546     		mov	r5, r0
 750 0010 58BB     		cbnz	r0, .L37
1378:SensorLib\bme688/bme68x.c ****         {
 751              		.loc 1 1378 0
 752 0012 16F0800F 		tst	r6, #128
 753 0016 01D0     		beq	.L40
1380:SensorLib\bme688/bme68x.c ****         }
 754              		.loc 1 1380 0
 755 0018 0023     		movs	r3, #0
 756 001a 00E0     		b	.L38
 757              	.L40:
1384:SensorLib\bme688/bme68x.c ****         }
 758              		.loc 1 1384 0
 759 001c 1023     		movs	r3, #16
 760              	.L38:
 761              	.LVL116:
1387:SensorLib\bme688/bme68x.c ****         {
 762              		.loc 1 1387 0
 763 001e 627B     		ldrb	r2, [r4, #13]	@ zero_extendqisi2
 764 0020 9342     		cmp	r3, r2
 765 0022 22D0     		beq	.L37
1389:SensorLib\bme688/bme68x.c ****             dev->intf_rslt = dev->read(BME68X_REG_MEM_PAGE | BME68X_SPI_RD_MSK, &reg, 1, dev->intf_
 766              		.loc 1 1389 0
 767 0024 6373     		strb	r3, [r4, #13]
1390:SensorLib\bme688/bme68x.c ****             if (dev->intf_rslt != 0)
 768              		.loc 1 1390 0
 769 0026 266C     		ldr	r6, [r4, #64]
 770 0028 6368     		ldr	r3, [r4, #4]
 771              	.LVL117:
 772 002a 0122     		movs	r2, #1
 773 002c 0DF10701 		add	r1, sp, #7
 774 0030 F320     		movs	r0, #243
 775              	.LVL118:
 776 0032 B047     		blx	r6
 777              	.LVL119:
 778 0034 84F84C00 		strb	r0, [r4, #76]
1391:SensorLib\bme688/bme68x.c ****             {
 779              		.loc 1 1391 0
 780 0038 08B1     		cbz	r0, .L39
1393:SensorLib\bme688/bme68x.c ****             }
 781              		.loc 1 1393 0
 782 003a 6FF00105 		mvn	r5, #1
 783              	.L39:
 784              	.LVL120:
1396:SensorLib\bme688/bme68x.c ****             {
 785              		.loc 1 1396 0
 786 003e A5B9     		cbnz	r5, .L37
ARM GAS  C:\Users\CHRONI~1\AppData\Local\Temp\ccho61l0.s 			page 41


1398:SensorLib\bme688/bme68x.c ****                 reg = reg | (dev->mem_page & BME68X_MEM_PAGE_MSK);
 787              		.loc 1 1398 0
 788 0040 9DF80730 		ldrb	r3, [sp, #7]	@ zero_extendqisi2
 789 0044 03F0EF02 		and	r2, r3, #239
1399:SensorLib\bme688/bme68x.c ****                 dev->intf_rslt = dev->write(BME68X_REG_MEM_PAGE & BME68X_SPI_WR_MSK, &reg, 1, dev->
 790              		.loc 1 1399 0
 791 0048 637B     		ldrb	r3, [r4, #13]	@ zero_extendqisi2
 792 004a 03F01003 		and	r3, r3, #16
 793 004e 1343     		orrs	r3, r3, r2
 794 0050 02A9     		add	r1, sp, #8
 795 0052 01F8013D 		strb	r3, [r1, #-1]!
1400:SensorLib\bme688/bme68x.c ****                 if (dev->intf_rslt != 0)
 796              		.loc 1 1400 0
 797 0056 666C     		ldr	r6, [r4, #68]
 798 0058 6368     		ldr	r3, [r4, #4]
 799 005a 0122     		movs	r2, #1
 800 005c 7320     		movs	r0, #115
 801 005e B047     		blx	r6
 802              	.LVL121:
 803 0060 84F84C00 		strb	r0, [r4, #76]
1401:SensorLib\bme688/bme68x.c ****                 {
 804              		.loc 1 1401 0
 805 0064 08B1     		cbz	r0, .L37
1403:SensorLib\bme688/bme68x.c ****                 }
 806              		.loc 1 1403 0
 807 0066 6FF00105 		mvn	r5, #1
 808              	.LVL122:
 809              	.L37:
1410:SensorLib\bme688/bme68x.c **** 
 810              		.loc 1 1410 0
 811 006a 2846     		mov	r0, r5
 812 006c 02B0     		add	sp, sp, #8
 813              		.cfi_def_cfa_offset 16
 814              		@ sp needed
 815 006e 70BD     		pop	{r4, r5, r6, pc}
 816              		.cfi_endproc
 817              	.LFE23:
 818              		.size	set_mem_page, .-set_mem_page
 819              		.section	.text.get_mem_page,"ax",%progbits
 820              		.align	2
 821              		.thumb
 822              		.thumb_func
 823              		.type	get_mem_page, %function
 824              	get_mem_page:
 825              	.LFB24:
1414:SensorLib\bme688/bme68x.c ****     int8_t rslt;
 826              		.loc 1 1414 0
 827              		.cfi_startproc
 828              		@ args = 0, pretend = 0, frame = 8
 829              		@ frame_needed = 0, uses_anonymous_args = 0
 830              	.LVL123:
 831 0000 70B5     		push	{r4, r5, r6, lr}
 832              		.cfi_def_cfa_offset 16
 833              		.cfi_offset 4, -16
 834              		.cfi_offset 5, -12
 835              		.cfi_offset 6, -8
 836              		.cfi_offset 14, -4
ARM GAS  C:\Users\CHRONI~1\AppData\Local\Temp\ccho61l0.s 			page 42


 837 0002 82B0     		sub	sp, sp, #8
 838              		.cfi_def_cfa_offset 24
 839 0004 0446     		mov	r4, r0
1419:SensorLib\bme688/bme68x.c ****     if (rslt == BME68X_OK)
 840              		.loc 1 1419 0
 841 0006 FFF7FEFF 		bl	null_ptr_check
 842              	.LVL124:
1420:SensorLib\bme688/bme68x.c ****     {
 843              		.loc 1 1420 0
 844 000a 0546     		mov	r5, r0
 845 000c 88B9     		cbnz	r0, .L45
1422:SensorLib\bme688/bme68x.c ****         if (dev->intf_rslt != 0)
 846              		.loc 1 1422 0
 847 000e 266C     		ldr	r6, [r4, #64]
 848 0010 6368     		ldr	r3, [r4, #4]
 849 0012 0122     		movs	r2, #1
 850 0014 0DF10701 		add	r1, sp, #7
 851 0018 F320     		movs	r0, #243
 852              	.LVL125:
 853 001a B047     		blx	r6
 854              	.LVL126:
 855 001c 84F84C00 		strb	r0, [r4, #76]
1423:SensorLib\bme688/bme68x.c ****         {
 856              		.loc 1 1423 0
 857 0020 28B9     		cbnz	r0, .L46
1429:SensorLib\bme688/bme68x.c ****         }
 858              		.loc 1 1429 0
 859 0022 9DF80730 		ldrb	r3, [sp, #7]	@ zero_extendqisi2
 860 0026 03F01003 		and	r3, r3, #16
 861 002a 6373     		strb	r3, [r4, #13]
 862 002c 01E0     		b	.L45
 863              	.L46:
1425:SensorLib\bme688/bme68x.c ****         }
 864              		.loc 1 1425 0
 865 002e 6FF00105 		mvn	r5, #1
 866              	.L45:
 867              	.LVL127:
1434:SensorLib\bme688/bme68x.c **** 
 868              		.loc 1 1434 0
 869 0032 2846     		mov	r0, r5
 870 0034 02B0     		add	sp, sp, #8
 871              		.cfi_def_cfa_offset 16
 872              		@ sp needed
 873 0036 70BD     		pop	{r4, r5, r6, pc}
 874              		.cfi_endproc
 875              	.LFE24:
 876              		.size	get_mem_page, .-get_mem_page
 877              		.section	.text.boundary_check,"ax",%progbits
 878              		.align	2
 879              		.thumb
 880              		.thumb_func
 881              		.type	boundary_check, %function
 882              	boundary_check:
 883              	.LFB25:
1438:SensorLib\bme688/bme68x.c ****     int8_t rslt;
 884              		.loc 1 1438 0
 885              		.cfi_startproc
ARM GAS  C:\Users\CHRONI~1\AppData\Local\Temp\ccho61l0.s 			page 43


 886              		@ args = 0, pretend = 0, frame = 0
 887              		@ frame_needed = 0, uses_anonymous_args = 0
 888              	.LVL128:
 889 0000 70B5     		push	{r4, r5, r6, lr}
 890              		.cfi_def_cfa_offset 16
 891              		.cfi_offset 4, -16
 892              		.cfi_offset 5, -12
 893              		.cfi_offset 6, -8
 894              		.cfi_offset 14, -4
 895 0002 0446     		mov	r4, r0
 896 0004 0E46     		mov	r6, r1
 897 0006 1546     		mov	r5, r2
1441:SensorLib\bme688/bme68x.c ****     if ((value != NULL) && (rslt == BME68X_OK))
 898              		.loc 1 1441 0
 899 0008 1046     		mov	r0, r2
 900              	.LVL129:
 901 000a FFF7FEFF 		bl	null_ptr_check
 902              	.LVL130:
1442:SensorLib\bme688/bme68x.c ****     {
 903              		.loc 1 1442 0
 904 000e 5CB1     		cbz	r4, .L50
1442:SensorLib\bme688/bme68x.c ****     {
 905              		.loc 1 1442 0 is_stmt 0 discriminator 1
 906 0010 68B9     		cbnz	r0, .L51
1445:SensorLib\bme688/bme68x.c ****         {
 907              		.loc 1 1445 0 is_stmt 1
 908 0012 2378     		ldrb	r3, [r4]	@ zero_extendqisi2
 909 0014 B342     		cmp	r3, r6
 910 0016 0CD9     		bls	.L49
1448:SensorLib\bme688/bme68x.c ****             dev->info_msg |= BME68X_I_PARAM_CORR;
 911              		.loc 1 1448 0
 912 0018 2670     		strb	r6, [r4]
1449:SensorLib\bme688/bme68x.c ****         }
 913              		.loc 1 1449 0
 914 001a 95F84D30 		ldrb	r3, [r5, #77]	@ zero_extendqisi2
 915 001e 43F00103 		orr	r3, r3, #1
 916 0022 85F84D30 		strb	r3, [r5, #77]
 917 0026 70BD     		pop	{r4, r5, r6, pc}
 918              	.LVL131:
 919              	.L50:
1454:SensorLib\bme688/bme68x.c ****     }
 920              		.loc 1 1454 0
 921 0028 4FF0FF30 		mov	r0, #-1
 922              	.LVL132:
 923 002c 70BD     		pop	{r4, r5, r6, pc}
 924              	.LVL133:
 925              	.L51:
 926 002e 4FF0FF30 		mov	r0, #-1
 927              	.LVL134:
 928              	.L49:
1458:SensorLib\bme688/bme68x.c **** 
 929              		.loc 1 1458 0
 930 0032 70BD     		pop	{r4, r5, r6, pc}
 931              		.cfi_endproc
 932              	.LFE25:
 933              		.size	boundary_check, .-boundary_check
 934              		.section	.text.calc_heatr_dur_shared,"ax",%progbits
ARM GAS  C:\Users\CHRONI~1\AppData\Local\Temp\ccho61l0.s 			page 44


 935              		.align	2
 936              		.thumb
 937              		.thumb_func
 938              		.type	calc_heatr_dur_shared, %function
 939              	calc_heatr_dur_shared:
 940              	.LFB28:
1473:SensorLib\bme688/bme68x.c **** 
1474:SensorLib\bme688/bme68x.c **** /* This internal API is used to set heater configurations */
1475:SensorLib\bme688/bme68x.c **** static int8_t set_conf(const struct bme68x_heatr_conf *conf, uint8_t op_mode, uint8_t *nb_conv, str
1476:SensorLib\bme688/bme68x.c **** {
1477:SensorLib\bme688/bme68x.c ****     int8_t rslt = BME68X_OK;
1478:SensorLib\bme688/bme68x.c ****     uint8_t i;
1479:SensorLib\bme688/bme68x.c ****     uint8_t shared_dur;
1480:SensorLib\bme688/bme68x.c ****     uint8_t write_len = 0;
1481:SensorLib\bme688/bme68x.c ****     uint8_t heater_dur_shared_addr = BME68X_REG_SHD_HEATR_DUR;
1482:SensorLib\bme688/bme68x.c ****     uint8_t rh_reg_addr[10] = { 0, 0, 0, 0, 0, 0, 0, 0, 0, 0 };
1483:SensorLib\bme688/bme68x.c ****     uint8_t rh_reg_data[10] = { 0, 0, 0, 0, 0, 0, 0, 0, 0, 0 };
1484:SensorLib\bme688/bme68x.c ****     uint8_t gw_reg_addr[10] = { 0, 0, 0, 0, 0, 0, 0, 0, 0, 0 };
1485:SensorLib\bme688/bme68x.c ****     uint8_t gw_reg_data[10] = { 0, 0, 0, 0, 0, 0, 0, 0, 0, 0 };
1486:SensorLib\bme688/bme68x.c **** 
1487:SensorLib\bme688/bme68x.c ****     switch (op_mode)
1488:SensorLib\bme688/bme68x.c ****     {
1489:SensorLib\bme688/bme68x.c ****         case BME68X_FORCED_MODE:
1490:SensorLib\bme688/bme68x.c ****             rh_reg_addr[0] = BME68X_REG_RES_HEAT0;
1491:SensorLib\bme688/bme68x.c ****             rh_reg_data[0] = calc_res_heat(conf->heatr_temp, dev);
1492:SensorLib\bme688/bme68x.c ****             gw_reg_addr[0] = BME68X_REG_GAS_WAIT0;
1493:SensorLib\bme688/bme68x.c ****             gw_reg_data[0] = calc_gas_wait(conf->heatr_dur);
1494:SensorLib\bme688/bme68x.c ****             (*nb_conv) = 0;
1495:SensorLib\bme688/bme68x.c ****             write_len = 1;
1496:SensorLib\bme688/bme68x.c ****             break;
1497:SensorLib\bme688/bme68x.c ****         case BME68X_SEQUENTIAL_MODE:
1498:SensorLib\bme688/bme68x.c ****             if ((!conf->heatr_dur_prof) || (!conf->heatr_temp_prof))
1499:SensorLib\bme688/bme68x.c ****             {
1500:SensorLib\bme688/bme68x.c ****                 rslt = BME68X_E_NULL_PTR;
1501:SensorLib\bme688/bme68x.c ****                 break;
1502:SensorLib\bme688/bme68x.c ****             }
1503:SensorLib\bme688/bme68x.c **** 
1504:SensorLib\bme688/bme68x.c ****             for (i = 0; i < conf->profile_len; i++)
1505:SensorLib\bme688/bme68x.c ****             {
1506:SensorLib\bme688/bme68x.c ****                 rh_reg_addr[i] = BME68X_REG_RES_HEAT0 + i;
1507:SensorLib\bme688/bme68x.c ****                 rh_reg_data[i] = calc_res_heat(conf->heatr_temp_prof[i], dev);
1508:SensorLib\bme688/bme68x.c ****                 gw_reg_addr[i] = BME68X_REG_GAS_WAIT0 + i;
1509:SensorLib\bme688/bme68x.c ****                 gw_reg_data[i] = calc_gas_wait(conf->heatr_dur_prof[i]);
1510:SensorLib\bme688/bme68x.c ****             }
1511:SensorLib\bme688/bme68x.c **** 
1512:SensorLib\bme688/bme68x.c ****             (*nb_conv) = conf->profile_len;
1513:SensorLib\bme688/bme68x.c ****             write_len = conf->profile_len;
1514:SensorLib\bme688/bme68x.c ****             break;
1515:SensorLib\bme688/bme68x.c ****         case BME68X_PARALLEL_MODE:
1516:SensorLib\bme688/bme68x.c ****             if ((!conf->heatr_dur_prof) || (!conf->heatr_temp_prof))
1517:SensorLib\bme688/bme68x.c ****             {
1518:SensorLib\bme688/bme68x.c ****                 rslt = BME68X_E_NULL_PTR;
1519:SensorLib\bme688/bme68x.c ****                 break;
1520:SensorLib\bme688/bme68x.c ****             }
1521:SensorLib\bme688/bme68x.c **** 
1522:SensorLib\bme688/bme68x.c ****             if (conf->shared_heatr_dur == 0)
1523:SensorLib\bme688/bme68x.c ****             {
ARM GAS  C:\Users\CHRONI~1\AppData\Local\Temp\ccho61l0.s 			page 45


1524:SensorLib\bme688/bme68x.c ****                 rslt = BME68X_W_DEFINE_SHD_HEATR_DUR;
1525:SensorLib\bme688/bme68x.c ****             }
1526:SensorLib\bme688/bme68x.c **** 
1527:SensorLib\bme688/bme68x.c ****             for (i = 0; i < conf->profile_len; i++)
1528:SensorLib\bme688/bme68x.c ****             {
1529:SensorLib\bme688/bme68x.c ****                 rh_reg_addr[i] = BME68X_REG_RES_HEAT0 + i;
1530:SensorLib\bme688/bme68x.c ****                 rh_reg_data[i] = calc_res_heat(conf->heatr_temp_prof[i], dev);
1531:SensorLib\bme688/bme68x.c ****                 gw_reg_addr[i] = BME68X_REG_GAS_WAIT0 + i;
1532:SensorLib\bme688/bme68x.c ****                 gw_reg_data[i] = (uint8_t) conf->heatr_dur_prof[i];
1533:SensorLib\bme688/bme68x.c ****             }
1534:SensorLib\bme688/bme68x.c **** 
1535:SensorLib\bme688/bme68x.c ****             (*nb_conv) = conf->profile_len;
1536:SensorLib\bme688/bme68x.c ****             write_len = conf->profile_len;
1537:SensorLib\bme688/bme68x.c ****             shared_dur = calc_heatr_dur_shared(conf->shared_heatr_dur);
1538:SensorLib\bme688/bme68x.c ****             if (rslt == BME68X_OK)
1539:SensorLib\bme688/bme68x.c ****             {
1540:SensorLib\bme688/bme68x.c ****                 rslt = bme68x_set_regs(&heater_dur_shared_addr, &shared_dur, 1, dev);
1541:SensorLib\bme688/bme68x.c ****             }
1542:SensorLib\bme688/bme68x.c **** 
1543:SensorLib\bme688/bme68x.c ****             break;
1544:SensorLib\bme688/bme68x.c ****         default:
1545:SensorLib\bme688/bme68x.c ****             rslt = BME68X_W_DEFINE_OP_MODE;
1546:SensorLib\bme688/bme68x.c ****     }
1547:SensorLib\bme688/bme68x.c **** 
1548:SensorLib\bme688/bme68x.c ****     if (rslt == BME68X_OK)
1549:SensorLib\bme688/bme68x.c ****     {
1550:SensorLib\bme688/bme68x.c ****         rslt = bme68x_set_regs(rh_reg_addr, rh_reg_data, write_len, dev);
1551:SensorLib\bme688/bme68x.c ****     }
1552:SensorLib\bme688/bme68x.c **** 
1553:SensorLib\bme688/bme68x.c ****     if (rslt == BME68X_OK)
1554:SensorLib\bme688/bme68x.c ****     {
1555:SensorLib\bme688/bme68x.c ****         rslt = bme68x_set_regs(gw_reg_addr, gw_reg_data, write_len, dev);
1556:SensorLib\bme688/bme68x.c ****     }
1557:SensorLib\bme688/bme68x.c **** 
1558:SensorLib\bme688/bme68x.c ****     return rslt;
1559:SensorLib\bme688/bme68x.c **** }
1560:SensorLib\bme688/bme68x.c **** 
1561:SensorLib\bme688/bme68x.c **** /* This internal API is used to calculate the register value for
1562:SensorLib\bme688/bme68x.c ****  * shared heater duration */
1563:SensorLib\bme688/bme68x.c **** static uint8_t calc_heatr_dur_shared(uint16_t dur)
1564:SensorLib\bme688/bme68x.c **** {
 941              		.loc 1 1564 0
 942              		.cfi_startproc
 943              		@ args = 0, pretend = 0, frame = 0
 944              		@ frame_needed = 0, uses_anonymous_args = 0
 945              		@ link register save eliminated.
 946              	.LVL135:
1565:SensorLib\bme688/bme68x.c ****     uint8_t factor = 0;
1566:SensorLib\bme688/bme68x.c ****     uint8_t heatdurval;
1567:SensorLib\bme688/bme68x.c **** 
1568:SensorLib\bme688/bme68x.c ****     if (dur >= 0x783)
 947              		.loc 1 1568 0
 948 0000 40F28273 		movw	r3, #1922
 949 0004 9842     		cmp	r0, r3
 950 0006 18D8     		bhi	.L57
1569:SensorLib\bme688/bme68x.c ****     {
1570:SensorLib\bme688/bme68x.c ****         heatdurval = 0xff; /* Max duration */
ARM GAS  C:\Users\CHRONI~1\AppData\Local\Temp\ccho61l0.s 			page 46


1571:SensorLib\bme688/bme68x.c ****     }
1572:SensorLib\bme688/bme68x.c ****     else
1573:SensorLib\bme688/bme68x.c ****     {
1574:SensorLib\bme688/bme68x.c ****         /* Step size of 0.477ms */
1575:SensorLib\bme688/bme68x.c ****         dur = (uint16_t)(((uint32_t)dur * 1000) / 477);
 951              		.loc 1 1575 0
 952 0008 4FF47A73 		mov	r3, #1000
 953 000c 03FB00F0 		mul	r0, r3, r0
 954              	.LVL136:
 955 0010 0B4B     		ldr	r3, .L58
 956 0012 A3FB0023 		umull	r2, r3, r3, r0
 957 0016 C01A     		subs	r0, r0, r3
 958 0018 03EB5000 		add	r0, r3, r0, lsr #1
 959 001c C0F30F20 		ubfx	r0, r0, #8, #16
 960              	.LVL137:
1565:SensorLib\bme688/bme68x.c ****     uint8_t factor = 0;
 961              		.loc 1 1565 0
 962 0020 0023     		movs	r3, #0
1576:SensorLib\bme688/bme68x.c ****         while (dur > 0x3F)
 963              		.loc 1 1576 0
 964 0022 02E0     		b	.L55
 965              	.LVL138:
 966              	.L56:
1577:SensorLib\bme688/bme68x.c ****         {
1578:SensorLib\bme688/bme68x.c ****             dur = dur >> 2;
 967              		.loc 1 1578 0
 968 0024 8008     		lsrs	r0, r0, #2
 969              	.LVL139:
1579:SensorLib\bme688/bme68x.c ****             factor += 1;
 970              		.loc 1 1579 0
 971 0026 0133     		adds	r3, r3, #1
 972              	.LVL140:
 973 0028 DBB2     		uxtb	r3, r3
 974              	.LVL141:
 975              	.L55:
1576:SensorLib\bme688/bme68x.c ****         while (dur > 0x3F)
 976              		.loc 1 1576 0
 977 002a 3F28     		cmp	r0, #63
 978 002c FAD8     		bhi	.L56
1580:SensorLib\bme688/bme68x.c ****         }
1581:SensorLib\bme688/bme68x.c **** 
1582:SensorLib\bme688/bme68x.c ****         heatdurval = (uint8_t)(dur + (factor * 64));
 979              		.loc 1 1582 0
 980 002e C0B2     		uxtb	r0, r0
 981              	.LVL142:
 982 0030 9B01     		lsls	r3, r3, #6
 983              	.LVL143:
 984 0032 DBB2     		uxtb	r3, r3
 985 0034 1844     		add	r0, r0, r3
 986 0036 C0B2     		uxtb	r0, r0
 987              	.LVL144:
 988 0038 7047     		bx	lr
 989              	.LVL145:
 990              	.L57:
1570:SensorLib\bme688/bme68x.c ****     }
 991              		.loc 1 1570 0
 992 003a FF20     		movs	r0, #255
ARM GAS  C:\Users\CHRONI~1\AppData\Local\Temp\ccho61l0.s 			page 47


 993              	.LVL146:
1583:SensorLib\bme688/bme68x.c ****     }
1584:SensorLib\bme688/bme68x.c **** 
1585:SensorLib\bme688/bme68x.c ****     return heatdurval;
1586:SensorLib\bme688/bme68x.c **** }
 994              		.loc 1 1586 0
 995 003c 7047     		bx	lr
 996              	.L59:
 997 003e 00BF     		.align	2
 998              	.L58:
 999 0040 9FB8C812 		.word	315144351
 1000              		.cfi_endproc
 1001              	.LFE28:
 1002              		.size	calc_heatr_dur_shared, .-calc_heatr_dur_shared
 1003              		.section	.text.swap_fields,"ax",%progbits
 1004              		.align	2
 1005              		.thumb
 1006              		.thumb_func
 1007              		.type	swap_fields, %function
 1008              	swap_fields:
 1009              	.LFB30:
1587:SensorLib\bme688/bme68x.c **** 
1588:SensorLib\bme688/bme68x.c **** /* This internal API is used sort the sensor data */
1589:SensorLib\bme688/bme68x.c **** static void sort_sensor_data(uint8_t low_index, uint8_t high_index, struct bme68x_data *field[])
1590:SensorLib\bme688/bme68x.c **** {
1591:SensorLib\bme688/bme68x.c ****     int16_t meas_index1;
1592:SensorLib\bme688/bme68x.c ****     int16_t meas_index2;
1593:SensorLib\bme688/bme68x.c **** 
1594:SensorLib\bme688/bme68x.c ****     meas_index1 = (int16_t)field[low_index]->meas_index;
1595:SensorLib\bme688/bme68x.c ****     meas_index2 = (int16_t)field[high_index]->meas_index;
1596:SensorLib\bme688/bme68x.c ****     if ((field[low_index]->status & BME68X_NEW_DATA_MSK) && (field[high_index]->status & BME68X_NEW
1597:SensorLib\bme688/bme68x.c ****     {
1598:SensorLib\bme688/bme68x.c ****         int16_t diff = meas_index2 - meas_index1;
1599:SensorLib\bme688/bme68x.c ****         if (((diff > -3) && (diff < 0)) || (diff > 2))
1600:SensorLib\bme688/bme68x.c ****         {
1601:SensorLib\bme688/bme68x.c ****             swap_fields(low_index, high_index, field);
1602:SensorLib\bme688/bme68x.c ****         }
1603:SensorLib\bme688/bme68x.c ****     }
1604:SensorLib\bme688/bme68x.c ****     else if (field[high_index]->status & BME68X_NEW_DATA_MSK)
1605:SensorLib\bme688/bme68x.c ****     {
1606:SensorLib\bme688/bme68x.c ****         swap_fields(low_index, high_index, field);
1607:SensorLib\bme688/bme68x.c ****     }
1608:SensorLib\bme688/bme68x.c **** 
1609:SensorLib\bme688/bme68x.c ****     /* Sorting field data
1610:SensorLib\bme688/bme68x.c ****      *
1611:SensorLib\bme688/bme68x.c ****      * The 3 fields are filled in a fixed order with data in an incrementing
1612:SensorLib\bme688/bme68x.c ****      * 8-bit sub-measurement index which looks like
1613:SensorLib\bme688/bme68x.c ****      * Field index | Sub-meas index
1614:SensorLib\bme688/bme68x.c ****      *      0      |        0
1615:SensorLib\bme688/bme68x.c ****      *      1      |        1
1616:SensorLib\bme688/bme68x.c ****      *      2      |        2
1617:SensorLib\bme688/bme68x.c ****      *      0      |        3
1618:SensorLib\bme688/bme68x.c ****      *      1      |        4
1619:SensorLib\bme688/bme68x.c ****      *      2      |        5
1620:SensorLib\bme688/bme68x.c ****      *      ...
1621:SensorLib\bme688/bme68x.c ****      *      0      |        252
1622:SensorLib\bme688/bme68x.c ****      *      1      |        253
ARM GAS  C:\Users\CHRONI~1\AppData\Local\Temp\ccho61l0.s 			page 48


1623:SensorLib\bme688/bme68x.c ****      *      2      |        254
1624:SensorLib\bme688/bme68x.c ****      *      0      |        255
1625:SensorLib\bme688/bme68x.c ****      *      1      |        0
1626:SensorLib\bme688/bme68x.c ****      *      2      |        1
1627:SensorLib\bme688/bme68x.c ****      *
1628:SensorLib\bme688/bme68x.c ****      * The fields are sorted in a way so as to always deal with only a snapshot
1629:SensorLib\bme688/bme68x.c ****      * of comparing 2 fields at a time. The order being
1630:SensorLib\bme688/bme68x.c ****      * field0 & field1
1631:SensorLib\bme688/bme68x.c ****      * field0 & field2
1632:SensorLib\bme688/bme68x.c ****      * field1 & field2
1633:SensorLib\bme688/bme68x.c ****      * Here the oldest data should be in field0 while the newest is in field2.
1634:SensorLib\bme688/bme68x.c ****      * In the following documentation, field0's position would referred to as
1635:SensorLib\bme688/bme68x.c ****      * the lowest and field2 as the highest.
1636:SensorLib\bme688/bme68x.c ****      *
1637:SensorLib\bme688/bme68x.c ****      * In order to sort we have to consider the following cases,
1638:SensorLib\bme688/bme68x.c ****      *
1639:SensorLib\bme688/bme68x.c ****      * Case A: No fields have new data
1640:SensorLib\bme688/bme68x.c ****      *     Then do not sort, as this data has already been read.
1641:SensorLib\bme688/bme68x.c ****      *
1642:SensorLib\bme688/bme68x.c ****      * Case B: Higher field has new data
1643:SensorLib\bme688/bme68x.c ****      *     Then the new field get's the lowest position.
1644:SensorLib\bme688/bme68x.c ****      *
1645:SensorLib\bme688/bme68x.c ****      * Case C: Both fields have new data
1646:SensorLib\bme688/bme68x.c ****      *     We have to put the oldest sample in the lowest position. Since the
1647:SensorLib\bme688/bme68x.c ****      *     sub-meas index contains in essence the age of the sample, we calculate
1648:SensorLib\bme688/bme68x.c ****      *     the difference between the higher field and the lower field.
1649:SensorLib\bme688/bme68x.c ****      *     Here we have 3 sub-cases,
1650:SensorLib\bme688/bme68x.c ****      *     Case 1: Regular read without overwrite
1651:SensorLib\bme688/bme68x.c ****      *         Field index | Sub-meas index
1652:SensorLib\bme688/bme68x.c ****      *              0      |        3
1653:SensorLib\bme688/bme68x.c ****      *              1      |        4
1654:SensorLib\bme688/bme68x.c ****      *
1655:SensorLib\bme688/bme68x.c ****      *         Field index | Sub-meas index
1656:SensorLib\bme688/bme68x.c ****      *              0      |        3
1657:SensorLib\bme688/bme68x.c ****      *              2      |        5
1658:SensorLib\bme688/bme68x.c ****      *
1659:SensorLib\bme688/bme68x.c ****      *         The difference is always <= 2. There is no need to swap as the
1660:SensorLib\bme688/bme68x.c ****      *         oldest sample is already in the lowest position.
1661:SensorLib\bme688/bme68x.c ****      *
1662:SensorLib\bme688/bme68x.c ****      *     Case 2: Regular read with an overflow and without an overwrite
1663:SensorLib\bme688/bme68x.c ****      *         Field index | Sub-meas index
1664:SensorLib\bme688/bme68x.c ****      *              0      |        255
1665:SensorLib\bme688/bme68x.c ****      *              1      |        0
1666:SensorLib\bme688/bme68x.c ****      *
1667:SensorLib\bme688/bme68x.c ****      *         Field index | Sub-meas index
1668:SensorLib\bme688/bme68x.c ****      *              0      |        254
1669:SensorLib\bme688/bme68x.c ****      *              2      |        0
1670:SensorLib\bme688/bme68x.c ****      *
1671:SensorLib\bme688/bme68x.c ****      *         The difference is always <= -3. There is no need to swap as the
1672:SensorLib\bme688/bme68x.c ****      *         oldest sample is already in the lowest position.
1673:SensorLib\bme688/bme68x.c ****      *
1674:SensorLib\bme688/bme68x.c ****      *     Case 3: Regular read with overwrite
1675:SensorLib\bme688/bme68x.c ****      *         Field index | Sub-meas index
1676:SensorLib\bme688/bme68x.c ****      *              0      |        6
1677:SensorLib\bme688/bme68x.c ****      *              1      |        4
1678:SensorLib\bme688/bme68x.c ****      *
1679:SensorLib\bme688/bme68x.c ****      *         Field index | Sub-meas index
ARM GAS  C:\Users\CHRONI~1\AppData\Local\Temp\ccho61l0.s 			page 49


1680:SensorLib\bme688/bme68x.c ****      *              0      |        6
1681:SensorLib\bme688/bme68x.c ****      *              2      |        5
1682:SensorLib\bme688/bme68x.c ****      *
1683:SensorLib\bme688/bme68x.c ****      *         The difference is always > -3. There is a need to swap as the
1684:SensorLib\bme688/bme68x.c ****      *         oldest sample is not in the lowest position.
1685:SensorLib\bme688/bme68x.c ****      *
1686:SensorLib\bme688/bme68x.c ****      *     Case 4: Regular read with overwrite and overflow
1687:SensorLib\bme688/bme68x.c ****      *         Field index | Sub-meas index
1688:SensorLib\bme688/bme68x.c ****      *              0      |        0
1689:SensorLib\bme688/bme68x.c ****      *              1      |        254
1690:SensorLib\bme688/bme68x.c ****      *
1691:SensorLib\bme688/bme68x.c ****      *         Field index | Sub-meas index
1692:SensorLib\bme688/bme68x.c ****      *              0      |        0
1693:SensorLib\bme688/bme68x.c ****      *              2      |        255
1694:SensorLib\bme688/bme68x.c ****      *
1695:SensorLib\bme688/bme68x.c ****      *         The difference is always > 2. There is a need to swap as the
1696:SensorLib\bme688/bme68x.c ****      *         oldest sample is not in the lowest position.
1697:SensorLib\bme688/bme68x.c ****      *
1698:SensorLib\bme688/bme68x.c ****      * To summarize, we have to swap when
1699:SensorLib\bme688/bme68x.c ****      *     - The higher field has new data and the lower field does not.
1700:SensorLib\bme688/bme68x.c ****      *     - If both fields have new data, then the difference of sub-meas index
1701:SensorLib\bme688/bme68x.c ****      *         between the higher field and the lower field creates the
1702:SensorLib\bme688/bme68x.c ****      *         following condition for swapping.
1703:SensorLib\bme688/bme68x.c ****      *         - (diff > -3) && (diff < 0), combination of cases 1, 2, and 3.
1704:SensorLib\bme688/bme68x.c ****      *         - diff > 2, case 4.
1705:SensorLib\bme688/bme68x.c ****      *
1706:SensorLib\bme688/bme68x.c ****      *     Here the limits of -3 and 2 derive from the fact that there are 3 fields.
1707:SensorLib\bme688/bme68x.c ****      *     These values decrease or increase respectively if the number of fields increases.
1708:SensorLib\bme688/bme68x.c ****      */
1709:SensorLib\bme688/bme68x.c **** }
1710:SensorLib\bme688/bme68x.c **** 
1711:SensorLib\bme688/bme68x.c **** /* This internal API is used sort the sensor data */
1712:SensorLib\bme688/bme68x.c **** static void swap_fields(uint8_t index1, uint8_t index2, struct bme68x_data *field[])
1713:SensorLib\bme688/bme68x.c **** {
 1010              		.loc 1 1713 0
 1011              		.cfi_startproc
 1012              		@ args = 0, pretend = 0, frame = 0
 1013              		@ frame_needed = 0, uses_anonymous_args = 0
 1014              		@ link register save eliminated.
 1015              	.LVL147:
 1016 0000 10B4     		push	{r4}
 1017              		.cfi_def_cfa_offset 4
 1018              		.cfi_offset 4, -4
1714:SensorLib\bme688/bme68x.c ****     struct bme68x_data *temp;
1715:SensorLib\bme688/bme68x.c **** 
1716:SensorLib\bme688/bme68x.c ****     temp = field[index1];
 1019              		.loc 1 1716 0
 1020 0002 52F82030 		ldr	r3, [r2, r0, lsl #2]
 1021              	.LVL148:
1717:SensorLib\bme688/bme68x.c ****     field[index1] = field[index2];
 1022              		.loc 1 1717 0
 1023 0006 52F82140 		ldr	r4, [r2, r1, lsl #2]
 1024 000a 42F82040 		str	r4, [r2, r0, lsl #2]
1718:SensorLib\bme688/bme68x.c ****     field[index2] = temp;
 1025              		.loc 1 1718 0
 1026 000e 42F82130 		str	r3, [r2, r1, lsl #2]
1719:SensorLib\bme688/bme68x.c **** }
ARM GAS  C:\Users\CHRONI~1\AppData\Local\Temp\ccho61l0.s 			page 50


 1027              		.loc 1 1719 0
 1028 0012 10BC     		pop	{r4}
 1029              		.cfi_restore 4
 1030              		.cfi_def_cfa_offset 0
 1031 0014 7047     		bx	lr
 1032              		.cfi_endproc
 1033              	.LFE30:
 1034              		.size	swap_fields, .-swap_fields
 1035 0016 00BF     		.section	.text.sort_sensor_data,"ax",%progbits
 1036              		.align	2
 1037              		.thumb
 1038              		.thumb_func
 1039              		.type	sort_sensor_data, %function
 1040              	sort_sensor_data:
 1041              	.LFB29:
1590:SensorLib\bme688/bme68x.c ****     int16_t meas_index1;
 1042              		.loc 1 1590 0
 1043              		.cfi_startproc
 1044              		@ args = 0, pretend = 0, frame = 0
 1045              		@ frame_needed = 0, uses_anonymous_args = 0
 1046              	.LVL149:
 1047 0000 70B5     		push	{r4, r5, r6, lr}
 1048              		.cfi_def_cfa_offset 16
 1049              		.cfi_offset 4, -16
 1050              		.cfi_offset 5, -12
 1051              		.cfi_offset 6, -8
 1052              		.cfi_offset 14, -4
1594:SensorLib\bme688/bme68x.c ****     meas_index2 = (int16_t)field[high_index]->meas_index;
 1053              		.loc 1 1594 0
 1054 0002 52F82040 		ldr	r4, [r2, r0, lsl #2]
 1055 0006 A678     		ldrb	r6, [r4, #2]	@ zero_extendqisi2
 1056              	.LVL150:
1595:SensorLib\bme688/bme68x.c ****     if ((field[low_index]->status & BME68X_NEW_DATA_MSK) && (field[high_index]->status & BME68X_NEW
 1057              		.loc 1 1595 0
 1058 0008 52F82130 		ldr	r3, [r2, r1, lsl #2]
 1059 000c 9D78     		ldrb	r5, [r3, #2]	@ zero_extendqisi2
 1060              	.LVL151:
1596:SensorLib\bme688/bme68x.c ****     {
 1061              		.loc 1 1596 0
 1062 000e 94F90040 		ldrsb	r4, [r4]
 1063 0012 002C     		cmp	r4, #0
 1064 0014 0FDA     		bge	.L63
1596:SensorLib\bme688/bme68x.c ****     {
 1065              		.loc 1 1596 0 is_stmt 0 discriminator 1
 1066 0016 93F90040 		ldrsb	r4, [r3]
 1067 001a 002C     		cmp	r4, #0
 1068 001c 0BDA     		bge	.L63
 1069              	.LBB2:
1598:SensorLib\bme688/bme68x.c ****         if (((diff > -3) && (diff < 0)) || (diff > 2))
 1070              		.loc 1 1598 0 is_stmt 1
 1071 001e AD1B     		subs	r5, r5, r6
 1072              	.LVL152:
 1073 0020 ADB2     		uxth	r5, r5
 1074 0022 2BB2     		sxth	r3, r5
 1075              	.LVL153:
1599:SensorLib\bme688/bme68x.c ****         {
 1076              		.loc 1 1599 0
ARM GAS  C:\Users\CHRONI~1\AppData\Local\Temp\ccho61l0.s 			page 51


 1077 0024 0235     		adds	r5, r5, #2
 1078 0026 ADB2     		uxth	r5, r5
 1079 0028 012D     		cmp	r5, #1
 1080 002a 01D9     		bls	.L64
1599:SensorLib\bme688/bme68x.c ****         {
 1081              		.loc 1 1599 0 is_stmt 0 discriminator 1
 1082 002c 022B     		cmp	r3, #2
 1083 002e 08DD     		ble	.L62
 1084              	.L64:
1601:SensorLib\bme688/bme68x.c ****         }
 1085              		.loc 1 1601 0 is_stmt 1
 1086 0030 FFF7FEFF 		bl	swap_fields
 1087              	.LVL154:
 1088 0034 70BD     		pop	{r4, r5, r6, pc}
 1089              	.LVL155:
 1090              	.L63:
 1091              	.LBE2:
1604:SensorLib\bme688/bme68x.c ****     {
 1092              		.loc 1 1604 0
 1093 0036 93F90030 		ldrsb	r3, [r3]
 1094 003a 002B     		cmp	r3, #0
 1095 003c 01DA     		bge	.L62
1606:SensorLib\bme688/bme68x.c ****     }
 1096              		.loc 1 1606 0
 1097 003e FFF7FEFF 		bl	swap_fields
 1098              	.LVL156:
 1099              	.L62:
 1100 0042 70BD     		pop	{r4, r5, r6, pc}
 1101              		.cfi_endproc
 1102              	.LFE29:
 1103              		.size	sort_sensor_data, .-sort_sensor_data
 1104              		.section	.text.analyze_sensor_data,"ax",%progbits
 1105              		.align	2
 1106              		.thumb
 1107              		.thumb_func
 1108              		.type	analyze_sensor_data, %function
 1109              	analyze_sensor_data:
 1110              	.LFB31:
1720:SensorLib\bme688/bme68x.c **** 
1721:SensorLib\bme688/bme68x.c **** /* This Function is to analyze the sensor data */
1722:SensorLib\bme688/bme68x.c **** static int8_t analyze_sensor_data(const struct bme68x_data *data, uint8_t n_meas)
1723:SensorLib\bme688/bme68x.c **** {
 1111              		.loc 1 1723 0
 1112              		.cfi_startproc
 1113              		@ args = 0, pretend = 0, frame = 0
 1114              		@ frame_needed = 0, uses_anonymous_args = 0
 1115              		@ link register save eliminated.
 1116              	.LVL157:
 1117 0000 30B4     		push	{r4, r5}
 1118              		.cfi_def_cfa_offset 8
 1119              		.cfi_offset 4, -8
 1120              		.cfi_offset 5, -4
 1121              	.LVL158:
1724:SensorLib\bme688/bme68x.c ****     int8_t rslt = BME68X_OK;
1725:SensorLib\bme688/bme68x.c ****     uint8_t self_test_failed = 0, i;
1726:SensorLib\bme688/bme68x.c ****     uint32_t cent_res = 0;
1727:SensorLib\bme688/bme68x.c **** 
ARM GAS  C:\Users\CHRONI~1\AppData\Local\Temp\ccho61l0.s 			page 52


1728:SensorLib\bme688/bme68x.c ****     if ((data[0].temperature < BME68X_MIN_TEMPERATURE) || (data[0].temperature > BME68X_MAX_TEMPERA
 1122              		.loc 1 1728 0
 1123 0002 C288     		ldrh	r2, [r0, #6]
 1124 0004 41F27073 		movw	r3, #6000
 1125 0008 9A42     		cmp	r2, r3
 1126 000a 01D8     		bhi	.L77
1725:SensorLib\bme688/bme68x.c ****     uint32_t cent_res = 0;
 1127              		.loc 1 1725 0
 1128 000c 0025     		movs	r5, #0
 1129 000e 00E0     		b	.L68
 1130              	.L77:
1729:SensorLib\bme688/bme68x.c ****     {
1730:SensorLib\bme688/bme68x.c ****         self_test_failed++;
 1131              		.loc 1 1730 0
 1132 0010 0125     		movs	r5, #1
 1133              	.L68:
 1134              	.LVL159:
1731:SensorLib\bme688/bme68x.c ****     }
1732:SensorLib\bme688/bme68x.c **** 
1733:SensorLib\bme688/bme68x.c ****     if ((data[0].pressure < BME68X_MIN_PRESSURE) || (data[0].pressure > BME68X_MAX_PRESSURE))
 1135              		.loc 1 1733 0
 1136 0012 8368     		ldr	r3, [r0, #8]
 1137 0014 A3F5AF33 		sub	r3, r3, #89600
 1138 0018 A3F5C873 		sub	r3, r3, #400
 1139 001c 44F62062 		movw	r2, #20000
 1140 0020 9342     		cmp	r3, r2
 1141 0022 01D9     		bls	.L69
1734:SensorLib\bme688/bme68x.c ****     {
1735:SensorLib\bme688/bme68x.c ****         self_test_failed++;
 1142              		.loc 1 1735 0
 1143 0024 0135     		adds	r5, r5, #1
 1144              	.LVL160:
 1145 0026 EDB2     		uxtb	r5, r5
 1146              	.LVL161:
 1147              	.L69:
1736:SensorLib\bme688/bme68x.c ****     }
1737:SensorLib\bme688/bme68x.c **** 
1738:SensorLib\bme688/bme68x.c ****     if ((data[0].humidity < BME68X_MIN_HUMIDITY) || (data[0].humidity > BME68X_MAX_HUMIDITY))
 1148              		.loc 1 1738 0
 1149 0028 C368     		ldr	r3, [r0, #12]
 1150 002a A3F59C43 		sub	r3, r3, #19968
 1151 002e 203B     		subs	r3, r3, #32
 1152 0030 4EF66022 		movw	r2, #60000
 1153 0034 9342     		cmp	r3, r2
 1154 0036 01D9     		bls	.L70
1739:SensorLib\bme688/bme68x.c ****     {
1740:SensorLib\bme688/bme68x.c ****         self_test_failed++;
 1155              		.loc 1 1740 0
 1156 0038 0135     		adds	r5, r5, #1
 1157              	.LVL162:
 1158 003a EDB2     		uxtb	r5, r5
 1159              	.LVL163:
 1160              	.L70:
1730:SensorLib\bme688/bme68x.c ****     }
 1161              		.loc 1 1730 0 discriminator 1
 1162 003c 0023     		movs	r3, #0
 1163 003e 0AE0     		b	.L71
ARM GAS  C:\Users\CHRONI~1\AppData\Local\Temp\ccho61l0.s 			page 53


 1164              	.LVL164:
 1165              	.L73:
1741:SensorLib\bme688/bme68x.c ****     }
1742:SensorLib\bme688/bme68x.c **** 
1743:SensorLib\bme688/bme68x.c ****     for (i = 0; i < n_meas; i++) /* Every gas measurement should be valid */
1744:SensorLib\bme688/bme68x.c ****     {
1745:SensorLib\bme688/bme68x.c ****         if (!(data[i].status & BME68X_GASM_VALID_MSK))
 1166              		.loc 1 1745 0
 1167 0040 03EB8304 		add	r4, r3, r3, lsl #2
 1168 0044 A200     		lsls	r2, r4, #2
 1169 0046 825C     		ldrb	r2, [r0, r2]	@ zero_extendqisi2
 1170 0048 12F0200F 		tst	r2, #32
 1171 004c 01D1     		bne	.L72
1746:SensorLib\bme688/bme68x.c ****         {
1747:SensorLib\bme688/bme68x.c ****             self_test_failed++;
 1172              		.loc 1 1747 0
 1173 004e 0135     		adds	r5, r5, #1
 1174              	.LVL165:
 1175 0050 EDB2     		uxtb	r5, r5
 1176              	.LVL166:
 1177              	.L72:
1743:SensorLib\bme688/bme68x.c ****     {
 1178              		.loc 1 1743 0 discriminator 2
 1179 0052 0133     		adds	r3, r3, #1
 1180              	.LVL167:
 1181 0054 DBB2     		uxtb	r3, r3
 1182              	.LVL168:
 1183              	.L71:
1743:SensorLib\bme688/bme68x.c ****     {
 1184              		.loc 1 1743 0 is_stmt 0 discriminator 1
 1185 0056 8B42     		cmp	r3, r1
 1186 0058 F2D3     		bcc	.L73
1748:SensorLib\bme688/bme68x.c ****         }
1749:SensorLib\bme688/bme68x.c ****     }
1750:SensorLib\bme688/bme68x.c **** 
1751:SensorLib\bme688/bme68x.c ****     if (n_meas >= 6)
 1187              		.loc 1 1751 0 is_stmt 1
 1188 005a 0529     		cmp	r1, #5
 1189 005c 09D9     		bls	.L78
1752:SensorLib\bme688/bme68x.c ****     {
1753:SensorLib\bme688/bme68x.c ****         cent_res = (uint32_t)((5 * (data[3].gas_resistance + data[5].gas_resistance)) / (2 * data[4
 1190              		.loc 1 1753 0
 1191 005e C26C     		ldr	r2, [r0, #76]
 1192 0060 436F     		ldr	r3, [r0, #116]
 1193              	.LVL169:
 1194 0062 1344     		add	r3, r3, r2
 1195 0064 03EB8303 		add	r3, r3, r3, lsl #2
 1196 0068 026E     		ldr	r2, [r0, #96]
 1197 006a 5200     		lsls	r2, r2, #1
 1198 006c B3FBF2F3 		udiv	r3, r3, r2
 1199              	.LVL170:
 1200 0070 00E0     		b	.L74
 1201              	.LVL171:
 1202              	.L78:
1726:SensorLib\bme688/bme68x.c **** 
 1203              		.loc 1 1726 0
 1204 0072 0023     		movs	r3, #0
ARM GAS  C:\Users\CHRONI~1\AppData\Local\Temp\ccho61l0.s 			page 54


 1205              	.LVL172:
 1206              	.L74:
1754:SensorLib\bme688/bme68x.c ****     }
1755:SensorLib\bme688/bme68x.c **** 
1756:SensorLib\bme688/bme68x.c ****     if (cent_res < 6)
 1207              		.loc 1 1756 0
 1208 0074 052B     		cmp	r3, #5
 1209 0076 01D8     		bhi	.L75
1757:SensorLib\bme688/bme68x.c ****     {
1758:SensorLib\bme688/bme68x.c ****         self_test_failed++;
 1210              		.loc 1 1758 0
 1211 0078 0135     		adds	r5, r5, #1
 1212              	.LVL173:
 1213 007a EDB2     		uxtb	r5, r5
 1214              	.LVL174:
 1215              	.L75:
1759:SensorLib\bme688/bme68x.c ****     }
1760:SensorLib\bme688/bme68x.c **** 
1761:SensorLib\bme688/bme68x.c ****     if (self_test_failed)
 1216              		.loc 1 1761 0
 1217 007c 0DB9     		cbnz	r5, .L79
1724:SensorLib\bme688/bme68x.c ****     uint8_t self_test_failed = 0, i;
 1218              		.loc 1 1724 0
 1219 007e 0020     		movs	r0, #0
 1220              	.LVL175:
 1221 0080 01E0     		b	.L76
 1222              	.LVL176:
 1223              	.L79:
1762:SensorLib\bme688/bme68x.c ****     {
1763:SensorLib\bme688/bme68x.c ****         rslt = BME68X_E_SELF_TEST;
 1224              		.loc 1 1763 0
 1225 0082 6FF00400 		mvn	r0, #4
 1226              	.LVL177:
 1227              	.L76:
1764:SensorLib\bme688/bme68x.c ****     }
1765:SensorLib\bme688/bme68x.c **** 
1766:SensorLib\bme688/bme68x.c ****     return rslt;
1767:SensorLib\bme688/bme68x.c **** }
 1228              		.loc 1 1767 0
 1229 0086 30BC     		pop	{r4, r5}
 1230              		.cfi_restore 5
 1231              		.cfi_restore 4
 1232              		.cfi_def_cfa_offset 0
 1233              	.LVL178:
 1234 0088 7047     		bx	lr
 1235              		.cfi_endproc
 1236              	.LFE31:
 1237              		.size	analyze_sensor_data, .-analyze_sensor_data
 1238 008a 00BF     		.section	.text.bme68x_set_regs,"ax",%progbits
 1239              		.align	2
 1240              		.global	bme68x_set_regs
 1241              		.thumb
 1242              		.thumb_func
 1243              		.type	bme68x_set_regs, %function
 1244              	bme68x_set_regs:
 1245              	.LFB2:
 179:SensorLib\bme688/bme68x.c ****     int8_t rslt;
ARM GAS  C:\Users\CHRONI~1\AppData\Local\Temp\ccho61l0.s 			page 55


 1246              		.loc 1 179 0
 1247              		.cfi_startproc
 1248              		@ args = 0, pretend = 0, frame = 24
 1249              		@ frame_needed = 0, uses_anonymous_args = 0
 1250              	.LVL179:
 1251 0000 2DE9F047 		push	{r4, r5, r6, r7, r8, r9, r10, lr}
 1252              		.cfi_def_cfa_offset 32
 1253              		.cfi_offset 4, -32
 1254              		.cfi_offset 5, -28
 1255              		.cfi_offset 6, -24
 1256              		.cfi_offset 7, -20
 1257              		.cfi_offset 8, -16
 1258              		.cfi_offset 9, -12
 1259              		.cfi_offset 10, -8
 1260              		.cfi_offset 14, -4
 1261 0004 86B0     		sub	sp, sp, #24
 1262              		.cfi_def_cfa_offset 56
 1263 0006 0646     		mov	r6, r0
 1264 0008 8846     		mov	r8, r1
 1265 000a 1746     		mov	r7, r2
 1266 000c 1D46     		mov	r5, r3
 183:SensorLib\bme688/bme68x.c ****     uint16_t index;
 1267              		.loc 1 183 0
 1268 000e 0023     		movs	r3, #0
 1269              	.LVL180:
 1270 0010 0193     		str	r3, [sp, #4]
 1271 0012 0293     		str	r3, [sp, #8]
 1272 0014 0393     		str	r3, [sp, #12]
 1273 0016 0493     		str	r3, [sp, #16]
 1274 0018 0593     		str	r3, [sp, #20]
 187:SensorLib\bme688/bme68x.c ****     if ((rslt == BME68X_OK) && reg_addr && reg_data)
 1275              		.loc 1 187 0
 1276 001a 2846     		mov	r0, r5
 1277              	.LVL181:
 1278 001c FFF7FEFF 		bl	null_ptr_check
 1279              	.LVL182:
 188:SensorLib\bme688/bme68x.c ****     {
 1280              		.loc 1 188 0
 1281 0020 0028     		cmp	r0, #0
 1282 0022 43D1     		bne	.L87
 1283 0024 8146     		mov	r9, r0
 188:SensorLib\bme688/bme68x.c ****     {
 1284              		.loc 1 188 0 is_stmt 0 discriminator 1
 1285 0026 002E     		cmp	r6, #0
 1286 0028 43D0     		beq	.L88
 188:SensorLib\bme688/bme68x.c ****     {
 1287              		.loc 1 188 0 discriminator 2
 1288 002a B8F1000F 		cmp	r8, #0
 1289 002e 43D0     		beq	.L89
 190:SensorLib\bme688/bme68x.c ****         {
 1290              		.loc 1 190 0 is_stmt 1
 1291 0030 7B1E     		subs	r3, r7, #1
 1292 0032 092B     		cmp	r3, #9
 1293 0034 26D9     		bls	.L90
 221:SensorLib\bme688/bme68x.c ****         }
 1294              		.loc 1 221 0
 1295 0036 6FF00309 		mvn	r9, #3
ARM GAS  C:\Users\CHRONI~1\AppData\Local\Temp\ccho61l0.s 			page 56


 1296 003a 42E0     		b	.L82
 1297              	.LVL183:
 1298              	.L86:
 195:SensorLib\bme688/bme68x.c ****                 {
 1299              		.loc 1 195 0
 1300 003c 2B7B     		ldrb	r3, [r5, #12]	@ zero_extendqisi2
 1301 003e 7BB9     		cbnz	r3, .L84
 198:SensorLib\bme688/bme68x.c ****                     tmp_buff[(2 * index)] = reg_addr[index] & BME68X_SPI_WR_MSK;
 1302              		.loc 1 198 0
 1303 0040 2946     		mov	r1, r5
 1304 0042 16F80A00 		ldrb	r0, [r6, r10]	@ zero_extendqisi2
 1305 0046 FFF7FEFF 		bl	set_mem_page
 1306              	.LVL184:
 1307 004a 8146     		mov	r9, r0
 1308              	.LVL185:
 199:SensorLib\bme688/bme68x.c ****                 }
 1309              		.loc 1 199 0
 1310 004c 16F80A20 		ldrb	r2, [r6, r10]	@ zero_extendqisi2
 1311 0050 02F07F02 		and	r2, r2, #127
 1312 0054 06AB     		add	r3, sp, #24
 1313 0056 03EB4403 		add	r3, r3, r4, lsl #1
 1314 005a 03F8142C 		strb	r2, [r3, #-20]
 1315 005e 06E0     		b	.L85
 1316              	.L84:
 203:SensorLib\bme688/bme68x.c ****                 }
 1317              		.loc 1 203 0
 1318 0060 16F80A20 		ldrb	r2, [r6, r10]	@ zero_extendqisi2
 1319 0064 06AB     		add	r3, sp, #24
 1320 0066 03EB4403 		add	r3, r3, r4, lsl #1
 1321 006a 03F8142C 		strb	r2, [r3, #-20]
 1322              	.L85:
 206:SensorLib\bme688/bme68x.c ****             }
 1323              		.loc 1 206 0 discriminator 2
 1324 006e 6300     		lsls	r3, r4, #1
 1325 0070 0133     		adds	r3, r3, #1
 1326 0072 18F80A20 		ldrb	r2, [r8, r10]	@ zero_extendqisi2
 1327 0076 06A9     		add	r1, sp, #24
 1328 0078 0B44     		add	r3, r3, r1
 1329 007a 03F8142C 		strb	r2, [r3, #-20]
 193:SensorLib\bme688/bme68x.c ****             {
 1330              		.loc 1 193 0 discriminator 2
 1331 007e 0134     		adds	r4, r4, #1
 1332              	.LVL186:
 1333 0080 A4B2     		uxth	r4, r4
 1334              	.LVL187:
 1335 0082 00E0     		b	.L83
 1336              	.LVL188:
 1337              	.L90:
 1338 0084 0024     		movs	r4, #0
 1339              	.LVL189:
 1340              	.L83:
 193:SensorLib\bme688/bme68x.c ****             {
 1341              		.loc 1 193 0 is_stmt 0 discriminator 1
 1342 0086 A246     		mov	r10, r4
 1343 0088 A742     		cmp	r7, r4
 1344 008a D7D8     		bhi	.L86
 210:SensorLib\bme688/bme68x.c ****             {
ARM GAS  C:\Users\CHRONI~1\AppData\Local\Temp\ccho61l0.s 			page 57


 1345              		.loc 1 210 0 is_stmt 1
 1346 008c B9F1000F 		cmp	r9, #0
 1347 0090 17D1     		bne	.L82
 212:SensorLib\bme688/bme68x.c ****                 if (dev->intf_rslt != 0)
 1348              		.loc 1 212 0
 1349 0092 6C6C     		ldr	r4, [r5, #68]
 1350              	.LVL190:
 1351 0094 7A00     		lsls	r2, r7, #1
 1352 0096 6B68     		ldr	r3, [r5, #4]
 1353 0098 013A     		subs	r2, r2, #1
 1354 009a 0DF10501 		add	r1, sp, #5
 1355 009e 9DF80400 		ldrb	r0, [sp, #4]	@ zero_extendqisi2
 1356 00a2 A047     		blx	r4
 1357              	.LVL191:
 1358 00a4 85F84C00 		strb	r0, [r5, #76]
 213:SensorLib\bme688/bme68x.c ****                 {
 1359              		.loc 1 213 0
 1360 00a8 58B1     		cbz	r0, .L82
 1361 00aa 08E0     		b	.L91
 1362              	.LVL192:
 1363              	.L87:
 226:SensorLib\bme688/bme68x.c ****     }
 1364              		.loc 1 226 0
 1365 00ac 4FF0FF39 		mov	r9, #-1
 1366 00b0 07E0     		b	.L82
 1367              	.L88:
 1368 00b2 4FF0FF39 		mov	r9, #-1
 1369 00b6 04E0     		b	.L82
 1370              	.L89:
 1371 00b8 4FF0FF39 		mov	r9, #-1
 1372 00bc 01E0     		b	.L82
 1373              	.LVL193:
 1374              	.L91:
 215:SensorLib\bme688/bme68x.c ****                 }
 1375              		.loc 1 215 0
 1376 00be 6FF00109 		mvn	r9, #1
 1377              	.LVL194:
 1378              	.L82:
 230:SensorLib\bme688/bme68x.c **** 
 1379              		.loc 1 230 0
 1380 00c2 4846     		mov	r0, r9
 1381 00c4 06B0     		add	sp, sp, #24
 1382              		.cfi_def_cfa_offset 32
 1383              		@ sp needed
 1384 00c6 BDE8F087 		pop	{r4, r5, r6, r7, r8, r9, r10, pc}
 1385              		.cfi_endproc
 1386              	.LFE2:
 1387              		.size	bme68x_set_regs, .-bme68x_set_regs
 1388 00ca 00BF     		.section	.text.set_conf,"ax",%progbits
 1389              		.align	2
 1390              		.thumb
 1391              		.thumb_func
 1392              		.type	set_conf, %function
 1393              	set_conf:
 1394              	.LFB27:
1476:SensorLib\bme688/bme68x.c ****     int8_t rslt = BME68X_OK;
 1395              		.loc 1 1476 0
ARM GAS  C:\Users\CHRONI~1\AppData\Local\Temp\ccho61l0.s 			page 58


 1396              		.cfi_startproc
 1397              		@ args = 0, pretend = 0, frame = 48
 1398              		@ frame_needed = 0, uses_anonymous_args = 0
 1399              	.LVL195:
 1400 0000 2DE9F047 		push	{r4, r5, r6, r7, r8, r9, r10, lr}
 1401              		.cfi_def_cfa_offset 32
 1402              		.cfi_offset 4, -32
 1403              		.cfi_offset 5, -28
 1404              		.cfi_offset 6, -24
 1405              		.cfi_offset 7, -20
 1406              		.cfi_offset 8, -16
 1407              		.cfi_offset 9, -12
 1408              		.cfi_offset 10, -8
 1409              		.cfi_offset 14, -4
 1410 0004 8CB0     		sub	sp, sp, #48
 1411              		.cfi_def_cfa_offset 80
 1412 0006 0546     		mov	r5, r0
 1413 0008 9046     		mov	r8, r2
 1414 000a 1F46     		mov	r7, r3
 1415              	.LVL196:
1481:SensorLib\bme688/bme68x.c ****     uint8_t rh_reg_addr[10] = { 0, 0, 0, 0, 0, 0, 0, 0, 0, 0 };
 1416              		.loc 1 1481 0
 1417 000c 6E23     		movs	r3, #110
 1418              	.LVL197:
 1419 000e 8DF82E30 		strb	r3, [sp, #46]
1482:SensorLib\bme688/bme68x.c ****     uint8_t rh_reg_data[10] = { 0, 0, 0, 0, 0, 0, 0, 0, 0, 0 };
 1420              		.loc 1 1482 0
 1421 0012 0023     		movs	r3, #0
 1422 0014 0993     		str	r3, [sp, #36]
 1423 0016 0A93     		str	r3, [sp, #40]
 1424 0018 ADF82C30 		strh	r3, [sp, #44]	@ movhi
1483:SensorLib\bme688/bme68x.c ****     uint8_t gw_reg_addr[10] = { 0, 0, 0, 0, 0, 0, 0, 0, 0, 0 };
 1425              		.loc 1 1483 0
 1426 001c 0693     		str	r3, [sp, #24]
 1427 001e 0793     		str	r3, [sp, #28]
 1428 0020 ADF82030 		strh	r3, [sp, #32]	@ movhi
1484:SensorLib\bme688/bme68x.c ****     uint8_t gw_reg_data[10] = { 0, 0, 0, 0, 0, 0, 0, 0, 0, 0 };
 1429              		.loc 1 1484 0
 1430 0024 0393     		str	r3, [sp, #12]
 1431 0026 0493     		str	r3, [sp, #16]
 1432 0028 ADF81430 		strh	r3, [sp, #20]	@ movhi
1485:SensorLib\bme688/bme68x.c **** 
 1433              		.loc 1 1485 0
 1434 002c 0093     		str	r3, [sp]
 1435 002e 0193     		str	r3, [sp, #4]
 1436 0030 ADF80830 		strh	r3, [sp, #8]	@ movhi
1487:SensorLib\bme688/bme68x.c ****     {
 1437              		.loc 1 1487 0
 1438 0034 0229     		cmp	r1, #2
 1439 0036 48D0     		beq	.L95
 1440 0038 0329     		cmp	r1, #3
 1441 003a 19D0     		beq	.L96
 1442 003c 0129     		cmp	r1, #1
 1443 003e 40F08580 		bne	.L111
1490:SensorLib\bme688/bme68x.c ****             rh_reg_data[0] = calc_res_heat(conf->heatr_temp, dev);
 1444              		.loc 1 1490 0
 1445 0042 5A23     		movs	r3, #90
ARM GAS  C:\Users\CHRONI~1\AppData\Local\Temp\ccho61l0.s 			page 59


 1446 0044 8DF82430 		strb	r3, [sp, #36]
1491:SensorLib\bme688/bme68x.c ****             gw_reg_addr[0] = BME68X_REG_GAS_WAIT0;
 1447              		.loc 1 1491 0
 1448 0048 3946     		mov	r1, r7
 1449              	.LVL198:
 1450 004a 4088     		ldrh	r0, [r0, #2]
 1451              	.LVL199:
 1452 004c FFF7FEFF 		bl	calc_res_heat
 1453              	.LVL200:
 1454 0050 8DF81800 		strb	r0, [sp, #24]
1492:SensorLib\bme688/bme68x.c ****             gw_reg_data[0] = calc_gas_wait(conf->heatr_dur);
 1455              		.loc 1 1492 0
 1456 0054 6423     		movs	r3, #100
 1457 0056 8DF80C30 		strb	r3, [sp, #12]
1493:SensorLib\bme688/bme68x.c ****             (*nb_conv) = 0;
 1458              		.loc 1 1493 0
 1459 005a A888     		ldrh	r0, [r5, #4]
 1460 005c FFF7FEFF 		bl	calc_gas_wait
 1461              	.LVL201:
 1462 0060 8DF80000 		strb	r0, [sp]
1494:SensorLib\bme688/bme68x.c ****             write_len = 1;
 1463              		.loc 1 1494 0
 1464 0064 4FF00009 		mov	r9, #0
 1465 0068 88F80090 		strb	r9, [r8]
 1466              	.LVL202:
1495:SensorLib\bme688/bme68x.c ****             break;
 1467              		.loc 1 1495 0
 1468 006c 0124     		movs	r4, #1
1496:SensorLib\bme688/bme68x.c ****         case BME68X_SEQUENTIAL_MODE:
 1469              		.loc 1 1496 0
 1470 006e 80E0     		b	.L94
 1471              	.LVL203:
 1472              	.L96:
1498:SensorLib\bme688/bme68x.c ****             {
 1473              		.loc 1 1498 0
 1474 0070 D0F80C90 		ldr	r9, [r0, #12]
 1475 0074 B9F1000F 		cmp	r9, #0
 1476 0078 6CD0     		beq	.L106
1498:SensorLib\bme688/bme68x.c ****             {
 1477              		.loc 1 1498 0 is_stmt 0 discriminator 1
 1478 007a 8368     		ldr	r3, [r0, #8]
 1479 007c 002B     		cmp	r3, #0
 1480 007e 6DD0     		beq	.L107
 1481 0080 0024     		movs	r4, #0
 1482 0082 19E0     		b	.L98
 1483              	.LVL204:
 1484              	.L99:
1506:SensorLib\bme688/bme68x.c ****                 rh_reg_data[i] = calc_res_heat(conf->heatr_temp_prof[i], dev);
 1485              		.loc 1 1506 0 is_stmt 1 discriminator 3
 1486 0084 0CAB     		add	r3, sp, #48
 1487 0086 1E19     		adds	r6, r3, r4
 1488 0088 04F15A03 		add	r3, r4, #90
 1489 008c 06F80C3C 		strb	r3, [r6, #-12]
1507:SensorLib\bme688/bme68x.c ****                 gw_reg_addr[i] = BME68X_REG_GAS_WAIT0 + i;
 1490              		.loc 1 1507 0 discriminator 3
 1491 0090 AB68     		ldr	r3, [r5, #8]
 1492 0092 3946     		mov	r1, r7
ARM GAS  C:\Users\CHRONI~1\AppData\Local\Temp\ccho61l0.s 			page 60


 1493 0094 33F81400 		ldrh	r0, [r3, r4, lsl #1]
 1494 0098 FFF7FEFF 		bl	calc_res_heat
 1495              	.LVL205:
 1496 009c 06F8180C 		strb	r0, [r6, #-24]
1508:SensorLib\bme688/bme68x.c ****                 gw_reg_data[i] = calc_gas_wait(conf->heatr_dur_prof[i]);
 1497              		.loc 1 1508 0 discriminator 3
 1498 00a0 04F16403 		add	r3, r4, #100
 1499 00a4 06F8243C 		strb	r3, [r6, #-36]
1509:SensorLib\bme688/bme68x.c ****             }
 1500              		.loc 1 1509 0 discriminator 3
 1501 00a8 39F81400 		ldrh	r0, [r9, r4, lsl #1]
 1502 00ac FFF7FEFF 		bl	calc_gas_wait
 1503              	.LVL206:
 1504 00b0 06F8300C 		strb	r0, [r6, #-48]
1504:SensorLib\bme688/bme68x.c ****             {
 1505              		.loc 1 1504 0 discriminator 3
 1506 00b4 0134     		adds	r4, r4, #1
 1507              	.LVL207:
 1508 00b6 E4B2     		uxtb	r4, r4
 1509              	.LVL208:
 1510              	.L98:
1504:SensorLib\bme688/bme68x.c ****             {
 1511              		.loc 1 1504 0 is_stmt 0 discriminator 1
 1512 00b8 2B7C     		ldrb	r3, [r5, #16]	@ zero_extendqisi2
 1513 00ba 9C42     		cmp	r4, r3
 1514 00bc E2D3     		bcc	.L99
1512:SensorLib\bme688/bme68x.c ****             write_len = conf->profile_len;
 1515              		.loc 1 1512 0 is_stmt 1
 1516 00be 88F80030 		strb	r3, [r8]
1513:SensorLib\bme688/bme68x.c ****             break;
 1517              		.loc 1 1513 0
 1518 00c2 2C7C     		ldrb	r4, [r5, #16]	@ zero_extendqisi2
 1519              	.LVL209:
1477:SensorLib\bme688/bme68x.c ****     uint8_t i;
 1520              		.loc 1 1477 0
 1521 00c4 4FF00009 		mov	r9, #0
1514:SensorLib\bme688/bme68x.c ****         case BME68X_PARALLEL_MODE:
 1522              		.loc 1 1514 0
 1523 00c8 53E0     		b	.L94
 1524              	.LVL210:
 1525              	.L95:
1516:SensorLib\bme688/bme68x.c ****             {
 1526              		.loc 1 1516 0
 1527 00ca D0F80CA0 		ldr	r10, [r0, #12]
 1528 00ce BAF1000F 		cmp	r10, #0
 1529 00d2 47D0     		beq	.L108
1516:SensorLib\bme688/bme68x.c ****             {
 1530              		.loc 1 1516 0 is_stmt 0 discriminator 1
 1531 00d4 8368     		ldr	r3, [r0, #8]
 1532 00d6 002B     		cmp	r3, #0
 1533 00d8 48D0     		beq	.L109
1522:SensorLib\bme688/bme68x.c ****             {
 1534              		.loc 1 1522 0 is_stmt 1
 1535 00da 438A     		ldrh	r3, [r0, #18]
 1536 00dc 13B1     		cbz	r3, .L110
1477:SensorLib\bme688/bme68x.c ****     uint8_t i;
 1537              		.loc 1 1477 0
ARM GAS  C:\Users\CHRONI~1\AppData\Local\Temp\ccho61l0.s 			page 61


 1538 00de 4FF00009 		mov	r9, #0
 1539 00e2 01E0     		b	.L100
 1540              	.L110:
1524:SensorLib\bme688/bme68x.c ****             }
 1541              		.loc 1 1524 0
 1542 00e4 4FF00309 		mov	r9, #3
 1543              	.L100:
 1544              	.LVL211:
1527:SensorLib\bme688/bme68x.c ****             {
 1545              		.loc 1 1527 0
 1546 00e8 0024     		movs	r4, #0
 1547 00ea 17E0     		b	.L101
 1548              	.LVL212:
 1549              	.L102:
1529:SensorLib\bme688/bme68x.c ****                 rh_reg_data[i] = calc_res_heat(conf->heatr_temp_prof[i], dev);
 1550              		.loc 1 1529 0 discriminator 3
 1551 00ec 0CAB     		add	r3, sp, #48
 1552 00ee 1E19     		adds	r6, r3, r4
 1553 00f0 04F15A03 		add	r3, r4, #90
 1554 00f4 06F80C3C 		strb	r3, [r6, #-12]
1530:SensorLib\bme688/bme68x.c ****                 gw_reg_addr[i] = BME68X_REG_GAS_WAIT0 + i;
 1555              		.loc 1 1530 0 discriminator 3
 1556 00f8 AB68     		ldr	r3, [r5, #8]
 1557 00fa 3946     		mov	r1, r7
 1558 00fc 33F81400 		ldrh	r0, [r3, r4, lsl #1]
 1559 0100 FFF7FEFF 		bl	calc_res_heat
 1560              	.LVL213:
 1561 0104 06F8180C 		strb	r0, [r6, #-24]
1531:SensorLib\bme688/bme68x.c ****                 gw_reg_data[i] = (uint8_t) conf->heatr_dur_prof[i];
 1562              		.loc 1 1531 0 discriminator 3
 1563 0108 04F16403 		add	r3, r4, #100
 1564 010c 06F8243C 		strb	r3, [r6, #-36]
1532:SensorLib\bme688/bme68x.c ****             }
 1565              		.loc 1 1532 0 discriminator 3
 1566 0110 1AF81430 		ldrb	r3, [r10, r4, lsl #1]	@ zero_extendqisi2
 1567 0114 06F8303C 		strb	r3, [r6, #-48]
1527:SensorLib\bme688/bme68x.c ****             {
 1568              		.loc 1 1527 0 discriminator 3
 1569 0118 0134     		adds	r4, r4, #1
 1570              	.LVL214:
 1571 011a E4B2     		uxtb	r4, r4
 1572              	.LVL215:
 1573              	.L101:
1527:SensorLib\bme688/bme68x.c ****             {
 1574              		.loc 1 1527 0 is_stmt 0 discriminator 1
 1575 011c 2B7C     		ldrb	r3, [r5, #16]	@ zero_extendqisi2
 1576 011e 9C42     		cmp	r4, r3
 1577 0120 E4D3     		bcc	.L102
1535:SensorLib\bme688/bme68x.c ****             write_len = conf->profile_len;
 1578              		.loc 1 1535 0 is_stmt 1
 1579 0122 88F80030 		strb	r3, [r8]
1536:SensorLib\bme688/bme68x.c ****             shared_dur = calc_heatr_dur_shared(conf->shared_heatr_dur);
 1580              		.loc 1 1536 0
 1581 0126 2C7C     		ldrb	r4, [r5, #16]	@ zero_extendqisi2
 1582              	.LVL216:
1537:SensorLib\bme688/bme68x.c ****             if (rslt == BME68X_OK)
 1583              		.loc 1 1537 0
ARM GAS  C:\Users\CHRONI~1\AppData\Local\Temp\ccho61l0.s 			page 62


 1584 0128 688A     		ldrh	r0, [r5, #18]
 1585 012a FFF7FEFF 		bl	calc_heatr_dur_shared
 1586              	.LVL217:
 1587 012e 8DF82F00 		strb	r0, [sp, #47]
1538:SensorLib\bme688/bme68x.c ****             {
 1588              		.loc 1 1538 0
 1589 0132 B9F1000F 		cmp	r9, #0
 1590 0136 1CD1     		bne	.L94
1540:SensorLib\bme688/bme68x.c ****             }
 1591              		.loc 1 1540 0
 1592 0138 3B46     		mov	r3, r7
 1593 013a 0122     		movs	r2, #1
 1594 013c 0DF12F01 		add	r1, sp, #47
 1595 0140 0DF12E00 		add	r0, sp, #46
 1596 0144 FFF7FEFF 		bl	bme68x_set_regs
 1597              	.LVL218:
 1598 0148 8146     		mov	r9, r0
 1599              	.LVL219:
 1600 014a 12E0     		b	.L94
 1601              	.LVL220:
 1602              	.L111:
1480:SensorLib\bme688/bme68x.c ****     uint8_t heater_dur_shared_addr = BME68X_REG_SHD_HEATR_DUR;
 1603              		.loc 1 1480 0
 1604 014c 0024     		movs	r4, #0
1545:SensorLib\bme688/bme68x.c ****     }
 1605              		.loc 1 1545 0
 1606 014e 4FF00109 		mov	r9, #1
 1607 0152 0EE0     		b	.L94
 1608              	.L106:
1480:SensorLib\bme688/bme68x.c ****     uint8_t heater_dur_shared_addr = BME68X_REG_SHD_HEATR_DUR;
 1609              		.loc 1 1480 0
 1610 0154 0024     		movs	r4, #0
1500:SensorLib\bme688/bme68x.c ****                 break;
 1611              		.loc 1 1500 0
 1612 0156 4FF0FF39 		mov	r9, #-1
 1613 015a 0AE0     		b	.L94
 1614              	.L107:
1480:SensorLib\bme688/bme68x.c ****     uint8_t heater_dur_shared_addr = BME68X_REG_SHD_HEATR_DUR;
 1615              		.loc 1 1480 0
 1616 015c 0024     		movs	r4, #0
1500:SensorLib\bme688/bme68x.c ****                 break;
 1617              		.loc 1 1500 0
 1618 015e 4FF0FF39 		mov	r9, #-1
 1619 0162 06E0     		b	.L94
 1620              	.L108:
1480:SensorLib\bme688/bme68x.c ****     uint8_t heater_dur_shared_addr = BME68X_REG_SHD_HEATR_DUR;
 1621              		.loc 1 1480 0
 1622 0164 0024     		movs	r4, #0
1518:SensorLib\bme688/bme68x.c ****                 break;
 1623              		.loc 1 1518 0
 1624 0166 4FF0FF39 		mov	r9, #-1
 1625 016a 02E0     		b	.L94
 1626              	.L109:
1480:SensorLib\bme688/bme68x.c ****     uint8_t heater_dur_shared_addr = BME68X_REG_SHD_HEATR_DUR;
 1627              		.loc 1 1480 0
 1628 016c 0024     		movs	r4, #0
1518:SensorLib\bme688/bme68x.c ****                 break;
ARM GAS  C:\Users\CHRONI~1\AppData\Local\Temp\ccho61l0.s 			page 63


 1629              		.loc 1 1518 0
 1630 016e 4FF0FF39 		mov	r9, #-1
 1631              	.LVL221:
 1632              	.L94:
1548:SensorLib\bme688/bme68x.c ****     {
 1633              		.loc 1 1548 0
 1634 0172 B9F1000F 		cmp	r9, #0
 1635 0176 06D1     		bne	.L103
1550:SensorLib\bme688/bme68x.c ****     }
 1636              		.loc 1 1550 0
 1637 0178 3B46     		mov	r3, r7
 1638 017a 2246     		mov	r2, r4
 1639 017c 06A9     		add	r1, sp, #24
 1640 017e 09A8     		add	r0, sp, #36
 1641 0180 FFF7FEFF 		bl	bme68x_set_regs
 1642              	.LVL222:
 1643 0184 8146     		mov	r9, r0
 1644              	.LVL223:
 1645              	.L103:
1553:SensorLib\bme688/bme68x.c ****     {
 1646              		.loc 1 1553 0
 1647 0186 B9F1000F 		cmp	r9, #0
 1648 018a 06D1     		bne	.L104
1555:SensorLib\bme688/bme68x.c ****     }
 1649              		.loc 1 1555 0
 1650 018c 3B46     		mov	r3, r7
 1651 018e 2246     		mov	r2, r4
 1652 0190 6946     		mov	r1, sp
 1653 0192 03A8     		add	r0, sp, #12
 1654 0194 FFF7FEFF 		bl	bme68x_set_regs
 1655              	.LVL224:
 1656 0198 8146     		mov	r9, r0
 1657              	.LVL225:
 1658              	.L104:
1559:SensorLib\bme688/bme68x.c **** 
 1659              		.loc 1 1559 0
 1660 019a 4846     		mov	r0, r9
 1661 019c 0CB0     		add	sp, sp, #48
 1662              		.cfi_def_cfa_offset 32
 1663              		@ sp needed
 1664 019e BDE8F087 		pop	{r4, r5, r6, r7, r8, r9, r10, pc}
 1665              		.cfi_endproc
 1666              	.LFE27:
 1667              		.size	set_conf, .-set_conf
 1668 01a2 00BF     		.section	.text.bme68x_get_regs,"ax",%progbits
 1669              		.align	2
 1670              		.global	bme68x_get_regs
 1671              		.thumb
 1672              		.thumb_func
 1673              		.type	bme68x_get_regs, %function
 1674              	bme68x_get_regs:
 1675              	.LFB3:
 236:SensorLib\bme688/bme68x.c ****     int8_t rslt;
 1676              		.loc 1 236 0
 1677              		.cfi_startproc
 1678              		@ args = 0, pretend = 0, frame = 0
 1679              		@ frame_needed = 0, uses_anonymous_args = 0
ARM GAS  C:\Users\CHRONI~1\AppData\Local\Temp\ccho61l0.s 			page 64


 1680              	.LVL226:
 1681 0000 2DE9F843 		push	{r3, r4, r5, r6, r7, r8, r9, lr}
 1682              		.cfi_def_cfa_offset 32
 1683              		.cfi_offset 3, -32
 1684              		.cfi_offset 4, -28
 1685              		.cfi_offset 5, -24
 1686              		.cfi_offset 6, -20
 1687              		.cfi_offset 7, -16
 1688              		.cfi_offset 8, -12
 1689              		.cfi_offset 9, -8
 1690              		.cfi_offset 14, -4
 1691 0004 0646     		mov	r6, r0
 1692 0006 0D46     		mov	r5, r1
 1693 0008 9146     		mov	r9, r2
 1694 000a 1C46     		mov	r4, r3
 240:SensorLib\bme688/bme68x.c ****     if ((rslt == BME68X_OK) && reg_data)
 1695              		.loc 1 240 0
 1696 000c 1846     		mov	r0, r3
 1697              	.LVL227:
 1698 000e FFF7FEFF 		bl	null_ptr_check
 1699              	.LVL228:
 241:SensorLib\bme688/bme68x.c ****     {
 1700              		.loc 1 241 0
 1701 0012 A8B9     		cbnz	r0, .L116
 1702 0014 8046     		mov	r8, r0
 241:SensorLib\bme688/bme68x.c ****     {
 1703              		.loc 1 241 0 is_stmt 0 discriminator 1
 1704 0016 B5B1     		cbz	r5, .L117
 243:SensorLib\bme688/bme68x.c ****         {
 1705              		.loc 1 243 0 is_stmt 1
 1706 0018 237B     		ldrb	r3, [r4, #12]	@ zero_extendqisi2
 1707 001a 3BB9     		cbnz	r3, .L115
 246:SensorLib\bme688/bme68x.c ****             if (rslt == BME68X_OK)
 1708              		.loc 1 246 0
 1709 001c 2146     		mov	r1, r4
 1710 001e 3046     		mov	r0, r6
 1711              	.LVL229:
 1712 0020 FFF7FEFF 		bl	set_mem_page
 1713              	.LVL230:
 247:SensorLib\bme688/bme68x.c ****             {
 1714              		.loc 1 247 0
 1715 0024 8046     		mov	r8, r0
 1716 0026 08B9     		cbnz	r0, .L115
 249:SensorLib\bme688/bme68x.c ****             }
 1717              		.loc 1 249 0
 1718 0028 46F08006 		orr	r6, r6, #128
 1719              	.LVL231:
 1720              	.L115:
 253:SensorLib\bme688/bme68x.c ****         if (dev->intf_rslt != 0)
 1721              		.loc 1 253 0
 1722 002c 276C     		ldr	r7, [r4, #64]
 1723 002e 6368     		ldr	r3, [r4, #4]
 1724 0030 4A46     		mov	r2, r9
 1725 0032 2946     		mov	r1, r5
 1726 0034 3046     		mov	r0, r6
 1727 0036 B847     		blx	r7
 1728              	.LVL232:
ARM GAS  C:\Users\CHRONI~1\AppData\Local\Temp\ccho61l0.s 			page 65


 1729 0038 84F84C00 		strb	r0, [r4, #76]
 254:SensorLib\bme688/bme68x.c ****         {
 1730              		.loc 1 254 0
 1731 003c 40B1     		cbz	r0, .L114
 1732 003e 05E0     		b	.L118
 1733              	.LVL233:
 1734              	.L116:
 261:SensorLib\bme688/bme68x.c ****     }
 1735              		.loc 1 261 0
 1736 0040 4FF0FF38 		mov	r8, #-1
 1737 0044 04E0     		b	.L114
 1738              	.L117:
 1739 0046 4FF0FF38 		mov	r8, #-1
 1740 004a 01E0     		b	.L114
 1741              	.LVL234:
 1742              	.L118:
 256:SensorLib\bme688/bme68x.c ****         }
 1743              		.loc 1 256 0
 1744 004c 6FF00108 		mvn	r8, #1
 1745              	.LVL235:
 1746              	.L114:
 265:SensorLib\bme688/bme68x.c **** 
 1747              		.loc 1 265 0
 1748 0050 4046     		mov	r0, r8
 1749 0052 BDE8F883 		pop	{r3, r4, r5, r6, r7, r8, r9, pc}
 1750              		.cfi_endproc
 1751              	.LFE3:
 1752              		.size	bme68x_get_regs, .-bme68x_get_regs
 1753 0056 00BF     		.section	.text.read_variant_id,"ax",%progbits
 1754              		.align	2
 1755              		.thumb
 1756              		.thumb_func
 1757              		.type	read_variant_id, %function
 1758              	read_variant_id:
 1759              	.LFB33:
1768:SensorLib\bme688/bme68x.c **** 
1769:SensorLib\bme688/bme68x.c **** /* This internal API is used to read the calibration coefficients */
1770:SensorLib\bme688/bme68x.c **** static int8_t get_calib_data(struct bme68x_dev *dev)
1771:SensorLib\bme688/bme68x.c **** {
1772:SensorLib\bme688/bme68x.c ****     int8_t rslt;
1773:SensorLib\bme688/bme68x.c ****     uint8_t coeff_array[BME68X_LEN_COEFF_ALL];
1774:SensorLib\bme688/bme68x.c **** 
1775:SensorLib\bme688/bme68x.c ****     rslt = bme68x_get_regs(BME68X_REG_COEFF1, coeff_array, BME68X_LEN_COEFF1, dev);
1776:SensorLib\bme688/bme68x.c ****     if (rslt == BME68X_OK)
1777:SensorLib\bme688/bme68x.c ****     {
1778:SensorLib\bme688/bme68x.c ****         rslt = bme68x_get_regs(BME68X_REG_COEFF2, &coeff_array[BME68X_LEN_COEFF1], BME68X_LEN_COEFF
1779:SensorLib\bme688/bme68x.c ****     }
1780:SensorLib\bme688/bme68x.c **** 
1781:SensorLib\bme688/bme68x.c ****     if (rslt == BME68X_OK)
1782:SensorLib\bme688/bme68x.c ****     {
1783:SensorLib\bme688/bme68x.c ****         rslt = bme68x_get_regs(BME68X_REG_COEFF3,
1784:SensorLib\bme688/bme68x.c ****                                &coeff_array[BME68X_LEN_COEFF1 + BME68X_LEN_COEFF2],
1785:SensorLib\bme688/bme68x.c ****                                BME68X_LEN_COEFF3,
1786:SensorLib\bme688/bme68x.c ****                                dev);
1787:SensorLib\bme688/bme68x.c ****     }
1788:SensorLib\bme688/bme68x.c **** 
1789:SensorLib\bme688/bme68x.c ****     if (rslt == BME68X_OK)
ARM GAS  C:\Users\CHRONI~1\AppData\Local\Temp\ccho61l0.s 			page 66


1790:SensorLib\bme688/bme68x.c ****     {
1791:SensorLib\bme688/bme68x.c ****         /* Temperature related coefficients */
1792:SensorLib\bme688/bme68x.c ****         dev->calib.par_t1 =
1793:SensorLib\bme688/bme68x.c ****             (uint16_t)(BME68X_CONCAT_BYTES(coeff_array[BME68X_IDX_T1_MSB], coeff_array[BME68X_IDX_T
1794:SensorLib\bme688/bme68x.c ****         dev->calib.par_t2 =
1795:SensorLib\bme688/bme68x.c ****             (int16_t)(BME68X_CONCAT_BYTES(coeff_array[BME68X_IDX_T2_MSB], coeff_array[BME68X_IDX_T2
1796:SensorLib\bme688/bme68x.c ****         dev->calib.par_t3 = (int8_t)(coeff_array[BME68X_IDX_T3]);
1797:SensorLib\bme688/bme68x.c **** 
1798:SensorLib\bme688/bme68x.c ****         /* Pressure related coefficients */
1799:SensorLib\bme688/bme68x.c ****         dev->calib.par_p1 =
1800:SensorLib\bme688/bme68x.c ****             (uint16_t)(BME68X_CONCAT_BYTES(coeff_array[BME68X_IDX_P1_MSB], coeff_array[BME68X_IDX_P
1801:SensorLib\bme688/bme68x.c ****         dev->calib.par_p2 =
1802:SensorLib\bme688/bme68x.c ****             (int16_t)(BME68X_CONCAT_BYTES(coeff_array[BME68X_IDX_P2_MSB], coeff_array[BME68X_IDX_P2
1803:SensorLib\bme688/bme68x.c ****         dev->calib.par_p3 = (int8_t)coeff_array[BME68X_IDX_P3];
1804:SensorLib\bme688/bme68x.c ****         dev->calib.par_p4 =
1805:SensorLib\bme688/bme68x.c ****             (int16_t)(BME68X_CONCAT_BYTES(coeff_array[BME68X_IDX_P4_MSB], coeff_array[BME68X_IDX_P4
1806:SensorLib\bme688/bme68x.c ****         dev->calib.par_p5 =
1807:SensorLib\bme688/bme68x.c ****             (int16_t)(BME68X_CONCAT_BYTES(coeff_array[BME68X_IDX_P5_MSB], coeff_array[BME68X_IDX_P5
1808:SensorLib\bme688/bme68x.c ****         dev->calib.par_p6 = (int8_t)(coeff_array[BME68X_IDX_P6]);
1809:SensorLib\bme688/bme68x.c ****         dev->calib.par_p7 = (int8_t)(coeff_array[BME68X_IDX_P7]);
1810:SensorLib\bme688/bme68x.c ****         dev->calib.par_p8 =
1811:SensorLib\bme688/bme68x.c ****             (int16_t)(BME68X_CONCAT_BYTES(coeff_array[BME68X_IDX_P8_MSB], coeff_array[BME68X_IDX_P8
1812:SensorLib\bme688/bme68x.c ****         dev->calib.par_p9 =
1813:SensorLib\bme688/bme68x.c ****             (int16_t)(BME68X_CONCAT_BYTES(coeff_array[BME68X_IDX_P9_MSB], coeff_array[BME68X_IDX_P9
1814:SensorLib\bme688/bme68x.c ****         dev->calib.par_p10 = (uint8_t)(coeff_array[BME68X_IDX_P10]);
1815:SensorLib\bme688/bme68x.c **** 
1816:SensorLib\bme688/bme68x.c ****         /* Humidity related coefficients */
1817:SensorLib\bme688/bme68x.c ****         dev->calib.par_h1 =
1818:SensorLib\bme688/bme68x.c ****             (uint16_t)(((uint16_t)coeff_array[BME68X_IDX_H1_MSB] << 4) |
1819:SensorLib\bme688/bme68x.c ****                        (coeff_array[BME68X_IDX_H1_LSB] & BME68X_BIT_H1_DATA_MSK));
1820:SensorLib\bme688/bme68x.c ****         dev->calib.par_h2 =
1821:SensorLib\bme688/bme68x.c ****             (uint16_t)(((uint16_t)coeff_array[BME68X_IDX_H2_MSB] << 4) | ((coeff_array[BME68X_IDX_H
1822:SensorLib\bme688/bme68x.c ****         dev->calib.par_h3 = (int8_t)coeff_array[BME68X_IDX_H3];
1823:SensorLib\bme688/bme68x.c ****         dev->calib.par_h4 = (int8_t)coeff_array[BME68X_IDX_H4];
1824:SensorLib\bme688/bme68x.c ****         dev->calib.par_h5 = (int8_t)coeff_array[BME68X_IDX_H5];
1825:SensorLib\bme688/bme68x.c ****         dev->calib.par_h6 = (uint8_t)coeff_array[BME68X_IDX_H6];
1826:SensorLib\bme688/bme68x.c ****         dev->calib.par_h7 = (int8_t)coeff_array[BME68X_IDX_H7];
1827:SensorLib\bme688/bme68x.c **** 
1828:SensorLib\bme688/bme68x.c ****         /* Gas heater related coefficients */
1829:SensorLib\bme688/bme68x.c ****         dev->calib.par_gh1 = (int8_t)coeff_array[BME68X_IDX_GH1];
1830:SensorLib\bme688/bme68x.c ****         dev->calib.par_gh2 =
1831:SensorLib\bme688/bme68x.c ****             (int16_t)(BME68X_CONCAT_BYTES(coeff_array[BME68X_IDX_GH2_MSB], coeff_array[BME68X_IDX_G
1832:SensorLib\bme688/bme68x.c ****         dev->calib.par_gh3 = (int8_t)coeff_array[BME68X_IDX_GH3];
1833:SensorLib\bme688/bme68x.c **** 
1834:SensorLib\bme688/bme68x.c ****         /* Other coefficients */
1835:SensorLib\bme688/bme68x.c ****         dev->calib.res_heat_range = ((coeff_array[BME68X_IDX_RES_HEAT_RANGE] & BME68X_RHRANGE_MSK) 
1836:SensorLib\bme688/bme68x.c ****         dev->calib.res_heat_val = (int8_t)coeff_array[BME68X_IDX_RES_HEAT_VAL];
1837:SensorLib\bme688/bme68x.c ****         dev->calib.range_sw_err = ((int8_t)(coeff_array[BME68X_IDX_RANGE_SW_ERR] & BME68X_RSERROR_M
1838:SensorLib\bme688/bme68x.c ****     }
1839:SensorLib\bme688/bme68x.c **** 
1840:SensorLib\bme688/bme68x.c ****     return rslt;
1841:SensorLib\bme688/bme68x.c **** }
1842:SensorLib\bme688/bme68x.c **** 
1843:SensorLib\bme688/bme68x.c **** /* This internal API is used to read variant ID information from the register */
1844:SensorLib\bme688/bme68x.c **** static int8_t read_variant_id(struct bme68x_dev *dev)
1845:SensorLib\bme688/bme68x.c **** {
 1760              		.loc 1 1845 0
ARM GAS  C:\Users\CHRONI~1\AppData\Local\Temp\ccho61l0.s 			page 67


 1761              		.cfi_startproc
 1762              		@ args = 0, pretend = 0, frame = 8
 1763              		@ frame_needed = 0, uses_anonymous_args = 0
 1764              	.LVL236:
 1765 0000 10B5     		push	{r4, lr}
 1766              		.cfi_def_cfa_offset 8
 1767              		.cfi_offset 4, -8
 1768              		.cfi_offset 14, -4
 1769 0002 82B0     		sub	sp, sp, #8
 1770              		.cfi_def_cfa_offset 16
 1771 0004 0446     		mov	r4, r0
1846:SensorLib\bme688/bme68x.c ****     int8_t rslt;
1847:SensorLib\bme688/bme68x.c ****     uint8_t reg_data = 0;
 1772              		.loc 1 1847 0
 1773 0006 02A9     		add	r1, sp, #8
 1774 0008 0023     		movs	r3, #0
 1775 000a 01F8013D 		strb	r3, [r1, #-1]!
1848:SensorLib\bme688/bme68x.c **** 
1849:SensorLib\bme688/bme68x.c ****     /* Read variant ID information register */
1850:SensorLib\bme688/bme68x.c ****     rslt = bme68x_get_regs(BME68X_REG_VARIANT_ID, &reg_data, 1, dev);
 1776              		.loc 1 1850 0
 1777 000e 0346     		mov	r3, r0
 1778 0010 0122     		movs	r2, #1
 1779 0012 F020     		movs	r0, #240
 1780              	.LVL237:
 1781 0014 FFF7FEFF 		bl	bme68x_get_regs
 1782              	.LVL238:
1851:SensorLib\bme688/bme68x.c **** 
1852:SensorLib\bme688/bme68x.c ****     if (rslt == BME68X_OK)
 1783              		.loc 1 1852 0
 1784 0018 0346     		mov	r3, r0
 1785 001a 10B9     		cbnz	r0, .L121
1853:SensorLib\bme688/bme68x.c ****     {
1854:SensorLib\bme688/bme68x.c ****         dev->variant_id = reg_data;
 1786              		.loc 1 1854 0
 1787 001c 9DF80720 		ldrb	r2, [sp, #7]	@ zero_extendqisi2
 1788 0020 A260     		str	r2, [r4, #8]
 1789              	.L121:
1855:SensorLib\bme688/bme68x.c ****     }
1856:SensorLib\bme688/bme68x.c **** 
1857:SensorLib\bme688/bme68x.c ****     return rslt;
1858:SensorLib\bme688/bme68x.c **** }
 1790              		.loc 1 1858 0
 1791 0022 1846     		mov	r0, r3
 1792              	.LVL239:
 1793 0024 02B0     		add	sp, sp, #8
 1794              		.cfi_def_cfa_offset 8
 1795              		@ sp needed
 1796 0026 10BD     		pop	{r4, pc}
 1797              		.cfi_endproc
 1798              	.LFE33:
 1799              		.size	read_variant_id, .-read_variant_id
 1800              		.section	.text.get_calib_data,"ax",%progbits
 1801              		.align	2
 1802              		.thumb
 1803              		.thumb_func
 1804              		.type	get_calib_data, %function
ARM GAS  C:\Users\CHRONI~1\AppData\Local\Temp\ccho61l0.s 			page 68


 1805              	get_calib_data:
 1806              	.LFB32:
1771:SensorLib\bme688/bme68x.c ****     int8_t rslt;
 1807              		.loc 1 1771 0
 1808              		.cfi_startproc
 1809              		@ args = 0, pretend = 0, frame = 48
 1810              		@ frame_needed = 0, uses_anonymous_args = 0
 1811              	.LVL240:
 1812 0000 10B5     		push	{r4, lr}
 1813              		.cfi_def_cfa_offset 8
 1814              		.cfi_offset 4, -8
 1815              		.cfi_offset 14, -4
 1816 0002 8CB0     		sub	sp, sp, #48
 1817              		.cfi_def_cfa_offset 56
 1818 0004 0446     		mov	r4, r0
1775:SensorLib\bme688/bme68x.c ****     if (rslt == BME68X_OK)
 1819              		.loc 1 1775 0
 1820 0006 0346     		mov	r3, r0
 1821 0008 1722     		movs	r2, #23
 1822 000a 01A9     		add	r1, sp, #4
 1823 000c 8A20     		movs	r0, #138
 1824              	.LVL241:
 1825 000e FFF7FEFF 		bl	bme68x_get_regs
 1826              	.LVL242:
1776:SensorLib\bme688/bme68x.c ****     {
 1827              		.loc 1 1776 0
 1828 0012 0346     		mov	r3, r0
 1829 0014 38B9     		cbnz	r0, .L124
1778:SensorLib\bme688/bme68x.c ****     }
 1830              		.loc 1 1778 0
 1831 0016 2346     		mov	r3, r4
 1832 0018 0E22     		movs	r2, #14
 1833 001a 0DF11B01 		add	r1, sp, #27
 1834 001e E120     		movs	r0, #225
 1835              	.LVL243:
 1836 0020 FFF7FEFF 		bl	bme68x_get_regs
 1837              	.LVL244:
 1838 0024 0346     		mov	r3, r0
 1839              	.LVL245:
 1840              	.L124:
1781:SensorLib\bme688/bme68x.c ****     {
 1841              		.loc 1 1781 0
 1842 0026 3BB9     		cbnz	r3, .L125
1783:SensorLib\bme688/bme68x.c ****                                &coeff_array[BME68X_LEN_COEFF1 + BME68X_LEN_COEFF2],
 1843              		.loc 1 1783 0
 1844 0028 2346     		mov	r3, r4
 1845              	.LVL246:
 1846 002a 0522     		movs	r2, #5
 1847 002c 0DF12901 		add	r1, sp, #41
 1848 0030 0020     		movs	r0, #0
 1849 0032 FFF7FEFF 		bl	bme68x_get_regs
 1850              	.LVL247:
 1851 0036 0346     		mov	r3, r0
 1852              	.LVL248:
 1853              	.L125:
1789:SensorLib\bme688/bme68x.c ****     {
 1854              		.loc 1 1789 0
ARM GAS  C:\Users\CHRONI~1\AppData\Local\Temp\ccho61l0.s 			page 69


 1855 0038 002B     		cmp	r3, #0
 1856 003a 40F08780 		bne	.L126
1793:SensorLib\bme688/bme68x.c ****         dev->calib.par_t2 =
 1857              		.loc 1 1793 0
 1858 003e 9DF82410 		ldrb	r1, [sp, #36]	@ zero_extendqisi2
 1859 0042 9DF82320 		ldrb	r2, [sp, #35]	@ zero_extendqisi2
 1860 0046 42EA0122 		orr	r2, r2, r1, lsl #8
1792:SensorLib\bme688/bme68x.c ****             (uint16_t)(BME68X_CONCAT_BYTES(coeff_array[BME68X_IDX_T1_MSB], coeff_array[BME68X_IDX_T
 1861              		.loc 1 1792 0
 1862 004a E283     		strh	r2, [r4, #30]	@ movhi
1795:SensorLib\bme688/bme68x.c ****         dev->calib.par_t3 = (int8_t)(coeff_array[BME68X_IDX_T3]);
 1863              		.loc 1 1795 0
 1864 004c 9DF80510 		ldrb	r1, [sp, #5]	@ zero_extendqisi2
 1865 0050 9DF80420 		ldrb	r2, [sp, #4]	@ zero_extendqisi2
 1866 0054 42EA0122 		orr	r2, r2, r1, lsl #8
1794:SensorLib\bme688/bme68x.c ****             (int16_t)(BME68X_CONCAT_BYTES(coeff_array[BME68X_IDX_T2_MSB], coeff_array[BME68X_IDX_T2
 1867              		.loc 1 1794 0
 1868 0058 2284     		strh	r2, [r4, #32]	@ movhi
1796:SensorLib\bme688/bme68x.c **** 
 1869              		.loc 1 1796 0
 1870 005a 9DF90620 		ldrsb	r2, [sp, #6]
 1871 005e 84F82220 		strb	r2, [r4, #34]
1800:SensorLib\bme688/bme68x.c ****         dev->calib.par_p2 =
 1872              		.loc 1 1800 0
 1873 0062 9DF80910 		ldrb	r1, [sp, #9]	@ zero_extendqisi2
 1874 0066 9DF80820 		ldrb	r2, [sp, #8]	@ zero_extendqisi2
 1875 006a 42EA0122 		orr	r2, r2, r1, lsl #8
1799:SensorLib\bme688/bme68x.c ****             (uint16_t)(BME68X_CONCAT_BYTES(coeff_array[BME68X_IDX_P1_MSB], coeff_array[BME68X_IDX_P
 1876              		.loc 1 1799 0
 1877 006e A284     		strh	r2, [r4, #36]	@ movhi
1802:SensorLib\bme688/bme68x.c ****         dev->calib.par_p3 = (int8_t)coeff_array[BME68X_IDX_P3];
 1878              		.loc 1 1802 0
 1879 0070 9DF80B10 		ldrb	r1, [sp, #11]	@ zero_extendqisi2
 1880 0074 9DF80A20 		ldrb	r2, [sp, #10]	@ zero_extendqisi2
 1881 0078 42EA0122 		orr	r2, r2, r1, lsl #8
1801:SensorLib\bme688/bme68x.c ****             (int16_t)(BME68X_CONCAT_BYTES(coeff_array[BME68X_IDX_P2_MSB], coeff_array[BME68X_IDX_P2
 1882              		.loc 1 1801 0
 1883 007c E284     		strh	r2, [r4, #38]	@ movhi
1803:SensorLib\bme688/bme68x.c ****         dev->calib.par_p4 =
 1884              		.loc 1 1803 0
 1885 007e 9DF90C20 		ldrsb	r2, [sp, #12]
 1886 0082 84F82820 		strb	r2, [r4, #40]
1805:SensorLib\bme688/bme68x.c ****         dev->calib.par_p5 =
 1887              		.loc 1 1805 0
 1888 0086 9DF80F10 		ldrb	r1, [sp, #15]	@ zero_extendqisi2
 1889 008a 9DF80E20 		ldrb	r2, [sp, #14]	@ zero_extendqisi2
 1890 008e 42EA0122 		orr	r2, r2, r1, lsl #8
1804:SensorLib\bme688/bme68x.c ****             (int16_t)(BME68X_CONCAT_BYTES(coeff_array[BME68X_IDX_P4_MSB], coeff_array[BME68X_IDX_P4
 1891              		.loc 1 1804 0
 1892 0092 6285     		strh	r2, [r4, #42]	@ movhi
1807:SensorLib\bme688/bme68x.c ****         dev->calib.par_p6 = (int8_t)(coeff_array[BME68X_IDX_P6]);
 1893              		.loc 1 1807 0
 1894 0094 9DF81110 		ldrb	r1, [sp, #17]	@ zero_extendqisi2
 1895 0098 9DF81020 		ldrb	r2, [sp, #16]	@ zero_extendqisi2
 1896 009c 42EA0122 		orr	r2, r2, r1, lsl #8
1806:SensorLib\bme688/bme68x.c ****             (int16_t)(BME68X_CONCAT_BYTES(coeff_array[BME68X_IDX_P5_MSB], coeff_array[BME68X_IDX_P5
 1897              		.loc 1 1806 0
ARM GAS  C:\Users\CHRONI~1\AppData\Local\Temp\ccho61l0.s 			page 70


 1898 00a0 A285     		strh	r2, [r4, #44]	@ movhi
1808:SensorLib\bme688/bme68x.c ****         dev->calib.par_p7 = (int8_t)(coeff_array[BME68X_IDX_P7]);
 1899              		.loc 1 1808 0
 1900 00a2 9DF91320 		ldrsb	r2, [sp, #19]
 1901 00a6 84F82E20 		strb	r2, [r4, #46]
1809:SensorLib\bme688/bme68x.c ****         dev->calib.par_p8 =
 1902              		.loc 1 1809 0
 1903 00aa 9DF91220 		ldrsb	r2, [sp, #18]
 1904 00ae 84F82F20 		strb	r2, [r4, #47]
1811:SensorLib\bme688/bme68x.c ****         dev->calib.par_p9 =
 1905              		.loc 1 1811 0
 1906 00b2 9DF81710 		ldrb	r1, [sp, #23]	@ zero_extendqisi2
 1907 00b6 9DF81620 		ldrb	r2, [sp, #22]	@ zero_extendqisi2
 1908 00ba 42EA0122 		orr	r2, r2, r1, lsl #8
1810:SensorLib\bme688/bme68x.c ****             (int16_t)(BME68X_CONCAT_BYTES(coeff_array[BME68X_IDX_P8_MSB], coeff_array[BME68X_IDX_P8
 1909              		.loc 1 1810 0
 1910 00be 2286     		strh	r2, [r4, #48]	@ movhi
1813:SensorLib\bme688/bme68x.c ****         dev->calib.par_p10 = (uint8_t)(coeff_array[BME68X_IDX_P10]);
 1911              		.loc 1 1813 0
 1912 00c0 9DF81910 		ldrb	r1, [sp, #25]	@ zero_extendqisi2
 1913 00c4 9DF81820 		ldrb	r2, [sp, #24]	@ zero_extendqisi2
 1914 00c8 42EA0122 		orr	r2, r2, r1, lsl #8
1812:SensorLib\bme688/bme68x.c ****             (int16_t)(BME68X_CONCAT_BYTES(coeff_array[BME68X_IDX_P9_MSB], coeff_array[BME68X_IDX_P9
 1915              		.loc 1 1812 0
 1916 00cc 6286     		strh	r2, [r4, #50]	@ movhi
1814:SensorLib\bme688/bme68x.c **** 
 1917              		.loc 1 1814 0
 1918 00ce 9DF81A20 		ldrb	r2, [sp, #26]	@ zero_extendqisi2
 1919 00d2 84F83420 		strb	r2, [r4, #52]
1818:SensorLib\bme688/bme68x.c ****                        (coeff_array[BME68X_IDX_H1_LSB] & BME68X_BIT_H1_DATA_MSK));
 1920              		.loc 1 1818 0
 1921 00d6 9DF81D00 		ldrb	r0, [sp, #29]	@ zero_extendqisi2
1819:SensorLib\bme688/bme68x.c ****         dev->calib.par_h2 =
 1922              		.loc 1 1819 0
 1923 00da 9DF81C20 		ldrb	r2, [sp, #28]	@ zero_extendqisi2
1818:SensorLib\bme688/bme68x.c ****                        (coeff_array[BME68X_IDX_H1_LSB] & BME68X_BIT_H1_DATA_MSK));
 1924              		.loc 1 1818 0
 1925 00de 02F00F01 		and	r1, r2, #15
 1926 00e2 41EA0011 		orr	r1, r1, r0, lsl #4
1817:SensorLib\bme688/bme68x.c ****             (uint16_t)(((uint16_t)coeff_array[BME68X_IDX_H1_MSB] << 4) |
 1927              		.loc 1 1817 0
 1928 00e6 2182     		strh	r1, [r4, #16]	@ movhi
1821:SensorLib\bme688/bme68x.c ****         dev->calib.par_h3 = (int8_t)coeff_array[BME68X_IDX_H3];
 1929              		.loc 1 1821 0
 1930 00e8 9DF81B10 		ldrb	r1, [sp, #27]	@ zero_extendqisi2
 1931 00ec 1209     		lsrs	r2, r2, #4
 1932 00ee 42EA0112 		orr	r2, r2, r1, lsl #4
1820:SensorLib\bme688/bme68x.c ****             (uint16_t)(((uint16_t)coeff_array[BME68X_IDX_H2_MSB] << 4) | ((coeff_array[BME68X_IDX_H
 1933              		.loc 1 1820 0
 1934 00f2 6282     		strh	r2, [r4, #18]	@ movhi
1822:SensorLib\bme688/bme68x.c ****         dev->calib.par_h4 = (int8_t)coeff_array[BME68X_IDX_H4];
 1935              		.loc 1 1822 0
 1936 00f4 9DF91E20 		ldrsb	r2, [sp, #30]
 1937 00f8 2275     		strb	r2, [r4, #20]
1823:SensorLib\bme688/bme68x.c ****         dev->calib.par_h5 = (int8_t)coeff_array[BME68X_IDX_H5];
 1938              		.loc 1 1823 0
 1939 00fa 9DF91F20 		ldrsb	r2, [sp, #31]
ARM GAS  C:\Users\CHRONI~1\AppData\Local\Temp\ccho61l0.s 			page 71


 1940 00fe 6275     		strb	r2, [r4, #21]
1824:SensorLib\bme688/bme68x.c ****         dev->calib.par_h6 = (uint8_t)coeff_array[BME68X_IDX_H6];
 1941              		.loc 1 1824 0
 1942 0100 9DF92020 		ldrsb	r2, [sp, #32]
 1943 0104 A275     		strb	r2, [r4, #22]
1825:SensorLib\bme688/bme68x.c ****         dev->calib.par_h7 = (int8_t)coeff_array[BME68X_IDX_H7];
 1944              		.loc 1 1825 0
 1945 0106 9DF82120 		ldrb	r2, [sp, #33]	@ zero_extendqisi2
 1946 010a E275     		strb	r2, [r4, #23]
1826:SensorLib\bme688/bme68x.c **** 
 1947              		.loc 1 1826 0
 1948 010c 9DF92220 		ldrsb	r2, [sp, #34]
 1949 0110 2276     		strb	r2, [r4, #24]
1829:SensorLib\bme688/bme68x.c ****         dev->calib.par_gh2 =
 1950              		.loc 1 1829 0
 1951 0112 9DF92720 		ldrsb	r2, [sp, #39]
 1952 0116 6276     		strb	r2, [r4, #25]
1831:SensorLib\bme688/bme68x.c ****         dev->calib.par_gh3 = (int8_t)coeff_array[BME68X_IDX_GH3];
 1953              		.loc 1 1831 0
 1954 0118 9DF82610 		ldrb	r1, [sp, #38]	@ zero_extendqisi2
 1955 011c 9DF82520 		ldrb	r2, [sp, #37]	@ zero_extendqisi2
 1956 0120 42EA0122 		orr	r2, r2, r1, lsl #8
1830:SensorLib\bme688/bme68x.c ****             (int16_t)(BME68X_CONCAT_BYTES(coeff_array[BME68X_IDX_GH2_MSB], coeff_array[BME68X_IDX_G
 1957              		.loc 1 1830 0
 1958 0124 6283     		strh	r2, [r4, #26]	@ movhi
1832:SensorLib\bme688/bme68x.c **** 
 1959              		.loc 1 1832 0
 1960 0126 9DF92820 		ldrsb	r2, [sp, #40]
 1961 012a 2277     		strb	r2, [r4, #28]
1835:SensorLib\bme688/bme68x.c ****         dev->calib.res_heat_val = (int8_t)coeff_array[BME68X_IDX_RES_HEAT_VAL];
 1962              		.loc 1 1835 0
 1963 012c 9DF82B20 		ldrb	r2, [sp, #43]	@ zero_extendqisi2
 1964 0130 02F03002 		and	r2, r2, #48
 1965 0134 1211     		asrs	r2, r2, #4
 1966 0136 84F83C20 		strb	r2, [r4, #60]
1836:SensorLib\bme688/bme68x.c ****         dev->calib.range_sw_err = ((int8_t)(coeff_array[BME68X_IDX_RANGE_SW_ERR] & BME68X_RSERROR_M
 1967              		.loc 1 1836 0
 1968 013a 9DF92920 		ldrsb	r2, [sp, #41]
 1969 013e 84F83D20 		strb	r2, [r4, #61]
1837:SensorLib\bme688/bme68x.c ****     }
 1970              		.loc 1 1837 0
 1971 0142 9DF92D20 		ldrsb	r2, [sp, #45]
 1972 0146 1211     		asrs	r2, r2, #4
 1973 0148 84F83E20 		strb	r2, [r4, #62]
 1974              	.L126:
1841:SensorLib\bme688/bme68x.c **** 
 1975              		.loc 1 1841 0
 1976 014c 1846     		mov	r0, r3
 1977 014e 0CB0     		add	sp, sp, #48
 1978              		.cfi_def_cfa_offset 8
 1979              		@ sp needed
 1980 0150 10BD     		pop	{r4, pc}
 1981              		.cfi_endproc
 1982              	.LFE32:
 1983              		.size	get_calib_data, .-get_calib_data
 1984 0152 00BF     		.section	.text.read_field_data,"ax",%progbits
 1985              		.align	2
ARM GAS  C:\Users\CHRONI~1\AppData\Local\Temp\ccho61l0.s 			page 72


 1986              		.thumb
 1987              		.thumb_func
 1988              		.type	read_field_data, %function
 1989              	read_field_data:
 1990              	.LFB21:
1202:SensorLib\bme688/bme68x.c ****     int8_t rslt = BME68X_OK;
 1991              		.loc 1 1202 0
 1992              		.cfi_startproc
 1993              		@ args = 0, pretend = 0, frame = 40
 1994              		@ frame_needed = 0, uses_anonymous_args = 0
 1995              	.LVL249:
 1996 0000 2DE9F04F 		push	{r4, r5, r6, r7, r8, r9, r10, fp, lr}
 1997              		.cfi_def_cfa_offset 36
 1998              		.cfi_offset 4, -36
 1999              		.cfi_offset 5, -32
 2000              		.cfi_offset 6, -28
 2001              		.cfi_offset 7, -24
 2002              		.cfi_offset 8, -20
 2003              		.cfi_offset 9, -16
 2004              		.cfi_offset 10, -12
 2005              		.cfi_offset 11, -8
 2006              		.cfi_offset 14, -4
 2007 0004 8BB0     		sub	sp, sp, #44
 2008              		.cfi_def_cfa_offset 80
 2009 0006 8246     		mov	r10, r0
 2010 0008 0D46     		mov	r5, r1
 2011 000a 9146     		mov	r9, r2
 2012              	.LVL250:
1204:SensorLib\bme688/bme68x.c ****     uint8_t gas_range_l, gas_range_h;
 2013              		.loc 1 1204 0
 2014 000c 0026     		movs	r6, #0
 2015 000e 0596     		str	r6, [sp, #20]
 2016 0010 0696     		str	r6, [sp, #24]
 2017 0012 0796     		str	r6, [sp, #28]
 2018 0014 0896     		str	r6, [sp, #32]
 2019 0016 8DF82460 		strb	r6, [sp, #36]
 2020              	.LVL251:
1210:SensorLib\bme688/bme68x.c **** 
 2021              		.loc 1 1210 0
 2022 001a 0527     		movs	r7, #5
1212:SensorLib\bme688/bme68x.c ****     {
 2023              		.loc 1 1212 0
 2024 001c B0E0     		b	.L130
 2025              	.LVL252:
 2026              	.L139:
1214:SensorLib\bme688/bme68x.c ****                                buff,
 2027              		.loc 1 1214 0
 2028 001e 0AEB0A10 		add	r0, r10, r10, lsl #4
 2029 0022 1D30     		adds	r0, r0, #29
 2030 0024 4B46     		mov	r3, r9
 2031 0026 1122     		movs	r2, #17
 2032 0028 05A9     		add	r1, sp, #20
 2033 002a C0B2     		uxtb	r0, r0
 2034 002c FFF7FEFF 		bl	bme68x_get_regs
 2035              	.LVL253:
 2036 0030 0646     		mov	r6, r0
 2037              	.LVL254:
ARM GAS  C:\Users\CHRONI~1\AppData\Local\Temp\ccho61l0.s 			page 73


1218:SensorLib\bme688/bme68x.c ****         {
 2038              		.loc 1 1218 0
 2039 0032 002D     		cmp	r5, #0
 2040 0034 00F0A980 		beq	.L140
1224:SensorLib\bme688/bme68x.c ****         data->gas_index = buff[0] & BME68X_GAS_INDEX_MSK;
 2041              		.loc 1 1224 0
 2042 0038 9DF81430 		ldrb	r3, [sp, #20]	@ zero_extendqisi2
 2043 003c 03F08002 		and	r2, r3, #128
 2044 0040 2A70     		strb	r2, [r5]
1225:SensorLib\bme688/bme68x.c ****         data->meas_index = buff[1];
 2045              		.loc 1 1225 0
 2046 0042 03F00F03 		and	r3, r3, #15
 2047 0046 6B70     		strb	r3, [r5, #1]
1226:SensorLib\bme688/bme68x.c **** 
 2048              		.loc 1 1226 0
 2049 0048 9DF81530 		ldrb	r3, [sp, #21]	@ zero_extendqisi2
 2050 004c AB70     		strb	r3, [r5, #2]
1229:SensorLib\bme688/bme68x.c ****         adc_temp = (uint32_t)(((uint32_t)buff[5] * 4096) | ((uint32_t)buff[6] * 16) | ((uint32_t)bu
 2051              		.loc 1 1229 0
 2052 004e 9DF81640 		ldrb	r4, [sp, #22]	@ zero_extendqisi2
 2053 0052 9DF81730 		ldrb	r3, [sp, #23]	@ zero_extendqisi2
 2054 0056 1B01     		lsls	r3, r3, #4
 2055 0058 43EA0433 		orr	r3, r3, r4, lsl #12
 2056 005c 9DF81840 		ldrb	r4, [sp, #24]	@ zero_extendqisi2
 2057 0060 43EA1414 		orr	r4, r3, r4, lsr #4
 2058              	.LVL255:
1230:SensorLib\bme688/bme68x.c ****         adc_hum = (uint16_t)(((uint32_t)buff[8] * 256) | (uint32_t)buff[9]);
 2059              		.loc 1 1230 0
 2060 0064 9DF81910 		ldrb	r1, [sp, #25]	@ zero_extendqisi2
 2061 0068 9DF81A30 		ldrb	r3, [sp, #26]	@ zero_extendqisi2
 2062 006c 1B01     		lsls	r3, r3, #4
 2063 006e 43EA0133 		orr	r3, r3, r1, lsl #12
 2064 0072 9DF81B10 		ldrb	r1, [sp, #27]	@ zero_extendqisi2
 2065 0076 43EA1113 		orr	r3, r3, r1, lsr #4
 2066 007a 0093     		str	r3, [sp]
 2067              	.LVL256:
1231:SensorLib\bme688/bme68x.c ****         adc_gas_res_low = (uint16_t)((uint32_t)buff[13] * 4 | (((uint32_t)buff[14]) / 64));
 2068              		.loc 1 1231 0
 2069 007c 9DF81C80 		ldrb	r8, [sp, #28]	@ zero_extendqisi2
 2070 0080 9DF81D30 		ldrb	r3, [sp, #29]	@ zero_extendqisi2
 2071              	.LVL257:
 2072 0084 43EA0828 		orr	r8, r3, r8, lsl #8
 2073              	.LVL258:
1232:SensorLib\bme688/bme68x.c ****         adc_gas_res_high = (uint16_t)((uint32_t)buff[15] * 4 | (((uint32_t)buff[16]) / 64));
 2074              		.loc 1 1232 0
 2075 0088 9DF82100 		ldrb	r0, [sp, #33]	@ zero_extendqisi2
 2076 008c 9DF82230 		ldrb	r3, [sp, #34]	@ zero_extendqisi2
 2077 0090 9909     		lsrs	r1, r3, #6
 2078 0092 41EA8001 		orr	r1, r1, r0, lsl #2
 2079 0096 0191     		str	r1, [sp, #4]
 2080              	.LVL259:
1233:SensorLib\bme688/bme68x.c ****         gas_range_l = buff[14] & BME68X_GAS_RANGE_MSK;
 2081              		.loc 1 1233 0
 2082 0098 9DF823E0 		ldrb	lr, [sp, #35]	@ zero_extendqisi2
 2083 009c 9DF82410 		ldrb	r1, [sp, #36]	@ zero_extendqisi2
 2084 00a0 8809     		lsrs	r0, r1, #6
 2085 00a2 40EA8E00 		orr	r0, r0, lr, lsl #2
ARM GAS  C:\Users\CHRONI~1\AppData\Local\Temp\ccho61l0.s 			page 74


 2086 00a6 0290     		str	r0, [sp, #8]
 2087              	.LVL260:
1234:SensorLib\bme688/bme68x.c ****         gas_range_h = buff[16] & BME68X_GAS_RANGE_MSK;
 2088              		.loc 1 1234 0
 2089 00a8 03F00F00 		and	r0, r3, #15
 2090 00ac 0390     		str	r0, [sp, #12]
 2091              	.LVL261:
1235:SensorLib\bme688/bme68x.c ****         if (dev->variant_id == BME68X_VARIANT_GAS_HIGH)
 2092              		.loc 1 1235 0
 2093 00ae 01F00F0B 		and	fp, r1, #15
 2094              	.LVL262:
1236:SensorLib\bme688/bme68x.c ****         {
 2095              		.loc 1 1236 0
 2096 00b2 D9F80800 		ldr	r0, [r9, #8]
 2097 00b6 0128     		cmp	r0, #1
 2098 00b8 0AD1     		bne	.L132
1238:SensorLib\bme688/bme68x.c ****             data->status |= buff[16] & BME68X_HEAT_STAB_MSK;
 2099              		.loc 1 1238 0
 2100 00ba 01F02001 		and	r1, r1, #32
 2101 00be 0A43     		orrs	r2, r2, r1
 2102 00c0 52B2     		sxtb	r2, r2
1239:SensorLib\bme688/bme68x.c ****         }
 2103              		.loc 1 1239 0
 2104 00c2 9DF82430 		ldrb	r3, [sp, #36]	@ zero_extendqisi2
 2105 00c6 03F01003 		and	r3, r3, #16
 2106 00ca 1A43     		orrs	r2, r2, r3
 2107 00cc 2A70     		strb	r2, [r5]
 2108 00ce 09E0     		b	.L133
 2109              	.L132:
1243:SensorLib\bme688/bme68x.c ****             data->status |= buff[14] & BME68X_HEAT_STAB_MSK;
 2110              		.loc 1 1243 0
 2111 00d0 03F02003 		and	r3, r3, #32
 2112 00d4 1A43     		orrs	r2, r2, r3
 2113 00d6 52B2     		sxtb	r2, r2
1244:SensorLib\bme688/bme68x.c ****         }
 2114              		.loc 1 1244 0
 2115 00d8 9DF82230 		ldrb	r3, [sp, #34]	@ zero_extendqisi2
 2116 00dc 03F01003 		and	r3, r3, #16
 2117 00e0 1A43     		orrs	r2, r2, r3
 2118 00e2 2A70     		strb	r2, [r5]
 2119              	.L133:
1247:SensorLib\bme688/bme68x.c ****         {
 2120              		.loc 1 1247 0
 2121 00e4 95F90030 		ldrsb	r3, [r5]
 2122 00e8 002B     		cmp	r3, #0
 2123 00ea 3FDA     		bge	.L134
1247:SensorLib\bme688/bme68x.c ****         {
 2124              		.loc 1 1247 0 is_stmt 0 discriminator 1
 2125 00ec 002E     		cmp	r6, #0
 2126 00ee 3DD1     		bne	.L134
1249:SensorLib\bme688/bme68x.c ****             if (rslt == BME68X_OK)
 2127              		.loc 1 1249 0 is_stmt 1
 2128 00f0 6878     		ldrb	r0, [r5, #1]	@ zero_extendqisi2
 2129 00f2 5A30     		adds	r0, r0, #90
 2130 00f4 4B46     		mov	r3, r9
 2131 00f6 0122     		movs	r2, #1
 2132 00f8 E91C     		adds	r1, r5, #3
ARM GAS  C:\Users\CHRONI~1\AppData\Local\Temp\ccho61l0.s 			page 75


 2133 00fa C0B2     		uxtb	r0, r0
 2134 00fc FFF7FEFF 		bl	bme68x_get_regs
 2135              	.LVL263:
1250:SensorLib\bme688/bme68x.c ****             {
 2136              		.loc 1 1250 0
 2137 0100 0646     		mov	r6, r0
 2138 0102 40B9     		cbnz	r0, .L135
1252:SensorLib\bme688/bme68x.c ****             }
 2139              		.loc 1 1252 0
 2140 0104 6878     		ldrb	r0, [r5, #1]	@ zero_extendqisi2
 2141              	.LVL264:
 2142 0106 5030     		adds	r0, r0, #80
 2143 0108 4B46     		mov	r3, r9
 2144 010a 0122     		movs	r2, #1
 2145 010c 291D     		adds	r1, r5, #4
 2146 010e C0B2     		uxtb	r0, r0
 2147 0110 FFF7FEFF 		bl	bme68x_get_regs
 2148              	.LVL265:
 2149 0114 0646     		mov	r6, r0
 2150              	.LVL266:
 2151              	.L135:
1255:SensorLib\bme688/bme68x.c ****             {
 2152              		.loc 1 1255 0
 2153 0116 46B9     		cbnz	r6, .L136
1257:SensorLib\bme688/bme68x.c ****             }
 2154              		.loc 1 1257 0
 2155 0118 6878     		ldrb	r0, [r5, #1]	@ zero_extendqisi2
 2156 011a 6430     		adds	r0, r0, #100
 2157 011c 4B46     		mov	r3, r9
 2158 011e 0122     		movs	r2, #1
 2159 0120 691D     		adds	r1, r5, #5
 2160 0122 C0B2     		uxtb	r0, r0
 2161 0124 FFF7FEFF 		bl	bme68x_get_regs
 2162              	.LVL267:
 2163 0128 0646     		mov	r6, r0
 2164              	.LVL268:
 2165              	.L136:
1260:SensorLib\bme688/bme68x.c ****             {
 2166              		.loc 1 1260 0
 2167 012a FEB9     		cbnz	r6, .L134
1262:SensorLib\bme688/bme68x.c ****                 data->pressure = calc_pressure(adc_pres, dev);
 2168              		.loc 1 1262 0
 2169 012c 4946     		mov	r1, r9
 2170 012e 0098     		ldr	r0, [sp]
 2171 0130 FFF7FEFF 		bl	calc_temperature
 2172              	.LVL269:
 2173 0134 E880     		strh	r0, [r5, #6]	@ movhi
1263:SensorLib\bme688/bme68x.c ****                 data->humidity = calc_humidity(adc_hum, dev);
 2174              		.loc 1 1263 0
 2175 0136 4946     		mov	r1, r9
 2176 0138 2046     		mov	r0, r4
 2177 013a FFF7FEFF 		bl	calc_pressure
 2178              	.LVL270:
 2179 013e A860     		str	r0, [r5, #8]
1264:SensorLib\bme688/bme68x.c ****                 if (dev->variant_id == BME68X_VARIANT_GAS_HIGH)
 2180              		.loc 1 1264 0
 2181 0140 4946     		mov	r1, r9
ARM GAS  C:\Users\CHRONI~1\AppData\Local\Temp\ccho61l0.s 			page 76


 2182 0142 4046     		mov	r0, r8
 2183 0144 FFF7FEFF 		bl	calc_humidity
 2184              	.LVL271:
 2185 0148 E860     		str	r0, [r5, #12]
1265:SensorLib\bme688/bme68x.c ****                 {
 2186              		.loc 1 1265 0
 2187 014a D9F80830 		ldr	r3, [r9, #8]
 2188 014e 012B     		cmp	r3, #1
 2189 0150 05D1     		bne	.L137
1267:SensorLib\bme688/bme68x.c ****                 }
 2190              		.loc 1 1267 0
 2191 0152 5946     		mov	r1, fp
 2192 0154 0298     		ldr	r0, [sp, #8]
 2193 0156 FFF7FEFF 		bl	calc_gas_resistance_high
 2194              	.LVL272:
 2195 015a 2861     		str	r0, [r5, #16]
 2196 015c 17E0     		b	.L131
 2197              	.L137:
1271:SensorLib\bme688/bme68x.c ****                 }
 2198              		.loc 1 1271 0
 2199 015e 4A46     		mov	r2, r9
 2200 0160 0399     		ldr	r1, [sp, #12]
 2201 0162 0198     		ldr	r0, [sp, #4]
 2202 0164 FFF7FEFF 		bl	calc_gas_resistance_low
 2203              	.LVL273:
 2204 0168 2861     		str	r0, [r5, #16]
 2205 016a 10E0     		b	.L131
 2206              	.L134:
1278:SensorLib\bme688/bme68x.c ****         {
 2207              		.loc 1 1278 0
 2208 016c 36B9     		cbnz	r6, .L138
1280:SensorLib\bme688/bme68x.c ****         }
 2209              		.loc 1 1280 0
 2210 016e D9F84830 		ldr	r3, [r9, #72]
 2211 0172 D9F80410 		ldr	r1, [r9, #4]
 2212 0176 42F21070 		movw	r0, #10000
 2213 017a 9847     		blx	r3
 2214              	.LVL274:
 2215              	.L138:
1283:SensorLib\bme688/bme68x.c ****     }
 2216              		.loc 1 1283 0
 2217 017c 013F     		subs	r7, r7, #1
 2218              	.LVL275:
 2219 017e FFB2     		uxtb	r7, r7
 2220              	.LVL276:
 2221              	.L130:
1212:SensorLib\bme688/bme68x.c ****     {
 2222              		.loc 1 1212 0
 2223 0180 2FB1     		cbz	r7, .L131
1212:SensorLib\bme688/bme68x.c ****     {
 2224              		.loc 1 1212 0 is_stmt 0 discriminator 1
 2225 0182 002E     		cmp	r6, #0
 2226 0184 3FF44BAF 		beq	.L139
 2227 0188 01E0     		b	.L131
 2228              	.L140:
1220:SensorLib\bme688/bme68x.c ****             break;
 2229              		.loc 1 1220 0 is_stmt 1
ARM GAS  C:\Users\CHRONI~1\AppData\Local\Temp\ccho61l0.s 			page 77


 2230 018a 4FF0FF36 		mov	r6, #-1
 2231              	.LVL277:
 2232              	.L131:
1287:SensorLib\bme688/bme68x.c **** 
 2233              		.loc 1 1287 0
 2234 018e 3046     		mov	r0, r6
 2235 0190 0BB0     		add	sp, sp, #44
 2236              		.cfi_def_cfa_offset 36
 2237              		@ sp needed
 2238 0192 BDE8F08F 		pop	{r4, r5, r6, r7, r8, r9, r10, fp, pc}
 2239              		.cfi_endproc
 2240              	.LFE21:
 2241              		.size	read_field_data, .-read_field_data
 2242 0196 00BF     		.section	.text.read_all_field_data,"ax",%progbits
 2243              		.align	2
 2244              		.thumb
 2245              		.thumb_func
 2246              		.type	read_all_field_data, %function
 2247              	read_all_field_data:
 2248              	.LFB22:
1291:SensorLib\bme688/bme68x.c ****     int8_t rslt = BME68X_OK;
 2249              		.loc 1 1291 0
 2250              		.cfi_startproc
 2251              		@ args = 0, pretend = 0, frame = 104
 2252              		@ frame_needed = 0, uses_anonymous_args = 0
 2253              	.LVL278:
 2254 0000 2DE9F04F 		push	{r4, r5, r6, r7, r8, r9, r10, fp, lr}
 2255              		.cfi_def_cfa_offset 36
 2256              		.cfi_offset 4, -36
 2257              		.cfi_offset 5, -32
 2258              		.cfi_offset 6, -28
 2259              		.cfi_offset 7, -24
 2260              		.cfi_offset 8, -20
 2261              		.cfi_offset 9, -16
 2262              		.cfi_offset 10, -12
 2263              		.cfi_offset 11, -8
 2264              		.cfi_offset 14, -4
 2265 0004 9BB0     		sub	sp, sp, #108
 2266              		.cfi_def_cfa_offset 144
 2267 0006 8346     		mov	fp, r0
 2268 0008 8846     		mov	r8, r1
 2269              	.LVL279:
1293:SensorLib\bme688/bme68x.c ****     uint8_t gas_range_l, gas_range_h;
 2270              		.loc 1 1293 0
 2271 000a 3322     		movs	r2, #51
 2272 000c 0021     		movs	r1, #0
 2273              	.LVL280:
 2274 000e 0DA8     		add	r0, sp, #52
 2275              	.LVL281:
 2276 0010 FFF7FEFF 		bl	memset
 2277              	.LVL282:
1300:SensorLib\bme688/bme68x.c ****     uint8_t i;
 2278              		.loc 1 1300 0
 2279 0014 1E22     		movs	r2, #30
 2280 0016 0021     		movs	r1, #0
 2281 0018 05A8     		add	r0, sp, #20
 2282 001a FFF7FEFF 		bl	memset
ARM GAS  C:\Users\CHRONI~1\AppData\Local\Temp\ccho61l0.s 			page 78


 2283              	.LVL283:
1303:SensorLib\bme688/bme68x.c ****     {
 2284              		.loc 1 1303 0
 2285 001e DBF80030 		ldr	r3, [fp]
 2286 0022 43B9     		cbnz	r3, .L154
1303:SensorLib\bme688/bme68x.c ****     {
 2287              		.loc 1 1303 0 is_stmt 0 discriminator 1
 2288 0024 DBF80430 		ldr	r3, [fp, #4]
 2289 0028 43B9     		cbnz	r3, .L155
1303:SensorLib\bme688/bme68x.c ****     {
 2290              		.loc 1 1303 0 discriminator 2
 2291 002a DBF80830 		ldr	r3, [fp, #8]
 2292 002e 43B1     		cbz	r3, .L156
1292:SensorLib\bme688/bme68x.c ****     uint8_t buff[BME68X_LEN_FIELD * 3] = { 0 };
 2293              		.loc 1 1292 0 is_stmt 1
 2294 0030 0023     		movs	r3, #0
 2295 0032 0093     		str	r3, [sp]
 2296 0034 08E0     		b	.L144
 2297              	.L154:
 2298 0036 0023     		movs	r3, #0
 2299 0038 0093     		str	r3, [sp]
 2300 003a 05E0     		b	.L144
 2301              	.L155:
 2302 003c 0023     		movs	r3, #0
 2303 003e 0093     		str	r3, [sp]
 2304 0040 02E0     		b	.L144
 2305              	.L156:
1305:SensorLib\bme688/bme68x.c ****     }
 2306              		.loc 1 1305 0
 2307 0042 4FF0FF33 		mov	r3, #-1
 2308 0046 0093     		str	r3, [sp]
 2309              	.L144:
 2310              	.LVL284:
1308:SensorLib\bme688/bme68x.c ****     {
 2311              		.loc 1 1308 0
 2312 0048 009B     		ldr	r3, [sp]
 2313 004a 33B9     		cbnz	r3, .L145
1310:SensorLib\bme688/bme68x.c ****     }
 2314              		.loc 1 1310 0
 2315 004c 4346     		mov	r3, r8
 2316 004e 3322     		movs	r2, #51
 2317 0050 0DA9     		add	r1, sp, #52
 2318 0052 1D20     		movs	r0, #29
 2319 0054 FFF7FEFF 		bl	bme68x_get_regs
 2320              	.LVL285:
 2321 0058 0090     		str	r0, [sp]
 2322              	.LVL286:
 2323              	.L145:
1313:SensorLib\bme688/bme68x.c ****     {
 2324              		.loc 1 1313 0
 2325 005a 009B     		ldr	r3, [sp]
 2326 005c 33B9     		cbnz	r3, .L146
1315:SensorLib\bme688/bme68x.c ****     }
 2327              		.loc 1 1315 0
 2328 005e 4346     		mov	r3, r8
 2329 0060 1E22     		movs	r2, #30
 2330 0062 05A9     		add	r1, sp, #20
ARM GAS  C:\Users\CHRONI~1\AppData\Local\Temp\ccho61l0.s 			page 79


 2331 0064 5020     		movs	r0, #80
 2332 0066 FFF7FEFF 		bl	bme68x_get_regs
 2333              	.LVL287:
 2334 006a 0090     		str	r0, [sp]
 2335              	.LVL288:
 2336              	.L146:
1318:SensorLib\bme688/bme68x.c ****     {
 2337              		.loc 1 1318 0
 2338 006c 4FF0000A 		mov	r10, #0
 2339 0070 DDE0     		b	.L147
 2340              	.LVL289:
 2341              	.L153:
1320:SensorLib\bme688/bme68x.c ****         data[i]->status = buff[off] & BME68X_NEW_DATA_MSK;
 2342              		.loc 1 1320 0
 2343 0072 0AEB0A13 		add	r3, r10, r10, lsl #4
 2344 0076 DBB2     		uxtb	r3, r3
 2345              	.LVL290:
1321:SensorLib\bme688/bme68x.c ****         data[i]->gas_index = buff[off] & BME68X_GAS_INDEX_MSK;
 2346              		.loc 1 1321 0
 2347 0078 4FEA8A05 		lsl	r5, r10, #2
 2348 007c 5BF82A10 		ldr	r1, [fp, r10, lsl #2]
 2349 0080 1AAA     		add	r2, sp, #104
 2350 0082 D018     		adds	r0, r2, r3
 2351 0084 10F8342C 		ldrb	r2, [r0, #-52]	@ zero_extendqisi2
 2352 0088 22F07F02 		bic	r2, r2, #127
 2353 008c 0A70     		strb	r2, [r1]
1322:SensorLib\bme688/bme68x.c ****         data[i]->meas_index = buff[off + 1];
 2354              		.loc 1 1322 0
 2355 008e 5BF82A10 		ldr	r1, [fp, r10, lsl #2]
 2356 0092 10F8342C 		ldrb	r2, [r0, #-52]	@ zero_extendqisi2
 2357 0096 02F00F02 		and	r2, r2, #15
 2358 009a 4A70     		strb	r2, [r1, #1]
1323:SensorLib\bme688/bme68x.c **** 
 2359              		.loc 1 1323 0
 2360 009c 5BF82A10 		ldr	r1, [fp, r10, lsl #2]
 2361 00a0 5A1C     		adds	r2, r3, #1
 2362 00a2 1AA8     		add	r0, sp, #104
 2363 00a4 0244     		add	r2, r2, r0
 2364 00a6 12F8342C 		ldrb	r2, [r2, #-52]	@ zero_extendqisi2
 2365 00aa 8A70     		strb	r2, [r1, #2]
1327:SensorLib\bme688/bme68x.c ****                         ((uint32_t) buff[off + 4] / 16));
 2366              		.loc 1 1327 0
 2367 00ac 9A1C     		adds	r2, r3, #2
 2368 00ae 0244     		add	r2, r2, r0
 2369 00b0 12F8344C 		ldrb	r4, [r2, #-52]	@ zero_extendqisi2
 2370 00b4 D91C     		adds	r1, r3, #3
 2371 00b6 0144     		add	r1, r1, r0
 2372 00b8 11F8342C 		ldrb	r2, [r1, #-52]	@ zero_extendqisi2
 2373 00bc 1201     		lsls	r2, r2, #4
 2374 00be 42EA0432 		orr	r2, r2, r4, lsl #12
1328:SensorLib\bme688/bme68x.c ****         adc_temp =
 2375              		.loc 1 1328 0
 2376 00c2 191D     		adds	r1, r3, #4
 2377 00c4 0144     		add	r1, r1, r0
 2378 00c6 11F8344C 		ldrb	r4, [r1, #-52]	@ zero_extendqisi2
1326:SensorLib\bme688/bme68x.c ****             (uint32_t) (((uint32_t) buff[off + 2] * 4096) | ((uint32_t) buff[off + 3] * 16) |
 2379              		.loc 1 1326 0
ARM GAS  C:\Users\CHRONI~1\AppData\Local\Temp\ccho61l0.s 			page 80


 2380 00ca 42EA1414 		orr	r4, r2, r4, lsr #4
 2381              	.LVL291:
1330:SensorLib\bme688/bme68x.c ****                         ((uint32_t) buff[off + 7] / 16));
 2382              		.loc 1 1330 0
 2383 00ce 5A1D     		adds	r2, r3, #5
 2384 00d0 0244     		add	r2, r2, r0
 2385 00d2 12F8340C 		ldrb	r0, [r2, #-52]	@ zero_extendqisi2
 2386 00d6 991D     		adds	r1, r3, #6
 2387 00d8 1AAA     		add	r2, sp, #104
 2388 00da 1144     		add	r1, r1, r2
 2389 00dc 11F8342C 		ldrb	r2, [r1, #-52]	@ zero_extendqisi2
 2390 00e0 1201     		lsls	r2, r2, #4
 2391 00e2 42EA0032 		orr	r2, r2, r0, lsl #12
1331:SensorLib\bme688/bme68x.c ****         adc_hum = (uint16_t) (((uint32_t) buff[off + 8] * 256) | (uint32_t) buff[off + 9]);
 2392              		.loc 1 1331 0
 2393 00e6 D91D     		adds	r1, r3, #7
 2394 00e8 1AA8     		add	r0, sp, #104
 2395 00ea 0144     		add	r1, r1, r0
 2396 00ec 11F8340C 		ldrb	r0, [r1, #-52]	@ zero_extendqisi2
1329:SensorLib\bme688/bme68x.c ****             (uint32_t) (((uint32_t) buff[off + 5] * 4096) | ((uint32_t) buff[off + 6] * 16) |
 2397              		.loc 1 1329 0
 2398 00f0 42EA1010 		orr	r0, r2, r0, lsr #4
 2399              	.LVL292:
1332:SensorLib\bme688/bme68x.c ****         adc_gas_res_low = (uint16_t) ((uint32_t) buff[off + 13] * 4 | (((uint32_t) buff[off + 14]) 
 2400              		.loc 1 1332 0
 2401 00f4 03F10802 		add	r2, r3, #8
 2402 00f8 1AA9     		add	r1, sp, #104
 2403 00fa 0A44     		add	r2, r2, r1
 2404 00fc 12F8346C 		ldrb	r6, [r2, #-52]	@ zero_extendqisi2
 2405 0100 03F10902 		add	r2, r3, #9
 2406 0104 0A44     		add	r2, r2, r1
 2407 0106 12F8342C 		ldrb	r2, [r2, #-52]	@ zero_extendqisi2
 2408 010a 42EA0626 		orr	r6, r2, r6, lsl #8
 2409              	.LVL293:
1333:SensorLib\bme688/bme68x.c ****         adc_gas_res_high = (uint16_t) ((uint32_t) buff[off + 15] * 4 | (((uint32_t) buff[off + 16])
 2410              		.loc 1 1333 0
 2411 010e 03F10D02 		add	r2, r3, #13
 2412 0112 0A44     		add	r2, r2, r1
 2413 0114 12F8347C 		ldrb	r7, [r2, #-52]	@ zero_extendqisi2
 2414 0118 03F10E0E 		add	lr, r3, #14
 2415 011c 0A46     		mov	r2, r1
 2416 011e 7244     		add	r2, r2, lr
 2417 0120 12F8342C 		ldrb	r2, [r2, #-52]	@ zero_extendqisi2
 2418 0124 9109     		lsrs	r1, r2, #6
 2419 0126 41EA8701 		orr	r1, r1, r7, lsl #2
 2420 012a 0191     		str	r1, [sp, #4]
 2421              	.LVL294:
1334:SensorLib\bme688/bme68x.c ****         gas_range_l = buff[off + 14] & BME68X_GAS_RANGE_MSK;
 2422              		.loc 1 1334 0
 2423 012c 03F10F01 		add	r1, r3, #15
 2424 0130 1AAF     		add	r7, sp, #104
 2425 0132 3944     		add	r1, r1, r7
 2426 0134 11F834CC 		ldrb	ip, [r1, #-52]	@ zero_extendqisi2
 2427 0138 1033     		adds	r3, r3, #16
 2428              	.LVL295:
 2429 013a 3946     		mov	r1, r7
 2430 013c 1944     		add	r1, r1, r3
ARM GAS  C:\Users\CHRONI~1\AppData\Local\Temp\ccho61l0.s 			page 81


 2431 013e 11F8347C 		ldrb	r7, [r1, #-52]	@ zero_extendqisi2
 2432 0142 B909     		lsrs	r1, r7, #6
 2433 0144 41EA8C01 		orr	r1, r1, ip, lsl #2
 2434 0148 0291     		str	r1, [sp, #8]
 2435              	.LVL296:
1335:SensorLib\bme688/bme68x.c ****         gas_range_h = buff[off + 16] & BME68X_GAS_RANGE_MSK;
 2436              		.loc 1 1335 0
 2437 014a 02F00F09 		and	r9, r2, #15
 2438              	.LVL297:
1336:SensorLib\bme688/bme68x.c ****         if (dev->variant_id == BME68X_VARIANT_GAS_HIGH)
 2439              		.loc 1 1336 0
 2440 014e 07F00F01 		and	r1, r7, #15
 2441 0152 0391     		str	r1, [sp, #12]
 2442              	.LVL298:
1337:SensorLib\bme688/bme68x.c ****         {
 2443              		.loc 1 1337 0
 2444 0154 D8F80810 		ldr	r1, [r8, #8]
 2445 0158 0129     		cmp	r1, #1
 2446 015a 12D1     		bne	.L148
1339:SensorLib\bme688/bme68x.c ****             data[i]->status |= buff[off + 16] & BME68X_HEAT_STAB_MSK;
 2447              		.loc 1 1339 0
 2448 015c 5BF82A20 		ldr	r2, [fp, r10, lsl #2]
 2449 0160 07F02007 		and	r7, r7, #32
 2450 0164 1178     		ldrb	r1, [r2]	@ zero_extendqisi2
 2451 0166 0F43     		orrs	r7, r7, r1
 2452 0168 1770     		strb	r7, [r2]
1340:SensorLib\bme688/bme68x.c ****         }
 2453              		.loc 1 1340 0
 2454 016a 5BF82A20 		ldr	r2, [fp, r10, lsl #2]
 2455 016e 1AA9     		add	r1, sp, #104
 2456 0170 0B44     		add	r3, r3, r1
 2457              	.LVL299:
 2458 0172 13F8343C 		ldrb	r3, [r3, #-52]	@ zero_extendqisi2
 2459 0176 03F01003 		and	r3, r3, #16
 2460 017a 1178     		ldrb	r1, [r2]	@ zero_extendqisi2
 2461 017c 0B43     		orrs	r3, r3, r1
 2462 017e 1370     		strb	r3, [r2]
 2463 0180 11E0     		b	.L149
 2464              	.L148:
1344:SensorLib\bme688/bme68x.c ****             data[i]->status |= buff[off + 14] & BME68X_HEAT_STAB_MSK;
 2465              		.loc 1 1344 0
 2466 0182 5BF82A30 		ldr	r3, [fp, r10, lsl #2]
 2467 0186 02F02002 		and	r2, r2, #32
 2468 018a 1978     		ldrb	r1, [r3]	@ zero_extendqisi2
 2469 018c 0A43     		orrs	r2, r2, r1
 2470 018e 1A70     		strb	r2, [r3]
1345:SensorLib\bme688/bme68x.c ****         }
 2471              		.loc 1 1345 0
 2472 0190 5BF82A20 		ldr	r2, [fp, r10, lsl #2]
 2473 0194 1AAB     		add	r3, sp, #104
 2474 0196 9E44     		add	lr, lr, r3
 2475              	.LVL300:
 2476 0198 1EF8343C 		ldrb	r3, [lr, #-52]	@ zero_extendqisi2
 2477 019c 03F01003 		and	r3, r3, #16
 2478 01a0 1178     		ldrb	r1, [r2]	@ zero_extendqisi2
 2479 01a2 0B43     		orrs	r3, r3, r1
 2480 01a4 1370     		strb	r3, [r2]
ARM GAS  C:\Users\CHRONI~1\AppData\Local\Temp\ccho61l0.s 			page 82


 2481              	.L149:
1348:SensorLib\bme688/bme68x.c ****         data[i]->res_heat = set_val[10 + data[i]->gas_index];
 2482              		.loc 1 1348 0
 2483 01a6 5BF80520 		ldr	r2, [fp, r5]
 2484 01aa 5378     		ldrb	r3, [r2, #1]	@ zero_extendqisi2
 2485 01ac 1AA9     		add	r1, sp, #104
 2486 01ae 0B44     		add	r3, r3, r1
 2487 01b0 13F8543C 		ldrb	r3, [r3, #-84]	@ zero_extendqisi2
 2488 01b4 1371     		strb	r3, [r2, #4]
1349:SensorLib\bme688/bme68x.c ****         data[i]->gas_wait = set_val[20 + data[i]->gas_index];
 2489              		.loc 1 1349 0
 2490 01b6 5BF80520 		ldr	r2, [fp, r5]
 2491 01ba 5378     		ldrb	r3, [r2, #1]	@ zero_extendqisi2
 2492 01bc 0A33     		adds	r3, r3, #10
 2493 01be 0B44     		add	r3, r3, r1
 2494 01c0 13F8543C 		ldrb	r3, [r3, #-84]	@ zero_extendqisi2
 2495 01c4 D370     		strb	r3, [r2, #3]
1350:SensorLib\bme688/bme68x.c ****         data[i]->temperature = calc_temperature(adc_temp, dev);
 2496              		.loc 1 1350 0
 2497 01c6 5BF80520 		ldr	r2, [fp, r5]
 2498 01ca 5378     		ldrb	r3, [r2, #1]	@ zero_extendqisi2
 2499 01cc 1433     		adds	r3, r3, #20
 2500 01ce 0B44     		add	r3, r3, r1
 2501 01d0 13F8543C 		ldrb	r3, [r3, #-84]	@ zero_extendqisi2
 2502 01d4 5371     		strb	r3, [r2, #5]
1351:SensorLib\bme688/bme68x.c ****         data[i]->pressure = calc_pressure(adc_pres, dev);
 2503              		.loc 1 1351 0
 2504 01d6 5BF80570 		ldr	r7, [fp, r5]
 2505 01da 4146     		mov	r1, r8
 2506 01dc FFF7FEFF 		bl	calc_temperature
 2507              	.LVL301:
 2508 01e0 F880     		strh	r0, [r7, #6]	@ movhi
1352:SensorLib\bme688/bme68x.c ****         data[i]->humidity = calc_humidity(adc_hum, dev);
 2509              		.loc 1 1352 0
 2510 01e2 5BF80570 		ldr	r7, [fp, r5]
 2511 01e6 4146     		mov	r1, r8
 2512 01e8 2046     		mov	r0, r4
 2513 01ea FFF7FEFF 		bl	calc_pressure
 2514              	.LVL302:
 2515 01ee B860     		str	r0, [r7, #8]
1353:SensorLib\bme688/bme68x.c ****         if (dev->variant_id == BME68X_VARIANT_GAS_HIGH)
 2516              		.loc 1 1353 0
 2517 01f0 5BF80540 		ldr	r4, [fp, r5]
 2518              	.LVL303:
 2519 01f4 4146     		mov	r1, r8
 2520 01f6 3046     		mov	r0, r6
 2521 01f8 FFF7FEFF 		bl	calc_humidity
 2522              	.LVL304:
 2523 01fc E060     		str	r0, [r4, #12]
1354:SensorLib\bme688/bme68x.c ****         {
 2524              		.loc 1 1354 0
 2525 01fe D8F80830 		ldr	r3, [r8, #8]
 2526 0202 012B     		cmp	r3, #1
 2527 0204 07D1     		bne	.L150
1356:SensorLib\bme688/bme68x.c ****         }
 2528              		.loc 1 1356 0
 2529 0206 5BF80540 		ldr	r4, [fp, r5]
ARM GAS  C:\Users\CHRONI~1\AppData\Local\Temp\ccho61l0.s 			page 83


 2530 020a 0399     		ldr	r1, [sp, #12]
 2531 020c 0298     		ldr	r0, [sp, #8]
 2532 020e FFF7FEFF 		bl	calc_gas_resistance_high
 2533              	.LVL305:
 2534 0212 2061     		str	r0, [r4, #16]
 2535 0214 07E0     		b	.L151
 2536              	.L150:
1360:SensorLib\bme688/bme68x.c ****         }
 2537              		.loc 1 1360 0
 2538 0216 5BF80540 		ldr	r4, [fp, r5]
 2539 021a 4246     		mov	r2, r8
 2540 021c 4946     		mov	r1, r9
 2541 021e 0198     		ldr	r0, [sp, #4]
 2542 0220 FFF7FEFF 		bl	calc_gas_resistance_low
 2543              	.LVL306:
 2544 0224 2061     		str	r0, [r4, #16]
 2545              	.L151:
1318:SensorLib\bme688/bme68x.c ****     {
 2546              		.loc 1 1318 0 discriminator 2
 2547 0226 0AF1010A 		add	r10, r10, #1
 2548              	.LVL307:
 2549 022a 5FFA8AFA 		uxtb	r10, r10
 2550              	.LVL308:
 2551              	.L147:
1318:SensorLib\bme688/bme68x.c ****     {
 2552              		.loc 1 1318 0 is_stmt 0 discriminator 1
 2553 022e BAF1020F 		cmp	r10, #2
 2554 0232 03D8     		bhi	.L152
1318:SensorLib\bme688/bme68x.c ****     {
 2555              		.loc 1 1318 0 discriminator 3
 2556 0234 009B     		ldr	r3, [sp]
 2557 0236 002B     		cmp	r3, #0
 2558 0238 3FF41BAF 		beq	.L153
 2559              	.L152:
1365:SensorLib\bme688/bme68x.c **** 
 2560              		.loc 1 1365 0 is_stmt 1
 2561 023c 0098     		ldr	r0, [sp]
 2562 023e 1BB0     		add	sp, sp, #108
 2563              		.cfi_def_cfa_offset 36
 2564              	.LVL309:
 2565              		@ sp needed
 2566 0240 BDE8F08F 		pop	{r4, r5, r6, r7, r8, r9, r10, fp, pc}
 2567              		.cfi_endproc
 2568              	.LFE22:
 2569              		.size	read_all_field_data, .-read_all_field_data
 2570              		.section	.text.bme68x_soft_reset,"ax",%progbits
 2571              		.align	2
 2572              		.global	bme68x_soft_reset
 2573              		.thumb
 2574              		.thumb_func
 2575              		.type	bme68x_soft_reset, %function
 2576              	bme68x_soft_reset:
 2577              	.LFB4:
 271:SensorLib\bme688/bme68x.c ****     int8_t rslt;
 2578              		.loc 1 271 0
 2579              		.cfi_startproc
 2580              		@ args = 0, pretend = 0, frame = 8
ARM GAS  C:\Users\CHRONI~1\AppData\Local\Temp\ccho61l0.s 			page 84


 2581              		@ frame_needed = 0, uses_anonymous_args = 0
 2582              	.LVL310:
 2583 0000 30B5     		push	{r4, r5, lr}
 2584              		.cfi_def_cfa_offset 12
 2585              		.cfi_offset 4, -12
 2586              		.cfi_offset 5, -8
 2587              		.cfi_offset 14, -4
 2588 0002 83B0     		sub	sp, sp, #12
 2589              		.cfi_def_cfa_offset 24
 2590 0004 0546     		mov	r5, r0
 273:SensorLib\bme688/bme68x.c **** 
 2591              		.loc 1 273 0
 2592 0006 E023     		movs	r3, #224
 2593 0008 8DF80730 		strb	r3, [sp, #7]
 276:SensorLib\bme688/bme68x.c **** 
 2594              		.loc 1 276 0
 2595 000c B623     		movs	r3, #182
 2596 000e 8DF80630 		strb	r3, [sp, #6]
 279:SensorLib\bme688/bme68x.c ****     if (rslt == BME68X_OK)
 2597              		.loc 1 279 0
 2598 0012 FFF7FEFF 		bl	null_ptr_check
 2599              	.LVL311:
 280:SensorLib\bme688/bme68x.c ****     {
 2600              		.loc 1 280 0
 2601 0016 0446     		mov	r4, r0
 2602 0018 D8B9     		cbnz	r0, .L159
 282:SensorLib\bme688/bme68x.c ****         {
 2603              		.loc 1 282 0
 2604 001a 2B7B     		ldrb	r3, [r5, #12]	@ zero_extendqisi2
 2605 001c 1BB9     		cbnz	r3, .L160
 284:SensorLib\bme688/bme68x.c ****         }
 2606              		.loc 1 284 0
 2607 001e 2846     		mov	r0, r5
 2608              	.LVL312:
 2609 0020 FFF7FEFF 		bl	get_mem_page
 2610              	.LVL313:
 2611 0024 0446     		mov	r4, r0
 2612              	.LVL314:
 2613              	.L160:
 288:SensorLib\bme688/bme68x.c ****         {
 2614              		.loc 1 288 0
 2615 0026 A4B9     		cbnz	r4, .L159
 290:SensorLib\bme688/bme68x.c **** 
 2616              		.loc 1 290 0
 2617 0028 2B46     		mov	r3, r5
 2618 002a 0122     		movs	r2, #1
 2619 002c 0DF10601 		add	r1, sp, #6
 2620 0030 0DF10700 		add	r0, sp, #7
 2621 0034 FFF7FEFF 		bl	bme68x_set_regs
 2622              	.LVL315:
 292:SensorLib\bme688/bme68x.c ****             {
 2623              		.loc 1 292 0
 2624 0038 0446     		mov	r4, r0
 2625 003a 50B9     		cbnz	r0, .L159
 295:SensorLib\bme688/bme68x.c **** 
 2626              		.loc 1 295 0
 2627 003c AB6C     		ldr	r3, [r5, #72]
ARM GAS  C:\Users\CHRONI~1\AppData\Local\Temp\ccho61l0.s 			page 85


 2628 003e 6968     		ldr	r1, [r5, #4]
 2629 0040 42F21070 		movw	r0, #10000
 2630              	.LVL316:
 2631 0044 9847     		blx	r3
 2632              	.LVL317:
 298:SensorLib\bme688/bme68x.c ****                 {
 2633              		.loc 1 298 0
 2634 0046 2B7B     		ldrb	r3, [r5, #12]	@ zero_extendqisi2
 2635 0048 1BB9     		cbnz	r3, .L159
 300:SensorLib\bme688/bme68x.c ****                 }
 2636              		.loc 1 300 0
 2637 004a 2846     		mov	r0, r5
 2638 004c FFF7FEFF 		bl	get_mem_page
 2639              	.LVL318:
 2640 0050 0446     		mov	r4, r0
 2641              	.LVL319:
 2642              	.L159:
 307:SensorLib\bme688/bme68x.c **** 
 2643              		.loc 1 307 0
 2644 0052 2046     		mov	r0, r4
 2645 0054 03B0     		add	sp, sp, #12
 2646              		.cfi_def_cfa_offset 12
 2647              		@ sp needed
 2648 0056 30BD     		pop	{r4, r5, pc}
 2649              		.cfi_endproc
 2650              	.LFE4:
 2651              		.size	bme68x_soft_reset, .-bme68x_soft_reset
 2652              		.section	.text.bme68x_init,"ax",%progbits
 2653              		.align	2
 2654              		.global	bme68x_init
 2655              		.thumb
 2656              		.thumb_func
 2657              		.type	bme68x_init, %function
 2658              	bme68x_init:
 2659              	.LFB1:
 145:SensorLib\bme688/bme68x.c ****   
 2660              		.loc 1 145 0
 2661              		.cfi_startproc
 2662              		@ args = 0, pretend = 0, frame = 0
 2663              		@ frame_needed = 0, uses_anonymous_args = 0
 2664              	.LVL320:
 2665 0000 10B5     		push	{r4, lr}
 2666              		.cfi_def_cfa_offset 8
 2667              		.cfi_offset 4, -8
 2668              		.cfi_offset 14, -4
 2669 0002 0446     		mov	r4, r0
 149:SensorLib\bme688/bme68x.c **** 
 2670              		.loc 1 149 0
 2671 0004 FFF7FEFF 		bl	bme68x_soft_reset
 2672              	.LVL321:
 151:SensorLib\bme688/bme68x.c **** 
 2673              		.loc 1 151 0
 2674 0008 2346     		mov	r3, r4
 2675 000a 0122     		movs	r2, #1
 2676 000c 2146     		mov	r1, r4
 2677 000e D020     		movs	r0, #208
 2678 0010 FFF7FEFF 		bl	bme68x_get_regs
ARM GAS  C:\Users\CHRONI~1\AppData\Local\Temp\ccho61l0.s 			page 86


 2679              	.LVL322:
 153:SensorLib\bme688/bme68x.c ****     {
 2680              		.loc 1 153 0
 2681 0014 0346     		mov	r3, r0
 2682 0016 70B9     		cbnz	r0, .L163
 155:SensorLib\bme688/bme68x.c ****         {
 2683              		.loc 1 155 0
 2684 0018 2378     		ldrb	r3, [r4]	@ zero_extendqisi2
 2685 001a 612B     		cmp	r3, #97
 2686 001c 09D1     		bne	.L164
 158:SensorLib\bme688/bme68x.c **** 
 2687              		.loc 1 158 0
 2688 001e 2046     		mov	r0, r4
 2689              	.LVL323:
 2690 0020 FFF7FEFF 		bl	read_variant_id
 2691              	.LVL324:
 160:SensorLib\bme688/bme68x.c ****             {
 2692              		.loc 1 160 0
 2693 0024 0346     		mov	r3, r0
 2694 0026 30B9     		cbnz	r0, .L163
 163:SensorLib\bme688/bme68x.c ****             }
 2695              		.loc 1 163 0
 2696 0028 2046     		mov	r0, r4
 2697              	.LVL325:
 2698 002a FFF7FEFF 		bl	get_calib_data
 2699              	.LVL326:
 2700 002e 0346     		mov	r3, r0
 2701              	.LVL327:
 2702 0030 01E0     		b	.L163
 2703              	.LVL328:
 2704              	.L164:
 168:SensorLib\bme688/bme68x.c ****         }
 2705              		.loc 1 168 0
 2706 0032 6FF00203 		mvn	r3, #2
 2707              	.LVL329:
 2708              	.L163:
 173:SensorLib\bme688/bme68x.c **** 
 2709              		.loc 1 173 0
 2710 0036 1846     		mov	r0, r3
 2711 0038 10BD     		pop	{r4, pc}
 2712              		.cfi_endproc
 2713              	.LFE1:
 2714              		.size	bme68x_init, .-bme68x_init
 2715 003a 00BF     		.section	.text.bme68x_get_conf,"ax",%progbits
 2716              		.align	2
 2717              		.global	bme68x_get_conf
 2718              		.thumb
 2719              		.thumb_func
 2720              		.type	bme68x_get_conf, %function
 2721              	bme68x_get_conf:
 2722              	.LFB6:
 397:SensorLib\bme688/bme68x.c ****     int8_t rslt;
 2723              		.loc 1 397 0
 2724              		.cfi_startproc
 2725              		@ args = 0, pretend = 0, frame = 8
 2726              		@ frame_needed = 0, uses_anonymous_args = 0
 2727              	.LVL330:
ARM GAS  C:\Users\CHRONI~1\AppData\Local\Temp\ccho61l0.s 			page 87


 2728 0000 10B5     		push	{r4, lr}
 2729              		.cfi_def_cfa_offset 8
 2730              		.cfi_offset 4, -8
 2731              		.cfi_offset 14, -4
 2732 0002 82B0     		sub	sp, sp, #8
 2733              		.cfi_def_cfa_offset 16
 2734 0004 0446     		mov	r4, r0
 2735              	.LVL331:
 404:SensorLib\bme688/bme68x.c ****     if (!conf)
 2736              		.loc 1 404 0
 2737 0006 0B46     		mov	r3, r1
 2738 0008 0522     		movs	r2, #5
 2739 000a 6946     		mov	r1, sp
 2740              	.LVL332:
 2741 000c 7120     		movs	r0, #113
 2742              	.LVL333:
 2743 000e FFF7FEFF 		bl	bme68x_get_regs
 2744              	.LVL334:
 405:SensorLib\bme688/bme68x.c ****     {
 2745              		.loc 1 405 0
 2746 0012 ECB1     		cbz	r4, .L169
 409:SensorLib\bme688/bme68x.c ****     {
 2747              		.loc 1 409 0
 2748 0014 F0B9     		cbnz	r0, .L167
 411:SensorLib\bme688/bme68x.c ****         conf->filter = BME68X_GET_BITS(data_array[4], BME68X_FILTER);
 2749              		.loc 1 411 0
 2750 0016 9DF80130 		ldrb	r3, [sp, #1]	@ zero_extendqisi2
 2751 001a 03F00703 		and	r3, r3, #7
 2752 001e 2370     		strb	r3, [r4]
 412:SensorLib\bme688/bme68x.c ****         conf->os_temp = BME68X_GET_BITS(data_array[3], BME68X_OST);
 2753              		.loc 1 412 0
 2754 0020 9DF80430 		ldrb	r3, [sp, #4]	@ zero_extendqisi2
 2755 0024 C3F38203 		ubfx	r3, r3, #2, #3
 2756 0028 E370     		strb	r3, [r4, #3]
 413:SensorLib\bme688/bme68x.c ****         conf->os_pres = BME68X_GET_BITS(data_array[3], BME68X_OSP);
 2757              		.loc 1 413 0
 2758 002a 9DF80330 		ldrb	r3, [sp, #3]	@ zero_extendqisi2
 2759 002e 5A09     		lsrs	r2, r3, #5
 2760 0030 6270     		strb	r2, [r4, #1]
 414:SensorLib\bme688/bme68x.c ****         if (BME68X_GET_BITS(data_array[0], BME68X_ODR3))
 2761              		.loc 1 414 0
 2762 0032 C3F38203 		ubfx	r3, r3, #2, #3
 2763 0036 A370     		strb	r3, [r4, #2]
 415:SensorLib\bme688/bme68x.c ****         {
 2764              		.loc 1 415 0
 2765 0038 9DF90030 		ldrsb	r3, [sp]
 2766 003c 002B     		cmp	r3, #0
 2767 003e 02DA     		bge	.L168
 417:SensorLib\bme688/bme68x.c ****         }
 2768              		.loc 1 417 0
 2769 0040 0823     		movs	r3, #8
 2770 0042 2371     		strb	r3, [r4, #4]
 2771 0044 06E0     		b	.L167
 2772              	.L168:
 421:SensorLib\bme688/bme68x.c ****         }
 2773              		.loc 1 421 0
 2774 0046 9DF80430 		ldrb	r3, [sp, #4]	@ zero_extendqisi2
ARM GAS  C:\Users\CHRONI~1\AppData\Local\Temp\ccho61l0.s 			page 88


 2775 004a 5B09     		lsrs	r3, r3, #5
 2776 004c 2371     		strb	r3, [r4, #4]
 2777 004e 01E0     		b	.L167
 2778              	.L169:
 407:SensorLib\bme688/bme68x.c ****     }
 2779              		.loc 1 407 0
 2780 0050 4FF0FF30 		mov	r0, #-1
 2781              	.LVL335:
 2782              	.L167:
 426:SensorLib\bme688/bme68x.c **** 
 2783              		.loc 1 426 0
 2784 0054 02B0     		add	sp, sp, #8
 2785              		.cfi_def_cfa_offset 8
 2786              		@ sp needed
 2787 0056 10BD     		pop	{r4, pc}
 2788              		.cfi_endproc
 2789              	.LFE6:
 2790              		.size	bme68x_get_conf, .-bme68x_get_conf
 2791              		.section	.text.bme68x_set_op_mode,"ax",%progbits
 2792              		.align	2
 2793              		.global	bme68x_set_op_mode
 2794              		.thumb
 2795              		.thumb_func
 2796              		.type	bme68x_set_op_mode, %function
 2797              	bme68x_set_op_mode:
 2798              	.LFB7:
 432:SensorLib\bme688/bme68x.c ****     int8_t rslt;
 2799              		.loc 1 432 0
 2800              		.cfi_startproc
 2801              		@ args = 0, pretend = 0, frame = 8
 2802              		@ frame_needed = 0, uses_anonymous_args = 0
 2803              	.LVL336:
 2804 0000 F0B5     		push	{r4, r5, r6, r7, lr}
 2805              		.cfi_def_cfa_offset 20
 2806              		.cfi_offset 4, -20
 2807              		.cfi_offset 5, -16
 2808              		.cfi_offset 6, -12
 2809              		.cfi_offset 7, -8
 2810              		.cfi_offset 14, -4
 2811 0002 83B0     		sub	sp, sp, #12
 2812              		.cfi_def_cfa_offset 32
 2813 0004 0746     		mov	r7, r0
 2814 0006 0E46     		mov	r6, r1
 2815              	.LVL337:
 436:SensorLib\bme688/bme68x.c **** 
 2816              		.loc 1 436 0
 2817 0008 7423     		movs	r3, #116
 2818 000a 8DF80630 		strb	r3, [sp, #6]
 435:SensorLib\bme688/bme68x.c ****     uint8_t reg_addr = BME68X_REG_CTRL_MEAS;
 2819              		.loc 1 435 0
 2820 000e 0025     		movs	r5, #0
 2821              	.LVL338:
 2822              	.L174:
 441:SensorLib\bme688/bme68x.c ****         if (rslt == BME68X_OK)
 2823              		.loc 1 441 0
 2824 0010 3346     		mov	r3, r6
 2825 0012 0122     		movs	r2, #1
ARM GAS  C:\Users\CHRONI~1\AppData\Local\Temp\ccho61l0.s 			page 89


 2826 0014 0DF10701 		add	r1, sp, #7
 2827 0018 7420     		movs	r0, #116
 2828 001a FFF7FEFF 		bl	bme68x_get_regs
 2829              	.LVL339:
 442:SensorLib\bme688/bme68x.c ****         {
 2830              		.loc 1 442 0
 2831 001e 0446     		mov	r4, r0
 2832 0020 A8B9     		cbnz	r0, .L172
 445:SensorLib\bme688/bme68x.c ****             if (pow_mode != BME68X_SLEEP_MODE)
 2833              		.loc 1 445 0
 2834 0022 9DF80730 		ldrb	r3, [sp, #7]	@ zero_extendqisi2
 2835              	.LVL340:
 446:SensorLib\bme688/bme68x.c ****             {
 2836              		.loc 1 446 0
 2837 0026 13F00305 		ands	r5, r3, #3
 2838 002a 10D0     		beq	.L172
 448:SensorLib\bme688/bme68x.c ****                 rslt = bme68x_set_regs(&reg_addr, &tmp_pow_mode, 1, dev);
 2839              		.loc 1 448 0
 2840 002c 23F00303 		bic	r3, r3, #3
 2841              	.LVL341:
 2842 0030 02A9     		add	r1, sp, #8
 2843 0032 01F8013D 		strb	r3, [r1, #-1]!
 2844              	.LVL342:
 449:SensorLib\bme688/bme68x.c ****                 dev->delay_us(BME68X_PERIOD_POLL, dev->intf_ptr);
 2845              		.loc 1 449 0
 2846 0036 3346     		mov	r3, r6
 2847 0038 0122     		movs	r2, #1
 2848 003a 0DF10600 		add	r0, sp, #6
 2849              	.LVL343:
 2850 003e FFF7FEFF 		bl	bme68x_set_regs
 2851              	.LVL344:
 2852 0042 0446     		mov	r4, r0
 2853              	.LVL345:
 450:SensorLib\bme688/bme68x.c ****             }
 2854              		.loc 1 450 0
 2855 0044 B36C     		ldr	r3, [r6, #72]
 2856 0046 7168     		ldr	r1, [r6, #4]
 2857 0048 42F21070 		movw	r0, #10000
 2858 004c 9847     		blx	r3
 2859              	.LVL346:
 2860              	.L172:
 453:SensorLib\bme688/bme68x.c **** 
 2861              		.loc 1 453 0
 2862 004e 0DB1     		cbz	r5, .L173
 453:SensorLib\bme688/bme68x.c **** 
 2863              		.loc 1 453 0 is_stmt 0 discriminator 1
 2864 0050 002C     		cmp	r4, #0
 2865 0052 DDD0     		beq	.L174
 2866              	.L173:
 456:SensorLib\bme688/bme68x.c ****     {
 2867              		.loc 1 456 0 is_stmt 1
 2868 0054 8FB1     		cbz	r7, .L175
 456:SensorLib\bme688/bme68x.c ****     {
 2869              		.loc 1 456 0 is_stmt 0 discriminator 1
 2870 0056 84B9     		cbnz	r4, .L175
 458:SensorLib\bme688/bme68x.c ****         rslt = bme68x_set_regs(&reg_addr, &tmp_pow_mode, 1, dev);
 2871              		.loc 1 458 0 is_stmt 1
ARM GAS  C:\Users\CHRONI~1\AppData\Local\Temp\ccho61l0.s 			page 90


 2872 0058 9DF80730 		ldrb	r3, [sp, #7]	@ zero_extendqisi2
 2873 005c 23F00303 		bic	r3, r3, #3
 2874 0060 07F00307 		and	r7, r7, #3
 2875 0064 1F43     		orrs	r7, r7, r3
 2876 0066 02A9     		add	r1, sp, #8
 2877 0068 01F8017D 		strb	r7, [r1, #-1]!
 459:SensorLib\bme688/bme68x.c ****     }
 2878              		.loc 1 459 0
 2879 006c 3346     		mov	r3, r6
 2880 006e 0122     		movs	r2, #1
 2881 0070 0DF10600 		add	r0, sp, #6
 2882 0074 FFF7FEFF 		bl	bme68x_set_regs
 2883              	.LVL347:
 2884 0078 0446     		mov	r4, r0
 2885              	.LVL348:
 2886              	.L175:
 463:SensorLib\bme688/bme68x.c **** 
 2887              		.loc 1 463 0
 2888 007a 2046     		mov	r0, r4
 2889 007c 03B0     		add	sp, sp, #12
 2890              		.cfi_def_cfa_offset 20
 2891              		@ sp needed
 2892 007e F0BD     		pop	{r4, r5, r6, r7, pc}
 2893              		.cfi_endproc
 2894              	.LFE7:
 2895              		.size	bme68x_set_op_mode, .-bme68x_set_op_mode
 2896              		.section	.text.bme68x_get_op_mode,"ax",%progbits
 2897              		.align	2
 2898              		.global	bme68x_get_op_mode
 2899              		.thumb
 2900              		.thumb_func
 2901              		.type	bme68x_get_op_mode, %function
 2902              	bme68x_get_op_mode:
 2903              	.LFB8:
 469:SensorLib\bme688/bme68x.c ****     int8_t rslt;
 2904              		.loc 1 469 0
 2905              		.cfi_startproc
 2906              		@ args = 0, pretend = 0, frame = 8
 2907              		@ frame_needed = 0, uses_anonymous_args = 0
 2908              	.LVL349:
 473:SensorLib\bme688/bme68x.c ****     {
 2909              		.loc 1 473 0
 2910 0000 78B1     		cbz	r0, .L179
 469:SensorLib\bme688/bme68x.c ****     int8_t rslt;
 2911              		.loc 1 469 0
 2912 0002 10B5     		push	{r4, lr}
 2913              		.cfi_def_cfa_offset 8
 2914              		.cfi_offset 4, -8
 2915              		.cfi_offset 14, -4
 2916 0004 82B0     		sub	sp, sp, #8
 2917              		.cfi_def_cfa_offset 16
 2918 0006 0446     		mov	r4, r0
 2919 0008 0B46     		mov	r3, r1
 475:SensorLib\bme688/bme68x.c **** 
 2920              		.loc 1 475 0
 2921 000a 0122     		movs	r2, #1
 2922 000c 0DF10701 		add	r1, sp, #7
ARM GAS  C:\Users\CHRONI~1\AppData\Local\Temp\ccho61l0.s 			page 91


 2923              	.LVL350:
 2924 0010 7420     		movs	r0, #116
 2925              	.LVL351:
 2926 0012 FFF7FEFF 		bl	bme68x_get_regs
 2927              	.LVL352:
 478:SensorLib\bme688/bme68x.c ****     }
 2928              		.loc 1 478 0
 2929 0016 9DF80730 		ldrb	r3, [sp, #7]	@ zero_extendqisi2
 2930 001a 03F00303 		and	r3, r3, #3
 2931 001e 2370     		strb	r3, [r4]
 2932 0020 02E0     		b	.L178
 2933              	.LVL353:
 2934              	.L179:
 2935              		.cfi_def_cfa_offset 0
 2936              		.cfi_restore 4
 2937              		.cfi_restore 14
 482:SensorLib\bme688/bme68x.c ****     }
 2938              		.loc 1 482 0
 2939 0022 4FF0FF30 		mov	r0, #-1
 2940              	.LVL354:
 2941 0026 7047     		bx	lr
 2942              	.LVL355:
 2943              	.L178:
 2944              		.cfi_def_cfa_offset 16
 2945              		.cfi_offset 4, -8
 2946              		.cfi_offset 14, -4
 486:SensorLib\bme688/bme68x.c **** 
 2947              		.loc 1 486 0
 2948 0028 02B0     		add	sp, sp, #8
 2949              		.cfi_def_cfa_offset 8
 2950              		@ sp needed
 2951 002a 10BD     		pop	{r4, pc}
 2952              		.cfi_endproc
 2953              	.LFE8:
 2954              		.size	bme68x_get_op_mode, .-bme68x_get_op_mode
 2955              		.section	.text.bme68x_set_conf,"ax",%progbits
 2956              		.align	2
 2957              		.global	bme68x_set_conf
 2958              		.thumb
 2959              		.thumb_func
 2960              		.type	bme68x_set_conf, %function
 2961              	bme68x_set_conf:
 2962              	.LFB5:
 313:SensorLib\bme688/bme68x.c ****     int8_t rslt;
 2963              		.loc 1 313 0
 2964              		.cfi_startproc
 2965              		@ args = 0, pretend = 0, frame = 16
 2966              		@ frame_needed = 0, uses_anonymous_args = 0
 2967              	.LVL356:
 2968 0000 70B5     		push	{r4, r5, r6, lr}
 2969              		.cfi_def_cfa_offset 16
 2970              		.cfi_offset 4, -16
 2971              		.cfi_offset 5, -12
 2972              		.cfi_offset 6, -8
 2973              		.cfi_offset 14, -4
 2974 0002 84B0     		sub	sp, sp, #16
 2975              		.cfi_def_cfa_offset 32
ARM GAS  C:\Users\CHRONI~1\AppData\Local\Temp\ccho61l0.s 			page 92


 2976 0004 0446     		mov	r4, r0
 2977 0006 0D46     		mov	r5, r1
 2978              	.LVL357:
 319:SensorLib\bme688/bme68x.c ****     uint8_t data_array[BME68X_LEN_CONFIG] = { 0 };
 2979              		.loc 1 319 0
 2980 0008 4C4B     		ldr	r3, .L196
 2981 000a 53F8800F 		ldr	r0, [r3, #128]!	@ unaligned
 2982              	.LVL358:
 2983 000e 0290     		str	r0, [sp, #8]	@ unaligned
 2984 0010 1B79     		ldrb	r3, [r3, #4]	@ zero_extendqisi2
 2985 0012 8DF80C30 		strb	r3, [sp, #12]
 320:SensorLib\bme688/bme68x.c **** 
 2986              		.loc 1 320 0
 2987 0016 0023     		movs	r3, #0
 2988 0018 0093     		str	r3, [sp]
 2989 001a 8DF80430 		strb	r3, [sp, #4]
 322:SensorLib\bme688/bme68x.c ****     if (rslt == BME68X_OK)
 2990              		.loc 1 322 0
 2991 001e 0DF10F00 		add	r0, sp, #15
 2992 0022 FFF7FEFF 		bl	bme68x_get_op_mode
 2993              	.LVL359:
 323:SensorLib\bme688/bme68x.c ****     {
 2994              		.loc 1 323 0
 2995 0026 0346     		mov	r3, r0
 2996 0028 18B9     		cbnz	r0, .L183
 326:SensorLib\bme688/bme68x.c ****     }
 2997              		.loc 1 326 0
 2998 002a 2946     		mov	r1, r5
 2999 002c FFF7FEFF 		bl	bme68x_set_op_mode
 3000              	.LVL360:
 3001 0030 0346     		mov	r3, r0
 3002              	.LVL361:
 3003              	.L183:
 329:SensorLib\bme688/bme68x.c ****     {
 3004              		.loc 1 329 0
 3005 0032 002C     		cmp	r4, #0
 3006 0034 6CD0     		beq	.L193
 333:SensorLib\bme688/bme68x.c ****     {
 3007              		.loc 1 333 0
 3008 0036 002B     		cmp	r3, #0
 3009 0038 6CD1     		bne	.L184
 336:SensorLib\bme688/bme68x.c ****         dev->info_msg = BME68X_OK;
 3010              		.loc 1 336 0
 3011 003a 2B46     		mov	r3, r5
 3012              	.LVL362:
 3013 003c 0522     		movs	r2, #5
 3014 003e 6946     		mov	r1, sp
 3015 0040 9DF80800 		ldrb	r0, [sp, #8]	@ zero_extendqisi2
 3016 0044 FFF7FEFF 		bl	bme68x_get_regs
 3017              	.LVL363:
 337:SensorLib\bme688/bme68x.c ****         if (rslt == BME68X_OK)
 3018              		.loc 1 337 0
 3019 0048 0023     		movs	r3, #0
 3020 004a 85F84D30 		strb	r3, [r5, #77]
 338:SensorLib\bme688/bme68x.c ****         {
 3021              		.loc 1 338 0
 3022 004e 0346     		mov	r3, r0
ARM GAS  C:\Users\CHRONI~1\AppData\Local\Temp\ccho61l0.s 			page 93


 3023 0050 28B9     		cbnz	r0, .L185
 340:SensorLib\bme688/bme68x.c ****         }
 3024              		.loc 1 340 0
 3025 0052 2A46     		mov	r2, r5
 3026 0054 0721     		movs	r1, #7
 3027 0056 E01C     		adds	r0, r4, #3
 3028              	.LVL364:
 3029 0058 FFF7FEFF 		bl	boundary_check
 3030              	.LVL365:
 3031 005c 0346     		mov	r3, r0
 3032              	.LVL366:
 3033              	.L185:
 343:SensorLib\bme688/bme68x.c ****         {
 3034              		.loc 1 343 0
 3035 005e 2BB9     		cbnz	r3, .L186
 345:SensorLib\bme688/bme68x.c ****         }
 3036              		.loc 1 345 0
 3037 0060 2A46     		mov	r2, r5
 3038 0062 0521     		movs	r1, #5
 3039 0064 601C     		adds	r0, r4, #1
 3040 0066 FFF7FEFF 		bl	boundary_check
 3041              	.LVL367:
 3042 006a 0346     		mov	r3, r0
 3043              	.LVL368:
 3044              	.L186:
 348:SensorLib\bme688/bme68x.c ****         {
 3045              		.loc 1 348 0
 3046 006c 2BB9     		cbnz	r3, .L187
 350:SensorLib\bme688/bme68x.c ****         }
 3047              		.loc 1 350 0
 3048 006e 2A46     		mov	r2, r5
 3049 0070 0521     		movs	r1, #5
 3050 0072 A01C     		adds	r0, r4, #2
 3051 0074 FFF7FEFF 		bl	boundary_check
 3052              	.LVL369:
 3053 0078 0346     		mov	r3, r0
 3054              	.LVL370:
 3055              	.L187:
 353:SensorLib\bme688/bme68x.c ****         {
 3056              		.loc 1 353 0
 3057 007a 2BB9     		cbnz	r3, .L188
 355:SensorLib\bme688/bme68x.c ****         }
 3058              		.loc 1 355 0
 3059 007c 2A46     		mov	r2, r5
 3060 007e 0521     		movs	r1, #5
 3061 0080 2046     		mov	r0, r4
 3062 0082 FFF7FEFF 		bl	boundary_check
 3063              	.LVL371:
 3064 0086 0346     		mov	r3, r0
 3065              	.LVL372:
 3066              	.L188:
 358:SensorLib\bme688/bme68x.c ****         {
 3067              		.loc 1 358 0
 3068 0088 2BB9     		cbnz	r3, .L189
 360:SensorLib\bme688/bme68x.c ****         }
 3069              		.loc 1 360 0
 3070 008a 2A46     		mov	r2, r5
ARM GAS  C:\Users\CHRONI~1\AppData\Local\Temp\ccho61l0.s 			page 94


 3071 008c 0821     		movs	r1, #8
 3072 008e 201D     		adds	r0, r4, #4
 3073 0090 FFF7FEFF 		bl	boundary_check
 3074              	.LVL373:
 3075 0094 0346     		mov	r3, r0
 3076              	.LVL374:
 3077              	.L189:
 363:SensorLib\bme688/bme68x.c ****         {
 3078              		.loc 1 363 0
 3079 0096 002B     		cmp	r3, #0
 3080 0098 3CD1     		bne	.L184
 365:SensorLib\bme688/bme68x.c ****             data_array[3] = BME68X_SET_BITS(data_array[3], BME68X_OST, conf->os_temp);
 3081              		.loc 1 365 0
 3082 009a 9DF80410 		ldrb	r1, [sp, #4]	@ zero_extendqisi2
 3083 009e E278     		ldrb	r2, [r4, #3]	@ zero_extendqisi2
 3084 00a0 9200     		lsls	r2, r2, #2
 3085 00a2 21F01C01 		bic	r1, r1, #28
 3086 00a6 02F01C02 		and	r2, r2, #28
 3087 00aa 0A43     		orrs	r2, r2, r1
 3088 00ac 50B2     		sxtb	r0, r2
 366:SensorLib\bme688/bme68x.c ****             data_array[3] = BME68X_SET_BITS(data_array[3], BME68X_OSP, conf->os_pres);
 3089              		.loc 1 366 0
 3090 00ae 9DF80320 		ldrb	r2, [sp, #3]	@ zero_extendqisi2
 3091 00b2 6178     		ldrb	r1, [r4, #1]	@ zero_extendqisi2
 3092 00b4 02F01F02 		and	r2, r2, #31
 3093 00b8 42EA4112 		orr	r2, r2, r1, lsl #5
 3094 00bc 52B2     		sxtb	r2, r2
 367:SensorLib\bme688/bme68x.c ****             data_array[1] = BME68X_SET_BITS_POS_0(data_array[1], BME68X_OSH, conf->os_hum);
 3095              		.loc 1 367 0
 3096 00be A178     		ldrb	r1, [r4, #2]	@ zero_extendqisi2
 3097 00c0 8900     		lsls	r1, r1, #2
 3098 00c2 22F01C02 		bic	r2, r2, #28
 3099 00c6 01F01C01 		and	r1, r1, #28
 3100 00ca 0A43     		orrs	r2, r2, r1
 3101 00cc 8DF80320 		strb	r2, [sp, #3]
 368:SensorLib\bme688/bme68x.c ****             if (conf->odr != BME68X_ODR_NONE)
 3102              		.loc 1 368 0
 3103 00d0 9DF80110 		ldrb	r1, [sp, #1]	@ zero_extendqisi2
 3104 00d4 2278     		ldrb	r2, [r4]	@ zero_extendqisi2
 3105 00d6 21F00701 		bic	r1, r1, #7
 3106 00da 02F00702 		and	r2, r2, #7
 3107 00de 0A43     		orrs	r2, r2, r1
 3108 00e0 8DF80120 		strb	r2, [sp, #1]
 369:SensorLib\bme688/bme68x.c ****             {
 3109              		.loc 1 369 0
 3110 00e4 2479     		ldrb	r4, [r4, #4]	@ zero_extendqisi2
 3111              	.LVL375:
 3112 00e6 082C     		cmp	r4, #8
 3113 00e8 02D1     		bne	.L194
 315:SensorLib\bme688/bme68x.c ****     uint8_t current_op_mode;
 3114              		.loc 1 315 0
 3115 00ea 0126     		movs	r6, #1
 3116 00ec 0024     		movs	r4, #0
 3117 00ee 00E0     		b	.L190
 3118              	.L194:
 372:SensorLib\bme688/bme68x.c ****             }
 3119              		.loc 1 372 0
ARM GAS  C:\Users\CHRONI~1\AppData\Local\Temp\ccho61l0.s 			page 95


 3120 00f0 0026     		movs	r6, #0
 3121              	.L190:
 3122              	.LVL376:
 375:SensorLib\bme688/bme68x.c ****             data_array[0] = BME68X_SET_BITS(data_array[0], BME68X_ODR3, odr3);
 3123              		.loc 1 375 0
 3124 00f2 00F01F01 		and	r1, r0, #31
 3125 00f6 41EA4411 		orr	r1, r1, r4, lsl #5
 3126 00fa 8DF80410 		strb	r1, [sp, #4]
 376:SensorLib\bme688/bme68x.c ****         }
 3127              		.loc 1 376 0
 3128 00fe 9DF80020 		ldrb	r2, [sp]	@ zero_extendqisi2
 3129 0102 02F07F02 		and	r2, r2, #127
 3130 0106 42EAC612 		orr	r2, r2, r6, lsl #7
 3131 010a 8DF80020 		strb	r2, [sp]
 3132 010e 01E0     		b	.L184
 3133              	.LVL377:
 3134              	.L193:
 331:SensorLib\bme688/bme68x.c ****     }
 3135              		.loc 1 331 0
 3136 0110 4FF0FF33 		mov	r3, #-1
 3137              	.LVL378:
 3138              	.L184:
 380:SensorLib\bme688/bme68x.c ****     {
 3139              		.loc 1 380 0
 3140 0114 33B9     		cbnz	r3, .L191
 382:SensorLib\bme688/bme68x.c ****     }
 3141              		.loc 1 382 0
 3142 0116 2B46     		mov	r3, r5
 3143              	.LVL379:
 3144 0118 0522     		movs	r2, #5
 3145 011a 6946     		mov	r1, sp
 3146 011c 02A8     		add	r0, sp, #8
 3147 011e FFF7FEFF 		bl	bme68x_set_regs
 3148              	.LVL380:
 3149 0122 0346     		mov	r3, r0
 3150              	.LVL381:
 3151              	.L191:
 385:SensorLib\bme688/bme68x.c ****     {
 3152              		.loc 1 385 0
 3153 0124 9DF80F00 		ldrb	r0, [sp, #15]	@ zero_extendqisi2
 3154 0128 20B1     		cbz	r0, .L192
 385:SensorLib\bme688/bme68x.c ****     {
 3155              		.loc 1 385 0 is_stmt 0 discriminator 1
 3156 012a 1BB9     		cbnz	r3, .L192
 387:SensorLib\bme688/bme68x.c ****     }
 3157              		.loc 1 387 0 is_stmt 1
 3158 012c 2946     		mov	r1, r5
 3159 012e FFF7FEFF 		bl	bme68x_set_op_mode
 3160              	.LVL382:
 3161 0132 0346     		mov	r3, r0
 3162              	.LVL383:
 3163              	.L192:
 391:SensorLib\bme688/bme68x.c **** 
 3164              		.loc 1 391 0
 3165 0134 1846     		mov	r0, r3
 3166 0136 04B0     		add	sp, sp, #16
 3167              		.cfi_def_cfa_offset 16
ARM GAS  C:\Users\CHRONI~1\AppData\Local\Temp\ccho61l0.s 			page 96


 3168              		@ sp needed
 3169 0138 70BD     		pop	{r4, r5, r6, pc}
 3170              	.LVL384:
 3171              	.L197:
 3172 013a 00BF     		.align	2
 3173              	.L196:
 3174 013c 00000000 		.word	.LANCHOR0
 3175              		.cfi_endproc
 3176              	.LFE5:
 3177              		.size	bme68x_set_conf, .-bme68x_set_conf
 3178              		.section	.text.bme68x_get_meas_dur,"ax",%progbits
 3179              		.align	2
 3180              		.global	bme68x_get_meas_dur
 3181              		.thumb
 3182              		.thumb_func
 3183              		.type	bme68x_get_meas_dur, %function
 3184              	bme68x_get_meas_dur:
 3185              	.LFB9:
 492:SensorLib\bme688/bme68x.c ****     int8_t rslt;
 3186              		.loc 1 492 0
 3187              		.cfi_startproc
 3188              		@ args = 0, pretend = 0, frame = 8
 3189              		@ frame_needed = 0, uses_anonymous_args = 0
 3190              	.LVL385:
 3191 0000 70B5     		push	{r4, r5, r6, lr}
 3192              		.cfi_def_cfa_offset 16
 3193              		.cfi_offset 4, -16
 3194              		.cfi_offset 5, -12
 3195              		.cfi_offset 6, -8
 3196              		.cfi_offset 14, -4
 3197 0002 82B0     		sub	sp, sp, #8
 3198              		.cfi_def_cfa_offset 24
 3199 0004 0646     		mov	r6, r0
 3200              	.LVL386:
 496:SensorLib\bme688/bme68x.c **** 
 3201              		.loc 1 496 0
 3202 0006 204B     		ldr	r3, .L205
 3203 0008 53F8880F 		ldr	r0, [r3, #136]!	@ unaligned
 3204              	.LVL387:
 3205 000c 0090     		str	r0, [sp]	@ unaligned
 3206 000e 9B88     		ldrh	r3, [r3, #4]	@ unaligned
 3207 0010 ADF80430 		strh	r3, [sp, #4]	@ unaligned
 498:SensorLib\bme688/bme68x.c ****     {
 3208              		.loc 1 498 0
 3209 0014 91B3     		cbz	r1, .L202
 3210 0016 0C46     		mov	r4, r1
 3211 0018 1546     		mov	r5, r2
 501:SensorLib\bme688/bme68x.c **** 
 3212              		.loc 1 501 0
 3213 001a 0521     		movs	r1, #5
 3214              	.LVL388:
 3215 001c 601C     		adds	r0, r4, #1
 3216 001e FFF7FEFF 		bl	boundary_check
 3217              	.LVL389:
 503:SensorLib\bme688/bme68x.c ****         {
 3218              		.loc 1 503 0
 3219 0022 0346     		mov	r3, r0
ARM GAS  C:\Users\CHRONI~1\AppData\Local\Temp\ccho61l0.s 			page 97


 3220 0024 28B9     		cbnz	r0, .L200
 506:SensorLib\bme688/bme68x.c ****         }
 3221              		.loc 1 506 0
 3222 0026 2A46     		mov	r2, r5
 3223 0028 0521     		movs	r1, #5
 3224 002a A01C     		adds	r0, r4, #2
 3225              	.LVL390:
 3226 002c FFF7FEFF 		bl	boundary_check
 3227              	.LVL391:
 3228 0030 0346     		mov	r3, r0
 3229              	.LVL392:
 3230              	.L200:
 509:SensorLib\bme688/bme68x.c ****         {
 3231              		.loc 1 509 0
 3232 0032 2BB9     		cbnz	r3, .L201
 512:SensorLib\bme688/bme68x.c ****         }
 3233              		.loc 1 512 0
 3234 0034 2A46     		mov	r2, r5
 3235 0036 0521     		movs	r1, #5
 3236 0038 2046     		mov	r0, r4
 3237 003a FFF7FEFF 		bl	boundary_check
 3238              	.LVL393:
 3239 003e 0346     		mov	r3, r0
 3240              	.LVL394:
 3241              	.L201:
 515:SensorLib\bme688/bme68x.c ****         {
 3242              		.loc 1 515 0
 3243 0040 F3B9     		cbnz	r3, .L203
 517:SensorLib\bme688/bme68x.c ****             meas_cycles += os_to_meas_cycles[conf->os_pres];
 3244              		.loc 1 517 0
 3245 0042 6378     		ldrb	r3, [r4, #1]	@ zero_extendqisi2
 3246              	.LVL395:
 3247 0044 02AA     		add	r2, sp, #8
 3248 0046 1344     		add	r3, r3, r2
 3249 0048 13F8083C 		ldrb	r3, [r3, #-8]	@ zero_extendqisi2
 3250              	.LVL396:
 518:SensorLib\bme688/bme68x.c ****             meas_cycles += os_to_meas_cycles[conf->os_hum];
 3251              		.loc 1 518 0
 3252 004c A278     		ldrb	r2, [r4, #2]	@ zero_extendqisi2
 3253 004e 02A9     		add	r1, sp, #8
 3254 0050 0A44     		add	r2, r2, r1
 3255 0052 12F8082C 		ldrb	r2, [r2, #-8]	@ zero_extendqisi2
 3256 0056 1344     		add	r3, r3, r2
 3257              	.LVL397:
 519:SensorLib\bme688/bme68x.c **** 
 3258              		.loc 1 519 0
 3259 0058 2278     		ldrb	r2, [r4]	@ zero_extendqisi2
 3260 005a 0A44     		add	r2, r2, r1
 3261 005c 12F8082C 		ldrb	r2, [r2, #-8]	@ zero_extendqisi2
 3262 0060 1344     		add	r3, r3, r2
 3263              	.LVL398:
 522:SensorLib\bme688/bme68x.c ****             meas_dur += UINT32_C(477 * 4); /* TPH switching duration */
 3264              		.loc 1 522 0
 3265 0062 40F2AB72 		movw	r2, #1963
 3266 0066 02FB03F3 		mul	r3, r2, r3
 3267              	.LVL399:
 524:SensorLib\bme688/bme68x.c **** 
ARM GAS  C:\Users\CHRONI~1\AppData\Local\Temp\ccho61l0.s 			page 98


 3268              		.loc 1 524 0
 3269 006a 03F58650 		add	r0, r3, #4288
 3270 006e 0530     		adds	r0, r0, #5
 3271              	.LVL400:
 526:SensorLib\bme688/bme68x.c ****             {
 3272              		.loc 1 526 0
 3273 0070 022E     		cmp	r6, #2
 3274 0072 06D0     		beq	.L199
 528:SensorLib\bme688/bme68x.c ****             }
 3275              		.loc 1 528 0
 3276 0074 03F5A550 		add	r0, r3, #5280
 3277              	.LVL401:
 3278 0078 0D30     		adds	r0, r0, #13
 3279              	.LVL402:
 3280 007a 02E0     		b	.L199
 3281              	.LVL403:
 3282              	.L202:
 494:SensorLib\bme688/bme68x.c ****     uint32_t meas_cycles;
 3283              		.loc 1 494 0
 3284 007c 0020     		movs	r0, #0
 3285 007e 00E0     		b	.L199
 3286              	.LVL404:
 3287              	.L203:
 3288 0080 0020     		movs	r0, #0
 3289              	.LVL405:
 3290              	.L199:
 534:SensorLib\bme688/bme68x.c **** 
 3291              		.loc 1 534 0
 3292 0082 02B0     		add	sp, sp, #8
 3293              		.cfi_def_cfa_offset 16
 3294              		@ sp needed
 3295 0084 70BD     		pop	{r4, r5, r6, pc}
 3296              	.L206:
 3297 0086 00BF     		.align	2
 3298              	.L205:
 3299 0088 00000000 		.word	.LANCHOR0
 3300              		.cfi_endproc
 3301              	.LFE9:
 3302              		.size	bme68x_get_meas_dur, .-bme68x_get_meas_dur
 3303              		.section	.text.bme68x_get_data,"ax",%progbits
 3304              		.align	2
 3305              		.global	bme68x_get_data
 3306              		.thumb
 3307              		.thumb_func
 3308              		.type	bme68x_get_data, %function
 3309              	bme68x_get_data:
 3310              	.LFB10:
 542:SensorLib\bme688/bme68x.c ****     int8_t rslt;
 3311              		.loc 1 542 0
 3312              		.cfi_startproc
 3313              		@ args = 0, pretend = 0, frame = 72
 3314              		@ frame_needed = 0, uses_anonymous_args = 0
 3315              	.LVL406:
 3316 0000 2DE9F047 		push	{r4, r5, r6, r7, r8, r9, r10, lr}
 3317              		.cfi_def_cfa_offset 32
 3318              		.cfi_offset 4, -32
 3319              		.cfi_offset 5, -28
ARM GAS  C:\Users\CHRONI~1\AppData\Local\Temp\ccho61l0.s 			page 99


 3320              		.cfi_offset 6, -24
 3321              		.cfi_offset 7, -20
 3322              		.cfi_offset 8, -16
 3323              		.cfi_offset 9, -12
 3324              		.cfi_offset 10, -8
 3325              		.cfi_offset 14, -4
 3326 0004 92B0     		sub	sp, sp, #72
 3327              		.cfi_def_cfa_offset 104
 3328 0006 0446     		mov	r4, r0
 3329 0008 0F46     		mov	r7, r1
 3330 000a 1546     		mov	r5, r2
 3331 000c 1E46     		mov	r6, r3
 3332              	.LVL407:
 546:SensorLib\bme688/bme68x.c **** 
 3333              		.loc 1 546 0
 3334 000e 3C22     		movs	r2, #60
 3335              	.LVL408:
 3336 0010 0021     		movs	r1, #0
 3337              	.LVL409:
 3338 0012 6846     		mov	r0, sp
 3339              	.LVL410:
 3340 0014 FFF7FEFF 		bl	memset
 3341              	.LVL411:
 548:SensorLib\bme688/bme68x.c ****     field_ptr[1] = &field_data[1];
 3342              		.loc 1 548 0
 3343 0018 CDF83CD0 		str	sp, [sp, #60]
 549:SensorLib\bme688/bme68x.c ****     field_ptr[2] = &field_data[2];
 3344              		.loc 1 549 0
 3345 001c 05AB     		add	r3, sp, #20
 3346 001e 1093     		str	r3, [sp, #64]
 550:SensorLib\bme688/bme68x.c **** 
 3347              		.loc 1 550 0
 3348 0020 0AAB     		add	r3, sp, #40
 3349 0022 1193     		str	r3, [sp, #68]
 552:SensorLib\bme688/bme68x.c ****     if ((rslt == BME68X_OK) && (data != NULL))
 3350              		.loc 1 552 0
 3351 0024 3046     		mov	r0, r6
 3352 0026 FFF7FEFF 		bl	null_ptr_check
 3353              	.LVL412:
 553:SensorLib\bme688/bme68x.c ****     {
 3354              		.loc 1 553 0
 3355 002a 0028     		cmp	r0, #0
 3356 002c 40F08180 		bne	.L221
 553:SensorLib\bme688/bme68x.c ****     {
 3357              		.loc 1 553 0 is_stmt 0 discriminator 1
 3358 0030 002F     		cmp	r7, #0
 3359 0032 00F08180 		beq	.L222
 556:SensorLib\bme688/bme68x.c ****         {
 3360              		.loc 1 556 0 is_stmt 1
 3361 0036 012C     		cmp	r4, #1
 3362 0038 0DD1     		bne	.L209
 558:SensorLib\bme688/bme68x.c ****             if (rslt == BME68X_OK)
 3363              		.loc 1 558 0
 3364 003a 3246     		mov	r2, r6
 3365 003c 3946     		mov	r1, r7
 3366 003e FFF7FEFF 		bl	read_field_data
 3367              	.LVL413:
ARM GAS  C:\Users\CHRONI~1\AppData\Local\Temp\ccho61l0.s 			page 100


 559:SensorLib\bme688/bme68x.c ****             {
 3368              		.loc 1 559 0
 3369 0042 0646     		mov	r6, r0
 3370              	.LVL414:
 3371 0044 0028     		cmp	r0, #0
 3372 0046 64D1     		bne	.L223
 561:SensorLib\bme688/bme68x.c ****                 {
 3373              		.loc 1 561 0
 3374 0048 97F90030 		ldrsb	r3, [r7]
 3375 004c 002B     		cmp	r3, #0
 3376 004e 63DA     		bge	.L224
 563:SensorLib\bme688/bme68x.c ****                 }
 3377              		.loc 1 563 0
 3378 0050 4FF00108 		mov	r8, #1
 3379 0054 69E0     		b	.L210
 3380              	.LVL415:
 3381              	.L209:
 572:SensorLib\bme688/bme68x.c ****         {
 3382              		.loc 1 572 0
 3383 0056 023C     		subs	r4, r4, #2
 3384 0058 E4B2     		uxtb	r4, r4
 3385 005a 012C     		cmp	r4, #1
 3386 005c 60D8     		bhi	.L225
 575:SensorLib\bme688/bme68x.c **** 
 3387              		.loc 1 575 0
 3388 005e 3146     		mov	r1, r6
 3389 0060 0FA8     		add	r0, sp, #60
 3390              	.LVL416:
 3391 0062 FFF7FEFF 		bl	read_all_field_data
 3392              	.LVL417:
 3393 0066 0646     		mov	r6, r0
 3394              	.LVL418:
 577:SensorLib\bme688/bme68x.c ****             for (i = 0; (i < 3) && (rslt == BME68X_OK); i++)
 3395              		.loc 1 577 0
 3396 0068 4FF00008 		mov	r8, #0
 578:SensorLib\bme688/bme68x.c ****             {
 3397              		.loc 1 578 0
 3398 006c 4346     		mov	r3, r8
 3399 006e 0EE0     		b	.L211
 3400              	.LVL419:
 3401              	.L214:
 580:SensorLib\bme688/bme68x.c ****                 {
 3402              		.loc 1 580 0
 3403 0070 12AA     		add	r2, sp, #72
 3404 0072 02EB8302 		add	r2, r2, r3, lsl #2
 3405 0076 52F80C2C 		ldr	r2, [r2, #-12]
 3406 007a 92F90020 		ldrsb	r2, [r2]
 3407 007e 002A     		cmp	r2, #0
 3408 0080 03DA     		bge	.L212
 582:SensorLib\bme688/bme68x.c ****                 }
 3409              		.loc 1 582 0
 3410 0082 08F10108 		add	r8, r8, #1
 3411              	.LVL420:
 3412 0086 5FFA88F8 		uxtb	r8, r8
 3413              	.LVL421:
 3414              	.L212:
 578:SensorLib\bme688/bme68x.c ****             {
ARM GAS  C:\Users\CHRONI~1\AppData\Local\Temp\ccho61l0.s 			page 101


 3415              		.loc 1 578 0 discriminator 2
 3416 008a 0133     		adds	r3, r3, #1
 3417              	.LVL422:
 3418 008c DBB2     		uxtb	r3, r3
 3419              	.LVL423:
 3420              	.L211:
 578:SensorLib\bme688/bme68x.c ****             {
 3421              		.loc 1 578 0 is_stmt 0 discriminator 1
 3422 008e 022B     		cmp	r3, #2
 3423 0090 15D8     		bhi	.L226
 578:SensorLib\bme688/bme68x.c ****             {
 3424              		.loc 1 578 0 discriminator 3
 3425 0092 002E     		cmp	r6, #0
 3426 0094 ECD0     		beq	.L214
 3427 0096 4FF00009 		mov	r9, #0
 3428 009a 12E0     		b	.L213
 3429              	.LVL424:
 3430              	.L218:
 589:SensorLib\bme688/bme68x.c ****                 {
 3431              		.loc 1 589 0 is_stmt 1
 3432 009c 09F1010A 		add	r10, r9, #1
 3433 00a0 5FFA8AFA 		uxtb	r10, r10
 3434              	.LVL425:
 3435 00a4 5446     		mov	r4, r10
 3436 00a6 06E0     		b	.L215
 3437              	.LVL426:
 3438              	.L216:
 591:SensorLib\bme688/bme68x.c ****                 }
 3439              		.loc 1 591 0 discriminator 3
 3440 00a8 0FAA     		add	r2, sp, #60
 3441 00aa 2146     		mov	r1, r4
 3442 00ac 4846     		mov	r0, r9
 3443 00ae FFF7FEFF 		bl	sort_sensor_data
 3444              	.LVL427:
 589:SensorLib\bme688/bme68x.c ****                 {
 3445              		.loc 1 589 0 discriminator 3
 3446 00b2 0134     		adds	r4, r4, #1
 3447              	.LVL428:
 3448 00b4 E4B2     		uxtb	r4, r4
 3449              	.LVL429:
 3450              	.L215:
 589:SensorLib\bme688/bme68x.c ****                 {
 3451              		.loc 1 589 0 is_stmt 0 discriminator 1
 3452 00b6 022C     		cmp	r4, #2
 3453 00b8 F6D9     		bls	.L216
 587:SensorLib\bme688/bme68x.c ****             {
 3454              		.loc 1 587 0 is_stmt 1
 3455 00ba D146     		mov	r9, r10
 3456              	.LVL430:
 3457 00bc 01E0     		b	.L213
 3458              	.LVL431:
 3459              	.L226:
 3460 00be 4FF00009 		mov	r9, #0
 3461              	.LVL432:
 3462              	.L213:
 587:SensorLib\bme688/bme68x.c ****             {
 3463              		.loc 1 587 0 is_stmt 0 discriminator 1
ARM GAS  C:\Users\CHRONI~1\AppData\Local\Temp\ccho61l0.s 			page 102


 3464 00c2 B9F1010F 		cmp	r9, #1
 3465 00c6 19D8     		bhi	.L227
 587:SensorLib\bme688/bme68x.c ****             {
 3466              		.loc 1 587 0 discriminator 3
 3467 00c8 002E     		cmp	r6, #0
 3468 00ca E7D0     		beq	.L218
 3469 00cc 4FF0000C 		mov	ip, #0
 3470 00d0 16E0     		b	.L217
 3471              	.LVL433:
 3472              	.L220:
 598:SensorLib\bme688/bme68x.c ****             }
 3473              		.loc 1 598 0 is_stmt 1 discriminator 4
 3474 00d2 4FEA8C03 		lsl	r3, ip, #2
 3475 00d6 03EB0C04 		add	r4, r3, ip
 3476 00da 12AA     		add	r2, sp, #72
 3477 00dc 1344     		add	r3, r3, r2
 3478 00de 07EB8404 		add	r4, r7, r4, lsl #2
 3479 00e2 53F80CEC 		ldr	lr, [r3, #-12]
 3480 00e6 BEE80F00 		ldmia	lr!, {r0, r1, r2, r3}
 3481 00ea 0FC4     		stmia	r4!, {r0, r1, r2, r3}
 3482 00ec DEF80030 		ldr	r3, [lr]
 3483 00f0 2360     		str	r3, [r4]
 596:SensorLib\bme688/bme68x.c ****             {
 3484              		.loc 1 596 0 discriminator 4
 3485 00f2 0CF1010C 		add	ip, ip, #1
 3486              	.LVL434:
 3487 00f6 5FFA8CFC 		uxtb	ip, ip
 3488              	.LVL435:
 3489 00fa 01E0     		b	.L217
 3490              	.LVL436:
 3491              	.L227:
 3492 00fc 4FF0000C 		mov	ip, #0
 3493              	.LVL437:
 3494              	.L217:
 596:SensorLib\bme688/bme68x.c ****             {
 3495              		.loc 1 596 0 is_stmt 0 discriminator 1
 3496 0100 BCF1020F 		cmp	ip, #2
 3497 0104 01D8     		bhi	.L219
 596:SensorLib\bme688/bme68x.c ****             {
 3498              		.loc 1 596 0 discriminator 3
 3499 0106 002E     		cmp	r6, #0
 3500 0108 E3D0     		beq	.L220
 3501              	.L219:
 601:SensorLib\bme688/bme68x.c ****             {
 3502              		.loc 1 601 0 is_stmt 1
 3503 010a B8F1000F 		cmp	r8, #0
 3504 010e 0BD0     		beq	.L228
 3505 0110 0BE0     		b	.L210
 3506              	.LVL438:
 3507              	.L223:
 544:SensorLib\bme688/bme68x.c ****     struct bme68x_data *field_ptr[3] = { 0 };
 3508              		.loc 1 544 0
 3509 0112 4FF00008 		mov	r8, #0
 3510 0116 08E0     		b	.L210
 3511              	.L224:
 567:SensorLib\bme688/bme68x.c ****                     rslt = BME68X_W_NO_NEW_DATA;
 3512              		.loc 1 567 0
ARM GAS  C:\Users\CHRONI~1\AppData\Local\Temp\ccho61l0.s 			page 103


 3513 0118 4FF00008 		mov	r8, #0
 568:SensorLib\bme688/bme68x.c ****                 }
 3514              		.loc 1 568 0
 3515 011c 0226     		movs	r6, #2
 3516 011e 04E0     		b	.L210
 3517              	.LVL439:
 3518              	.L225:
 544:SensorLib\bme688/bme68x.c ****     struct bme68x_data *field_ptr[3] = { 0 };
 3519              		.loc 1 544 0
 3520 0120 4FF00008 		mov	r8, #0
 608:SensorLib\bme688/bme68x.c ****         }
 3521              		.loc 1 608 0
 3522 0124 0126     		movs	r6, #1
 3523              	.LVL440:
 3524 0126 00E0     		b	.L210
 3525              	.LVL441:
 3526              	.L228:
 603:SensorLib\bme688/bme68x.c ****             }
 3527              		.loc 1 603 0
 3528 0128 0226     		movs	r6, #2
 3529              	.LVL442:
 3530              	.L210:
 611:SensorLib\bme688/bme68x.c ****         {
 3531              		.loc 1 611 0
 3532 012a 45B1     		cbz	r5, .L229
 617:SensorLib\bme688/bme68x.c ****         }
 3533              		.loc 1 617 0
 3534 012c 85F80080 		strb	r8, [r5]
 3535 0130 07E0     		b	.L208
 3536              	.LVL443:
 3537              	.L221:
 622:SensorLib\bme688/bme68x.c ****     }
 3538              		.loc 1 622 0
 3539 0132 4FF0FF36 		mov	r6, #-1
 3540              	.LVL444:
 3541 0136 04E0     		b	.L208
 3542              	.LVL445:
 3543              	.L222:
 3544 0138 4FF0FF36 		mov	r6, #-1
 3545              	.LVL446:
 3546 013c 01E0     		b	.L208
 3547              	.LVL447:
 3548              	.L229:
 613:SensorLib\bme688/bme68x.c ****         }
 3549              		.loc 1 613 0
 3550 013e 4FF0FF36 		mov	r6, #-1
 3551              	.LVL448:
 3552              	.L208:
 626:SensorLib\bme688/bme68x.c **** 
 3553              		.loc 1 626 0
 3554 0142 3046     		mov	r0, r6
 3555 0144 12B0     		add	sp, sp, #72
 3556              		.cfi_def_cfa_offset 32
 3557              		@ sp needed
 3558 0146 BDE8F087 		pop	{r4, r5, r6, r7, r8, r9, r10, pc}
 3559              		.cfi_endproc
 3560              	.LFE10:
ARM GAS  C:\Users\CHRONI~1\AppData\Local\Temp\ccho61l0.s 			page 104


 3561              		.size	bme68x_get_data, .-bme68x_get_data
 3562 014a 00BF     		.section	.text.bme68x_set_heatr_conf,"ax",%progbits
 3563              		.align	2
 3564              		.global	bme68x_set_heatr_conf
 3565              		.thumb
 3566              		.thumb_func
 3567              		.type	bme68x_set_heatr_conf, %function
 3568              	bme68x_set_heatr_conf:
 3569              	.LFB11:
 632:SensorLib\bme688/bme68x.c ****     int8_t rslt;
 3570              		.loc 1 632 0
 3571              		.cfi_startproc
 3572              		@ args = 0, pretend = 0, frame = 8
 3573              		@ frame_needed = 0, uses_anonymous_args = 0
 3574              	.LVL449:
 3575 0000 70B5     		push	{r4, r5, r6, lr}
 3576              		.cfi_def_cfa_offset 16
 3577              		.cfi_offset 4, -16
 3578              		.cfi_offset 5, -12
 3579              		.cfi_offset 6, -8
 3580              		.cfi_offset 14, -4
 3581 0002 82B0     		sub	sp, sp, #8
 3582              		.cfi_def_cfa_offset 24
 634:SensorLib\bme688/bme68x.c ****     uint8_t hctrl, run_gas = 0;
 3583              		.loc 1 634 0
 3584 0004 0023     		movs	r3, #0
 3585 0006 8DF80730 		strb	r3, [sp, #7]
 3586              	.LVL450:
 637:SensorLib\bme688/bme68x.c **** 
 3587              		.loc 1 637 0
 3588 000a 294B     		ldr	r3, .L239
 3589 000c 1B88     		ldrh	r3, [r3]	@ unaligned
 3590 000e ADF80030 		strh	r3, [sp]	@ unaligned
 639:SensorLib\bme688/bme68x.c ****     {
 3591              		.loc 1 639 0
 3592 0012 0029     		cmp	r1, #0
 3593 0014 47D0     		beq	.L235
 3594 0016 0D46     		mov	r5, r1
 3595 0018 1446     		mov	r4, r2
 3596 001a 0646     		mov	r6, r0
 641:SensorLib\bme688/bme68x.c ****         if (rslt == BME68X_OK)
 3597              		.loc 1 641 0
 3598 001c 1146     		mov	r1, r2
 3599              	.LVL451:
 3600 001e 0020     		movs	r0, #0
 3601              	.LVL452:
 3602 0020 FFF7FEFF 		bl	bme68x_set_op_mode
 3603              	.LVL453:
 642:SensorLib\bme688/bme68x.c ****         {
 3604              		.loc 1 642 0
 3605 0024 0346     		mov	r3, r0
 3606 0026 38B9     		cbnz	r0, .L233
 644:SensorLib\bme688/bme68x.c ****         }
 3607              		.loc 1 644 0
 3608 0028 2346     		mov	r3, r4
 3609 002a 0DF10702 		add	r2, sp, #7
 3610 002e 3146     		mov	r1, r6
ARM GAS  C:\Users\CHRONI~1\AppData\Local\Temp\ccho61l0.s 			page 105


 3611 0030 2846     		mov	r0, r5
 3612              	.LVL454:
 3613 0032 FFF7FEFF 		bl	set_conf
 3614              	.LVL455:
 3615 0036 0346     		mov	r3, r0
 3616              	.LVL456:
 3617              	.L233:
 647:SensorLib\bme688/bme68x.c ****         {
 3618              		.loc 1 647 0
 3619 0038 BBBB     		cbnz	r3, .L232
 649:SensorLib\bme688/bme68x.c ****             if (rslt == BME68X_OK)
 3620              		.loc 1 649 0
 3621 003a 2346     		mov	r3, r4
 3622              	.LVL457:
 3623 003c 0222     		movs	r2, #2
 3624 003e 01A9     		add	r1, sp, #4
 3625 0040 7020     		movs	r0, #112
 3626 0042 FFF7FEFF 		bl	bme68x_get_regs
 3627              	.LVL458:
 650:SensorLib\bme688/bme68x.c ****             {
 3628              		.loc 1 650 0
 3629 0046 0346     		mov	r3, r0
 3630 0048 78BB     		cbnz	r0, .L232
 652:SensorLib\bme688/bme68x.c ****                 {
 3631              		.loc 1 652 0
 3632 004a 2B78     		ldrb	r3, [r5]	@ zero_extendqisi2
 3633 004c 012B     		cmp	r3, #1
 3634 004e 05D1     		bne	.L236
 3635              	.LVL459:
 655:SensorLib\bme688/bme68x.c ****                     {
 3636              		.loc 1 655 0
 3637 0050 A368     		ldr	r3, [r4, #8]
 3638 0052 012B     		cmp	r3, #1
 3639 0054 05D1     		bne	.L237
 657:SensorLib\bme688/bme68x.c ****                     }
 3640              		.loc 1 657 0
 3641 0056 0221     		movs	r1, #2
 654:SensorLib\bme688/bme68x.c ****                     if (dev->variant_id == BME68X_VARIANT_GAS_HIGH)
 3642              		.loc 1 654 0
 3643 0058 0023     		movs	r3, #0
 3644 005a 04E0     		b	.L234
 3645              	.LVL460:
 3646              	.L236:
 667:SensorLib\bme688/bme68x.c ****                 }
 3647              		.loc 1 667 0
 3648 005c 0021     		movs	r1, #0
 666:SensorLib\bme688/bme68x.c ****                     run_gas = BME68X_DISABLE_GAS_MEAS;
 3649              		.loc 1 666 0
 3650 005e 0123     		movs	r3, #1
 3651 0060 01E0     		b	.L234
 3652              	.LVL461:
 3653              	.L237:
 661:SensorLib\bme688/bme68x.c ****                     }
 3654              		.loc 1 661 0
 3655 0062 0121     		movs	r1, #1
 654:SensorLib\bme688/bme68x.c ****                     if (dev->variant_id == BME68X_VARIANT_GAS_HIGH)
 3656              		.loc 1 654 0
ARM GAS  C:\Users\CHRONI~1\AppData\Local\Temp\ccho61l0.s 			page 106


 3657 0064 0023     		movs	r3, #0
 3658              	.LVL462:
 3659              	.L234:
 670:SensorLib\bme688/bme68x.c ****                 ctrl_gas_data[1] = BME68X_SET_BITS_POS_0(ctrl_gas_data[1], BME68X_NBCONV, nb_conv);
 3660              		.loc 1 670 0
 3661 0066 9DF80420 		ldrb	r2, [sp, #4]	@ zero_extendqisi2
 3662 006a 22F00802 		bic	r2, r2, #8
 3663 006e 42EAC302 		orr	r2, r2, r3, lsl #3
 3664 0072 8DF80420 		strb	r2, [sp, #4]
 671:SensorLib\bme688/bme68x.c ****                 ctrl_gas_data[1] = BME68X_SET_BITS(ctrl_gas_data[1], BME68X_RUN_GAS, run_gas);
 3665              		.loc 1 671 0
 3666 0076 9DF80520 		ldrb	r2, [sp, #5]	@ zero_extendqisi2
 3667 007a 9DF80730 		ldrb	r3, [sp, #7]	@ zero_extendqisi2
 3668              	.LVL463:
 3669 007e 03F00F03 		and	r3, r3, #15
 3670 0082 22F00F02 		bic	r2, r2, #15
 3671 0086 1343     		orrs	r3, r3, r2
 3672 0088 5BB2     		sxtb	r3, r3
 672:SensorLib\bme688/bme68x.c ****                 rslt = bme68x_set_regs(ctrl_gas_addr, ctrl_gas_data, 2, dev);
 3673              		.loc 1 672 0
 3674 008a 23F03003 		bic	r3, r3, #48
 3675 008e 43EA0113 		orr	r3, r3, r1, lsl #4
 3676 0092 8DF80530 		strb	r3, [sp, #5]
 673:SensorLib\bme688/bme68x.c ****             }
 3677              		.loc 1 673 0
 3678 0096 2346     		mov	r3, r4
 3679 0098 0222     		movs	r2, #2
 3680 009a 01A9     		add	r1, sp, #4
 3681              	.LVL464:
 3682 009c 6846     		mov	r0, sp
 3683              	.LVL465:
 3684 009e FFF7FEFF 		bl	bme68x_set_regs
 3685              	.LVL466:
 3686 00a2 0346     		mov	r3, r0
 3687              	.LVL467:
 3688 00a4 01E0     		b	.L232
 3689              	.LVL468:
 3690              	.L235:
 679:SensorLib\bme688/bme68x.c ****     }
 3691              		.loc 1 679 0
 3692 00a6 4FF0FF33 		mov	r3, #-1
 3693              	.LVL469:
 3694              	.L232:
 683:SensorLib\bme688/bme68x.c **** 
 3695              		.loc 1 683 0
 3696 00aa 1846     		mov	r0, r3
 3697 00ac 02B0     		add	sp, sp, #8
 3698              		.cfi_def_cfa_offset 16
 3699              		@ sp needed
 3700 00ae 70BD     		pop	{r4, r5, r6, pc}
 3701              	.L240:
 3702              		.align	2
 3703              	.L239:
 3704 00b0 90000000 		.word	.LANCHOR0+144
 3705              		.cfi_endproc
 3706              	.LFE11:
 3707              		.size	bme68x_set_heatr_conf, .-bme68x_set_heatr_conf
ARM GAS  C:\Users\CHRONI~1\AppData\Local\Temp\ccho61l0.s 			page 107


 3708              		.section	.text.bme68x_get_heatr_conf,"ax",%progbits
 3709              		.align	2
 3710              		.global	bme68x_get_heatr_conf
 3711              		.thumb
 3712              		.thumb_func
 3713              		.type	bme68x_get_heatr_conf, %function
 3714              	bme68x_get_heatr_conf:
 3715              	.LFB12:
 689:SensorLib\bme688/bme68x.c ****     int8_t rslt = BME68X_OK;
 3716              		.loc 1 689 0
 3717              		.cfi_startproc
 3718              		@ args = 0, pretend = 0, frame = 16
 3719              		@ frame_needed = 0, uses_anonymous_args = 0
 3720              	.LVL470:
 3721 0000 70B5     		push	{r4, r5, r6, lr}
 3722              		.cfi_def_cfa_offset 16
 3723              		.cfi_offset 4, -16
 3724              		.cfi_offset 5, -12
 3725              		.cfi_offset 6, -8
 3726              		.cfi_offset 14, -4
 3727 0002 84B0     		sub	sp, sp, #16
 3728              		.cfi_def_cfa_offset 32
 3729              	.LVL471:
 691:SensorLib\bme688/bme68x.c ****     uint8_t i;
 3730              		.loc 1 691 0
 3731 0004 0023     		movs	r3, #0
 3732 0006 0193     		str	r3, [sp, #4]
 3733 0008 0293     		str	r3, [sp, #8]
 3734 000a ADF80C30 		strh	r3, [sp, #12]	@ movhi
 694:SensorLib\bme688/bme68x.c ****     {
 3735              		.loc 1 694 0
 3736 000e 0028     		cmp	r0, #0
 3737 0010 34D0     		beq	.L247
 3738 0012 0446     		mov	r4, r0
 694:SensorLib\bme688/bme68x.c ****     {
 3739              		.loc 1 694 0 is_stmt 0 discriminator 1
 3740 0014 C368     		ldr	r3, [r0, #12]
 3741 0016 A3B3     		cbz	r3, .L248
 694:SensorLib\bme688/bme68x.c ****     {
 3742              		.loc 1 694 0 discriminator 2
 3743 0018 8368     		ldr	r3, [r0, #8]
 3744 001a ABB3     		cbz	r3, .L249
 3745 001c 0D46     		mov	r5, r1
 697:SensorLib\bme688/bme68x.c **** 
 3746              		.loc 1 697 0 is_stmt 1
 3747 001e 0B46     		mov	r3, r1
 3748 0020 0A22     		movs	r2, #10
 3749 0022 01A9     		add	r1, sp, #4
 3750              	.LVL472:
 3751 0024 5A20     		movs	r0, #90
 3752              	.LVL473:
 3753 0026 FFF7FEFF 		bl	bme68x_get_regs
 3754              	.LVL474:
 699:SensorLib\bme688/bme68x.c ****         {
 3755              		.loc 1 699 0
 3756 002a 0646     		mov	r6, r0
 3757 002c 50B1     		cbz	r0, .L250
ARM GAS  C:\Users\CHRONI~1\AppData\Local\Temp\ccho61l0.s 			page 108


 3758 002e 2DE0     		b	.L242
 3759              	.LVL475:
 3760              	.L244:
 703:SensorLib\bme688/bme68x.c ****             }
 3761              		.loc 1 703 0 discriminator 3
 3762 0030 A268     		ldr	r2, [r4, #8]
 3763 0032 04A9     		add	r1, sp, #16
 3764 0034 C818     		adds	r0, r1, r3
 3765 0036 10F80C0C 		ldrb	r0, [r0, #-12]	@ zero_extendqisi2
 3766 003a 22F81300 		strh	r0, [r2, r3, lsl #1]	@ movhi
 701:SensorLib\bme688/bme68x.c ****             {
 3767              		.loc 1 701 0 discriminator 3
 3768 003e 0133     		adds	r3, r3, #1
 3769              	.LVL476:
 3770 0040 DBB2     		uxtb	r3, r3
 3771              	.LVL477:
 3772 0042 00E0     		b	.L243
 3773              	.LVL478:
 3774              	.L250:
 3775 0044 0023     		movs	r3, #0
 3776              	.LVL479:
 3777              	.L243:
 701:SensorLib\bme688/bme68x.c ****             {
 3778              		.loc 1 701 0 is_stmt 0 discriminator 1
 3779 0046 227C     		ldrb	r2, [r4, #16]	@ zero_extendqisi2
 3780 0048 9342     		cmp	r3, r2
 3781 004a F1D3     		bcc	.L244
 706:SensorLib\bme688/bme68x.c **** 
 3782              		.loc 1 706 0 is_stmt 1
 3783 004c 2B46     		mov	r3, r5
 3784              	.LVL480:
 3785 004e 0A22     		movs	r2, #10
 3786 0050 01A9     		add	r1, sp, #4
 3787 0052 6420     		movs	r0, #100
 3788 0054 FFF7FEFF 		bl	bme68x_get_regs
 3789              	.LVL481:
 708:SensorLib\bme688/bme68x.c ****             {
 3790              		.loc 1 708 0
 3791 0058 0646     		mov	r6, r0
 3792 005a 50B1     		cbz	r0, .L251
 3793 005c 16E0     		b	.L242
 3794              	.LVL482:
 3795              	.L246:
 712:SensorLib\bme688/bme68x.c ****                 }
 3796              		.loc 1 712 0 discriminator 3
 3797 005e E268     		ldr	r2, [r4, #12]
 3798 0060 04A9     		add	r1, sp, #16
 3799 0062 1944     		add	r1, r1, r3
 3800 0064 11F80C1C 		ldrb	r1, [r1, #-12]	@ zero_extendqisi2
 3801 0068 22F81310 		strh	r1, [r2, r3, lsl #1]	@ movhi
 710:SensorLib\bme688/bme68x.c ****                 {
 3802              		.loc 1 710 0 discriminator 3
 3803 006c 0133     		adds	r3, r3, #1
 3804              	.LVL483:
 3805 006e DBB2     		uxtb	r3, r3
 3806              	.LVL484:
 3807 0070 00E0     		b	.L245
ARM GAS  C:\Users\CHRONI~1\AppData\Local\Temp\ccho61l0.s 			page 109


 3808              	.LVL485:
 3809              	.L251:
 3810 0072 0023     		movs	r3, #0
 3811              	.L245:
 3812              	.LVL486:
 710:SensorLib\bme688/bme68x.c ****                 {
 3813              		.loc 1 710 0 is_stmt 0 discriminator 1
 3814 0074 227C     		ldrb	r2, [r4, #16]	@ zero_extendqisi2
 3815 0076 9342     		cmp	r3, r2
 3816 0078 F1D3     		bcc	.L246
 3817 007a 07E0     		b	.L242
 3818              	.LVL487:
 3819              	.L247:
 719:SensorLib\bme688/bme68x.c ****     }
 3820              		.loc 1 719 0 is_stmt 1
 3821 007c 4FF0FF36 		mov	r6, #-1
 3822 0080 04E0     		b	.L242
 3823              	.L248:
 3824 0082 4FF0FF36 		mov	r6, #-1
 3825 0086 01E0     		b	.L242
 3826              	.L249:
 3827 0088 4FF0FF36 		mov	r6, #-1
 3828              	.LVL488:
 3829              	.L242:
 723:SensorLib\bme688/bme68x.c **** 
 3830              		.loc 1 723 0
 3831 008c 3046     		mov	r0, r6
 3832 008e 04B0     		add	sp, sp, #16
 3833              		.cfi_def_cfa_offset 16
 3834              		@ sp needed
 3835 0090 70BD     		pop	{r4, r5, r6, pc}
 3836              		.cfi_endproc
 3837              	.LFE12:
 3838              		.size	bme68x_get_heatr_conf, .-bme68x_get_heatr_conf
 3839 0092 00BF     		.section	.text.bme68x_selftest_check,"ax",%progbits
 3840              		.align	2
 3841              		.global	bme68x_selftest_check
 3842              		.thumb
 3843              		.thumb_func
 3844              		.type	bme68x_selftest_check, %function
 3845              	bme68x_selftest_check:
 3846              	.LFB13:
 729:SensorLib\bme688/bme68x.c ****     int8_t rslt;
 3847              		.loc 1 729 0
 3848              		.cfi_startproc
 3849              		@ args = 0, pretend = 0, frame = 232
 3850              		@ frame_needed = 0, uses_anonymous_args = 0
 3851              	.LVL489:
 3852 0000 10B5     		push	{r4, lr}
 3853              		.cfi_def_cfa_offset 8
 3854              		.cfi_offset 4, -8
 3855              		.cfi_offset 14, -4
 3856 0002 BAB0     		sub	sp, sp, #232
 3857              		.cfi_def_cfa_offset 240
 3858 0004 0446     		mov	r4, r0
 3859              	.LVL490:
 733:SensorLib\bme688/bme68x.c ****     struct bme68x_dev t_dev;
ARM GAS  C:\Users\CHRONI~1\AppData\Local\Temp\ccho61l0.s 			page 110


 3860              		.loc 1 733 0
 3861 0006 7822     		movs	r2, #120
 3862 0008 0021     		movs	r1, #0
 3863 000a 1BA8     		add	r0, sp, #108
 3864              	.LVL491:
 3865 000c FFF7FEFF 		bl	memset
 3866              	.LVL492:
 738:SensorLib\bme688/bme68x.c **** 
 3867              		.loc 1 738 0
 3868 0010 2046     		mov	r0, r4
 3869 0012 FFF7FEFF 		bl	null_ptr_check
 3870              	.LVL493:
 740:SensorLib\bme688/bme68x.c ****     {
 3871              		.loc 1 740 0
 3872 0016 0346     		mov	r3, r0
 3873 0018 88B9     		cbnz	r0, .L254
 743:SensorLib\bme688/bme68x.c ****         t_dev.read = dev->read;
 3874              		.loc 1 743 0
 3875 001a 1923     		movs	r3, #25
 3876 001c 8DF82A30 		strb	r3, [sp, #42]
 744:SensorLib\bme688/bme68x.c ****         t_dev.write = dev->write;
 3877              		.loc 1 744 0
 3878 0020 236C     		ldr	r3, [r4, #64]
 3879 0022 1793     		str	r3, [sp, #92]
 745:SensorLib\bme688/bme68x.c ****         t_dev.intf = dev->intf;
 3880              		.loc 1 745 0
 3881 0024 636C     		ldr	r3, [r4, #68]
 3882 0026 1893     		str	r3, [sp, #96]
 746:SensorLib\bme688/bme68x.c ****         t_dev.delay_us = dev->delay_us;
 3883              		.loc 1 746 0
 3884 0028 237B     		ldrb	r3, [r4, #12]	@ zero_extendqisi2
 3885 002a 8DF82830 		strb	r3, [sp, #40]
 747:SensorLib\bme688/bme68x.c ****         t_dev.intf_ptr = dev->intf_ptr;
 3886              		.loc 1 747 0
 3887 002e A36C     		ldr	r3, [r4, #72]
 3888 0030 1993     		str	r3, [sp, #100]
 748:SensorLib\bme688/bme68x.c **** 
 3889              		.loc 1 748 0
 3890 0032 6368     		ldr	r3, [r4, #4]
 3891 0034 0893     		str	r3, [sp, #32]
 750:SensorLib\bme688/bme68x.c ****     }
 3892              		.loc 1 750 0
 3893 0036 07A8     		add	r0, sp, #28
 3894              	.LVL494:
 3895 0038 FFF7FEFF 		bl	bme68x_init
 3896              	.LVL495:
 3897 003c 0346     		mov	r3, r0
 3898              	.LVL496:
 3899              	.L254:
 753:SensorLib\bme688/bme68x.c ****     {
 3900              		.loc 1 753 0
 3901 003e 002B     		cmp	r3, #0
 3902 0040 40F08180 		bne	.L255
 756:SensorLib\bme688/bme68x.c ****         conf.os_pres = BME68X_OS_16X;
 3903              		.loc 1 756 0
 3904 0044 0120     		movs	r0, #1
 3905 0046 8DF81400 		strb	r0, [sp, #20]
ARM GAS  C:\Users\CHRONI~1\AppData\Local\Temp\ccho61l0.s 			page 111


 757:SensorLib\bme688/bme68x.c ****         conf.os_temp = BME68X_OS_2X;
 3906              		.loc 1 757 0
 3907 004a 0523     		movs	r3, #5
 3908              	.LVL497:
 3909 004c 8DF81630 		strb	r3, [sp, #22]
 758:SensorLib\bme688/bme68x.c **** 
 3910              		.loc 1 758 0
 3911 0050 0223     		movs	r3, #2
 3912 0052 8DF81530 		strb	r3, [sp, #21]
 761:SensorLib\bme688/bme68x.c ****         heatr_conf.heatr_dur = BME68X_HEATR_DUR1;
 3913              		.loc 1 761 0
 3914 0056 8DF80000 		strb	r0, [sp]
 762:SensorLib\bme688/bme68x.c ****         heatr_conf.heatr_temp = BME68X_HIGH_TEMP;
 3915              		.loc 1 762 0
 3916 005a 4FF47A73 		mov	r3, #1000
 3917 005e ADF80430 		strh	r3, [sp, #4]	@ movhi
 763:SensorLib\bme688/bme68x.c ****         rslt = bme68x_set_heatr_conf(BME68X_FORCED_MODE, &heatr_conf, &t_dev);
 3918              		.loc 1 763 0
 3919 0062 4FF4AF73 		mov	r3, #350
 3920 0066 ADF80230 		strh	r3, [sp, #2]	@ movhi
 764:SensorLib\bme688/bme68x.c ****         if (rslt == BME68X_OK)
 3921              		.loc 1 764 0
 3922 006a 07AA     		add	r2, sp, #28
 3923 006c 6946     		mov	r1, sp
 3924 006e FFF7FEFF 		bl	bme68x_set_heatr_conf
 3925              	.LVL498:
 765:SensorLib\bme688/bme68x.c ****         {
 3926              		.loc 1 765 0
 3927 0072 0346     		mov	r3, r0
 3928 0074 40BB     		cbnz	r0, .L256
 767:SensorLib\bme688/bme68x.c ****             if (rslt == BME68X_OK)
 3929              		.loc 1 767 0
 3930 0076 07A9     		add	r1, sp, #28
 3931 0078 05A8     		add	r0, sp, #20
 3932              	.LVL499:
 3933 007a FFF7FEFF 		bl	bme68x_set_conf
 3934              	.LVL500:
 768:SensorLib\bme688/bme68x.c ****             {
 3935              		.loc 1 768 0
 3936 007e 0346     		mov	r3, r0
 3937 0080 10BB     		cbnz	r0, .L256
 770:SensorLib\bme688/bme68x.c ****                 if (rslt == BME68X_OK)
 3938              		.loc 1 770 0
 3939 0082 07A9     		add	r1, sp, #28
 3940 0084 0120     		movs	r0, #1
 3941              	.LVL501:
 3942 0086 FFF7FEFF 		bl	bme68x_set_op_mode
 3943              	.LVL502:
 771:SensorLib\bme688/bme68x.c ****                 {
 3944              		.loc 1 771 0
 3945 008a 0346     		mov	r3, r0
 3946 008c E0B9     		cbnz	r0, .L256
 774:SensorLib\bme688/bme68x.c ****                     rslt = bme68x_get_data(BME68X_FORCED_MODE, &data[0], &n_fields, &t_dev);
 3947              		.loc 1 774 0
 3948 008e 0899     		ldr	r1, [sp, #32]
 3949 0090 2E48     		ldr	r0, .L265
 3950              	.LVL503:
ARM GAS  C:\Users\CHRONI~1\AppData\Local\Temp\ccho61l0.s 			page 112


 3951 0092 199B     		ldr	r3, [sp, #100]
 3952 0094 9847     		blx	r3
 3953              	.LVL504:
 775:SensorLib\bme688/bme68x.c ****                     if (rslt == BME68X_OK)
 3954              		.loc 1 775 0
 3955 0096 07AB     		add	r3, sp, #28
 3956 0098 0DF1E702 		add	r2, sp, #231
 3957 009c 1BA9     		add	r1, sp, #108
 3958 009e 0120     		movs	r0, #1
 3959 00a0 FFF7FEFF 		bl	bme68x_get_data
 3960              	.LVL505:
 776:SensorLib\bme688/bme68x.c ****                     {
 3961              		.loc 1 776 0
 3962 00a4 0346     		mov	r3, r0
 3963 00a6 78B9     		cbnz	r0, .L256
 778:SensorLib\bme688/bme68x.c ****                             (data[0].status & BME68X_GASM_VALID_MSK))
 3964              		.loc 1 778 0
 3965 00a8 9DF87020 		ldrb	r2, [sp, #112]	@ zero_extendqisi2
 3966 00ac 013A     		subs	r2, r2, #1
 3967 00ae D2B2     		uxtb	r2, r2
 3968 00b0 FD2A     		cmp	r2, #253
 3969 00b2 07D8     		bhi	.L263
 779:SensorLib\bme688/bme68x.c ****                         {
 3970              		.loc 1 779 0 discriminator 1
 3971 00b4 9DF86C20 		ldrb	r2, [sp, #108]	@ zero_extendqisi2
 778:SensorLib\bme688/bme68x.c ****                             (data[0].status & BME68X_GASM_VALID_MSK))
 3972              		.loc 1 778 0 discriminator 1
 3973 00b8 12F0200F 		tst	r2, #32
 3974 00bc 04D1     		bne	.L256
 785:SensorLib\bme688/bme68x.c ****                         }
 3975              		.loc 1 785 0
 3976 00be 6FF00403 		mvn	r3, #4
 3977 00c2 01E0     		b	.L256
 3978              	.L263:
 3979 00c4 6FF00403 		mvn	r3, #4
 3980              	.L256:
 3981              	.LVL506:
 792:SensorLib\bme688/bme68x.c ****         while ((rslt == BME68X_OK) && (i < BME68X_N_MEAS))
 3982              		.loc 1 792 0
 3983 00c8 4FF4FA62 		mov	r2, #2000
 3984 00cc ADF80420 		strh	r2, [sp, #4]	@ movhi
 732:SensorLib\bme688/bme68x.c ****     struct bme68x_data data[BME68X_N_MEAS] = { { 0 } };
 3985              		.loc 1 732 0
 3986 00d0 0024     		movs	r4, #0
 3987              	.LVL507:
 793:SensorLib\bme688/bme68x.c ****         {
 3988              		.loc 1 793 0
 3989 00d2 2FE0     		b	.L257
 3990              	.LVL508:
 3991              	.L262:
 795:SensorLib\bme688/bme68x.c ****             {
 3992              		.loc 1 795 0
 3993 00d4 14F0010F 		tst	r4, #1
 3994 00d8 04D1     		bne	.L258
 797:SensorLib\bme688/bme68x.c ****             }
 3995              		.loc 1 797 0
 3996 00da 4FF4AF73 		mov	r3, #350
ARM GAS  C:\Users\CHRONI~1\AppData\Local\Temp\ccho61l0.s 			page 113


 3997              	.LVL509:
 3998 00de ADF80230 		strh	r3, [sp, #2]	@ movhi
 3999 00e2 02E0     		b	.L259
 4000              	.LVL510:
 4001              	.L258:
 801:SensorLib\bme688/bme68x.c ****             }
 4002              		.loc 1 801 0
 4003 00e4 9623     		movs	r3, #150
 4004              	.LVL511:
 4005 00e6 ADF80230 		strh	r3, [sp, #2]	@ movhi
 4006              	.L259:
 804:SensorLib\bme688/bme68x.c ****             if (rslt == BME68X_OK)
 4007              		.loc 1 804 0
 4008 00ea 07AA     		add	r2, sp, #28
 4009 00ec 6946     		mov	r1, sp
 4010 00ee 0120     		movs	r0, #1
 4011 00f0 FFF7FEFF 		bl	bme68x_set_heatr_conf
 4012              	.LVL512:
 805:SensorLib\bme688/bme68x.c ****             {
 4013              		.loc 1 805 0
 4014 00f4 0346     		mov	r3, r0
 4015 00f6 D8B9     		cbnz	r0, .L260
 807:SensorLib\bme688/bme68x.c ****                 if (rslt == BME68X_OK)
 4016              		.loc 1 807 0
 4017 00f8 07A9     		add	r1, sp, #28
 4018 00fa 05A8     		add	r0, sp, #20
 4019              	.LVL513:
 4020 00fc FFF7FEFF 		bl	bme68x_set_conf
 4021              	.LVL514:
 808:SensorLib\bme688/bme68x.c ****                 {
 4022              		.loc 1 808 0
 4023 0100 0346     		mov	r3, r0
 4024 0102 A8B9     		cbnz	r0, .L260
 810:SensorLib\bme688/bme68x.c ****                     if (rslt == BME68X_OK)
 4025              		.loc 1 810 0
 4026 0104 07A9     		add	r1, sp, #28
 4027 0106 0120     		movs	r0, #1
 4028              	.LVL515:
 4029 0108 FFF7FEFF 		bl	bme68x_set_op_mode
 4030              	.LVL516:
 811:SensorLib\bme688/bme68x.c ****                     {
 4031              		.loc 1 811 0
 4032 010c 0346     		mov	r3, r0
 4033 010e 78B9     		cbnz	r0, .L260
 814:SensorLib\bme688/bme68x.c ****                         rslt = bme68x_get_data(BME68X_FORCED_MODE, &data[i], &n_fields, &t_dev);
 4034              		.loc 1 814 0
 4035 0110 0899     		ldr	r1, [sp, #32]
 4036 0112 0F48     		ldr	r0, .L265+4
 4037              	.LVL517:
 4038 0114 199B     		ldr	r3, [sp, #100]
 4039 0116 9847     		blx	r3
 4040              	.LVL518:
 815:SensorLib\bme688/bme68x.c ****                     }
 4041              		.loc 1 815 0
 4042 0118 04EB8403 		add	r3, r4, r4, lsl #2
 4043 011c 9900     		lsls	r1, r3, #2
 4044 011e 07AB     		add	r3, sp, #28
ARM GAS  C:\Users\CHRONI~1\AppData\Local\Temp\ccho61l0.s 			page 114


 4045 0120 0DF1E702 		add	r2, sp, #231
 4046 0124 1BA8     		add	r0, sp, #108
 4047 0126 0144     		add	r1, r1, r0
 4048 0128 0120     		movs	r0, #1
 4049 012a FFF7FEFF 		bl	bme68x_get_data
 4050              	.LVL519:
 4051 012e 0346     		mov	r3, r0
 4052              	.LVL520:
 4053              	.L260:
 820:SensorLib\bme688/bme68x.c ****         }
 4054              		.loc 1 820 0
 4055 0130 0134     		adds	r4, r4, #1
 4056              	.LVL521:
 4057 0132 E4B2     		uxtb	r4, r4
 4058              	.LVL522:
 4059              	.L257:
 793:SensorLib\bme688/bme68x.c ****         {
 4060              		.loc 1 793 0
 4061 0134 0BB9     		cbnz	r3, .L261
 793:SensorLib\bme688/bme68x.c ****         {
 4062              		.loc 1 793 0 is_stmt 0 discriminator 1
 4063 0136 052C     		cmp	r4, #5
 4064 0138 CCD9     		bls	.L262
 4065              	.L261:
 823:SensorLib\bme688/bme68x.c ****         {
 4066              		.loc 1 823 0 is_stmt 1
 4067 013a 23B9     		cbnz	r3, .L255
 825:SensorLib\bme688/bme68x.c ****         }
 4068              		.loc 1 825 0
 4069 013c 0621     		movs	r1, #6
 4070 013e 1BA8     		add	r0, sp, #108
 4071 0140 FFF7FEFF 		bl	analyze_sensor_data
 4072              	.LVL523:
 4073 0144 0346     		mov	r3, r0
 4074              	.LVL524:
 4075              	.L255:
 830:SensorLib\bme688/bme68x.c **** 
 4076              		.loc 1 830 0
 4077 0146 1846     		mov	r0, r3
 4078 0148 3AB0     		add	sp, sp, #232
 4079              		.cfi_def_cfa_offset 8
 4080              		@ sp needed
 4081 014a 10BD     		pop	{r4, pc}
 4082              	.L266:
 4083              		.align	2
 4084              	.L265:
 4085 014c 40420F00 		.word	1000000
 4086 0150 80841E00 		.word	2000000
 4087              		.cfi_endproc
 4088              	.LFE13:
 4089              		.size	bme68x_selftest_check, .-bme68x_selftest_check
 4090              		.section	.rodata
 4091              		.align	2
 4092              		.set	.LANCHOR0,. + 0
 4093              	.LC2:
 4094 0000 FFFFFF7F 		.word	2147483647
 4095 0004 FFFFFF7F 		.word	2147483647
ARM GAS  C:\Users\CHRONI~1\AppData\Local\Temp\ccho61l0.s 			page 115


 4096 0008 FFFFFF7F 		.word	2147483647
 4097 000c FFFFFF7F 		.word	2147483647
 4098 0010 FFFFFF7F 		.word	2147483647
 4099 0014 EA51B87E 		.word	2126008810
 4100 0018 FFFFFF7F 		.word	2147483647
 4101 001c 21DBF97E 		.word	2130303777
 4102 0020 FFFFFF7F 		.word	2147483647
 4103 0024 FFFFFF7F 		.word	2147483647
 4104 0028 C776BE7F 		.word	2143188679
 4105 002c F4285C7F 		.word	2136746228
 4106 0030 FFFFFF7F 		.word	2147483647
 4107 0034 EA51B87E 		.word	2126008810
 4108 0038 FFFFFF7F 		.word	2147483647
 4109 003c FFFFFF7F 		.word	2147483647
 4110              	.LC3:
 4111 0040 000024F4 		.word	-198967296
 4112 0044 0000127A 		.word	2048000000
 4113 0048 0000093D 		.word	1024000000
 4114 004c 0080841E 		.word	512000000
 4115 0050 FF583E0F 		.word	255744255
 4116 0054 548C9307 		.word	127110228
 4117 0058 0090D003 		.word	64000000
 4118 005c 1038EC01 		.word	32258064
 4119 0060 9062F400 		.word	16016016
 4120 0064 00127A00 		.word	8000000
 4121 0068 00093D00 		.word	4000000
 4122 006c 80841E00 		.word	2000000
 4123 0070 40420F00 		.word	1000000
 4124 0074 20A10700 		.word	500000
 4125 0078 90D00300 		.word	250000
 4126 007c 48E80100 		.word	125000
 4127              	.LC0:
 4128 0080 71       		.byte	113
 4129 0081 72       		.byte	114
 4130 0082 73       		.byte	115
 4131 0083 74       		.byte	116
 4132 0084 75       		.byte	117
 4133 0085 000000   		.space	3
 4134              	.LC1:
 4135 0088 00       		.byte	0
 4136 0089 01       		.byte	1
 4137 008a 02       		.byte	2
 4138 008b 04       		.byte	4
 4139 008c 08       		.byte	8
 4140 008d 10       		.byte	16
 4141 008e 0000     		.space	2
 4142              	.LC4:
 4143 0090 70       		.byte	112
 4144 0091 71       		.byte	113
 4145              		.text
 4146              	.Letext0:
 4147              		.file 2 "c:\\program files (x86)\\cypress\\psoc creator\\4.4\\psoc creator\\import\\gnu\\arm\\5.4.
 4148              		.file 3 "c:\\program files (x86)\\cypress\\psoc creator\\4.4\\psoc creator\\import\\gnu\\arm\\5.4.
 4149              		.file 4 "SensorLib\\bme688\\bme68x_defs.h"
 4150              		.section	.debug_info,"",%progbits
 4151              	.Ldebug_info0:
 4152 0000 1F210000 		.4byte	0x211f
ARM GAS  C:\Users\CHRONI~1\AppData\Local\Temp\ccho61l0.s 			page 116


 4153 0004 0400     		.2byte	0x4
 4154 0006 00000000 		.4byte	.Ldebug_abbrev0
 4155 000a 04       		.byte	0x4
 4156 000b 01       		.uleb128 0x1
 4157 000c B8020000 		.4byte	.LASF218
 4158 0010 0C       		.byte	0xc
 4159 0011 66070000 		.4byte	.LASF219
 4160 0015 6B020000 		.4byte	.LASF220
 4161 0019 00000000 		.4byte	.Ldebug_ranges0+0
 4162 001d 00000000 		.4byte	0
 4163 0021 00000000 		.4byte	.Ldebug_line0
 4164 0025 02       		.uleb128 0x2
 4165 0026 08       		.byte	0x8
 4166 0027 07       		.byte	0x7
 4167 0028 DD010000 		.4byte	.LASF0
 4168 002c 03       		.uleb128 0x3
 4169 002d 04       		.byte	0x4
 4170 002e 05       		.byte	0x5
 4171 002f 696E7400 		.ascii	"int\000"
 4172 0033 02       		.uleb128 0x2
 4173 0034 04       		.byte	0x4
 4174 0035 07       		.byte	0x7
 4175 0036 A0000000 		.4byte	.LASF1
 4176 003a 02       		.uleb128 0x2
 4177 003b 01       		.byte	0x1
 4178 003c 06       		.byte	0x6
 4179 003d 79090000 		.4byte	.LASF2
 4180 0041 04       		.uleb128 0x4
 4181 0042 54060000 		.4byte	.LASF3
 4182 0046 02       		.byte	0x2
 4183 0047 1B       		.byte	0x1b
 4184 0048 3A000000 		.4byte	0x3a
 4185 004c 04       		.uleb128 0x4
 4186 004d E6070000 		.4byte	.LASF4
 4187 0051 02       		.byte	0x2
 4188 0052 1D       		.byte	0x1d
 4189 0053 57000000 		.4byte	0x57
 4190 0057 02       		.uleb128 0x2
 4191 0058 01       		.byte	0x1
 4192 0059 08       		.byte	0x8
 4193 005a 97080000 		.4byte	.LASF5
 4194 005e 04       		.uleb128 0x4
 4195 005f D0050000 		.4byte	.LASF6
 4196 0063 02       		.byte	0x2
 4197 0064 29       		.byte	0x29
 4198 0065 69000000 		.4byte	0x69
 4199 0069 02       		.uleb128 0x2
 4200 006a 02       		.byte	0x2
 4201 006b 05       		.byte	0x5
 4202 006c 33070000 		.4byte	.LASF7
 4203 0070 04       		.uleb128 0x4
 4204 0071 24020000 		.4byte	.LASF8
 4205 0075 02       		.byte	0x2
 4206 0076 2B       		.byte	0x2b
 4207 0077 7B000000 		.4byte	0x7b
 4208 007b 02       		.uleb128 0x2
 4209 007c 02       		.byte	0x2
ARM GAS  C:\Users\CHRONI~1\AppData\Local\Temp\ccho61l0.s 			page 117


 4210 007d 07       		.byte	0x7
 4211 007e 93090000 		.4byte	.LASF9
 4212 0082 04       		.uleb128 0x4
 4213 0083 AD000000 		.4byte	.LASF10
 4214 0087 02       		.byte	0x2
 4215 0088 3F       		.byte	0x3f
 4216 0089 8D000000 		.4byte	0x8d
 4217 008d 02       		.uleb128 0x2
 4218 008e 04       		.byte	0x4
 4219 008f 05       		.byte	0x5
 4220 0090 80070000 		.4byte	.LASF11
 4221 0094 04       		.uleb128 0x4
 4222 0095 BA080000 		.4byte	.LASF12
 4223 0099 02       		.byte	0x2
 4224 009a 41       		.byte	0x41
 4225 009b 9F000000 		.4byte	0x9f
 4226 009f 02       		.uleb128 0x2
 4227 00a0 04       		.byte	0x4
 4228 00a1 07       		.byte	0x7
 4229 00a2 2A080000 		.4byte	.LASF13
 4230 00a6 04       		.uleb128 0x4
 4231 00a7 80060000 		.4byte	.LASF14
 4232 00ab 02       		.byte	0x2
 4233 00ac 59       		.byte	0x59
 4234 00ad B1000000 		.4byte	0xb1
 4235 00b1 02       		.uleb128 0x2
 4236 00b2 08       		.byte	0x8
 4237 00b3 05       		.byte	0x5
 4238 00b4 6D050000 		.4byte	.LASF15
 4239 00b8 04       		.uleb128 0x4
 4240 00b9 E5030000 		.4byte	.LASF16
 4241 00bd 02       		.byte	0x2
 4242 00be 5B       		.byte	0x5b
 4243 00bf 25000000 		.4byte	0x25
 4244 00c3 04       		.uleb128 0x4
 4245 00c4 38010000 		.4byte	.LASF17
 4246 00c8 03       		.byte	0x3
 4247 00c9 14       		.byte	0x14
 4248 00ca 41000000 		.4byte	0x41
 4249 00ce 04       		.uleb128 0x4
 4250 00cf E8040000 		.4byte	.LASF18
 4251 00d3 03       		.byte	0x3
 4252 00d4 18       		.byte	0x18
 4253 00d5 4C000000 		.4byte	0x4c
 4254 00d9 04       		.uleb128 0x4
 4255 00da BD010000 		.4byte	.LASF19
 4256 00de 03       		.byte	0x3
 4257 00df 20       		.byte	0x20
 4258 00e0 5E000000 		.4byte	0x5e
 4259 00e4 04       		.uleb128 0x4
 4260 00e5 96060000 		.4byte	.LASF20
 4261 00e9 03       		.byte	0x3
 4262 00ea 24       		.byte	0x24
 4263 00eb 70000000 		.4byte	0x70
 4264 00ef 04       		.uleb128 0x4
 4265 00f0 4D080000 		.4byte	.LASF21
 4266 00f4 03       		.byte	0x3
ARM GAS  C:\Users\CHRONI~1\AppData\Local\Temp\ccho61l0.s 			page 118


 4267 00f5 2C       		.byte	0x2c
 4268 00f6 82000000 		.4byte	0x82
 4269 00fa 04       		.uleb128 0x4
 4270 00fb 2F010000 		.4byte	.LASF22
 4271 00ff 03       		.byte	0x3
 4272 0100 30       		.byte	0x30
 4273 0101 94000000 		.4byte	0x94
 4274 0105 04       		.uleb128 0x4
 4275 0106 7D030000 		.4byte	.LASF23
 4276 010a 03       		.byte	0x3
 4277 010b 38       		.byte	0x38
 4278 010c A6000000 		.4byte	0xa6
 4279 0110 04       		.uleb128 0x4
 4280 0111 A6070000 		.4byte	.LASF24
 4281 0115 03       		.byte	0x3
 4282 0116 3C       		.byte	0x3c
 4283 0117 B8000000 		.4byte	0xb8
 4284 011b 02       		.uleb128 0x2
 4285 011c 08       		.byte	0x8
 4286 011d 04       		.byte	0x4
 4287 011e 8A060000 		.4byte	.LASF25
 4288 0122 05       		.uleb128 0x5
 4289 0123 F5070000 		.4byte	.LASF26
 4290 0127 04       		.byte	0x4
 4291 0128 9702     		.2byte	0x297
 4292 012a 2E010000 		.4byte	0x12e
 4293 012e 06       		.uleb128 0x6
 4294 012f 04       		.byte	0x4
 4295 0130 34010000 		.4byte	0x134
 4296 0134 07       		.uleb128 0x7
 4297 0135 C3000000 		.4byte	0xc3
 4298 0139 52010000 		.4byte	0x152
 4299 013d 08       		.uleb128 0x8
 4300 013e CE000000 		.4byte	0xce
 4301 0142 08       		.uleb128 0x8
 4302 0143 52010000 		.4byte	0x152
 4303 0147 08       		.uleb128 0x8
 4304 0148 FA000000 		.4byte	0xfa
 4305 014c 08       		.uleb128 0x8
 4306 014d 58010000 		.4byte	0x158
 4307 0151 00       		.byte	0
 4308 0152 06       		.uleb128 0x6
 4309 0153 04       		.byte	0x4
 4310 0154 CE000000 		.4byte	0xce
 4311 0158 09       		.uleb128 0x9
 4312 0159 04       		.byte	0x4
 4313 015a 05       		.uleb128 0x5
 4314 015b 20000000 		.4byte	.LASF27
 4315 015f 04       		.byte	0x4
 4316 0160 A702     		.2byte	0x2a7
 4317 0162 66010000 		.4byte	0x166
 4318 0166 06       		.uleb128 0x6
 4319 0167 04       		.byte	0x4
 4320 0168 6C010000 		.4byte	0x16c
 4321 016c 07       		.uleb128 0x7
 4322 016d C3000000 		.4byte	0xc3
 4323 0171 8A010000 		.4byte	0x18a
ARM GAS  C:\Users\CHRONI~1\AppData\Local\Temp\ccho61l0.s 			page 119


 4324 0175 08       		.uleb128 0x8
 4325 0176 CE000000 		.4byte	0xce
 4326 017a 08       		.uleb128 0x8
 4327 017b 8A010000 		.4byte	0x18a
 4328 017f 08       		.uleb128 0x8
 4329 0180 FA000000 		.4byte	0xfa
 4330 0184 08       		.uleb128 0x8
 4331 0185 58010000 		.4byte	0x158
 4332 0189 00       		.byte	0
 4333 018a 06       		.uleb128 0x6
 4334 018b 04       		.byte	0x4
 4335 018c 90010000 		.4byte	0x190
 4336 0190 0A       		.uleb128 0xa
 4337 0191 CE000000 		.4byte	0xce
 4338 0195 05       		.uleb128 0x5
 4339 0196 2C060000 		.4byte	.LASF28
 4340 019a 04       		.byte	0x4
 4341 019b B202     		.2byte	0x2b2
 4342 019d A1010000 		.4byte	0x1a1
 4343 01a1 06       		.uleb128 0x6
 4344 01a2 04       		.byte	0x4
 4345 01a3 A7010000 		.4byte	0x1a7
 4346 01a7 0B       		.uleb128 0xb
 4347 01a8 B7010000 		.4byte	0x1b7
 4348 01ac 08       		.uleb128 0x8
 4349 01ad FA000000 		.4byte	0xfa
 4350 01b1 08       		.uleb128 0x8
 4351 01b2 58010000 		.4byte	0x158
 4352 01b6 00       		.byte	0
 4353 01b7 0C       		.uleb128 0xc
 4354 01b8 1E0A0000 		.4byte	.LASF221
 4355 01bc 01       		.byte	0x1
 4356 01bd 57000000 		.4byte	0x57
 4357 01c1 04       		.byte	0x4
 4358 01c2 C202     		.2byte	0x2c2
 4359 01c4 D5010000 		.4byte	0x1d5
 4360 01c8 0D       		.uleb128 0xd
 4361 01c9 B0060000 		.4byte	.LASF29
 4362 01cd 00       		.byte	0
 4363 01ce 0D       		.uleb128 0xd
 4364 01cf 23070000 		.4byte	.LASF30
 4365 01d3 01       		.byte	0x1
 4366 01d4 00       		.byte	0
 4367 01d5 0E       		.uleb128 0xe
 4368 01d6 CC090000 		.4byte	.LASF41
 4369 01da 14       		.byte	0x14
 4370 01db 04       		.byte	0x4
 4371 01dc CE02     		.2byte	0x2ce
 4372 01de 65020000 		.4byte	0x265
 4373 01e2 0F       		.uleb128 0xf
 4374 01e3 F0040000 		.4byte	.LASF31
 4375 01e7 04       		.byte	0x4
 4376 01e8 D102     		.2byte	0x2d1
 4377 01ea CE000000 		.4byte	0xce
 4378 01ee 00       		.byte	0
 4379 01ef 0F       		.uleb128 0xf
 4380 01f0 C9070000 		.4byte	.LASF32
ARM GAS  C:\Users\CHRONI~1\AppData\Local\Temp\ccho61l0.s 			page 120


 4381 01f4 04       		.byte	0x4
 4382 01f5 D402     		.2byte	0x2d4
 4383 01f7 CE000000 		.4byte	0xce
 4384 01fb 01       		.byte	0x1
 4385 01fc 0F       		.uleb128 0xf
 4386 01fd F4010000 		.4byte	.LASF33
 4387 0201 04       		.byte	0x4
 4388 0202 D702     		.2byte	0x2d7
 4389 0204 CE000000 		.4byte	0xce
 4390 0208 02       		.byte	0x2
 4391 0209 0F       		.uleb128 0xf
 4392 020a 1B020000 		.4byte	.LASF34
 4393 020e 04       		.byte	0x4
 4394 020f DA02     		.2byte	0x2da
 4395 0211 CE000000 		.4byte	0xce
 4396 0215 03       		.byte	0x3
 4397 0216 0F       		.uleb128 0xf
 4398 0217 3B020000 		.4byte	.LASF35
 4399 021b 04       		.byte	0x4
 4400 021c DD02     		.2byte	0x2dd
 4401 021e CE000000 		.4byte	0xce
 4402 0222 04       		.byte	0x4
 4403 0223 0F       		.uleb128 0xf
 4404 0224 1A060000 		.4byte	.LASF36
 4405 0228 04       		.byte	0x4
 4406 0229 E002     		.2byte	0x2e0
 4407 022b CE000000 		.4byte	0xce
 4408 022f 05       		.byte	0x5
 4409 0230 0F       		.uleb128 0xf
 4410 0231 45000000 		.4byte	.LASF37
 4411 0235 04       		.byte	0x4
 4412 0236 E402     		.2byte	0x2e4
 4413 0238 D9000000 		.4byte	0xd9
 4414 023c 06       		.byte	0x6
 4415 023d 0F       		.uleb128 0xf
 4416 023e 56000000 		.4byte	.LASF38
 4417 0242 04       		.byte	0x4
 4418 0243 E702     		.2byte	0x2e7
 4419 0245 FA000000 		.4byte	0xfa
 4420 0249 08       		.byte	0x8
 4421 024a 0F       		.uleb128 0xf
 4422 024b 060A0000 		.4byte	.LASF39
 4423 024f 04       		.byte	0x4
 4424 0250 EA02     		.2byte	0x2ea
 4425 0252 FA000000 		.4byte	0xfa
 4426 0256 0C       		.byte	0xc
 4427 0257 0F       		.uleb128 0xf
 4428 0258 6B000000 		.4byte	.LASF40
 4429 025c 04       		.byte	0x4
 4430 025d ED02     		.2byte	0x2ed
 4431 025f FA000000 		.4byte	0xfa
 4432 0263 10       		.byte	0x10
 4433 0264 00       		.byte	0
 4434 0265 0E       		.uleb128 0xe
 4435 0266 E4080000 		.4byte	.LASF42
 4436 026a 30       		.byte	0x30
 4437 026b 04       		.byte	0x4
ARM GAS  C:\Users\CHRONI~1\AppData\Local\Temp\ccho61l0.s 			page 121


 4438 026c 0303     		.2byte	0x303
 4439 026e D2030000 		.4byte	0x3d2
 4440 0272 0F       		.uleb128 0xf
 4441 0273 90080000 		.4byte	.LASF43
 4442 0277 04       		.byte	0x4
 4443 0278 0603     		.2byte	0x306
 4444 027a E4000000 		.4byte	0xe4
 4445 027e 00       		.byte	0
 4446 027f 0F       		.uleb128 0xf
 4447 0280 40020000 		.4byte	.LASF44
 4448 0284 04       		.byte	0x4
 4449 0285 0903     		.2byte	0x309
 4450 0287 E4000000 		.4byte	0xe4
 4451 028b 02       		.byte	0x2
 4452 028c 0F       		.uleb128 0xf
 4453 028d A5080000 		.4byte	.LASF45
 4454 0291 04       		.byte	0x4
 4455 0292 0C03     		.2byte	0x30c
 4456 0294 C3000000 		.4byte	0xc3
 4457 0298 04       		.byte	0x4
 4458 0299 0F       		.uleb128 0xf
 4459 029a AC080000 		.4byte	.LASF46
 4460 029e 04       		.byte	0x4
 4461 029f 0F03     		.2byte	0x30f
 4462 02a1 C3000000 		.4byte	0xc3
 4463 02a5 05       		.byte	0x5
 4464 02a6 0F       		.uleb128 0xf
 4465 02a7 B3080000 		.4byte	.LASF47
 4466 02ab 04       		.byte	0x4
 4467 02ac 1203     		.2byte	0x312
 4468 02ae C3000000 		.4byte	0xc3
 4469 02b2 06       		.byte	0x6
 4470 02b3 0F       		.uleb128 0xf
 4471 02b4 58020000 		.4byte	.LASF48
 4472 02b8 04       		.byte	0x4
 4473 02b9 1503     		.2byte	0x315
 4474 02bb CE000000 		.4byte	0xce
 4475 02bf 07       		.byte	0x7
 4476 02c0 0F       		.uleb128 0xf
 4477 02c1 C5080000 		.4byte	.LASF49
 4478 02c5 04       		.byte	0x4
 4479 02c6 1803     		.2byte	0x318
 4480 02c8 C3000000 		.4byte	0xc3
 4481 02cc 08       		.byte	0x8
 4482 02cd 0F       		.uleb128 0xf
 4483 02ce 81050000 		.4byte	.LASF50
 4484 02d2 04       		.byte	0x4
 4485 02d3 1B03     		.2byte	0x31b
 4486 02d5 C3000000 		.4byte	0xc3
 4487 02d9 09       		.byte	0x9
 4488 02da 0F       		.uleb128 0xf
 4489 02db 89050000 		.4byte	.LASF51
 4490 02df 04       		.byte	0x4
 4491 02e0 1E03     		.2byte	0x31e
 4492 02e2 D9000000 		.4byte	0xd9
 4493 02e6 0A       		.byte	0xa
 4494 02e7 0F       		.uleb128 0xf
ARM GAS  C:\Users\CHRONI~1\AppData\Local\Temp\ccho61l0.s 			page 122


 4495 02e8 91050000 		.4byte	.LASF52
 4496 02ec 04       		.byte	0x4
 4497 02ed 2103     		.2byte	0x321
 4498 02ef C3000000 		.4byte	0xc3
 4499 02f3 0C       		.byte	0xc
 4500 02f4 0F       		.uleb128 0xf
 4501 02f5 72060000 		.4byte	.LASF53
 4502 02f9 04       		.byte	0x4
 4503 02fa 2403     		.2byte	0x324
 4504 02fc E4000000 		.4byte	0xe4
 4505 0300 0E       		.byte	0xe
 4506 0301 0F       		.uleb128 0xf
 4507 0302 79060000 		.4byte	.LASF54
 4508 0306 04       		.byte	0x4
 4509 0307 2703     		.2byte	0x327
 4510 0309 D9000000 		.4byte	0xd9
 4511 030d 10       		.byte	0x10
 4512 030e 0F       		.uleb128 0xf
 4513 030f DD080000 		.4byte	.LASF55
 4514 0313 04       		.byte	0x4
 4515 0314 2A03     		.2byte	0x32a
 4516 0316 C3000000 		.4byte	0xc3
 4517 031a 12       		.byte	0x12
 4518 031b 0F       		.uleb128 0xf
 4519 031c C9030000 		.4byte	.LASF56
 4520 0320 04       		.byte	0x4
 4521 0321 2D03     		.2byte	0x32d
 4522 0323 E4000000 		.4byte	0xe4
 4523 0327 14       		.byte	0x14
 4524 0328 0F       		.uleb128 0xf
 4525 0329 D0030000 		.4byte	.LASF57
 4526 032d 04       		.byte	0x4
 4527 032e 3003     		.2byte	0x330
 4528 0330 D9000000 		.4byte	0xd9
 4529 0334 16       		.byte	0x16
 4530 0335 0F       		.uleb128 0xf
 4531 0336 D7030000 		.4byte	.LASF58
 4532 033a 04       		.byte	0x4
 4533 033b 3303     		.2byte	0x333
 4534 033d C3000000 		.4byte	0xc3
 4535 0341 18       		.byte	0x18
 4536 0342 0F       		.uleb128 0xf
 4537 0343 DE030000 		.4byte	.LASF59
 4538 0347 04       		.byte	0x4
 4539 0348 3603     		.2byte	0x336
 4540 034a D9000000 		.4byte	0xd9
 4541 034e 1A       		.byte	0x1a
 4542 034f 0F       		.uleb128 0xf
 4543 0350 85030000 		.4byte	.LASF60
 4544 0354 04       		.byte	0x4
 4545 0355 3903     		.2byte	0x339
 4546 0357 D9000000 		.4byte	0xd9
 4547 035b 1C       		.byte	0x1c
 4548 035c 0F       		.uleb128 0xf
 4549 035d F0030000 		.4byte	.LASF61
 4550 0361 04       		.byte	0x4
 4551 0362 3C03     		.2byte	0x33c
ARM GAS  C:\Users\CHRONI~1\AppData\Local\Temp\ccho61l0.s 			page 123


 4552 0364 C3000000 		.4byte	0xc3
 4553 0368 1E       		.byte	0x1e
 4554 0369 0F       		.uleb128 0xf
 4555 036a F7030000 		.4byte	.LASF62
 4556 036e 04       		.byte	0x4
 4557 036f 3F03     		.2byte	0x33f
 4558 0371 C3000000 		.4byte	0xc3
 4559 0375 1F       		.byte	0x1f
 4560 0376 0F       		.uleb128 0xf
 4561 0377 FE030000 		.4byte	.LASF63
 4562 037b 04       		.byte	0x4
 4563 037c 4203     		.2byte	0x342
 4564 037e D9000000 		.4byte	0xd9
 4565 0382 20       		.byte	0x20
 4566 0383 0F       		.uleb128 0xf
 4567 0384 05040000 		.4byte	.LASF64
 4568 0388 04       		.byte	0x4
 4569 0389 4503     		.2byte	0x345
 4570 038b D9000000 		.4byte	0xd9
 4571 038f 22       		.byte	0x22
 4572 0390 0F       		.uleb128 0xf
 4573 0391 06050000 		.4byte	.LASF65
 4574 0395 04       		.byte	0x4
 4575 0396 4803     		.2byte	0x348
 4576 0398 CE000000 		.4byte	0xce
 4577 039c 24       		.byte	0x24
 4578 039d 0F       		.uleb128 0xf
 4579 039e 18050000 		.4byte	.LASF66
 4580 03a2 04       		.byte	0x4
 4581 03a3 4C03     		.2byte	0x34c
 4582 03a5 EF000000 		.4byte	0xef
 4583 03a9 28       		.byte	0x28
 4584 03aa 0F       		.uleb128 0xf
 4585 03ab 0F0A0000 		.4byte	.LASF67
 4586 03af 04       		.byte	0x4
 4587 03b0 5403     		.2byte	0x354
 4588 03b2 CE000000 		.4byte	0xce
 4589 03b6 2C       		.byte	0x2c
 4590 03b7 0F       		.uleb128 0xf
 4591 03b8 5D060000 		.4byte	.LASF68
 4592 03bc 04       		.byte	0x4
 4593 03bd 5703     		.2byte	0x357
 4594 03bf C3000000 		.4byte	0xc3
 4595 03c3 2D       		.byte	0x2d
 4596 03c4 0F       		.uleb128 0xf
 4597 03c5 AA010000 		.4byte	.LASF69
 4598 03c9 04       		.byte	0x4
 4599 03ca 5A03     		.2byte	0x35a
 4600 03cc C3000000 		.4byte	0xc3
 4601 03d0 2E       		.byte	0x2e
 4602 03d1 00       		.byte	0
 4603 03d2 0E       		.uleb128 0xe
 4604 03d3 BA050000 		.4byte	.LASF70
 4605 03d7 05       		.byte	0x5
 4606 03d8 04       		.byte	0x4
 4607 03d9 6103     		.2byte	0x361
 4608 03db 21040000 		.4byte	0x421
ARM GAS  C:\Users\CHRONI~1\AppData\Local\Temp\ccho61l0.s 			page 124


 4609 03df 0F       		.uleb128 0xf
 4610 03e0 C0040000 		.4byte	.LASF71
 4611 03e4 04       		.byte	0x4
 4612 03e5 6403     		.2byte	0x364
 4613 03e7 CE000000 		.4byte	0xce
 4614 03eb 00       		.byte	0
 4615 03ec 0F       		.uleb128 0xf
 4616 03ed DA000000 		.4byte	.LASF72
 4617 03f1 04       		.byte	0x4
 4618 03f2 6703     		.2byte	0x367
 4619 03f4 CE000000 		.4byte	0xce
 4620 03f8 01       		.byte	0x1
 4621 03f9 0F       		.uleb128 0xf
 4622 03fa FE040000 		.4byte	.LASF73
 4623 03fe 04       		.byte	0x4
 4624 03ff 6A03     		.2byte	0x36a
 4625 0401 CE000000 		.4byte	0xce
 4626 0405 02       		.byte	0x2
 4627 0406 0F       		.uleb128 0xf
 4628 0407 93070000 		.4byte	.LASF74
 4629 040b 04       		.byte	0x4
 4630 040c 6D03     		.2byte	0x36d
 4631 040e CE000000 		.4byte	0xce
 4632 0412 03       		.byte	0x3
 4633 0413 10       		.uleb128 0x10
 4634 0414 6F647200 		.ascii	"odr\000"
 4635 0418 04       		.byte	0x4
 4636 0419 7303     		.2byte	0x373
 4637 041b CE000000 		.4byte	0xce
 4638 041f 04       		.byte	0x4
 4639 0420 00       		.byte	0
 4640 0421 0E       		.uleb128 0xe
 4641 0422 CB010000 		.4byte	.LASF75
 4642 0426 14       		.byte	0x14
 4643 0427 04       		.byte	0x4
 4644 0428 7903     		.2byte	0x379
 4645 042a 8A040000 		.4byte	0x48a
 4646 042e 0F       		.uleb128 0xf
 4647 042f D3070000 		.4byte	.LASF76
 4648 0433 04       		.byte	0x4
 4649 0434 7C03     		.2byte	0x37c
 4650 0436 CE000000 		.4byte	0xce
 4651 043a 00       		.byte	0
 4652 043b 0F       		.uleb128 0xf
 4653 043c C1090000 		.4byte	.LASF77
 4654 0440 04       		.byte	0x4
 4655 0441 7F03     		.2byte	0x37f
 4656 0443 E4000000 		.4byte	0xe4
 4657 0447 02       		.byte	0x2
 4658 0448 0F       		.uleb128 0xf
 4659 0449 3E040000 		.4byte	.LASF78
 4660 044d 04       		.byte	0x4
 4661 044e 8203     		.2byte	0x382
 4662 0450 E4000000 		.4byte	0xe4
 4663 0454 04       		.byte	0x4
 4664 0455 0F       		.uleb128 0xf
 4665 0456 B7000000 		.4byte	.LASF79
ARM GAS  C:\Users\CHRONI~1\AppData\Local\Temp\ccho61l0.s 			page 125


 4666 045a 04       		.byte	0x4
 4667 045b 8503     		.2byte	0x385
 4668 045d 8A040000 		.4byte	0x48a
 4669 0461 08       		.byte	0x8
 4670 0462 0F       		.uleb128 0xf
 4671 0463 6E030000 		.4byte	.LASF80
 4672 0467 04       		.byte	0x4
 4673 0468 8803     		.2byte	0x388
 4674 046a 8A040000 		.4byte	0x48a
 4675 046e 0C       		.byte	0xc
 4676 046f 0F       		.uleb128 0xf
 4677 0470 7A040000 		.4byte	.LASF81
 4678 0474 04       		.byte	0x4
 4679 0475 8B03     		.2byte	0x38b
 4680 0477 CE000000 		.4byte	0xce
 4681 047b 10       		.byte	0x10
 4682 047c 0F       		.uleb128 0xf
 4683 047d 4B090000 		.4byte	.LASF82
 4684 0481 04       		.byte	0x4
 4685 0482 9103     		.2byte	0x391
 4686 0484 E4000000 		.4byte	0xe4
 4687 0488 12       		.byte	0x12
 4688 0489 00       		.byte	0
 4689 048a 06       		.uleb128 0x6
 4690 048b 04       		.byte	0x4
 4691 048c E4000000 		.4byte	0xe4
 4692 0490 0E       		.uleb128 0xe
 4693 0491 85080000 		.4byte	.LASF83
 4694 0495 50       		.byte	0x50
 4695 0496 04       		.byte	0x4
 4696 0497 9703     		.2byte	0x397
 4697 0499 3A050000 		.4byte	0x53a
 4698 049d 0F       		.uleb128 0xf
 4699 049e 53030000 		.4byte	.LASF84
 4700 04a2 04       		.byte	0x4
 4701 04a3 9A03     		.2byte	0x39a
 4702 04a5 CE000000 		.4byte	0xce
 4703 04a9 00       		.byte	0
 4704 04aa 0F       		.uleb128 0xf
 4705 04ab 23060000 		.4byte	.LASF85
 4706 04af 04       		.byte	0x4
 4707 04b0 A203     		.2byte	0x3a2
 4708 04b2 58010000 		.4byte	0x158
 4709 04b6 04       		.byte	0x4
 4710 04b7 0F       		.uleb128 0xf
 4711 04b8 A6090000 		.4byte	.LASF86
 4712 04bc 04       		.byte	0x4
 4713 04bd AD03     		.2byte	0x3ad
 4714 04bf FA000000 		.4byte	0xfa
 4715 04c3 08       		.byte	0x8
 4716 04c4 0F       		.uleb128 0xf
 4717 04c5 60050000 		.4byte	.LASF87
 4718 04c9 04       		.byte	0x4
 4719 04ca B003     		.2byte	0x3b0
 4720 04cc B7010000 		.4byte	0x1b7
 4721 04d0 0C       		.byte	0xc
 4722 04d1 0F       		.uleb128 0xf
ARM GAS  C:\Users\CHRONI~1\AppData\Local\Temp\ccho61l0.s 			page 126


 4723 04d2 26010000 		.4byte	.LASF88
 4724 04d6 04       		.byte	0x4
 4725 04d7 B303     		.2byte	0x3b3
 4726 04d9 CE000000 		.4byte	0xce
 4727 04dd 0D       		.byte	0xd
 4728 04de 0F       		.uleb128 0xf
 4729 04df 17090000 		.4byte	.LASF89
 4730 04e3 04       		.byte	0x4
 4731 04e4 B603     		.2byte	0x3b6
 4732 04e6 C3000000 		.4byte	0xc3
 4733 04ea 0E       		.byte	0xe
 4734 04eb 0F       		.uleb128 0xf
 4735 04ec C5010000 		.4byte	.LASF90
 4736 04f0 04       		.byte	0x4
 4737 04f1 B903     		.2byte	0x3b9
 4738 04f3 65020000 		.4byte	0x265
 4739 04f7 10       		.byte	0x10
 4740 04f8 0F       		.uleb128 0xf
 4741 04f9 F0070000 		.4byte	.LASF91
 4742 04fd 04       		.byte	0x4
 4743 04fe BC03     		.2byte	0x3bc
 4744 0500 22010000 		.4byte	0x122
 4745 0504 40       		.byte	0x40
 4746 0505 0F       		.uleb128 0xf
 4747 0506 7B050000 		.4byte	.LASF92
 4748 050a 04       		.byte	0x4
 4749 050b BF03     		.2byte	0x3bf
 4750 050d 5A010000 		.4byte	0x15a
 4751 0511 44       		.byte	0x44
 4752 0512 0F       		.uleb128 0xf
 4753 0513 5C090000 		.4byte	.LASF93
 4754 0517 04       		.byte	0x4
 4755 0518 C203     		.2byte	0x3c2
 4756 051a 95010000 		.4byte	0x195
 4757 051e 48       		.byte	0x48
 4758 051f 0F       		.uleb128 0xf
 4759 0520 3E0A0000 		.4byte	.LASF94
 4760 0524 04       		.byte	0x4
 4761 0525 C503     		.2byte	0x3c5
 4762 0527 C3000000 		.4byte	0xc3
 4763 052b 4C       		.byte	0x4c
 4764 052c 0F       		.uleb128 0xf
 4765 052d FE060000 		.4byte	.LASF95
 4766 0531 04       		.byte	0x4
 4767 0532 C803     		.2byte	0x3c8
 4768 0534 CE000000 		.4byte	0xce
 4769 0538 4D       		.byte	0x4d
 4770 0539 00       		.byte	0
 4771 053a 02       		.uleb128 0x2
 4772 053b 04       		.byte	0x4
 4773 053c 07       		.byte	0x7
 4774 053d 21080000 		.4byte	.LASF96
 4775 0541 02       		.uleb128 0x2
 4776 0542 01       		.byte	0x1
 4777 0543 08       		.byte	0x8
 4778 0544 75040000 		.4byte	.LASF97
 4779 0548 11       		.uleb128 0x11
ARM GAS  C:\Users\CHRONI~1\AppData\Local\Temp\ccho61l0.s 			page 127


 4780 0549 CC080000 		.4byte	.LASF102
 4781 054d 01       		.byte	0x1
 4782 054e 4403     		.2byte	0x344
 4783 0550 D9000000 		.4byte	0xd9
 4784 0554 00000000 		.4byte	.LFB14
 4785 0558 70000000 		.4byte	.LFE14-.LFB14
 4786 055c 01       		.uleb128 0x1
 4787 055d 9C       		.byte	0x9c
 4788 055e BD050000 		.4byte	0x5bd
 4789 0562 12       		.uleb128 0x12
 4790 0563 08080000 		.4byte	.LASF98
 4791 0567 01       		.byte	0x1
 4792 0568 4403     		.2byte	0x344
 4793 056a FA000000 		.4byte	0xfa
 4794 056e 00000000 		.4byte	.LLST0
 4795 0572 13       		.uleb128 0x13
 4796 0573 64657600 		.ascii	"dev\000"
 4797 0577 01       		.byte	0x1
 4798 0578 4403     		.2byte	0x344
 4799 057a BD050000 		.4byte	0x5bd
 4800 057e 01       		.uleb128 0x1
 4801 057f 51       		.byte	0x51
 4802 0580 14       		.uleb128 0x14
 4803 0581 E3050000 		.4byte	.LASF99
 4804 0585 01       		.byte	0x1
 4805 0586 4603     		.2byte	0x346
 4806 0588 05010000 		.4byte	0x105
 4807 058c 21000000 		.4byte	.LLST1
 4808 0590 15       		.uleb128 0x15
 4809 0591 E8050000 		.4byte	.LASF105
 4810 0595 01       		.byte	0x1
 4811 0596 4703     		.2byte	0x347
 4812 0598 05010000 		.4byte	0x105
 4813 059c 14       		.uleb128 0x14
 4814 059d ED050000 		.4byte	.LASF100
 4815 05a1 01       		.byte	0x1
 4816 05a2 4803     		.2byte	0x348
 4817 05a4 05010000 		.4byte	0x105
 4818 05a8 39000000 		.4byte	.LLST2
 4819 05ac 14       		.uleb128 0x14
 4820 05ad E6090000 		.4byte	.LASF101
 4821 05b1 01       		.byte	0x1
 4822 05b2 4903     		.2byte	0x349
 4823 05b4 D9000000 		.4byte	0xd9
 4824 05b8 51000000 		.4byte	.LLST3
 4825 05bc 00       		.byte	0
 4826 05bd 06       		.uleb128 0x6
 4827 05be 04       		.byte	0x4
 4828 05bf 90040000 		.4byte	0x490
 4829 05c3 11       		.uleb128 0x11
 4830 05c4 D8090000 		.4byte	.LASF103
 4831 05c8 01       		.byte	0x1
 4832 05c9 5803     		.2byte	0x358
 4833 05cb FA000000 		.4byte	0xfa
 4834 05cf 00000000 		.4byte	.LFB15
 4835 05d3 C4000000 		.4byte	.LFE15-.LFB15
 4836 05d7 01       		.uleb128 0x1
ARM GAS  C:\Users\CHRONI~1\AppData\Local\Temp\ccho61l0.s 			page 128


 4837 05d8 9C       		.byte	0x9c
 4838 05d9 4C060000 		.4byte	0x64c
 4839 05dd 12       		.uleb128 0x12
 4840 05de C8060000 		.4byte	.LASF104
 4841 05e2 01       		.byte	0x1
 4842 05e3 5803     		.2byte	0x358
 4843 05e5 FA000000 		.4byte	0xfa
 4844 05e9 85000000 		.4byte	.LLST4
 4845 05ed 13       		.uleb128 0x13
 4846 05ee 64657600 		.ascii	"dev\000"
 4847 05f2 01       		.byte	0x1
 4848 05f3 5803     		.2byte	0x358
 4849 05f5 4C060000 		.4byte	0x64c
 4850 05f9 01       		.uleb128 0x1
 4851 05fa 51       		.byte	0x51
 4852 05fb 14       		.uleb128 0x14
 4853 05fc E3050000 		.4byte	.LASF99
 4854 0600 01       		.byte	0x1
 4855 0601 5A03     		.2byte	0x35a
 4856 0603 EF000000 		.4byte	0xef
 4857 0607 A6000000 		.4byte	.LLST5
 4858 060b 14       		.uleb128 0x14
 4859 060c E8050000 		.4byte	.LASF105
 4860 0610 01       		.byte	0x1
 4861 0611 5B03     		.2byte	0x35b
 4862 0613 EF000000 		.4byte	0xef
 4863 0617 B5010000 		.4byte	.LLST6
 4864 061b 14       		.uleb128 0x14
 4865 061c ED050000 		.4byte	.LASF100
 4866 0620 01       		.byte	0x1
 4867 0621 5C03     		.2byte	0x35c
 4868 0623 EF000000 		.4byte	0xef
 4869 0627 4D020000 		.4byte	.LLST7
 4870 062b 14       		.uleb128 0x14
 4871 062c 85090000 		.4byte	.LASF106
 4872 0630 01       		.byte	0x1
 4873 0631 5D03     		.2byte	0x35d
 4874 0633 EF000000 		.4byte	0xef
 4875 0637 A5020000 		.4byte	.LLST8
 4876 063b 16       		.uleb128 0x16
 4877 063c F0090000 		.4byte	.LASF107
 4878 0640 01       		.byte	0x1
 4879 0641 6403     		.2byte	0x364
 4880 0643 57060000 		.4byte	0x657
 4881 0647 00000040 		.4byte	0x40000000
 4882 064b 00       		.byte	0
 4883 064c 06       		.uleb128 0x6
 4884 064d 04       		.byte	0x4
 4885 064e 52060000 		.4byte	0x652
 4886 0652 0A       		.uleb128 0xa
 4887 0653 90040000 		.4byte	0x490
 4888 0657 0A       		.uleb128 0xa
 4889 0658 EF000000 		.4byte	0xef
 4890 065c 11       		.uleb128 0x11
 4891 065d 30040000 		.4byte	.LASF108
 4892 0661 01       		.byte	0x1
 4893 0662 8603     		.2byte	0x386
ARM GAS  C:\Users\CHRONI~1\AppData\Local\Temp\ccho61l0.s 			page 129


 4894 0664 FA000000 		.4byte	0xfa
 4895 0668 00000000 		.4byte	.LFB16
 4896 066c C4000000 		.4byte	.LFE16-.LFB16
 4897 0670 01       		.uleb128 0x1
 4898 0671 9C       		.byte	0x9c
 4899 0672 15070000 		.4byte	0x715
 4900 0676 12       		.uleb128 0x12
 4901 0677 47020000 		.4byte	.LASF109
 4902 067b 01       		.byte	0x1
 4903 067c 8603     		.2byte	0x386
 4904 067e E4000000 		.4byte	0xe4
 4905 0682 06030000 		.4byte	.LLST9
 4906 0686 13       		.uleb128 0x13
 4907 0687 64657600 		.ascii	"dev\000"
 4908 068b 01       		.byte	0x1
 4909 068c 8603     		.2byte	0x386
 4910 068e 4C060000 		.4byte	0x64c
 4911 0692 01       		.uleb128 0x1
 4912 0693 51       		.byte	0x51
 4913 0694 14       		.uleb128 0x14
 4914 0695 E3050000 		.4byte	.LASF99
 4915 0699 01       		.byte	0x1
 4916 069a 8803     		.2byte	0x388
 4917 069c EF000000 		.4byte	0xef
 4918 06a0 27030000 		.4byte	.LLST10
 4919 06a4 14       		.uleb128 0x14
 4920 06a5 E8050000 		.4byte	.LASF105
 4921 06a9 01       		.byte	0x1
 4922 06aa 8903     		.2byte	0x389
 4923 06ac EF000000 		.4byte	0xef
 4924 06b0 3A030000 		.4byte	.LLST11
 4925 06b4 14       		.uleb128 0x14
 4926 06b5 ED050000 		.4byte	.LASF100
 4927 06b9 01       		.byte	0x1
 4928 06ba 8A03     		.2byte	0x38a
 4929 06bc EF000000 		.4byte	0xef
 4930 06c0 11050000 		.4byte	.LLST12
 4931 06c4 14       		.uleb128 0x14
 4932 06c5 F2050000 		.4byte	.LASF110
 4933 06c9 01       		.byte	0x1
 4934 06ca 8B03     		.2byte	0x38b
 4935 06cc EF000000 		.4byte	0xef
 4936 06d0 24050000 		.4byte	.LLST13
 4937 06d4 14       		.uleb128 0x14
 4938 06d5 F7050000 		.4byte	.LASF111
 4939 06d9 01       		.byte	0x1
 4940 06da 8C03     		.2byte	0x38c
 4941 06dc EF000000 		.4byte	0xef
 4942 06e0 F8050000 		.4byte	.LLST14
 4943 06e4 14       		.uleb128 0x14
 4944 06e5 FC050000 		.4byte	.LASF112
 4945 06e9 01       		.byte	0x1
 4946 06ea 8D03     		.2byte	0x38d
 4947 06ec EF000000 		.4byte	0xef
 4948 06f0 0B060000 		.4byte	.LLST15
 4949 06f4 14       		.uleb128 0x14
 4950 06f5 8C010000 		.4byte	.LASF113
ARM GAS  C:\Users\CHRONI~1\AppData\Local\Temp\ccho61l0.s 			page 130


 4951 06f9 01       		.byte	0x1
 4952 06fa 8E03     		.2byte	0x38e
 4953 06fc EF000000 		.4byte	0xef
 4954 0700 22060000 		.4byte	.LLST16
 4955 0704 14       		.uleb128 0x14
 4956 0705 590A0000 		.4byte	.LASF114
 4957 0709 01       		.byte	0x1
 4958 070a 8F03     		.2byte	0x38f
 4959 070c EF000000 		.4byte	0xef
 4960 0710 4A060000 		.4byte	.LLST17
 4961 0714 00       		.byte	0
 4962 0715 17       		.uleb128 0x17
 4963 0716 F6080000 		.4byte	.LASF115
 4964 071a 01       		.byte	0x1
 4965 071b AE03     		.2byte	0x3ae
 4966 071d FA000000 		.4byte	0xfa
 4967 0721 00000000 		.4byte	.LFB17
 4968 0725 AC000000 		.4byte	.LFE17-.LFB17
 4969 0729 01       		.uleb128 0x1
 4970 072a 9C       		.byte	0x9c
 4971 072b BE070000 		.4byte	0x7be
 4972 072f 12       		.uleb128 0x12
 4973 0730 5F000000 		.4byte	.LASF116
 4974 0734 01       		.byte	0x1
 4975 0735 AE03     		.2byte	0x3ae
 4976 0737 E4000000 		.4byte	0xe4
 4977 073b 68060000 		.4byte	.LLST18
 4978 073f 12       		.uleb128 0x12
 4979 0740 1C010000 		.4byte	.LASF117
 4980 0744 01       		.byte	0x1
 4981 0745 AE03     		.2byte	0x3ae
 4982 0747 CE000000 		.4byte	0xce
 4983 074b 89060000 		.4byte	.LLST19
 4984 074f 18       		.uleb128 0x18
 4985 0750 64657600 		.ascii	"dev\000"
 4986 0754 01       		.byte	0x1
 4987 0755 AE03     		.2byte	0x3ae
 4988 0757 4C060000 		.4byte	0x64c
 4989 075b AA060000 		.4byte	.LLST20
 4990 075f 14       		.uleb128 0x14
 4991 0760 E3050000 		.4byte	.LASF99
 4992 0764 01       		.byte	0x1
 4993 0765 B003     		.2byte	0x3b0
 4994 0767 05010000 		.4byte	0x105
 4995 076b D6060000 		.4byte	.LLST21
 4996 076f 14       		.uleb128 0x14
 4997 0770 E8050000 		.4byte	.LASF105
 4998 0774 01       		.byte	0x1
 4999 0775 B103     		.2byte	0x3b1
 5000 0777 10010000 		.4byte	0x110
 5001 077b EE060000 		.4byte	.LLST22
 5002 077f 14       		.uleb128 0x14
 5003 0780 ED050000 		.4byte	.LASF100
 5004 0784 01       		.byte	0x1
 5005 0785 B203     		.2byte	0x3b2
 5006 0787 05010000 		.4byte	0x105
 5007 078b 06070000 		.4byte	.LLST23
ARM GAS  C:\Users\CHRONI~1\AppData\Local\Temp\ccho61l0.s 			page 131


 5008 078f 19       		.uleb128 0x19
 5009 0790 3A050000 		.4byte	.LASF118
 5010 0794 01       		.byte	0x1
 5011 0795 B303     		.2byte	0x3b3
 5012 0797 FA000000 		.4byte	0xfa
 5013 079b 01       		.uleb128 0x1
 5014 079c 50       		.byte	0x50
 5015 079d 19       		.uleb128 0x19
 5016 079e CC040000 		.4byte	.LASF119
 5017 07a2 01       		.byte	0x1
 5018 07a3 B403     		.2byte	0x3b4
 5019 07a5 BE070000 		.4byte	0x7be
 5020 07a9 03       		.uleb128 0x3
 5021 07aa 91       		.byte	0x91
 5022 07ab A87F     		.sleb128 -88
 5023 07ad 19       		.uleb128 0x19
 5024 07ae DA040000 		.4byte	.LASF120
 5025 07b2 01       		.byte	0x1
 5026 07b3 BA03     		.2byte	0x3ba
 5027 07b5 BE070000 		.4byte	0x7be
 5028 07b9 03       		.uleb128 0x3
 5029 07ba 91       		.byte	0x91
 5030 07bb E87E     		.sleb128 -152
 5031 07bd 00       		.byte	0
 5032 07be 1A       		.uleb128 0x1a
 5033 07bf FA000000 		.4byte	0xfa
 5034 07c3 CE070000 		.4byte	0x7ce
 5035 07c7 1B       		.uleb128 0x1b
 5036 07c8 3A050000 		.4byte	0x53a
 5037 07cc 0F       		.byte	0xf
 5038 07cd 00       		.byte	0
 5039 07ce 11       		.uleb128 0x11
 5040 07cf 47050000 		.4byte	.LASF121
 5041 07d3 01       		.byte	0x1
 5042 07d4 CB03     		.2byte	0x3cb
 5043 07d6 FA000000 		.4byte	0xfa
 5044 07da 00000000 		.4byte	.LFB18
 5045 07de 28000000 		.4byte	.LFE18-.LFB18
 5046 07e2 01       		.uleb128 0x1
 5047 07e3 9C       		.byte	0x9c
 5048 07e4 39080000 		.4byte	0x839
 5049 07e8 12       		.uleb128 0x12
 5050 07e9 5F000000 		.4byte	.LASF116
 5051 07ed 01       		.byte	0x1
 5052 07ee CB03     		.2byte	0x3cb
 5053 07f0 E4000000 		.4byte	0xe4
 5054 07f4 1E070000 		.4byte	.LLST24
 5055 07f8 12       		.uleb128 0x12
 5056 07f9 1C010000 		.4byte	.LASF117
 5057 07fd 01       		.byte	0x1
 5058 07fe CB03     		.2byte	0x3cb
 5059 0800 CE000000 		.4byte	0xce
 5060 0804 3F070000 		.4byte	.LLST25
 5061 0808 14       		.uleb128 0x14
 5062 0809 3A050000 		.4byte	.LASF118
 5063 080d 01       		.byte	0x1
 5064 080e CD03     		.2byte	0x3cd
ARM GAS  C:\Users\CHRONI~1\AppData\Local\Temp\ccho61l0.s 			page 132


 5065 0810 FA000000 		.4byte	0xfa
 5066 0814 60070000 		.4byte	.LLST26
 5067 0818 14       		.uleb128 0x14
 5068 0819 E3050000 		.4byte	.LASF99
 5069 081d 01       		.byte	0x1
 5070 081e CE03     		.2byte	0x3ce
 5071 0820 FA000000 		.4byte	0xfa
 5072 0824 83070000 		.4byte	.LLST27
 5073 0828 14       		.uleb128 0x14
 5074 0829 E8050000 		.4byte	.LASF105
 5075 082d 01       		.byte	0x1
 5076 082e CF03     		.2byte	0x3cf
 5077 0830 EF000000 		.4byte	0xef
 5078 0834 96070000 		.4byte	.LLST28
 5079 0838 00       		.byte	0
 5080 0839 11       		.uleb128 0x11
 5081 083a 08010000 		.4byte	.LASF122
 5082 083e 01       		.byte	0x1
 5083 083f DC03     		.2byte	0x3dc
 5084 0841 CE000000 		.4byte	0xce
 5085 0845 00000000 		.4byte	.LFB19
 5086 0849 B0000000 		.4byte	.LFE19-.LFB19
 5087 084d 01       		.uleb128 0x1
 5088 084e 9C       		.byte	0x9c
 5089 084f E2080000 		.4byte	0x8e2
 5090 0853 12       		.uleb128 0x12
 5091 0854 51000000 		.4byte	.LASF123
 5092 0858 01       		.byte	0x1
 5093 0859 DC03     		.2byte	0x3dc
 5094 085b E4000000 		.4byte	0xe4
 5095 085f A9070000 		.4byte	.LLST29
 5096 0863 18       		.uleb128 0x18
 5097 0864 64657600 		.ascii	"dev\000"
 5098 0868 01       		.byte	0x1
 5099 0869 DC03     		.2byte	0x3dc
 5100 086b 4C060000 		.4byte	0x64c
 5101 086f C7070000 		.4byte	.LLST30
 5102 0873 19       		.uleb128 0x19
 5103 0874 41090000 		.4byte	.LASF124
 5104 0878 01       		.byte	0x1
 5105 0879 DE03     		.2byte	0x3de
 5106 087b CE000000 		.4byte	0xce
 5107 087f 01       		.uleb128 0x1
 5108 0880 50       		.byte	0x50
 5109 0881 14       		.uleb128 0x14
 5110 0882 E3050000 		.4byte	.LASF99
 5111 0886 01       		.byte	0x1
 5112 0887 DF03     		.2byte	0x3df
 5113 0889 EF000000 		.4byte	0xef
 5114 088d E8070000 		.4byte	.LLST31
 5115 0891 14       		.uleb128 0x14
 5116 0892 E8050000 		.4byte	.LASF105
 5117 0896 01       		.byte	0x1
 5118 0897 E003     		.2byte	0x3e0
 5119 0899 EF000000 		.4byte	0xef
 5120 089d 4E080000 		.4byte	.LLST32
 5121 08a1 14       		.uleb128 0x14
ARM GAS  C:\Users\CHRONI~1\AppData\Local\Temp\ccho61l0.s 			page 133


 5122 08a2 ED050000 		.4byte	.LASF100
 5123 08a6 01       		.byte	0x1
 5124 08a7 E103     		.2byte	0x3e1
 5125 08a9 EF000000 		.4byte	0xef
 5126 08ad 71080000 		.4byte	.LLST33
 5127 08b1 14       		.uleb128 0x14
 5128 08b2 F2050000 		.4byte	.LASF110
 5129 08b6 01       		.byte	0x1
 5130 08b7 E203     		.2byte	0x3e2
 5131 08b9 EF000000 		.4byte	0xef
 5132 08bd 84080000 		.4byte	.LLST34
 5133 08c1 14       		.uleb128 0x14
 5134 08c2 F7050000 		.4byte	.LASF111
 5135 08c6 01       		.byte	0x1
 5136 08c7 E303     		.2byte	0x3e3
 5137 08c9 EF000000 		.4byte	0xef
 5138 08cd B1080000 		.4byte	.LLST35
 5139 08d1 14       		.uleb128 0x14
 5140 08d2 BA070000 		.4byte	.LASF125
 5141 08d6 01       		.byte	0x1
 5142 08d7 E403     		.2byte	0x3e4
 5143 08d9 EF000000 		.4byte	0xef
 5144 08dd E3080000 		.4byte	.LLST36
 5145 08e1 00       		.byte	0
 5146 08e2 11       		.uleb128 0x11
 5147 08e3 1F050000 		.4byte	.LASF126
 5148 08e7 01       		.byte	0x1
 5149 08e8 9904     		.2byte	0x499
 5150 08ea CE000000 		.4byte	0xce
 5151 08ee 00000000 		.4byte	.LFB20
 5152 08f2 24000000 		.4byte	.LFE20-.LFB20
 5153 08f6 01       		.uleb128 0x1
 5154 08f7 9C       		.byte	0x9c
 5155 08f8 2D090000 		.4byte	0x92d
 5156 08fc 18       		.uleb128 0x18
 5157 08fd 64757200 		.ascii	"dur\000"
 5158 0901 01       		.byte	0x1
 5159 0902 9904     		.2byte	0x499
 5160 0904 E4000000 		.4byte	0xe4
 5161 0908 39090000 		.4byte	.LLST37
 5162 090c 14       		.uleb128 0x14
 5163 090d FF090000 		.4byte	.LASF127
 5164 0911 01       		.byte	0x1
 5165 0912 9B04     		.2byte	0x49b
 5166 0914 CE000000 		.4byte	0xce
 5167 0918 70090000 		.4byte	.LLST38
 5168 091c 14       		.uleb128 0x14
 5169 091d 8C030000 		.4byte	.LASF128
 5170 0921 01       		.byte	0x1
 5171 0922 9C04     		.2byte	0x49c
 5172 0924 CE000000 		.4byte	0xce
 5173 0928 A6090000 		.4byte	.LLST39
 5174 092c 00       		.byte	0
 5175 092d 11       		.uleb128 0x11
 5176 092e B1040000 		.4byte	.LASF129
 5177 0932 01       		.byte	0x1
 5178 0933 B505     		.2byte	0x5b5
ARM GAS  C:\Users\CHRONI~1\AppData\Local\Temp\ccho61l0.s 			page 134


 5179 0935 C3000000 		.4byte	0xc3
 5180 0939 00000000 		.4byte	.LFB26
 5181 093d 2A000000 		.4byte	.LFE26-.LFB26
 5182 0941 01       		.uleb128 0x1
 5183 0942 9C       		.byte	0x9c
 5184 0943 68090000 		.4byte	0x968
 5185 0947 18       		.uleb128 0x18
 5186 0948 64657600 		.ascii	"dev\000"
 5187 094c 01       		.byte	0x1
 5188 094d B505     		.2byte	0x5b5
 5189 094f 4C060000 		.4byte	0x64c
 5190 0953 C4090000 		.4byte	.LLST40
 5191 0957 14       		.uleb128 0x14
 5192 0958 89070000 		.4byte	.LASF130
 5193 095c 01       		.byte	0x1
 5194 095d B705     		.2byte	0x5b7
 5195 095f C3000000 		.4byte	0xc3
 5196 0963 490A0000 		.4byte	.LLST41
 5197 0967 00       		.byte	0
 5198 0968 11       		.uleb128 0x11
 5199 0969 2D050000 		.4byte	.LASF131
 5200 096d 01       		.byte	0x1
 5201 096e 5805     		.2byte	0x558
 5202 0970 C3000000 		.4byte	0xc3
 5203 0974 00000000 		.4byte	.LFB23
 5204 0978 70000000 		.4byte	.LFE23-.LFB23
 5205 097c 01       		.uleb128 0x1
 5206 097d 9C       		.byte	0x9c
 5207 097e 1E0A0000 		.4byte	0xa1e
 5208 0982 12       		.uleb128 0x12
 5209 0983 5D070000 		.4byte	.LASF132
 5210 0987 01       		.byte	0x1
 5211 0988 5805     		.2byte	0x558
 5212 098a CE000000 		.4byte	0xce
 5213 098e 680A0000 		.4byte	.LLST42
 5214 0992 18       		.uleb128 0x18
 5215 0993 64657600 		.ascii	"dev\000"
 5216 0997 01       		.byte	0x1
 5217 0998 5805     		.2byte	0x558
 5218 099a BD050000 		.4byte	0x5bd
 5219 099e 890A0000 		.4byte	.LLST43
 5220 09a2 14       		.uleb128 0x14
 5221 09a3 89070000 		.4byte	.LASF130
 5222 09a7 01       		.byte	0x1
 5223 09a8 5A05     		.2byte	0x55a
 5224 09aa C3000000 		.4byte	0xc3
 5225 09ae A70A0000 		.4byte	.LLST44
 5226 09b2 1C       		.uleb128 0x1c
 5227 09b3 72656700 		.ascii	"reg\000"
 5228 09b7 01       		.byte	0x1
 5229 09b8 5B05     		.2byte	0x55b
 5230 09ba CE000000 		.4byte	0xce
 5231 09be 02       		.uleb128 0x2
 5232 09bf 91       		.byte	0x91
 5233 09c0 6F       		.sleb128 -17
 5234 09c1 14       		.uleb128 0x14
 5235 09c2 26010000 		.4byte	.LASF88
ARM GAS  C:\Users\CHRONI~1\AppData\Local\Temp\ccho61l0.s 			page 135


 5236 09c6 01       		.byte	0x1
 5237 09c7 5C05     		.2byte	0x55c
 5238 09c9 CE000000 		.4byte	0xce
 5239 09cd C50A0000 		.4byte	.LLST45
 5240 09d1 1D       		.uleb128 0x1d
 5241 09d2 0E000000 		.4byte	.LVL115
 5242 09d6 2D090000 		.4byte	0x92d
 5243 09da E5090000 		.4byte	0x9e5
 5244 09de 1E       		.uleb128 0x1e
 5245 09df 01       		.uleb128 0x1
 5246 09e0 50       		.byte	0x50
 5247 09e1 02       		.uleb128 0x2
 5248 09e2 74       		.byte	0x74
 5249 09e3 00       		.sleb128 0
 5250 09e4 00       		.byte	0
 5251 09e5 1F       		.uleb128 0x1f
 5252 09e6 34000000 		.4byte	.LVL119
 5253 09ea 02       		.uleb128 0x2
 5254 09eb 76       		.byte	0x76
 5255 09ec 00       		.sleb128 0
 5256 09ed 030A0000 		.4byte	0xa03
 5257 09f1 1E       		.uleb128 0x1e
 5258 09f2 01       		.uleb128 0x1
 5259 09f3 50       		.byte	0x50
 5260 09f4 02       		.uleb128 0x2
 5261 09f5 09       		.byte	0x9
 5262 09f6 F3       		.byte	0xf3
 5263 09f7 1E       		.uleb128 0x1e
 5264 09f8 01       		.uleb128 0x1
 5265 09f9 51       		.byte	0x51
 5266 09fa 02       		.uleb128 0x2
 5267 09fb 91       		.byte	0x91
 5268 09fc 6F       		.sleb128 -17
 5269 09fd 1E       		.uleb128 0x1e
 5270 09fe 01       		.uleb128 0x1
 5271 09ff 52       		.byte	0x52
 5272 0a00 01       		.uleb128 0x1
 5273 0a01 31       		.byte	0x31
 5274 0a02 00       		.byte	0
 5275 0a03 20       		.uleb128 0x20
 5276 0a04 60000000 		.4byte	.LVL121
 5277 0a08 02       		.uleb128 0x2
 5278 0a09 76       		.byte	0x76
 5279 0a0a 00       		.sleb128 0
 5280 0a0b 1E       		.uleb128 0x1e
 5281 0a0c 01       		.uleb128 0x1
 5282 0a0d 50       		.byte	0x50
 5283 0a0e 02       		.uleb128 0x2
 5284 0a0f 08       		.byte	0x8
 5285 0a10 73       		.byte	0x73
 5286 0a11 1E       		.uleb128 0x1e
 5287 0a12 01       		.uleb128 0x1
 5288 0a13 51       		.byte	0x51
 5289 0a14 02       		.uleb128 0x2
 5290 0a15 91       		.byte	0x91
 5291 0a16 6F       		.sleb128 -17
 5292 0a17 1E       		.uleb128 0x1e
ARM GAS  C:\Users\CHRONI~1\AppData\Local\Temp\ccho61l0.s 			page 136


 5293 0a18 01       		.uleb128 0x1
 5294 0a19 52       		.byte	0x52
 5295 0a1a 01       		.uleb128 0x1
 5296 0a1b 31       		.byte	0x31
 5297 0a1c 00       		.byte	0
 5298 0a1d 00       		.byte	0
 5299 0a1e 11       		.uleb128 0x11
 5300 0a1f 46030000 		.4byte	.LASF133
 5301 0a23 01       		.byte	0x1
 5302 0a24 8505     		.2byte	0x585
 5303 0a26 C3000000 		.4byte	0xc3
 5304 0a2a 00000000 		.4byte	.LFB24
 5305 0a2e 38000000 		.4byte	.LFE24-.LFB24
 5306 0a32 01       		.uleb128 0x1
 5307 0a33 9C       		.byte	0x9c
 5308 0a34 960A0000 		.4byte	0xa96
 5309 0a38 18       		.uleb128 0x18
 5310 0a39 64657600 		.ascii	"dev\000"
 5311 0a3d 01       		.byte	0x1
 5312 0a3e 8505     		.2byte	0x585
 5313 0a40 BD050000 		.4byte	0x5bd
 5314 0a44 E40A0000 		.4byte	.LLST46
 5315 0a48 14       		.uleb128 0x14
 5316 0a49 89070000 		.4byte	.LASF130
 5317 0a4d 01       		.byte	0x1
 5318 0a4e 8705     		.2byte	0x587
 5319 0a50 C3000000 		.4byte	0xc3
 5320 0a54 020B0000 		.4byte	.LLST47
 5321 0a58 1C       		.uleb128 0x1c
 5322 0a59 72656700 		.ascii	"reg\000"
 5323 0a5d 01       		.byte	0x1
 5324 0a5e 8805     		.2byte	0x588
 5325 0a60 CE000000 		.4byte	0xce
 5326 0a64 02       		.uleb128 0x2
 5327 0a65 91       		.byte	0x91
 5328 0a66 6F       		.sleb128 -17
 5329 0a67 1D       		.uleb128 0x1d
 5330 0a68 0A000000 		.4byte	.LVL124
 5331 0a6c 2D090000 		.4byte	0x92d
 5332 0a70 7B0A0000 		.4byte	0xa7b
 5333 0a74 1E       		.uleb128 0x1e
 5334 0a75 01       		.uleb128 0x1
 5335 0a76 50       		.byte	0x50
 5336 0a77 02       		.uleb128 0x2
 5337 0a78 74       		.byte	0x74
 5338 0a79 00       		.sleb128 0
 5339 0a7a 00       		.byte	0
 5340 0a7b 20       		.uleb128 0x20
 5341 0a7c 1C000000 		.4byte	.LVL126
 5342 0a80 02       		.uleb128 0x2
 5343 0a81 76       		.byte	0x76
 5344 0a82 00       		.sleb128 0
 5345 0a83 1E       		.uleb128 0x1e
 5346 0a84 01       		.uleb128 0x1
 5347 0a85 50       		.byte	0x50
 5348 0a86 02       		.uleb128 0x2
 5349 0a87 09       		.byte	0x9
ARM GAS  C:\Users\CHRONI~1\AppData\Local\Temp\ccho61l0.s 			page 137


 5350 0a88 F3       		.byte	0xf3
 5351 0a89 1E       		.uleb128 0x1e
 5352 0a8a 01       		.uleb128 0x1
 5353 0a8b 51       		.byte	0x51
 5354 0a8c 02       		.uleb128 0x2
 5355 0a8d 91       		.byte	0x91
 5356 0a8e 6F       		.sleb128 -17
 5357 0a8f 1E       		.uleb128 0x1e
 5358 0a90 01       		.uleb128 0x1
 5359 0a91 52       		.byte	0x52
 5360 0a92 01       		.uleb128 0x1
 5361 0a93 31       		.byte	0x31
 5362 0a94 00       		.byte	0
 5363 0a95 00       		.byte	0
 5364 0a96 11       		.uleb128 0x11
 5365 0a97 AB050000 		.4byte	.LASF134
 5366 0a9b 01       		.byte	0x1
 5367 0a9c 9D05     		.2byte	0x59d
 5368 0a9e C3000000 		.4byte	0xc3
 5369 0aa2 00000000 		.4byte	.LFB25
 5370 0aa6 34000000 		.4byte	.LFE25-.LFB25
 5371 0aaa 01       		.uleb128 0x1
 5372 0aab 9C       		.byte	0x9c
 5373 0aac 010B0000 		.4byte	0xb01
 5374 0ab0 12       		.uleb128 0x12
 5375 0ab1 B2020000 		.4byte	.LASF135
 5376 0ab5 01       		.byte	0x1
 5377 0ab6 9D05     		.2byte	0x59d
 5378 0ab8 52010000 		.4byte	0x152
 5379 0abc 200B0000 		.4byte	.LLST48
 5380 0ac0 18       		.uleb128 0x18
 5381 0ac1 6D617800 		.ascii	"max\000"
 5382 0ac5 01       		.byte	0x1
 5383 0ac6 9D05     		.2byte	0x59d
 5384 0ac8 CE000000 		.4byte	0xce
 5385 0acc 3E0B0000 		.4byte	.LLST49
 5386 0ad0 18       		.uleb128 0x18
 5387 0ad1 64657600 		.ascii	"dev\000"
 5388 0ad5 01       		.byte	0x1
 5389 0ad6 9D05     		.2byte	0x59d
 5390 0ad8 BD050000 		.4byte	0x5bd
 5391 0adc 5F0B0000 		.4byte	.LLST50
 5392 0ae0 14       		.uleb128 0x14
 5393 0ae1 89070000 		.4byte	.LASF130
 5394 0ae5 01       		.byte	0x1
 5395 0ae6 9F05     		.2byte	0x59f
 5396 0ae8 C3000000 		.4byte	0xc3
 5397 0aec 7D0B0000 		.4byte	.LLST51
 5398 0af0 21       		.uleb128 0x21
 5399 0af1 0E000000 		.4byte	.LVL130
 5400 0af5 2D090000 		.4byte	0x92d
 5401 0af9 1E       		.uleb128 0x1e
 5402 0afa 01       		.uleb128 0x1
 5403 0afb 50       		.byte	0x50
 5404 0afc 02       		.uleb128 0x2
 5405 0afd 75       		.byte	0x75
 5406 0afe 00       		.sleb128 0
ARM GAS  C:\Users\CHRONI~1\AppData\Local\Temp\ccho61l0.s 			page 138


 5407 0aff 00       		.byte	0
 5408 0b00 00       		.byte	0
 5409 0b01 11       		.uleb128 0x11
 5410 0b02 8A000000 		.4byte	.LASF136
 5411 0b06 01       		.byte	0x1
 5412 0b07 1B06     		.2byte	0x61b
 5413 0b09 CE000000 		.4byte	0xce
 5414 0b0d 00000000 		.4byte	.LFB28
 5415 0b11 44000000 		.4byte	.LFE28-.LFB28
 5416 0b15 01       		.uleb128 0x1
 5417 0b16 9C       		.byte	0x9c
 5418 0b17 4C0B0000 		.4byte	0xb4c
 5419 0b1b 18       		.uleb128 0x18
 5420 0b1c 64757200 		.ascii	"dur\000"
 5421 0b20 01       		.byte	0x1
 5422 0b21 1B06     		.2byte	0x61b
 5423 0b23 E4000000 		.4byte	0xe4
 5424 0b27 9B0B0000 		.4byte	.LLST52
 5425 0b2b 14       		.uleb128 0x14
 5426 0b2c FF090000 		.4byte	.LASF127
 5427 0b30 01       		.byte	0x1
 5428 0b31 1D06     		.2byte	0x61d
 5429 0b33 CE000000 		.4byte	0xce
 5430 0b37 E00B0000 		.4byte	.LLST53
 5431 0b3b 14       		.uleb128 0x14
 5432 0b3c A5060000 		.4byte	.LASF137
 5433 0b40 01       		.byte	0x1
 5434 0b41 1E06     		.2byte	0x61e
 5435 0b43 CE000000 		.4byte	0xce
 5436 0b47 160C0000 		.4byte	.LLST54
 5437 0b4b 00       		.byte	0
 5438 0b4c 22       		.uleb128 0x22
 5439 0b4d DA070000 		.4byte	.LASF141
 5440 0b51 01       		.byte	0x1
 5441 0b52 B006     		.2byte	0x6b0
 5442 0b54 00000000 		.4byte	.LFB30
 5443 0b58 16000000 		.4byte	.LFE30-.LFB30
 5444 0b5c 01       		.uleb128 0x1
 5445 0b5d 9C       		.byte	0x9c
 5446 0b5e 9B0B0000 		.4byte	0xb9b
 5447 0b62 23       		.uleb128 0x23
 5448 0b63 48040000 		.4byte	.LASF138
 5449 0b67 01       		.byte	0x1
 5450 0b68 B006     		.2byte	0x6b0
 5451 0b6a CE000000 		.4byte	0xce
 5452 0b6e 01       		.uleb128 0x1
 5453 0b6f 50       		.byte	0x50
 5454 0b70 23       		.uleb128 0x23
 5455 0b71 4F040000 		.4byte	.LASF139
 5456 0b75 01       		.byte	0x1
 5457 0b76 B006     		.2byte	0x6b0
 5458 0b78 CE000000 		.4byte	0xce
 5459 0b7c 01       		.uleb128 0x1
 5460 0b7d 51       		.byte	0x51
 5461 0b7e 23       		.uleb128 0x23
 5462 0b7f A4010000 		.4byte	.LASF140
 5463 0b83 01       		.byte	0x1
ARM GAS  C:\Users\CHRONI~1\AppData\Local\Temp\ccho61l0.s 			page 139


 5464 0b84 B006     		.2byte	0x6b0
 5465 0b86 9B0B0000 		.4byte	0xb9b
 5466 0b8a 01       		.uleb128 0x1
 5467 0b8b 52       		.byte	0x52
 5468 0b8c 19       		.uleb128 0x19
 5469 0b8d 51000000 		.4byte	.LASF123
 5470 0b91 01       		.byte	0x1
 5471 0b92 B206     		.2byte	0x6b2
 5472 0b94 A10B0000 		.4byte	0xba1
 5473 0b98 01       		.uleb128 0x1
 5474 0b99 53       		.byte	0x53
 5475 0b9a 00       		.byte	0
 5476 0b9b 06       		.uleb128 0x6
 5477 0b9c 04       		.byte	0x4
 5478 0b9d A10B0000 		.4byte	0xba1
 5479 0ba1 06       		.uleb128 0x6
 5480 0ba2 04       		.byte	0x4
 5481 0ba3 D5010000 		.4byte	0x1d5
 5482 0ba7 22       		.uleb128 0x22
 5483 0ba8 43060000 		.4byte	.LASF142
 5484 0bac 01       		.byte	0x1
 5485 0bad 3506     		.2byte	0x635
 5486 0baf 00000000 		.4byte	.LFB29
 5487 0bb3 44000000 		.4byte	.LFE29-.LFB29
 5488 0bb7 01       		.uleb128 0x1
 5489 0bb8 9C       		.byte	0x9c
 5490 0bb9 410C0000 		.4byte	0xc41
 5491 0bbd 12       		.uleb128 0x12
 5492 0bbe 0E050000 		.4byte	.LASF143
 5493 0bc2 01       		.byte	0x1
 5494 0bc3 3506     		.2byte	0x635
 5495 0bc5 CE000000 		.4byte	0xce
 5496 0bc9 340C0000 		.4byte	.LLST55
 5497 0bcd 12       		.uleb128 0x12
 5498 0bce 3F010000 		.4byte	.LASF144
 5499 0bd2 01       		.byte	0x1
 5500 0bd3 3506     		.2byte	0x635
 5501 0bd5 CE000000 		.4byte	0xce
 5502 0bd9 6E0C0000 		.4byte	.LLST56
 5503 0bdd 12       		.uleb128 0x12
 5504 0bde A4010000 		.4byte	.LASF140
 5505 0be2 01       		.byte	0x1
 5506 0be3 3506     		.2byte	0x635
 5507 0be5 9B0B0000 		.4byte	0xb9b
 5508 0be9 A80C0000 		.4byte	.LLST57
 5509 0bed 19       		.uleb128 0x19
 5510 0bee 93030000 		.4byte	.LASF145
 5511 0bf2 01       		.byte	0x1
 5512 0bf3 3706     		.2byte	0x637
 5513 0bf5 D9000000 		.4byte	0xd9
 5514 0bf9 06       		.uleb128 0x6
 5515 0bfa 76       		.byte	0x76
 5516 0bfb 00       		.sleb128 0
 5517 0bfc 08       		.byte	0x8
 5518 0bfd FF       		.byte	0xff
 5519 0bfe 1A       		.byte	0x1a
 5520 0bff 9F       		.byte	0x9f
ARM GAS  C:\Users\CHRONI~1\AppData\Local\Temp\ccho61l0.s 			page 140


 5521 0c00 14       		.uleb128 0x14
 5522 0c01 9F030000 		.4byte	.LASF146
 5523 0c05 01       		.byte	0x1
 5524 0c06 3806     		.2byte	0x638
 5525 0c08 D9000000 		.4byte	0xd9
 5526 0c0c E20C0000 		.4byte	.LLST58
 5527 0c10 24       		.uleb128 0x24
 5528 0c11 1E000000 		.4byte	.LBB2
 5529 0c15 18000000 		.4byte	.LBE2-.LBB2
 5530 0c19 370C0000 		.4byte	0xc37
 5531 0c1d 14       		.uleb128 0x14
 5532 0c1e 8E070000 		.4byte	.LASF147
 5533 0c22 01       		.byte	0x1
 5534 0c23 3E06     		.2byte	0x63e
 5535 0c25 D9000000 		.4byte	0xd9
 5536 0c29 360D0000 		.4byte	.LLST59
 5537 0c2d 25       		.uleb128 0x25
 5538 0c2e 34000000 		.4byte	.LVL154
 5539 0c32 4C0B0000 		.4byte	0xb4c
 5540 0c36 00       		.byte	0
 5541 0c37 25       		.uleb128 0x25
 5542 0c38 42000000 		.4byte	.LVL156
 5543 0c3c 4C0B0000 		.4byte	0xb4c
 5544 0c40 00       		.byte	0
 5545 0c41 11       		.uleb128 0x11
 5546 0c42 49070000 		.4byte	.LASF148
 5547 0c46 01       		.byte	0x1
 5548 0c47 BA06     		.2byte	0x6ba
 5549 0c49 C3000000 		.4byte	0xc3
 5550 0c4d 00000000 		.4byte	.LFB31
 5551 0c51 8A000000 		.4byte	.LFE31-.LFB31
 5552 0c55 01       		.uleb128 0x1
 5553 0c56 9C       		.byte	0x9c
 5554 0c57 B80C0000 		.4byte	0xcb8
 5555 0c5b 12       		.uleb128 0x12
 5556 0c5c C7040000 		.4byte	.LASF149
 5557 0c60 01       		.byte	0x1
 5558 0c61 BA06     		.2byte	0x6ba
 5559 0c63 B80C0000 		.4byte	0xcb8
 5560 0c67 490D0000 		.4byte	.LLST60
 5561 0c6b 23       		.uleb128 0x23
 5562 0c6c F7040000 		.4byte	.LASF150
 5563 0c70 01       		.byte	0x1
 5564 0c71 BA06     		.2byte	0x6ba
 5565 0c73 CE000000 		.4byte	0xce
 5566 0c77 01       		.uleb128 0x1
 5567 0c78 51       		.byte	0x51
 5568 0c79 14       		.uleb128 0x14
 5569 0c7a 89070000 		.4byte	.LASF130
 5570 0c7e 01       		.byte	0x1
 5571 0c7f BC06     		.2byte	0x6bc
 5572 0c81 C3000000 		.4byte	0xc3
 5573 0c85 830D0000 		.4byte	.LLST61
 5574 0c89 14       		.uleb128 0x14
 5575 0c8a B8030000 		.4byte	.LASF151
 5576 0c8e 01       		.byte	0x1
 5577 0c8f BD06     		.2byte	0x6bd
ARM GAS  C:\Users\CHRONI~1\AppData\Local\Temp\ccho61l0.s 			page 141


 5578 0c91 CE000000 		.4byte	0xce
 5579 0c95 A20D0000 		.4byte	.LLST62
 5580 0c99 26       		.uleb128 0x26
 5581 0c9a 6900     		.ascii	"i\000"
 5582 0c9c 01       		.byte	0x1
 5583 0c9d BD06     		.2byte	0x6bd
 5584 0c9f CE000000 		.4byte	0xce
 5585 0ca3 ED0D0000 		.4byte	.LLST63
 5586 0ca7 14       		.uleb128 0x14
 5587 0ca8 1A070000 		.4byte	.LASF152
 5588 0cac 01       		.byte	0x1
 5589 0cad BE06     		.2byte	0x6be
 5590 0caf FA000000 		.4byte	0xfa
 5591 0cb3 160E0000 		.4byte	.LLST64
 5592 0cb7 00       		.byte	0
 5593 0cb8 06       		.uleb128 0x6
 5594 0cb9 04       		.byte	0x4
 5595 0cba BE0C0000 		.4byte	0xcbe
 5596 0cbe 0A       		.uleb128 0xa
 5597 0cbf D5010000 		.4byte	0x1d5
 5598 0cc3 27       		.uleb128 0x27
 5599 0cc4 7A000000 		.4byte	.LASF167
 5600 0cc8 01       		.byte	0x1
 5601 0cc9 B2       		.byte	0xb2
 5602 0cca C3000000 		.4byte	0xc3
 5603 0cce 00000000 		.4byte	.LFB2
 5604 0cd2 CA000000 		.4byte	.LFE2-.LFB2
 5605 0cd6 01       		.uleb128 0x1
 5606 0cd7 9C       		.byte	0x9c
 5607 0cd8 860D0000 		.4byte	0xd86
 5608 0cdc 28       		.uleb128 0x28
 5609 0cdd 5D070000 		.4byte	.LASF132
 5610 0ce1 01       		.byte	0x1
 5611 0ce2 B2       		.byte	0xb2
 5612 0ce3 8A010000 		.4byte	0x18a
 5613 0ce7 4C0E0000 		.4byte	.LLST65
 5614 0ceb 28       		.uleb128 0x28
 5615 0cec 09020000 		.4byte	.LASF153
 5616 0cf0 01       		.byte	0x1
 5617 0cf1 B2       		.byte	0xb2
 5618 0cf2 8A010000 		.4byte	0x18a
 5619 0cf6 6A0E0000 		.4byte	.LLST66
 5620 0cfa 29       		.uleb128 0x29
 5621 0cfb 6C656E00 		.ascii	"len\000"
 5622 0cff 01       		.byte	0x1
 5623 0d00 B2       		.byte	0xb2
 5624 0d01 FA000000 		.4byte	0xfa
 5625 0d05 880E0000 		.4byte	.LLST67
 5626 0d09 29       		.uleb128 0x29
 5627 0d0a 64657600 		.ascii	"dev\000"
 5628 0d0e 01       		.byte	0x1
 5629 0d0f B2       		.byte	0xb2
 5630 0d10 BD050000 		.4byte	0x5bd
 5631 0d14 A60E0000 		.4byte	.LLST68
 5632 0d18 2A       		.uleb128 0x2a
 5633 0d19 89070000 		.4byte	.LASF130
 5634 0d1d 01       		.byte	0x1
ARM GAS  C:\Users\CHRONI~1\AppData\Local\Temp\ccho61l0.s 			page 142


 5635 0d1e B4       		.byte	0xb4
 5636 0d1f C3000000 		.4byte	0xc3
 5637 0d23 C40E0000 		.4byte	.LLST69
 5638 0d27 2B       		.uleb128 0x2b
 5639 0d28 6C080000 		.4byte	.LASF154
 5640 0d2c 01       		.byte	0x1
 5641 0d2d B7       		.byte	0xb7
 5642 0d2e 860D0000 		.4byte	0xd86
 5643 0d32 02       		.uleb128 0x2
 5644 0d33 91       		.byte	0x91
 5645 0d34 4C       		.sleb128 -52
 5646 0d35 2A       		.uleb128 0x2a
 5647 0d36 B7010000 		.4byte	.LASF155
 5648 0d3a 01       		.byte	0x1
 5649 0d3b B8       		.byte	0xb8
 5650 0d3c E4000000 		.4byte	0xe4
 5651 0d40 0E0F0000 		.4byte	.LLST70
 5652 0d44 1D       		.uleb128 0x1d
 5653 0d45 20000000 		.4byte	.LVL182
 5654 0d49 2D090000 		.4byte	0x92d
 5655 0d4d 580D0000 		.4byte	0xd58
 5656 0d51 1E       		.uleb128 0x1e
 5657 0d52 01       		.uleb128 0x1
 5658 0d53 50       		.byte	0x50
 5659 0d54 02       		.uleb128 0x2
 5660 0d55 75       		.byte	0x75
 5661 0d56 00       		.sleb128 0
 5662 0d57 00       		.byte	0
 5663 0d58 1D       		.uleb128 0x1d
 5664 0d59 4A000000 		.4byte	.LVL184
 5665 0d5d 68090000 		.4byte	0x968
 5666 0d61 6C0D0000 		.4byte	0xd6c
 5667 0d65 1E       		.uleb128 0x1e
 5668 0d66 01       		.uleb128 0x1
 5669 0d67 51       		.byte	0x51
 5670 0d68 02       		.uleb128 0x2
 5671 0d69 75       		.byte	0x75
 5672 0d6a 00       		.sleb128 0
 5673 0d6b 00       		.byte	0
 5674 0d6c 20       		.uleb128 0x20
 5675 0d6d A4000000 		.4byte	.LVL191
 5676 0d71 02       		.uleb128 0x2
 5677 0d72 74       		.byte	0x74
 5678 0d73 00       		.sleb128 0
 5679 0d74 1E       		.uleb128 0x1e
 5680 0d75 01       		.uleb128 0x1
 5681 0d76 51       		.byte	0x51
 5682 0d77 02       		.uleb128 0x2
 5683 0d78 91       		.byte	0x91
 5684 0d79 4D       		.sleb128 -51
 5685 0d7a 1E       		.uleb128 0x1e
 5686 0d7b 01       		.uleb128 0x1
 5687 0d7c 52       		.byte	0x52
 5688 0d7d 06       		.uleb128 0x6
 5689 0d7e 77       		.byte	0x77
 5690 0d7f 00       		.sleb128 0
 5691 0d80 31       		.byte	0x31
ARM GAS  C:\Users\CHRONI~1\AppData\Local\Temp\ccho61l0.s 			page 143


 5692 0d81 24       		.byte	0x24
 5693 0d82 31       		.byte	0x31
 5694 0d83 1C       		.byte	0x1c
 5695 0d84 00       		.byte	0
 5696 0d85 00       		.byte	0
 5697 0d86 1A       		.uleb128 0x1a
 5698 0d87 CE000000 		.4byte	0xce
 5699 0d8b 960D0000 		.4byte	0xd96
 5700 0d8f 1B       		.uleb128 0x1b
 5701 0d90 3A050000 		.4byte	0x53a
 5702 0d94 13       		.byte	0x13
 5703 0d95 00       		.byte	0
 5704 0d96 11       		.uleb128 0x11
 5705 0d97 55080000 		.4byte	.LASF156
 5706 0d9b 01       		.byte	0x1
 5707 0d9c C305     		.2byte	0x5c3
 5708 0d9e C3000000 		.4byte	0xc3
 5709 0da2 00000000 		.4byte	.LFB27
 5710 0da6 A2010000 		.4byte	.LFE27-.LFB27
 5711 0daa 01       		.uleb128 0x1
 5712 0dab 9C       		.byte	0x9c
 5713 0dac 400F0000 		.4byte	0xf40
 5714 0db0 12       		.uleb128 0x12
 5715 0db1 34000000 		.4byte	.LASF157
 5716 0db5 01       		.byte	0x1
 5717 0db6 C305     		.2byte	0x5c3
 5718 0db8 400F0000 		.4byte	0xf40
 5719 0dbc 370F0000 		.4byte	.LLST71
 5720 0dc0 12       		.uleb128 0x12
 5721 0dc1 C0060000 		.4byte	.LASF158
 5722 0dc5 01       		.byte	0x1
 5723 0dc6 C305     		.2byte	0x5c3
 5724 0dc8 CE000000 		.4byte	0xce
 5725 0dcc 970F0000 		.4byte	.LLST72
 5726 0dd0 12       		.uleb128 0x12
 5727 0dd1 6A060000 		.4byte	.LASF159
 5728 0dd5 01       		.byte	0x1
 5729 0dd6 C305     		.2byte	0x5c3
 5730 0dd8 52010000 		.4byte	0x152
 5731 0ddc 03100000 		.4byte	.LLST73
 5732 0de0 18       		.uleb128 0x18
 5733 0de1 64657600 		.ascii	"dev\000"
 5734 0de5 01       		.byte	0x1
 5735 0de6 C305     		.2byte	0x5c3
 5736 0de8 BD050000 		.4byte	0x5bd
 5737 0dec 63100000 		.4byte	.LLST74
 5738 0df0 14       		.uleb128 0x14
 5739 0df1 89070000 		.4byte	.LASF130
 5740 0df5 01       		.byte	0x1
 5741 0df6 C505     		.2byte	0x5c5
 5742 0df8 C3000000 		.4byte	0xc3
 5743 0dfc 81100000 		.4byte	.LLST75
 5744 0e00 26       		.uleb128 0x26
 5745 0e01 6900     		.ascii	"i\000"
 5746 0e03 01       		.byte	0x1
 5747 0e04 C605     		.2byte	0x5c6
 5748 0e06 CE000000 		.4byte	0xce
ARM GAS  C:\Users\CHRONI~1\AppData\Local\Temp\ccho61l0.s 			page 144


 5749 0e0a B7100000 		.4byte	.LLST76
 5750 0e0e 19       		.uleb128 0x19
 5751 0e0f 0F070000 		.4byte	.LASF160
 5752 0e13 01       		.byte	0x1
 5753 0e14 C705     		.2byte	0x5c7
 5754 0e16 CE000000 		.4byte	0xce
 5755 0e1a 02       		.uleb128 0x2
 5756 0e1b 91       		.byte	0x91
 5757 0e1c 5F       		.sleb128 -33
 5758 0e1d 14       		.uleb128 0x14
 5759 0e1e C6050000 		.4byte	.LASF161
 5760 0e22 01       		.byte	0x1
 5761 0e23 C805     		.2byte	0x5c8
 5762 0e25 CE000000 		.4byte	0xce
 5763 0e29 F7100000 		.4byte	.LLST77
 5764 0e2d 19       		.uleb128 0x19
 5765 0e2e D1060000 		.4byte	.LASF162
 5766 0e32 01       		.byte	0x1
 5767 0e33 C905     		.2byte	0x5c9
 5768 0e35 CE000000 		.4byte	0xce
 5769 0e39 02       		.uleb128 0x2
 5770 0e3a 91       		.byte	0x91
 5771 0e3b 5E       		.sleb128 -34
 5772 0e3c 19       		.uleb128 0x19
 5773 0e3d 98010000 		.4byte	.LASF163
 5774 0e41 01       		.byte	0x1
 5775 0e42 CA05     		.2byte	0x5ca
 5776 0e44 4B0F0000 		.4byte	0xf4b
 5777 0e48 02       		.uleb128 0x2
 5778 0e49 91       		.byte	0x91
 5779 0e4a 54       		.sleb128 -44
 5780 0e4b 19       		.uleb128 0x19
 5781 0e4c 3C080000 		.4byte	.LASF164
 5782 0e50 01       		.byte	0x1
 5783 0e51 CB05     		.2byte	0x5cb
 5784 0e53 4B0F0000 		.4byte	0xf4b
 5785 0e57 02       		.uleb128 0x2
 5786 0e58 91       		.byte	0x91
 5787 0e59 48       		.sleb128 -56
 5788 0e5a 19       		.uleb128 0x19
 5789 0e5b 9A070000 		.4byte	.LASF165
 5790 0e5f 01       		.byte	0x1
 5791 0e60 CC05     		.2byte	0x5cc
 5792 0e62 4B0F0000 		.4byte	0xf4b
 5793 0e66 03       		.uleb128 0x3
 5794 0e67 91       		.byte	0x91
 5795 0e68 BC7F     		.sleb128 -68
 5796 0e6a 19       		.uleb128 0x19
 5797 0e6b 5F020000 		.4byte	.LASF166
 5798 0e6f 01       		.byte	0x1
 5799 0e70 CD05     		.2byte	0x5cd
 5800 0e72 4B0F0000 		.4byte	0xf4b
 5801 0e76 03       		.uleb128 0x3
 5802 0e77 91       		.byte	0x91
 5803 0e78 B07F     		.sleb128 -80
 5804 0e7a 1D       		.uleb128 0x1d
 5805 0e7b 50000000 		.4byte	.LVL200
ARM GAS  C:\Users\CHRONI~1\AppData\Local\Temp\ccho61l0.s 			page 145


 5806 0e7f 39080000 		.4byte	0x839
 5807 0e83 8E0E0000 		.4byte	0xe8e
 5808 0e87 1E       		.uleb128 0x1e
 5809 0e88 01       		.uleb128 0x1
 5810 0e89 51       		.byte	0x51
 5811 0e8a 02       		.uleb128 0x2
 5812 0e8b 77       		.byte	0x77
 5813 0e8c 00       		.sleb128 0
 5814 0e8d 00       		.byte	0
 5815 0e8e 25       		.uleb128 0x25
 5816 0e8f 60000000 		.4byte	.LVL201
 5817 0e93 E2080000 		.4byte	0x8e2
 5818 0e97 1D       		.uleb128 0x1d
 5819 0e98 9C000000 		.4byte	.LVL205
 5820 0e9c 39080000 		.4byte	0x839
 5821 0ea0 AB0E0000 		.4byte	0xeab
 5822 0ea4 1E       		.uleb128 0x1e
 5823 0ea5 01       		.uleb128 0x1
 5824 0ea6 51       		.byte	0x51
 5825 0ea7 02       		.uleb128 0x2
 5826 0ea8 77       		.byte	0x77
 5827 0ea9 00       		.sleb128 0
 5828 0eaa 00       		.byte	0
 5829 0eab 25       		.uleb128 0x25
 5830 0eac B0000000 		.4byte	.LVL206
 5831 0eb0 E2080000 		.4byte	0x8e2
 5832 0eb4 1D       		.uleb128 0x1d
 5833 0eb5 04010000 		.4byte	.LVL213
 5834 0eb9 39080000 		.4byte	0x839
 5835 0ebd C80E0000 		.4byte	0xec8
 5836 0ec1 1E       		.uleb128 0x1e
 5837 0ec2 01       		.uleb128 0x1
 5838 0ec3 51       		.byte	0x51
 5839 0ec4 02       		.uleb128 0x2
 5840 0ec5 77       		.byte	0x77
 5841 0ec6 00       		.sleb128 0
 5842 0ec7 00       		.byte	0
 5843 0ec8 25       		.uleb128 0x25
 5844 0ec9 2E010000 		.4byte	.LVL217
 5845 0ecd 010B0000 		.4byte	0xb01
 5846 0ed1 1D       		.uleb128 0x1d
 5847 0ed2 48010000 		.4byte	.LVL218
 5848 0ed6 C30C0000 		.4byte	0xcc3
 5849 0eda F60E0000 		.4byte	0xef6
 5850 0ede 1E       		.uleb128 0x1e
 5851 0edf 01       		.uleb128 0x1
 5852 0ee0 50       		.byte	0x50
 5853 0ee1 02       		.uleb128 0x2
 5854 0ee2 91       		.byte	0x91
 5855 0ee3 5E       		.sleb128 -34
 5856 0ee4 1E       		.uleb128 0x1e
 5857 0ee5 01       		.uleb128 0x1
 5858 0ee6 51       		.byte	0x51
 5859 0ee7 02       		.uleb128 0x2
 5860 0ee8 91       		.byte	0x91
 5861 0ee9 5F       		.sleb128 -33
 5862 0eea 1E       		.uleb128 0x1e
ARM GAS  C:\Users\CHRONI~1\AppData\Local\Temp\ccho61l0.s 			page 146


 5863 0eeb 01       		.uleb128 0x1
 5864 0eec 52       		.byte	0x52
 5865 0eed 01       		.uleb128 0x1
 5866 0eee 31       		.byte	0x31
 5867 0eef 1E       		.uleb128 0x1e
 5868 0ef0 01       		.uleb128 0x1
 5869 0ef1 53       		.byte	0x53
 5870 0ef2 02       		.uleb128 0x2
 5871 0ef3 77       		.byte	0x77
 5872 0ef4 00       		.sleb128 0
 5873 0ef5 00       		.byte	0
 5874 0ef6 1D       		.uleb128 0x1d
 5875 0ef7 84010000 		.4byte	.LVL222
 5876 0efb C30C0000 		.4byte	0xcc3
 5877 0eff 1C0F0000 		.4byte	0xf1c
 5878 0f03 1E       		.uleb128 0x1e
 5879 0f04 01       		.uleb128 0x1
 5880 0f05 50       		.byte	0x50
 5881 0f06 02       		.uleb128 0x2
 5882 0f07 91       		.byte	0x91
 5883 0f08 54       		.sleb128 -44
 5884 0f09 1E       		.uleb128 0x1e
 5885 0f0a 01       		.uleb128 0x1
 5886 0f0b 51       		.byte	0x51
 5887 0f0c 02       		.uleb128 0x2
 5888 0f0d 91       		.byte	0x91
 5889 0f0e 48       		.sleb128 -56
 5890 0f0f 1E       		.uleb128 0x1e
 5891 0f10 01       		.uleb128 0x1
 5892 0f11 52       		.byte	0x52
 5893 0f12 02       		.uleb128 0x2
 5894 0f13 74       		.byte	0x74
 5895 0f14 00       		.sleb128 0
 5896 0f15 1E       		.uleb128 0x1e
 5897 0f16 01       		.uleb128 0x1
 5898 0f17 53       		.byte	0x53
 5899 0f18 02       		.uleb128 0x2
 5900 0f19 77       		.byte	0x77
 5901 0f1a 00       		.sleb128 0
 5902 0f1b 00       		.byte	0
 5903 0f1c 21       		.uleb128 0x21
 5904 0f1d 98010000 		.4byte	.LVL224
 5905 0f21 C30C0000 		.4byte	0xcc3
 5906 0f25 1E       		.uleb128 0x1e
 5907 0f26 01       		.uleb128 0x1
 5908 0f27 50       		.byte	0x50
 5909 0f28 03       		.uleb128 0x3
 5910 0f29 91       		.byte	0x91
 5911 0f2a BC7F     		.sleb128 -68
 5912 0f2c 1E       		.uleb128 0x1e
 5913 0f2d 01       		.uleb128 0x1
 5914 0f2e 51       		.byte	0x51
 5915 0f2f 02       		.uleb128 0x2
 5916 0f30 7D       		.byte	0x7d
 5917 0f31 00       		.sleb128 0
 5918 0f32 1E       		.uleb128 0x1e
 5919 0f33 01       		.uleb128 0x1
ARM GAS  C:\Users\CHRONI~1\AppData\Local\Temp\ccho61l0.s 			page 147


 5920 0f34 52       		.byte	0x52
 5921 0f35 02       		.uleb128 0x2
 5922 0f36 74       		.byte	0x74
 5923 0f37 00       		.sleb128 0
 5924 0f38 1E       		.uleb128 0x1e
 5925 0f39 01       		.uleb128 0x1
 5926 0f3a 53       		.byte	0x53
 5927 0f3b 02       		.uleb128 0x2
 5928 0f3c 77       		.byte	0x77
 5929 0f3d 00       		.sleb128 0
 5930 0f3e 00       		.byte	0
 5931 0f3f 00       		.byte	0
 5932 0f40 06       		.uleb128 0x6
 5933 0f41 04       		.byte	0x4
 5934 0f42 460F0000 		.4byte	0xf46
 5935 0f46 0A       		.uleb128 0xa
 5936 0f47 21040000 		.4byte	0x421
 5937 0f4b 1A       		.uleb128 0x1a
 5938 0f4c CE000000 		.4byte	0xce
 5939 0f50 5B0F0000 		.4byte	0xf5b
 5940 0f54 1B       		.uleb128 0x1b
 5941 0f55 3A050000 		.4byte	0x53a
 5942 0f59 09       		.byte	0x9
 5943 0f5a 00       		.byte	0
 5944 0f5b 27       		.uleb128 0x27
 5945 0f5c 7C010000 		.4byte	.LASF168
 5946 0f60 01       		.byte	0x1
 5947 0f61 EB       		.byte	0xeb
 5948 0f62 C3000000 		.4byte	0xc3
 5949 0f66 00000000 		.4byte	.LFB3
 5950 0f6a 56000000 		.4byte	.LFE3-.LFB3
 5951 0f6e 01       		.uleb128 0x1
 5952 0f6f 9C       		.byte	0x9c
 5953 0f70 09100000 		.4byte	0x1009
 5954 0f74 28       		.uleb128 0x28
 5955 0f75 5D070000 		.4byte	.LASF132
 5956 0f79 01       		.byte	0x1
 5957 0f7a EB       		.byte	0xeb
 5958 0f7b CE000000 		.4byte	0xce
 5959 0f7f 5C110000 		.4byte	.LLST78
 5960 0f83 28       		.uleb128 0x28
 5961 0f84 09020000 		.4byte	.LASF153
 5962 0f88 01       		.byte	0x1
 5963 0f89 EB       		.byte	0xeb
 5964 0f8a 52010000 		.4byte	0x152
 5965 0f8e A1110000 		.4byte	.LLST79
 5966 0f92 29       		.uleb128 0x29
 5967 0f93 6C656E00 		.ascii	"len\000"
 5968 0f97 01       		.byte	0x1
 5969 0f98 EB       		.byte	0xeb
 5970 0f99 FA000000 		.4byte	0xfa
 5971 0f9d BF110000 		.4byte	.LLST80
 5972 0fa1 29       		.uleb128 0x29
 5973 0fa2 64657600 		.ascii	"dev\000"
 5974 0fa6 01       		.byte	0x1
 5975 0fa7 EB       		.byte	0xeb
 5976 0fa8 BD050000 		.4byte	0x5bd
ARM GAS  C:\Users\CHRONI~1\AppData\Local\Temp\ccho61l0.s 			page 148


 5977 0fac DD110000 		.4byte	.LLST81
 5978 0fb0 2A       		.uleb128 0x2a
 5979 0fb1 89070000 		.4byte	.LASF130
 5980 0fb5 01       		.byte	0x1
 5981 0fb6 ED       		.byte	0xed
 5982 0fb7 C3000000 		.4byte	0xc3
 5983 0fbb FB110000 		.4byte	.LLST82
 5984 0fbf 1D       		.uleb128 0x1d
 5985 0fc0 12000000 		.4byte	.LVL228
 5986 0fc4 2D090000 		.4byte	0x92d
 5987 0fc8 D30F0000 		.4byte	0xfd3
 5988 0fcc 1E       		.uleb128 0x1e
 5989 0fcd 01       		.uleb128 0x1
 5990 0fce 50       		.byte	0x50
 5991 0fcf 02       		.uleb128 0x2
 5992 0fd0 74       		.byte	0x74
 5993 0fd1 00       		.sleb128 0
 5994 0fd2 00       		.byte	0
 5995 0fd3 1D       		.uleb128 0x1d
 5996 0fd4 24000000 		.4byte	.LVL230
 5997 0fd8 68090000 		.4byte	0x968
 5998 0fdc ED0F0000 		.4byte	0xfed
 5999 0fe0 1E       		.uleb128 0x1e
 6000 0fe1 01       		.uleb128 0x1
 6001 0fe2 50       		.byte	0x50
 6002 0fe3 02       		.uleb128 0x2
 6003 0fe4 76       		.byte	0x76
 6004 0fe5 00       		.sleb128 0
 6005 0fe6 1E       		.uleb128 0x1e
 6006 0fe7 01       		.uleb128 0x1
 6007 0fe8 51       		.byte	0x51
 6008 0fe9 02       		.uleb128 0x2
 6009 0fea 74       		.byte	0x74
 6010 0feb 00       		.sleb128 0
 6011 0fec 00       		.byte	0
 6012 0fed 20       		.uleb128 0x20
 6013 0fee 38000000 		.4byte	.LVL232
 6014 0ff2 02       		.uleb128 0x2
 6015 0ff3 77       		.byte	0x77
 6016 0ff4 00       		.sleb128 0
 6017 0ff5 1E       		.uleb128 0x1e
 6018 0ff6 01       		.uleb128 0x1
 6019 0ff7 50       		.byte	0x50
 6020 0ff8 02       		.uleb128 0x2
 6021 0ff9 76       		.byte	0x76
 6022 0ffa 00       		.sleb128 0
 6023 0ffb 1E       		.uleb128 0x1e
 6024 0ffc 01       		.uleb128 0x1
 6025 0ffd 51       		.byte	0x51
 6026 0ffe 02       		.uleb128 0x2
 6027 0fff 75       		.byte	0x75
 6028 1000 00       		.sleb128 0
 6029 1001 1E       		.uleb128 0x1e
 6030 1002 01       		.uleb128 0x1
 6031 1003 52       		.byte	0x52
 6032 1004 02       		.uleb128 0x2
 6033 1005 79       		.byte	0x79
ARM GAS  C:\Users\CHRONI~1\AppData\Local\Temp\ccho61l0.s 			page 149


 6034 1006 00       		.sleb128 0
 6035 1007 00       		.byte	0
 6036 1008 00       		.byte	0
 6037 1009 11       		.uleb128 0x11
 6038 100a 11080000 		.4byte	.LASF169
 6039 100e 01       		.byte	0x1
 6040 100f 3407     		.2byte	0x734
 6041 1011 C3000000 		.4byte	0xc3
 6042 1015 00000000 		.4byte	.LFB33
 6043 1019 28000000 		.4byte	.LFE33-.LFB33
 6044 101d 01       		.uleb128 0x1
 6045 101e 9C       		.byte	0x9c
 6046 101f 74100000 		.4byte	0x1074
 6047 1023 18       		.uleb128 0x18
 6048 1024 64657600 		.ascii	"dev\000"
 6049 1028 01       		.byte	0x1
 6050 1029 3407     		.2byte	0x734
 6051 102b BD050000 		.4byte	0x5bd
 6052 102f 3A120000 		.4byte	.LLST83
 6053 1033 14       		.uleb128 0x14
 6054 1034 89070000 		.4byte	.LASF130
 6055 1038 01       		.byte	0x1
 6056 1039 3607     		.2byte	0x736
 6057 103b C3000000 		.4byte	0xc3
 6058 103f 63120000 		.4byte	.LLST84
 6059 1043 19       		.uleb128 0x19
 6060 1044 09020000 		.4byte	.LASF153
 6061 1048 01       		.byte	0x1
 6062 1049 3707     		.2byte	0x737
 6063 104b CE000000 		.4byte	0xce
 6064 104f 02       		.uleb128 0x2
 6065 1050 91       		.byte	0x91
 6066 1051 77       		.sleb128 -9
 6067 1052 21       		.uleb128 0x21
 6068 1053 18000000 		.4byte	.LVL238
 6069 1057 5B0F0000 		.4byte	0xf5b
 6070 105b 1E       		.uleb128 0x1e
 6071 105c 01       		.uleb128 0x1
 6072 105d 50       		.byte	0x50
 6073 105e 02       		.uleb128 0x2
 6074 105f 09       		.byte	0x9
 6075 1060 F0       		.byte	0xf0
 6076 1061 1E       		.uleb128 0x1e
 6077 1062 01       		.uleb128 0x1
 6078 1063 51       		.byte	0x51
 6079 1064 02       		.uleb128 0x2
 6080 1065 91       		.byte	0x91
 6081 1066 77       		.sleb128 -9
 6082 1067 1E       		.uleb128 0x1e
 6083 1068 01       		.uleb128 0x1
 6084 1069 52       		.byte	0x52
 6085 106a 01       		.uleb128 0x1
 6086 106b 31       		.byte	0x31
 6087 106c 1E       		.uleb128 0x1e
 6088 106d 01       		.uleb128 0x1
 6089 106e 53       		.byte	0x53
 6090 106f 02       		.uleb128 0x2
ARM GAS  C:\Users\CHRONI~1\AppData\Local\Temp\ccho61l0.s 			page 150


 6091 1070 74       		.byte	0x74
 6092 1071 00       		.sleb128 0
 6093 1072 00       		.byte	0
 6094 1073 00       		.byte	0
 6095 1074 11       		.uleb128 0x11
 6096 1075 20090000 		.4byte	.LASF170
 6097 1079 01       		.byte	0x1
 6098 107a EA06     		.2byte	0x6ea
 6099 107c C3000000 		.4byte	0xc3
 6100 1080 00000000 		.4byte	.LFB32
 6101 1084 52010000 		.4byte	.LFE32-.LFB32
 6102 1088 01       		.uleb128 0x1
 6103 1089 9C       		.byte	0x9c
 6104 108a 28110000 		.4byte	0x1128
 6105 108e 18       		.uleb128 0x18
 6106 108f 64657600 		.ascii	"dev\000"
 6107 1093 01       		.byte	0x1
 6108 1094 EA06     		.2byte	0x6ea
 6109 1096 BD050000 		.4byte	0x5bd
 6110 109a 76120000 		.4byte	.LLST85
 6111 109e 14       		.uleb128 0x14
 6112 109f 89070000 		.4byte	.LASF130
 6113 10a3 01       		.byte	0x1
 6114 10a4 EC06     		.2byte	0x6ec
 6115 10a6 C3000000 		.4byte	0xc3
 6116 10aa 9F120000 		.4byte	.LLST86
 6117 10ae 19       		.uleb128 0x19
 6118 10af 39000000 		.4byte	.LASF171
 6119 10b3 01       		.byte	0x1
 6120 10b4 ED06     		.2byte	0x6ed
 6121 10b6 28110000 		.4byte	0x1128
 6122 10ba 02       		.uleb128 0x2
 6123 10bb 91       		.byte	0x91
 6124 10bc 4C       		.sleb128 -52
 6125 10bd 1D       		.uleb128 0x1d
 6126 10be 12000000 		.4byte	.LVL242
 6127 10c2 5B0F0000 		.4byte	0xf5b
 6128 10c6 E2100000 		.4byte	0x10e2
 6129 10ca 1E       		.uleb128 0x1e
 6130 10cb 01       		.uleb128 0x1
 6131 10cc 50       		.byte	0x50
 6132 10cd 02       		.uleb128 0x2
 6133 10ce 09       		.byte	0x9
 6134 10cf 8A       		.byte	0x8a
 6135 10d0 1E       		.uleb128 0x1e
 6136 10d1 01       		.uleb128 0x1
 6137 10d2 51       		.byte	0x51
 6138 10d3 02       		.uleb128 0x2
 6139 10d4 91       		.byte	0x91
 6140 10d5 4C       		.sleb128 -52
 6141 10d6 1E       		.uleb128 0x1e
 6142 10d7 01       		.uleb128 0x1
 6143 10d8 52       		.byte	0x52
 6144 10d9 01       		.uleb128 0x1
 6145 10da 47       		.byte	0x47
 6146 10db 1E       		.uleb128 0x1e
 6147 10dc 01       		.uleb128 0x1
ARM GAS  C:\Users\CHRONI~1\AppData\Local\Temp\ccho61l0.s 			page 151


 6148 10dd 53       		.byte	0x53
 6149 10de 02       		.uleb128 0x2
 6150 10df 74       		.byte	0x74
 6151 10e0 00       		.sleb128 0
 6152 10e1 00       		.byte	0
 6153 10e2 1D       		.uleb128 0x1d
 6154 10e3 24000000 		.4byte	.LVL244
 6155 10e7 5B0F0000 		.4byte	0xf5b
 6156 10eb 07110000 		.4byte	0x1107
 6157 10ef 1E       		.uleb128 0x1e
 6158 10f0 01       		.uleb128 0x1
 6159 10f1 50       		.byte	0x50
 6160 10f2 02       		.uleb128 0x2
 6161 10f3 09       		.byte	0x9
 6162 10f4 E1       		.byte	0xe1
 6163 10f5 1E       		.uleb128 0x1e
 6164 10f6 01       		.uleb128 0x1
 6165 10f7 51       		.byte	0x51
 6166 10f8 02       		.uleb128 0x2
 6167 10f9 91       		.byte	0x91
 6168 10fa 63       		.sleb128 -29
 6169 10fb 1E       		.uleb128 0x1e
 6170 10fc 01       		.uleb128 0x1
 6171 10fd 52       		.byte	0x52
 6172 10fe 01       		.uleb128 0x1
 6173 10ff 3E       		.byte	0x3e
 6174 1100 1E       		.uleb128 0x1e
 6175 1101 01       		.uleb128 0x1
 6176 1102 53       		.byte	0x53
 6177 1103 02       		.uleb128 0x2
 6178 1104 74       		.byte	0x74
 6179 1105 00       		.sleb128 0
 6180 1106 00       		.byte	0
 6181 1107 21       		.uleb128 0x21
 6182 1108 36000000 		.4byte	.LVL247
 6183 110c 5B0F0000 		.4byte	0xf5b
 6184 1110 1E       		.uleb128 0x1e
 6185 1111 01       		.uleb128 0x1
 6186 1112 50       		.byte	0x50
 6187 1113 01       		.uleb128 0x1
 6188 1114 30       		.byte	0x30
 6189 1115 1E       		.uleb128 0x1e
 6190 1116 01       		.uleb128 0x1
 6191 1117 51       		.byte	0x51
 6192 1118 02       		.uleb128 0x2
 6193 1119 91       		.byte	0x91
 6194 111a 71       		.sleb128 -15
 6195 111b 1E       		.uleb128 0x1e
 6196 111c 01       		.uleb128 0x1
 6197 111d 52       		.byte	0x52
 6198 111e 01       		.uleb128 0x1
 6199 111f 35       		.byte	0x35
 6200 1120 1E       		.uleb128 0x1e
 6201 1121 01       		.uleb128 0x1
 6202 1122 53       		.byte	0x53
 6203 1123 02       		.uleb128 0x2
 6204 1124 74       		.byte	0x74
ARM GAS  C:\Users\CHRONI~1\AppData\Local\Temp\ccho61l0.s 			page 152


 6205 1125 00       		.sleb128 0
 6206 1126 00       		.byte	0
 6207 1127 00       		.byte	0
 6208 1128 1A       		.uleb128 0x1a
 6209 1129 CE000000 		.4byte	0xce
 6210 112d 38110000 		.4byte	0x1138
 6211 1131 1B       		.uleb128 0x1b
 6212 1132 3A050000 		.4byte	0x53a
 6213 1136 29       		.byte	0x29
 6214 1137 00       		.byte	0
 6215 1138 11       		.uleb128 0x11
 6216 1139 0A060000 		.4byte	.LASF172
 6217 113d 01       		.byte	0x1
 6218 113e B104     		.2byte	0x4b1
 6219 1140 C3000000 		.4byte	0xc3
 6220 1144 00000000 		.4byte	.LFB21
 6221 1148 96010000 		.4byte	.LFE21-.LFB21
 6222 114c 01       		.uleb128 0x1
 6223 114d 9C       		.byte	0x9c
 6224 114e 4A130000 		.4byte	0x134a
 6225 1152 12       		.uleb128 0x12
 6226 1153 B7010000 		.4byte	.LASF155
 6227 1157 01       		.byte	0x1
 6228 1158 B104     		.2byte	0x4b1
 6229 115a CE000000 		.4byte	0xce
 6230 115e C8120000 		.4byte	.LLST87
 6231 1162 12       		.uleb128 0x12
 6232 1163 C7040000 		.4byte	.LASF149
 6233 1167 01       		.byte	0x1
 6234 1168 B104     		.2byte	0x4b1
 6235 116a A10B0000 		.4byte	0xba1
 6236 116e E9120000 		.4byte	.LLST88
 6237 1172 18       		.uleb128 0x18
 6238 1173 64657600 		.ascii	"dev\000"
 6239 1177 01       		.byte	0x1
 6240 1178 B104     		.2byte	0x4b1
 6241 117a BD050000 		.4byte	0x5bd
 6242 117e 07130000 		.4byte	.LLST89
 6243 1182 14       		.uleb128 0x14
 6244 1183 89070000 		.4byte	.LASF130
 6245 1187 01       		.byte	0x1
 6246 1188 B304     		.2byte	0x4b3
 6247 118a C3000000 		.4byte	0xc3
 6248 118e 25130000 		.4byte	.LLST90
 6249 1192 19       		.uleb128 0x19
 6250 1193 86040000 		.4byte	.LASF173
 6251 1197 01       		.byte	0x1
 6252 1198 B404     		.2byte	0x4b4
 6253 119a 4A130000 		.4byte	0x134a
 6254 119e 02       		.uleb128 0x2
 6255 119f 91       		.byte	0x91
 6256 11a0 44       		.sleb128 -60
 6257 11a1 14       		.uleb128 0x14
 6258 11a2 3D070000 		.4byte	.LASF174
 6259 11a6 01       		.byte	0x1
 6260 11a7 B504     		.2byte	0x4b5
 6261 11a9 CE000000 		.4byte	0xce
ARM GAS  C:\Users\CHRONI~1\AppData\Local\Temp\ccho61l0.s 			page 153


 6262 11ad 5A130000 		.4byte	.LLST91
 6263 11b1 14       		.uleb128 0x14
 6264 11b2 C7000000 		.4byte	.LASF175
 6265 11b6 01       		.byte	0x1
 6266 11b7 B504     		.2byte	0x4b5
 6267 11b9 CE000000 		.4byte	0xce
 6268 11bd 6F130000 		.4byte	.LLST92
 6269 11c1 14       		.uleb128 0x14
 6270 11c2 01060000 		.4byte	.LASF176
 6271 11c6 01       		.byte	0x1
 6272 11c7 B604     		.2byte	0x4b6
 6273 11c9 FA000000 		.4byte	0xfa
 6274 11cd 82130000 		.4byte	.LLST93
 6275 11d1 14       		.uleb128 0x14
 6276 11d2 0E090000 		.4byte	.LASF177
 6277 11d6 01       		.byte	0x1
 6278 11d7 B704     		.2byte	0x4b7
 6279 11d9 FA000000 		.4byte	0xfa
 6280 11dd A1130000 		.4byte	.LLST94
 6281 11e1 14       		.uleb128 0x14
 6282 11e2 65050000 		.4byte	.LASF178
 6283 11e6 01       		.byte	0x1
 6284 11e7 B804     		.2byte	0x4b8
 6285 11e9 E4000000 		.4byte	0xe4
 6286 11ed B4130000 		.4byte	.LLST95
 6287 11f1 14       		.uleb128 0x14
 6288 11f2 0C040000 		.4byte	.LASF179
 6289 11f6 01       		.byte	0x1
 6290 11f7 B904     		.2byte	0x4b9
 6291 11f9 E4000000 		.4byte	0xe4
 6292 11fd C7130000 		.4byte	.LLST96
 6293 1201 14       		.uleb128 0x14
 6294 1202 480A0000 		.4byte	.LASF180
 6295 1206 01       		.byte	0x1
 6296 1207 B904     		.2byte	0x4b9
 6297 1209 E4000000 		.4byte	0xe4
 6298 120d DC130000 		.4byte	.LLST97
 6299 1211 14       		.uleb128 0x14
 6300 1212 16010000 		.4byte	.LASF181
 6301 1216 01       		.byte	0x1
 6302 1217 BA04     		.2byte	0x4ba
 6303 1219 CE000000 		.4byte	0xce
 6304 121d F1130000 		.4byte	.LLST98
 6305 1221 1D       		.uleb128 0x1d
 6306 1222 30000000 		.4byte	.LVL253
 6307 1226 5B0F0000 		.4byte	0xf5b
 6308 122a 4D120000 		.4byte	0x124d
 6309 122e 1E       		.uleb128 0x1e
 6310 122f 01       		.uleb128 0x1
 6311 1230 50       		.byte	0x50
 6312 1231 09       		.uleb128 0x9
 6313 1232 7A       		.byte	0x7a
 6314 1233 00       		.sleb128 0
 6315 1234 34       		.byte	0x34
 6316 1235 24       		.byte	0x24
 6317 1236 7A       		.byte	0x7a
 6318 1237 00       		.sleb128 0
ARM GAS  C:\Users\CHRONI~1\AppData\Local\Temp\ccho61l0.s 			page 154


 6319 1238 22       		.byte	0x22
 6320 1239 23       		.byte	0x23
 6321 123a 1D       		.uleb128 0x1d
 6322 123b 1E       		.uleb128 0x1e
 6323 123c 01       		.uleb128 0x1
 6324 123d 51       		.byte	0x51
 6325 123e 02       		.uleb128 0x2
 6326 123f 91       		.byte	0x91
 6327 1240 44       		.sleb128 -60
 6328 1241 1E       		.uleb128 0x1e
 6329 1242 01       		.uleb128 0x1
 6330 1243 52       		.byte	0x52
 6331 1244 01       		.uleb128 0x1
 6332 1245 41       		.byte	0x41
 6333 1246 1E       		.uleb128 0x1e
 6334 1247 01       		.uleb128 0x1
 6335 1248 53       		.byte	0x53
 6336 1249 02       		.uleb128 0x2
 6337 124a 79       		.byte	0x79
 6338 124b 00       		.sleb128 0
 6339 124c 00       		.byte	0
 6340 124d 1D       		.uleb128 0x1d
 6341 124e 00010000 		.4byte	.LVL263
 6342 1252 5B0F0000 		.4byte	0xf5b
 6343 1256 6C120000 		.4byte	0x126c
 6344 125a 1E       		.uleb128 0x1e
 6345 125b 01       		.uleb128 0x1
 6346 125c 51       		.byte	0x51
 6347 125d 02       		.uleb128 0x2
 6348 125e 75       		.byte	0x75
 6349 125f 03       		.sleb128 3
 6350 1260 1E       		.uleb128 0x1e
 6351 1261 01       		.uleb128 0x1
 6352 1262 52       		.byte	0x52
 6353 1263 01       		.uleb128 0x1
 6354 1264 31       		.byte	0x31
 6355 1265 1E       		.uleb128 0x1e
 6356 1266 01       		.uleb128 0x1
 6357 1267 53       		.byte	0x53
 6358 1268 02       		.uleb128 0x2
 6359 1269 79       		.byte	0x79
 6360 126a 00       		.sleb128 0
 6361 126b 00       		.byte	0
 6362 126c 1D       		.uleb128 0x1d
 6363 126d 14010000 		.4byte	.LVL265
 6364 1271 5B0F0000 		.4byte	0xf5b
 6365 1275 8B120000 		.4byte	0x128b
 6366 1279 1E       		.uleb128 0x1e
 6367 127a 01       		.uleb128 0x1
 6368 127b 51       		.byte	0x51
 6369 127c 02       		.uleb128 0x2
 6370 127d 75       		.byte	0x75
 6371 127e 04       		.sleb128 4
 6372 127f 1E       		.uleb128 0x1e
 6373 1280 01       		.uleb128 0x1
 6374 1281 52       		.byte	0x52
 6375 1282 01       		.uleb128 0x1
ARM GAS  C:\Users\CHRONI~1\AppData\Local\Temp\ccho61l0.s 			page 155


 6376 1283 31       		.byte	0x31
 6377 1284 1E       		.uleb128 0x1e
 6378 1285 01       		.uleb128 0x1
 6379 1286 53       		.byte	0x53
 6380 1287 02       		.uleb128 0x2
 6381 1288 79       		.byte	0x79
 6382 1289 00       		.sleb128 0
 6383 128a 00       		.byte	0
 6384 128b 1D       		.uleb128 0x1d
 6385 128c 28010000 		.4byte	.LVL267
 6386 1290 5B0F0000 		.4byte	0xf5b
 6387 1294 AA120000 		.4byte	0x12aa
 6388 1298 1E       		.uleb128 0x1e
 6389 1299 01       		.uleb128 0x1
 6390 129a 51       		.byte	0x51
 6391 129b 02       		.uleb128 0x2
 6392 129c 75       		.byte	0x75
 6393 129d 05       		.sleb128 5
 6394 129e 1E       		.uleb128 0x1e
 6395 129f 01       		.uleb128 0x1
 6396 12a0 52       		.byte	0x52
 6397 12a1 01       		.uleb128 0x1
 6398 12a2 31       		.byte	0x31
 6399 12a3 1E       		.uleb128 0x1e
 6400 12a4 01       		.uleb128 0x1
 6401 12a5 53       		.byte	0x53
 6402 12a6 02       		.uleb128 0x2
 6403 12a7 79       		.byte	0x79
 6404 12a8 00       		.sleb128 0
 6405 12a9 00       		.byte	0
 6406 12aa 1D       		.uleb128 0x1d
 6407 12ab 34010000 		.4byte	.LVL269
 6408 12af 48050000 		.4byte	0x548
 6409 12b3 C5120000 		.4byte	0x12c5
 6410 12b7 1E       		.uleb128 0x1e
 6411 12b8 01       		.uleb128 0x1
 6412 12b9 50       		.byte	0x50
 6413 12ba 03       		.uleb128 0x3
 6414 12bb 7D       		.byte	0x7d
 6415 12bc 00       		.sleb128 0
 6416 12bd 06       		.byte	0x6
 6417 12be 1E       		.uleb128 0x1e
 6418 12bf 01       		.uleb128 0x1
 6419 12c0 51       		.byte	0x51
 6420 12c1 02       		.uleb128 0x2
 6421 12c2 79       		.byte	0x79
 6422 12c3 00       		.sleb128 0
 6423 12c4 00       		.byte	0
 6424 12c5 1D       		.uleb128 0x1d
 6425 12c6 3E010000 		.4byte	.LVL270
 6426 12ca C3050000 		.4byte	0x5c3
 6427 12ce DF120000 		.4byte	0x12df
 6428 12d2 1E       		.uleb128 0x1e
 6429 12d3 01       		.uleb128 0x1
 6430 12d4 50       		.byte	0x50
 6431 12d5 02       		.uleb128 0x2
 6432 12d6 74       		.byte	0x74
ARM GAS  C:\Users\CHRONI~1\AppData\Local\Temp\ccho61l0.s 			page 156


 6433 12d7 00       		.sleb128 0
 6434 12d8 1E       		.uleb128 0x1e
 6435 12d9 01       		.uleb128 0x1
 6436 12da 51       		.byte	0x51
 6437 12db 02       		.uleb128 0x2
 6438 12dc 79       		.byte	0x79
 6439 12dd 00       		.sleb128 0
 6440 12de 00       		.byte	0
 6441 12df 1D       		.uleb128 0x1d
 6442 12e0 48010000 		.4byte	.LVL271
 6443 12e4 5C060000 		.4byte	0x65c
 6444 12e8 F9120000 		.4byte	0x12f9
 6445 12ec 1E       		.uleb128 0x1e
 6446 12ed 01       		.uleb128 0x1
 6447 12ee 50       		.byte	0x50
 6448 12ef 02       		.uleb128 0x2
 6449 12f0 78       		.byte	0x78
 6450 12f1 00       		.sleb128 0
 6451 12f2 1E       		.uleb128 0x1e
 6452 12f3 01       		.uleb128 0x1
 6453 12f4 51       		.byte	0x51
 6454 12f5 02       		.uleb128 0x2
 6455 12f6 79       		.byte	0x79
 6456 12f7 00       		.sleb128 0
 6457 12f8 00       		.byte	0
 6458 12f9 1D       		.uleb128 0x1d
 6459 12fa 5A010000 		.4byte	.LVL272
 6460 12fe CE070000 		.4byte	0x7ce
 6461 1302 16130000 		.4byte	0x1316
 6462 1306 1E       		.uleb128 0x1e
 6463 1307 01       		.uleb128 0x1
 6464 1308 50       		.byte	0x50
 6465 1309 05       		.uleb128 0x5
 6466 130a 91       		.byte	0x91
 6467 130b B87F     		.sleb128 -72
 6468 130d 94       		.byte	0x94
 6469 130e 02       		.byte	0x2
 6470 130f 1E       		.uleb128 0x1e
 6471 1310 01       		.uleb128 0x1
 6472 1311 51       		.byte	0x51
 6473 1312 02       		.uleb128 0x2
 6474 1313 7B       		.byte	0x7b
 6475 1314 00       		.sleb128 0
 6476 1315 00       		.byte	0
 6477 1316 1D       		.uleb128 0x1d
 6478 1317 68010000 		.4byte	.LVL273
 6479 131b 15070000 		.4byte	0x715
 6480 131f 3C130000 		.4byte	0x133c
 6481 1323 1E       		.uleb128 0x1e
 6482 1324 01       		.uleb128 0x1
 6483 1325 50       		.byte	0x50
 6484 1326 05       		.uleb128 0x5
 6485 1327 91       		.byte	0x91
 6486 1328 B47F     		.sleb128 -76
 6487 132a 94       		.byte	0x94
 6488 132b 02       		.byte	0x2
 6489 132c 1E       		.uleb128 0x1e
ARM GAS  C:\Users\CHRONI~1\AppData\Local\Temp\ccho61l0.s 			page 157


 6490 132d 01       		.uleb128 0x1
 6491 132e 51       		.byte	0x51
 6492 132f 05       		.uleb128 0x5
 6493 1330 91       		.byte	0x91
 6494 1331 BC7F     		.sleb128 -68
 6495 1333 94       		.byte	0x94
 6496 1334 01       		.byte	0x1
 6497 1335 1E       		.uleb128 0x1e
 6498 1336 01       		.uleb128 0x1
 6499 1337 52       		.byte	0x52
 6500 1338 02       		.uleb128 0x2
 6501 1339 79       		.byte	0x79
 6502 133a 00       		.sleb128 0
 6503 133b 00       		.byte	0
 6504 133c 2C       		.uleb128 0x2c
 6505 133d 7C010000 		.4byte	.LVL274
 6506 1341 1E       		.uleb128 0x1e
 6507 1342 01       		.uleb128 0x1
 6508 1343 50       		.byte	0x50
 6509 1344 03       		.uleb128 0x3
 6510 1345 0A       		.byte	0xa
 6511 1346 1027     		.2byte	0x2710
 6512 1348 00       		.byte	0
 6513 1349 00       		.byte	0
 6514 134a 1A       		.uleb128 0x1a
 6515 134b CE000000 		.4byte	0xce
 6516 134f 5A130000 		.4byte	0x135a
 6517 1353 1B       		.uleb128 0x1b
 6518 1354 3A050000 		.4byte	0x53a
 6519 1358 10       		.byte	0x10
 6520 1359 00       		.byte	0
 6521 135a 11       		.uleb128 0x11
 6522 135b 2A0A0000 		.4byte	.LASF182
 6523 135f 01       		.byte	0x1
 6524 1360 0A05     		.2byte	0x50a
 6525 1362 C3000000 		.4byte	0xc3
 6526 1366 00000000 		.4byte	.LFB22
 6527 136a 44020000 		.4byte	.LFE22-.LFB22
 6528 136e 01       		.uleb128 0x1
 6529 136f 9C       		.byte	0x9c
 6530 1370 65150000 		.4byte	0x1565
 6531 1374 12       		.uleb128 0x12
 6532 1375 C7040000 		.4byte	.LASF149
 6533 1379 01       		.byte	0x1
 6534 137a 0A05     		.2byte	0x50a
 6535 137c 65150000 		.4byte	0x1565
 6536 1380 1B140000 		.4byte	.LLST99
 6537 1384 18       		.uleb128 0x18
 6538 1385 64657600 		.ascii	"dev\000"
 6539 1389 01       		.byte	0x1
 6540 138a 0A05     		.2byte	0x50a
 6541 138c BD050000 		.4byte	0x5bd
 6542 1390 39140000 		.4byte	.LLST100
 6543 1394 14       		.uleb128 0x14
 6544 1395 89070000 		.4byte	.LASF130
 6545 1399 01       		.byte	0x1
 6546 139a 0C05     		.2byte	0x50c
ARM GAS  C:\Users\CHRONI~1\AppData\Local\Temp\ccho61l0.s 			page 158


 6547 139c C3000000 		.4byte	0xc3
 6548 13a0 57140000 		.4byte	.LLST101
 6549 13a4 19       		.uleb128 0x19
 6550 13a5 86040000 		.4byte	.LASF173
 6551 13a9 01       		.byte	0x1
 6552 13aa 0D05     		.2byte	0x50d
 6553 13ac 70150000 		.4byte	0x1570
 6554 13b0 03       		.uleb128 0x3
 6555 13b1 91       		.byte	0x91
 6556 13b2 A47F     		.sleb128 -92
 6557 13b4 14       		.uleb128 0x14
 6558 13b5 3D070000 		.4byte	.LASF174
 6559 13b9 01       		.byte	0x1
 6560 13ba 0E05     		.2byte	0x50e
 6561 13bc CE000000 		.4byte	0xce
 6562 13c0 84140000 		.4byte	.LLST102
 6563 13c4 14       		.uleb128 0x14
 6564 13c5 C7000000 		.4byte	.LASF175
 6565 13c9 01       		.byte	0x1
 6566 13ca 0E05     		.2byte	0x50e
 6567 13cc CE000000 		.4byte	0xce
 6568 13d0 97140000 		.4byte	.LLST103
 6569 13d4 14       		.uleb128 0x14
 6570 13d5 01060000 		.4byte	.LASF176
 6571 13d9 01       		.byte	0x1
 6572 13da 0F05     		.2byte	0x50f
 6573 13dc FA000000 		.4byte	0xfa
 6574 13e0 AC140000 		.4byte	.LLST104
 6575 13e4 14       		.uleb128 0x14
 6576 13e5 0E090000 		.4byte	.LASF177
 6577 13e9 01       		.byte	0x1
 6578 13ea 1005     		.2byte	0x510
 6579 13ec FA000000 		.4byte	0xfa
 6580 13f0 BF140000 		.4byte	.LLST105
 6581 13f4 14       		.uleb128 0x14
 6582 13f5 65050000 		.4byte	.LASF178
 6583 13f9 01       		.byte	0x1
 6584 13fa 1105     		.2byte	0x511
 6585 13fc E4000000 		.4byte	0xe4
 6586 1400 D2140000 		.4byte	.LLST106
 6587 1404 14       		.uleb128 0x14
 6588 1405 0C040000 		.4byte	.LASF179
 6589 1409 01       		.byte	0x1
 6590 140a 1205     		.2byte	0x512
 6591 140c E4000000 		.4byte	0xe4
 6592 1410 E5140000 		.4byte	.LLST107
 6593 1414 14       		.uleb128 0x14
 6594 1415 480A0000 		.4byte	.LASF180
 6595 1419 01       		.byte	0x1
 6596 141a 1205     		.2byte	0x512
 6597 141c E4000000 		.4byte	0xe4
 6598 1420 FA140000 		.4byte	.LLST108
 6599 1424 26       		.uleb128 0x26
 6600 1425 6F666600 		.ascii	"off\000"
 6601 1429 01       		.byte	0x1
 6602 142a 1305     		.2byte	0x513
 6603 142c CE000000 		.4byte	0xce
ARM GAS  C:\Users\CHRONI~1\AppData\Local\Temp\ccho61l0.s 			page 159


 6604 1430 0F150000 		.4byte	.LLST109
 6605 1434 19       		.uleb128 0x19
 6606 1435 28040000 		.4byte	.LASF183
 6607 1439 01       		.byte	0x1
 6608 143a 1405     		.2byte	0x514
 6609 143c 80150000 		.4byte	0x1580
 6610 1440 03       		.uleb128 0x3
 6611 1441 91       		.byte	0x91
 6612 1442 847F     		.sleb128 -124
 6613 1444 26       		.uleb128 0x26
 6614 1445 6900     		.ascii	"i\000"
 6615 1447 01       		.byte	0x1
 6616 1448 1505     		.2byte	0x515
 6617 144a CE000000 		.4byte	0xce
 6618 144e 5D150000 		.4byte	.LLST110
 6619 1452 1D       		.uleb128 0x1d
 6620 1453 14000000 		.4byte	.LVL282
 6621 1457 19210000 		.4byte	0x2119
 6622 145b 72140000 		.4byte	0x1472
 6623 145f 1E       		.uleb128 0x1e
 6624 1460 01       		.uleb128 0x1
 6625 1461 50       		.byte	0x50
 6626 1462 03       		.uleb128 0x3
 6627 1463 91       		.byte	0x91
 6628 1464 A47F     		.sleb128 -92
 6629 1466 1E       		.uleb128 0x1e
 6630 1467 01       		.uleb128 0x1
 6631 1468 51       		.byte	0x51
 6632 1469 01       		.uleb128 0x1
 6633 146a 30       		.byte	0x30
 6634 146b 1E       		.uleb128 0x1e
 6635 146c 01       		.uleb128 0x1
 6636 146d 52       		.byte	0x52
 6637 146e 02       		.uleb128 0x2
 6638 146f 08       		.byte	0x8
 6639 1470 33       		.byte	0x33
 6640 1471 00       		.byte	0
 6641 1472 1D       		.uleb128 0x1d
 6642 1473 1E000000 		.4byte	.LVL283
 6643 1477 19210000 		.4byte	0x2119
 6644 147b 91140000 		.4byte	0x1491
 6645 147f 1E       		.uleb128 0x1e
 6646 1480 01       		.uleb128 0x1
 6647 1481 50       		.byte	0x50
 6648 1482 03       		.uleb128 0x3
 6649 1483 91       		.byte	0x91
 6650 1484 847F     		.sleb128 -124
 6651 1486 1E       		.uleb128 0x1e
 6652 1487 01       		.uleb128 0x1
 6653 1488 51       		.byte	0x51
 6654 1489 01       		.uleb128 0x1
 6655 148a 30       		.byte	0x30
 6656 148b 1E       		.uleb128 0x1e
 6657 148c 01       		.uleb128 0x1
 6658 148d 52       		.byte	0x52
 6659 148e 01       		.uleb128 0x1
 6660 148f 4E       		.byte	0x4e
ARM GAS  C:\Users\CHRONI~1\AppData\Local\Temp\ccho61l0.s 			page 160


 6661 1490 00       		.byte	0
 6662 1491 1D       		.uleb128 0x1d
 6663 1492 58000000 		.4byte	.LVL285
 6664 1496 5B0F0000 		.4byte	0xf5b
 6665 149a B7140000 		.4byte	0x14b7
 6666 149e 1E       		.uleb128 0x1e
 6667 149f 01       		.uleb128 0x1
 6668 14a0 50       		.byte	0x50
 6669 14a1 01       		.uleb128 0x1
 6670 14a2 4D       		.byte	0x4d
 6671 14a3 1E       		.uleb128 0x1e
 6672 14a4 01       		.uleb128 0x1
 6673 14a5 51       		.byte	0x51
 6674 14a6 03       		.uleb128 0x3
 6675 14a7 91       		.byte	0x91
 6676 14a8 A47F     		.sleb128 -92
 6677 14aa 1E       		.uleb128 0x1e
 6678 14ab 01       		.uleb128 0x1
 6679 14ac 52       		.byte	0x52
 6680 14ad 02       		.uleb128 0x2
 6681 14ae 08       		.byte	0x8
 6682 14af 33       		.byte	0x33
 6683 14b0 1E       		.uleb128 0x1e
 6684 14b1 01       		.uleb128 0x1
 6685 14b2 53       		.byte	0x53
 6686 14b3 02       		.uleb128 0x2
 6687 14b4 78       		.byte	0x78
 6688 14b5 00       		.sleb128 0
 6689 14b6 00       		.byte	0
 6690 14b7 1D       		.uleb128 0x1d
 6691 14b8 6A000000 		.4byte	.LVL287
 6692 14bc 5B0F0000 		.4byte	0xf5b
 6693 14c0 DD140000 		.4byte	0x14dd
 6694 14c4 1E       		.uleb128 0x1e
 6695 14c5 01       		.uleb128 0x1
 6696 14c6 50       		.byte	0x50
 6697 14c7 02       		.uleb128 0x2
 6698 14c8 08       		.byte	0x8
 6699 14c9 50       		.byte	0x50
 6700 14ca 1E       		.uleb128 0x1e
 6701 14cb 01       		.uleb128 0x1
 6702 14cc 51       		.byte	0x51
 6703 14cd 03       		.uleb128 0x3
 6704 14ce 91       		.byte	0x91
 6705 14cf 847F     		.sleb128 -124
 6706 14d1 1E       		.uleb128 0x1e
 6707 14d2 01       		.uleb128 0x1
 6708 14d3 52       		.byte	0x52
 6709 14d4 01       		.uleb128 0x1
 6710 14d5 4E       		.byte	0x4e
 6711 14d6 1E       		.uleb128 0x1e
 6712 14d7 01       		.uleb128 0x1
 6713 14d8 53       		.byte	0x53
 6714 14d9 02       		.uleb128 0x2
 6715 14da 78       		.byte	0x78
 6716 14db 00       		.sleb128 0
 6717 14dc 00       		.byte	0
ARM GAS  C:\Users\CHRONI~1\AppData\Local\Temp\ccho61l0.s 			page 161


 6718 14dd 1D       		.uleb128 0x1d
 6719 14de E0010000 		.4byte	.LVL301
 6720 14e2 48050000 		.4byte	0x548
 6721 14e6 F1140000 		.4byte	0x14f1
 6722 14ea 1E       		.uleb128 0x1e
 6723 14eb 01       		.uleb128 0x1
 6724 14ec 51       		.byte	0x51
 6725 14ed 02       		.uleb128 0x2
 6726 14ee 78       		.byte	0x78
 6727 14ef 00       		.sleb128 0
 6728 14f0 00       		.byte	0
 6729 14f1 1D       		.uleb128 0x1d
 6730 14f2 EE010000 		.4byte	.LVL302
 6731 14f6 C3050000 		.4byte	0x5c3
 6732 14fa 0B150000 		.4byte	0x150b
 6733 14fe 1E       		.uleb128 0x1e
 6734 14ff 01       		.uleb128 0x1
 6735 1500 50       		.byte	0x50
 6736 1501 02       		.uleb128 0x2
 6737 1502 74       		.byte	0x74
 6738 1503 00       		.sleb128 0
 6739 1504 1E       		.uleb128 0x1e
 6740 1505 01       		.uleb128 0x1
 6741 1506 51       		.byte	0x51
 6742 1507 02       		.uleb128 0x2
 6743 1508 78       		.byte	0x78
 6744 1509 00       		.sleb128 0
 6745 150a 00       		.byte	0
 6746 150b 1D       		.uleb128 0x1d
 6747 150c FC010000 		.4byte	.LVL304
 6748 1510 5C060000 		.4byte	0x65c
 6749 1514 25150000 		.4byte	0x1525
 6750 1518 1E       		.uleb128 0x1e
 6751 1519 01       		.uleb128 0x1
 6752 151a 50       		.byte	0x50
 6753 151b 02       		.uleb128 0x2
 6754 151c 76       		.byte	0x76
 6755 151d 00       		.sleb128 0
 6756 151e 1E       		.uleb128 0x1e
 6757 151f 01       		.uleb128 0x1
 6758 1520 51       		.byte	0x51
 6759 1521 02       		.uleb128 0x2
 6760 1522 78       		.byte	0x78
 6761 1523 00       		.sleb128 0
 6762 1524 00       		.byte	0
 6763 1525 1D       		.uleb128 0x1d
 6764 1526 12020000 		.4byte	.LVL305
 6765 152a CE070000 		.4byte	0x7ce
 6766 152e 45150000 		.4byte	0x1545
 6767 1532 1E       		.uleb128 0x1e
 6768 1533 01       		.uleb128 0x1
 6769 1534 50       		.byte	0x50
 6770 1535 05       		.uleb128 0x5
 6771 1536 91       		.byte	0x91
 6772 1537 F87E     		.sleb128 -136
 6773 1539 94       		.byte	0x94
 6774 153a 02       		.byte	0x2
ARM GAS  C:\Users\CHRONI~1\AppData\Local\Temp\ccho61l0.s 			page 162


 6775 153b 1E       		.uleb128 0x1e
 6776 153c 01       		.uleb128 0x1
 6777 153d 51       		.byte	0x51
 6778 153e 05       		.uleb128 0x5
 6779 153f 91       		.byte	0x91
 6780 1540 FC7E     		.sleb128 -132
 6781 1542 94       		.byte	0x94
 6782 1543 01       		.byte	0x1
 6783 1544 00       		.byte	0
 6784 1545 21       		.uleb128 0x21
 6785 1546 24020000 		.4byte	.LVL306
 6786 154a 15070000 		.4byte	0x715
 6787 154e 1E       		.uleb128 0x1e
 6788 154f 01       		.uleb128 0x1
 6789 1550 50       		.byte	0x50
 6790 1551 05       		.uleb128 0x5
 6791 1552 91       		.byte	0x91
 6792 1553 F47E     		.sleb128 -140
 6793 1555 94       		.byte	0x94
 6794 1556 02       		.byte	0x2
 6795 1557 1E       		.uleb128 0x1e
 6796 1558 01       		.uleb128 0x1
 6797 1559 51       		.byte	0x51
 6798 155a 02       		.uleb128 0x2
 6799 155b 79       		.byte	0x79
 6800 155c 00       		.sleb128 0
 6801 155d 1E       		.uleb128 0x1e
 6802 155e 01       		.uleb128 0x1
 6803 155f 52       		.byte	0x52
 6804 1560 02       		.uleb128 0x2
 6805 1561 78       		.byte	0x78
 6806 1562 00       		.sleb128 0
 6807 1563 00       		.byte	0
 6808 1564 00       		.byte	0
 6809 1565 06       		.uleb128 0x6
 6810 1566 04       		.byte	0x4
 6811 1567 6B150000 		.4byte	0x156b
 6812 156b 0A       		.uleb128 0xa
 6813 156c A10B0000 		.4byte	0xba1
 6814 1570 1A       		.uleb128 0x1a
 6815 1571 CE000000 		.4byte	0xce
 6816 1575 80150000 		.4byte	0x1580
 6817 1579 1B       		.uleb128 0x1b
 6818 157a 3A050000 		.4byte	0x53a
 6819 157e 32       		.byte	0x32
 6820 157f 00       		.byte	0
 6821 1580 1A       		.uleb128 0x1a
 6822 1581 CE000000 		.4byte	0xce
 6823 1585 90150000 		.4byte	0x1590
 6824 1589 1B       		.uleb128 0x1b
 6825 158a 3A050000 		.4byte	0x53a
 6826 158e 1D       		.byte	0x1d
 6827 158f 00       		.byte	0
 6828 1590 2D       		.uleb128 0x2d
 6829 1591 2F090000 		.4byte	.LASF184
 6830 1595 01       		.byte	0x1
 6831 1596 0E01     		.2byte	0x10e
ARM GAS  C:\Users\CHRONI~1\AppData\Local\Temp\ccho61l0.s 			page 163


 6832 1598 C3000000 		.4byte	0xc3
 6833 159c 00000000 		.4byte	.LFB4
 6834 15a0 58000000 		.4byte	.LFE4-.LFB4
 6835 15a4 01       		.uleb128 0x1
 6836 15a5 9C       		.byte	0x9c
 6837 15a6 57160000 		.4byte	0x1657
 6838 15aa 18       		.uleb128 0x18
 6839 15ab 64657600 		.ascii	"dev\000"
 6840 15af 01       		.byte	0x1
 6841 15b0 0E01     		.2byte	0x10e
 6842 15b2 BD050000 		.4byte	0x5bd
 6843 15b6 87150000 		.4byte	.LLST111
 6844 15ba 14       		.uleb128 0x14
 6845 15bb 89070000 		.4byte	.LASF130
 6846 15bf 01       		.byte	0x1
 6847 15c0 1001     		.2byte	0x110
 6848 15c2 C3000000 		.4byte	0xc3
 6849 15c6 A5150000 		.4byte	.LLST112
 6850 15ca 19       		.uleb128 0x19
 6851 15cb 5D070000 		.4byte	.LASF132
 6852 15cf 01       		.byte	0x1
 6853 15d0 1101     		.2byte	0x111
 6854 15d2 CE000000 		.4byte	0xce
 6855 15d6 02       		.uleb128 0x2
 6856 15d7 91       		.byte	0x91
 6857 15d8 6F       		.sleb128 -17
 6858 15d9 19       		.uleb128 0x19
 6859 15da AB030000 		.4byte	.LASF185
 6860 15de 01       		.byte	0x1
 6861 15df 1401     		.2byte	0x114
 6862 15e1 CE000000 		.4byte	0xce
 6863 15e5 02       		.uleb128 0x2
 6864 15e6 91       		.byte	0x91
 6865 15e7 6E       		.sleb128 -18
 6866 15e8 1D       		.uleb128 0x1d
 6867 15e9 16000000 		.4byte	.LVL311
 6868 15ed 2D090000 		.4byte	0x92d
 6869 15f1 FC150000 		.4byte	0x15fc
 6870 15f5 1E       		.uleb128 0x1e
 6871 15f6 01       		.uleb128 0x1
 6872 15f7 50       		.byte	0x50
 6873 15f8 02       		.uleb128 0x2
 6874 15f9 75       		.byte	0x75
 6875 15fa 00       		.sleb128 0
 6876 15fb 00       		.byte	0
 6877 15fc 1D       		.uleb128 0x1d
 6878 15fd 24000000 		.4byte	.LVL313
 6879 1601 1E0A0000 		.4byte	0xa1e
 6880 1605 10160000 		.4byte	0x1610
 6881 1609 1E       		.uleb128 0x1e
 6882 160a 01       		.uleb128 0x1
 6883 160b 50       		.byte	0x50
 6884 160c 02       		.uleb128 0x2
 6885 160d 75       		.byte	0x75
 6886 160e 00       		.sleb128 0
 6887 160f 00       		.byte	0
 6888 1610 1D       		.uleb128 0x1d
ARM GAS  C:\Users\CHRONI~1\AppData\Local\Temp\ccho61l0.s 			page 164


 6889 1611 38000000 		.4byte	.LVL315
 6890 1615 C30C0000 		.4byte	0xcc3
 6891 1619 35160000 		.4byte	0x1635
 6892 161d 1E       		.uleb128 0x1e
 6893 161e 01       		.uleb128 0x1
 6894 161f 50       		.byte	0x50
 6895 1620 02       		.uleb128 0x2
 6896 1621 91       		.byte	0x91
 6897 1622 6F       		.sleb128 -17
 6898 1623 1E       		.uleb128 0x1e
 6899 1624 01       		.uleb128 0x1
 6900 1625 51       		.byte	0x51
 6901 1626 02       		.uleb128 0x2
 6902 1627 91       		.byte	0x91
 6903 1628 6E       		.sleb128 -18
 6904 1629 1E       		.uleb128 0x1e
 6905 162a 01       		.uleb128 0x1
 6906 162b 52       		.byte	0x52
 6907 162c 01       		.uleb128 0x1
 6908 162d 31       		.byte	0x31
 6909 162e 1E       		.uleb128 0x1e
 6910 162f 01       		.uleb128 0x1
 6911 1630 53       		.byte	0x53
 6912 1631 02       		.uleb128 0x2
 6913 1632 75       		.byte	0x75
 6914 1633 00       		.sleb128 0
 6915 1634 00       		.byte	0
 6916 1635 2E       		.uleb128 0x2e
 6917 1636 46000000 		.4byte	.LVL317
 6918 163a 46160000 		.4byte	0x1646
 6919 163e 1E       		.uleb128 0x1e
 6920 163f 01       		.uleb128 0x1
 6921 1640 50       		.byte	0x50
 6922 1641 03       		.uleb128 0x3
 6923 1642 0A       		.byte	0xa
 6924 1643 1027     		.2byte	0x2710
 6925 1645 00       		.byte	0
 6926 1646 21       		.uleb128 0x21
 6927 1647 50000000 		.4byte	.LVL318
 6928 164b 1E0A0000 		.4byte	0xa1e
 6929 164f 1E       		.uleb128 0x1e
 6930 1650 01       		.uleb128 0x1
 6931 1651 50       		.byte	0x50
 6932 1652 02       		.uleb128 0x2
 6933 1653 75       		.byte	0x75
 6934 1654 00       		.sleb128 0
 6935 1655 00       		.byte	0
 6936 1656 00       		.byte	0
 6937 1657 27       		.uleb128 0x27
 6938 1658 2F020000 		.4byte	.LASF186
 6939 165c 01       		.byte	0x1
 6940 165d 90       		.byte	0x90
 6941 165e C3000000 		.4byte	0xc3
 6942 1662 00000000 		.4byte	.LFB1
 6943 1666 3A000000 		.4byte	.LFE1-.LFB1
 6944 166a 01       		.uleb128 0x1
 6945 166b 9C       		.byte	0x9c
ARM GAS  C:\Users\CHRONI~1\AppData\Local\Temp\ccho61l0.s 			page 165


 6946 166c EC160000 		.4byte	0x16ec
 6947 1670 29       		.uleb128 0x29
 6948 1671 64657600 		.ascii	"dev\000"
 6949 1675 01       		.byte	0x1
 6950 1676 90       		.byte	0x90
 6951 1677 BD050000 		.4byte	0x5bd
 6952 167b D9150000 		.4byte	.LLST113
 6953 167f 2A       		.uleb128 0x2a
 6954 1680 89070000 		.4byte	.LASF130
 6955 1684 01       		.byte	0x1
 6956 1685 93       		.byte	0x93
 6957 1686 C3000000 		.4byte	0xc3
 6958 168a F7150000 		.4byte	.LLST114
 6959 168e 1D       		.uleb128 0x1d
 6960 168f 08000000 		.4byte	.LVL321
 6961 1693 90150000 		.4byte	0x1590
 6962 1697 A2160000 		.4byte	0x16a2
 6963 169b 1E       		.uleb128 0x1e
 6964 169c 01       		.uleb128 0x1
 6965 169d 50       		.byte	0x50
 6966 169e 02       		.uleb128 0x2
 6967 169f 74       		.byte	0x74
 6968 16a0 00       		.sleb128 0
 6969 16a1 00       		.byte	0
 6970 16a2 1D       		.uleb128 0x1d
 6971 16a3 14000000 		.4byte	.LVL322
 6972 16a7 5B0F0000 		.4byte	0xf5b
 6973 16ab C7160000 		.4byte	0x16c7
 6974 16af 1E       		.uleb128 0x1e
 6975 16b0 01       		.uleb128 0x1
 6976 16b1 50       		.byte	0x50
 6977 16b2 02       		.uleb128 0x2
 6978 16b3 09       		.byte	0x9
 6979 16b4 D0       		.byte	0xd0
 6980 16b5 1E       		.uleb128 0x1e
 6981 16b6 01       		.uleb128 0x1
 6982 16b7 51       		.byte	0x51
 6983 16b8 02       		.uleb128 0x2
 6984 16b9 74       		.byte	0x74
 6985 16ba 00       		.sleb128 0
 6986 16bb 1E       		.uleb128 0x1e
 6987 16bc 01       		.uleb128 0x1
 6988 16bd 52       		.byte	0x52
 6989 16be 01       		.uleb128 0x1
 6990 16bf 31       		.byte	0x31
 6991 16c0 1E       		.uleb128 0x1e
 6992 16c1 01       		.uleb128 0x1
 6993 16c2 53       		.byte	0x53
 6994 16c3 02       		.uleb128 0x2
 6995 16c4 74       		.byte	0x74
 6996 16c5 00       		.sleb128 0
 6997 16c6 00       		.byte	0
 6998 16c7 1D       		.uleb128 0x1d
 6999 16c8 24000000 		.4byte	.LVL324
 7000 16cc 09100000 		.4byte	0x1009
 7001 16d0 DB160000 		.4byte	0x16db
 7002 16d4 1E       		.uleb128 0x1e
ARM GAS  C:\Users\CHRONI~1\AppData\Local\Temp\ccho61l0.s 			page 166


 7003 16d5 01       		.uleb128 0x1
 7004 16d6 50       		.byte	0x50
 7005 16d7 02       		.uleb128 0x2
 7006 16d8 74       		.byte	0x74
 7007 16d9 00       		.sleb128 0
 7008 16da 00       		.byte	0
 7009 16db 21       		.uleb128 0x21
 7010 16dc 2E000000 		.4byte	.LVL326
 7011 16e0 74100000 		.4byte	0x1074
 7012 16e4 1E       		.uleb128 0x1e
 7013 16e5 01       		.uleb128 0x1
 7014 16e6 50       		.byte	0x50
 7015 16e7 02       		.uleb128 0x2
 7016 16e8 74       		.byte	0x74
 7017 16e9 00       		.sleb128 0
 7018 16ea 00       		.byte	0
 7019 16eb 00       		.byte	0
 7020 16ec 2D       		.uleb128 0x2d
 7021 16ed 91040000 		.4byte	.LASF187
 7022 16f1 01       		.byte	0x1
 7023 16f2 8C01     		.2byte	0x18c
 7024 16f4 C3000000 		.4byte	0xc3
 7025 16f8 00000000 		.4byte	.LFB6
 7026 16fc 58000000 		.4byte	.LFE6-.LFB6
 7027 1700 01       		.uleb128 0x1
 7028 1701 9C       		.byte	0x9c
 7029 1702 73170000 		.4byte	0x1773
 7030 1706 12       		.uleb128 0x12
 7031 1707 34000000 		.4byte	.LASF157
 7032 170b 01       		.byte	0x1
 7033 170c 8C01     		.2byte	0x18c
 7034 170e 73170000 		.4byte	0x1773
 7035 1712 36160000 		.4byte	.LLST115
 7036 1716 18       		.uleb128 0x18
 7037 1717 64657600 		.ascii	"dev\000"
 7038 171b 01       		.byte	0x1
 7039 171c 8C01     		.2byte	0x18c
 7040 171e BD050000 		.4byte	0x5bd
 7041 1722 54160000 		.4byte	.LLST116
 7042 1726 19       		.uleb128 0x19
 7043 1727 89070000 		.4byte	.LASF130
 7044 172b 01       		.byte	0x1
 7045 172c 8E01     		.2byte	0x18e
 7046 172e C3000000 		.4byte	0xc3
 7047 1732 01       		.uleb128 0x1
 7048 1733 50       		.byte	0x50
 7049 1734 2F       		.uleb128 0x2f
 7050 1735 5D070000 		.4byte	.LASF132
 7051 1739 01       		.byte	0x1
 7052 173a 9101     		.2byte	0x191
 7053 173c CE000000 		.4byte	0xce
 7054 1740 71       		.byte	0x71
 7055 1741 19       		.uleb128 0x19
 7056 1742 71010000 		.4byte	.LASF188
 7057 1746 01       		.byte	0x1
 7058 1747 9201     		.2byte	0x192
 7059 1749 79170000 		.4byte	0x1779
ARM GAS  C:\Users\CHRONI~1\AppData\Local\Temp\ccho61l0.s 			page 167


 7060 174d 02       		.uleb128 0x2
 7061 174e 91       		.byte	0x91
 7062 174f 70       		.sleb128 -16
 7063 1750 21       		.uleb128 0x21
 7064 1751 12000000 		.4byte	.LVL334
 7065 1755 5B0F0000 		.4byte	0xf5b
 7066 1759 1E       		.uleb128 0x1e
 7067 175a 01       		.uleb128 0x1
 7068 175b 50       		.byte	0x50
 7069 175c 02       		.uleb128 0x2
 7070 175d 08       		.byte	0x8
 7071 175e 71       		.byte	0x71
 7072 175f 1E       		.uleb128 0x1e
 7073 1760 01       		.uleb128 0x1
 7074 1761 51       		.byte	0x51
 7075 1762 02       		.uleb128 0x2
 7076 1763 7D       		.byte	0x7d
 7077 1764 00       		.sleb128 0
 7078 1765 1E       		.uleb128 0x1e
 7079 1766 01       		.uleb128 0x1
 7080 1767 52       		.byte	0x52
 7081 1768 01       		.uleb128 0x1
 7082 1769 35       		.byte	0x35
 7083 176a 1E       		.uleb128 0x1e
 7084 176b 01       		.uleb128 0x1
 7085 176c 53       		.byte	0x53
 7086 176d 03       		.uleb128 0x3
 7087 176e F3       		.byte	0xf3
 7088 176f 01       		.uleb128 0x1
 7089 1770 51       		.byte	0x51
 7090 1771 00       		.byte	0
 7091 1772 00       		.byte	0
 7092 1773 06       		.uleb128 0x6
 7093 1774 04       		.byte	0x4
 7094 1775 D2030000 		.4byte	0x3d2
 7095 1779 1A       		.uleb128 0x1a
 7096 177a CE000000 		.4byte	0xce
 7097 177e 89170000 		.4byte	0x1789
 7098 1782 1B       		.uleb128 0x1b
 7099 1783 3A050000 		.4byte	0x53a
 7100 1787 04       		.byte	0x4
 7101 1788 00       		.byte	0
 7102 1789 2D       		.uleb128 0x2d
 7103 178a 5E010000 		.4byte	.LASF189
 7104 178e 01       		.byte	0x1
 7105 178f AF01     		.2byte	0x1af
 7106 1791 C3000000 		.4byte	0xc3
 7107 1795 00000000 		.4byte	.LFB7
 7108 1799 80000000 		.4byte	.LFE7-.LFB7
 7109 179d 01       		.uleb128 0x1
 7110 179e 9C       		.byte	0x9c
 7111 179f 7E180000 		.4byte	0x187e
 7112 17a3 12       		.uleb128 0x12
 7113 17a4 C0060000 		.4byte	.LASF158
 7114 17a8 01       		.byte	0x1
 7115 17a9 AF01     		.2byte	0x1af
 7116 17ab 90010000 		.4byte	0x190
ARM GAS  C:\Users\CHRONI~1\AppData\Local\Temp\ccho61l0.s 			page 168


 7117 17af 80160000 		.4byte	.LLST117
 7118 17b3 18       		.uleb128 0x18
 7119 17b4 64657600 		.ascii	"dev\000"
 7120 17b8 01       		.byte	0x1
 7121 17b9 AF01     		.2byte	0x1af
 7122 17bb BD050000 		.4byte	0x5bd
 7123 17bf A1160000 		.4byte	.LLST118
 7124 17c3 14       		.uleb128 0x14
 7125 17c4 89070000 		.4byte	.LASF130
 7126 17c8 01       		.byte	0x1
 7127 17c9 B101     		.2byte	0x1b1
 7128 17cb C3000000 		.4byte	0xc3
 7129 17cf BF160000 		.4byte	.LLST119
 7130 17d3 19       		.uleb128 0x19
 7131 17d4 65090000 		.4byte	.LASF190
 7132 17d8 01       		.byte	0x1
 7133 17d9 B201     		.2byte	0x1b2
 7134 17db CE000000 		.4byte	0xce
 7135 17df 02       		.uleb128 0x2
 7136 17e0 91       		.byte	0x91
 7137 17e1 67       		.sleb128 -25
 7138 17e2 14       		.uleb128 0x14
 7139 17e3 DA050000 		.4byte	.LASF191
 7140 17e7 01       		.byte	0x1
 7141 17e8 B301     		.2byte	0x1b3
 7142 17ea CE000000 		.4byte	0xce
 7143 17ee DD160000 		.4byte	.LLST120
 7144 17f2 19       		.uleb128 0x19
 7145 17f3 5D070000 		.4byte	.LASF132
 7146 17f7 01       		.byte	0x1
 7147 17f8 B401     		.2byte	0x1b4
 7148 17fa CE000000 		.4byte	0xce
 7149 17fe 02       		.uleb128 0x2
 7150 17ff 91       		.byte	0x91
 7151 1800 66       		.sleb128 -26
 7152 1801 1D       		.uleb128 0x1d
 7153 1802 1E000000 		.4byte	.LVL339
 7154 1806 5B0F0000 		.4byte	0xf5b
 7155 180a 26180000 		.4byte	0x1826
 7156 180e 1E       		.uleb128 0x1e
 7157 180f 01       		.uleb128 0x1
 7158 1810 50       		.byte	0x50
 7159 1811 02       		.uleb128 0x2
 7160 1812 08       		.byte	0x8
 7161 1813 74       		.byte	0x74
 7162 1814 1E       		.uleb128 0x1e
 7163 1815 01       		.uleb128 0x1
 7164 1816 51       		.byte	0x51
 7165 1817 02       		.uleb128 0x2
 7166 1818 91       		.byte	0x91
 7167 1819 67       		.sleb128 -25
 7168 181a 1E       		.uleb128 0x1e
 7169 181b 01       		.uleb128 0x1
 7170 181c 52       		.byte	0x52
 7171 181d 01       		.uleb128 0x1
 7172 181e 31       		.byte	0x31
 7173 181f 1E       		.uleb128 0x1e
ARM GAS  C:\Users\CHRONI~1\AppData\Local\Temp\ccho61l0.s 			page 169


 7174 1820 01       		.uleb128 0x1
 7175 1821 53       		.byte	0x53
 7176 1822 02       		.uleb128 0x2
 7177 1823 76       		.byte	0x76
 7178 1824 00       		.sleb128 0
 7179 1825 00       		.byte	0
 7180 1826 1D       		.uleb128 0x1d
 7181 1827 42000000 		.4byte	.LVL344
 7182 182b C30C0000 		.4byte	0xcc3
 7183 182f 4B180000 		.4byte	0x184b
 7184 1833 1E       		.uleb128 0x1e
 7185 1834 01       		.uleb128 0x1
 7186 1835 50       		.byte	0x50
 7187 1836 02       		.uleb128 0x2
 7188 1837 91       		.byte	0x91
 7189 1838 66       		.sleb128 -26
 7190 1839 1E       		.uleb128 0x1e
 7191 183a 01       		.uleb128 0x1
 7192 183b 51       		.byte	0x51
 7193 183c 02       		.uleb128 0x2
 7194 183d 91       		.byte	0x91
 7195 183e 67       		.sleb128 -25
 7196 183f 1E       		.uleb128 0x1e
 7197 1840 01       		.uleb128 0x1
 7198 1841 52       		.byte	0x52
 7199 1842 01       		.uleb128 0x1
 7200 1843 31       		.byte	0x31
 7201 1844 1E       		.uleb128 0x1e
 7202 1845 01       		.uleb128 0x1
 7203 1846 53       		.byte	0x53
 7204 1847 02       		.uleb128 0x2
 7205 1848 76       		.byte	0x76
 7206 1849 00       		.sleb128 0
 7207 184a 00       		.byte	0
 7208 184b 2E       		.uleb128 0x2e
 7209 184c 4E000000 		.4byte	.LVL346
 7210 1850 5C180000 		.4byte	0x185c
 7211 1854 1E       		.uleb128 0x1e
 7212 1855 01       		.uleb128 0x1
 7213 1856 50       		.byte	0x50
 7214 1857 03       		.uleb128 0x3
 7215 1858 0A       		.byte	0xa
 7216 1859 1027     		.2byte	0x2710
 7217 185b 00       		.byte	0
 7218 185c 21       		.uleb128 0x21
 7219 185d 78000000 		.4byte	.LVL347
 7220 1861 C30C0000 		.4byte	0xcc3
 7221 1865 1E       		.uleb128 0x1e
 7222 1866 01       		.uleb128 0x1
 7223 1867 50       		.byte	0x50
 7224 1868 02       		.uleb128 0x2
 7225 1869 91       		.byte	0x91
 7226 186a 66       		.sleb128 -26
 7227 186b 1E       		.uleb128 0x1e
 7228 186c 01       		.uleb128 0x1
 7229 186d 51       		.byte	0x51
 7230 186e 02       		.uleb128 0x2
ARM GAS  C:\Users\CHRONI~1\AppData\Local\Temp\ccho61l0.s 			page 170


 7231 186f 91       		.byte	0x91
 7232 1870 67       		.sleb128 -25
 7233 1871 1E       		.uleb128 0x1e
 7234 1872 01       		.uleb128 0x1
 7235 1873 52       		.byte	0x52
 7236 1874 01       		.uleb128 0x1
 7237 1875 31       		.byte	0x31
 7238 1876 1E       		.uleb128 0x1e
 7239 1877 01       		.uleb128 0x1
 7240 1878 53       		.byte	0x53
 7241 1879 02       		.uleb128 0x2
 7242 187a 76       		.byte	0x76
 7243 187b 00       		.sleb128 0
 7244 187c 00       		.byte	0
 7245 187d 00       		.byte	0
 7246 187e 2D       		.uleb128 0x2d
 7247 187f 5B030000 		.4byte	.LASF192
 7248 1883 01       		.byte	0x1
 7249 1884 D401     		.2byte	0x1d4
 7250 1886 C3000000 		.4byte	0xc3
 7251 188a 00000000 		.4byte	.LFB8
 7252 188e 2C000000 		.4byte	.LFE8-.LFB8
 7253 1892 01       		.uleb128 0x1
 7254 1893 9C       		.byte	0x9c
 7255 1894 FA180000 		.4byte	0x18fa
 7256 1898 12       		.uleb128 0x12
 7257 1899 C0060000 		.4byte	.LASF158
 7258 189d 01       		.byte	0x1
 7259 189e D401     		.2byte	0x1d4
 7260 18a0 52010000 		.4byte	0x152
 7261 18a4 27170000 		.4byte	.LLST121
 7262 18a8 18       		.uleb128 0x18
 7263 18a9 64657600 		.ascii	"dev\000"
 7264 18ad 01       		.byte	0x1
 7265 18ae D401     		.2byte	0x1d4
 7266 18b0 BD050000 		.4byte	0x5bd
 7267 18b4 69170000 		.4byte	.LLST122
 7268 18b8 14       		.uleb128 0x14
 7269 18b9 89070000 		.4byte	.LASF130
 7270 18bd 01       		.byte	0x1
 7271 18be D601     		.2byte	0x1d6
 7272 18c0 C3000000 		.4byte	0xc3
 7273 18c4 AE170000 		.4byte	.LLST123
 7274 18c8 19       		.uleb128 0x19
 7275 18c9 E2000000 		.4byte	.LASF193
 7276 18cd 01       		.byte	0x1
 7277 18ce D701     		.2byte	0x1d7
 7278 18d0 CE000000 		.4byte	0xce
 7279 18d4 02       		.uleb128 0x2
 7280 18d5 91       		.byte	0x91
 7281 18d6 77       		.sleb128 -9
 7282 18d7 21       		.uleb128 0x21
 7283 18d8 16000000 		.4byte	.LVL352
 7284 18dc 5B0F0000 		.4byte	0xf5b
 7285 18e0 1E       		.uleb128 0x1e
 7286 18e1 01       		.uleb128 0x1
 7287 18e2 50       		.byte	0x50
ARM GAS  C:\Users\CHRONI~1\AppData\Local\Temp\ccho61l0.s 			page 171


 7288 18e3 02       		.uleb128 0x2
 7289 18e4 08       		.byte	0x8
 7290 18e5 74       		.byte	0x74
 7291 18e6 1E       		.uleb128 0x1e
 7292 18e7 01       		.uleb128 0x1
 7293 18e8 51       		.byte	0x51
 7294 18e9 02       		.uleb128 0x2
 7295 18ea 91       		.byte	0x91
 7296 18eb 77       		.sleb128 -9
 7297 18ec 1E       		.uleb128 0x1e
 7298 18ed 01       		.uleb128 0x1
 7299 18ee 52       		.byte	0x52
 7300 18ef 01       		.uleb128 0x1
 7301 18f0 31       		.byte	0x31
 7302 18f1 1E       		.uleb128 0x1e
 7303 18f2 01       		.uleb128 0x1
 7304 18f3 53       		.byte	0x53
 7305 18f4 03       		.uleb128 0x3
 7306 18f5 F3       		.byte	0xf3
 7307 18f6 01       		.uleb128 0x1
 7308 18f7 51       		.byte	0x51
 7309 18f8 00       		.byte	0
 7310 18f9 00       		.byte	0
 7311 18fa 2D       		.uleb128 0x2d
 7312 18fb 75080000 		.4byte	.LASF194
 7313 18ff 01       		.byte	0x1
 7314 1900 3801     		.2byte	0x138
 7315 1902 C3000000 		.4byte	0xc3
 7316 1906 00000000 		.4byte	.LFB5
 7317 190a 40010000 		.4byte	.LFE5-.LFB5
 7318 190e 01       		.uleb128 0x1
 7319 190f 9C       		.byte	0x9c
 7320 1910 AF1A0000 		.4byte	0x1aaf
 7321 1914 12       		.uleb128 0x12
 7322 1915 34000000 		.4byte	.LASF157
 7323 1919 01       		.byte	0x1
 7324 191a 3801     		.2byte	0x138
 7325 191c 73170000 		.4byte	0x1773
 7326 1920 CC170000 		.4byte	.LLST124
 7327 1924 18       		.uleb128 0x18
 7328 1925 64657600 		.ascii	"dev\000"
 7329 1929 01       		.byte	0x1
 7330 192a 3801     		.2byte	0x138
 7331 192c BD050000 		.4byte	0x5bd
 7332 1930 11180000 		.4byte	.LLST125
 7333 1934 14       		.uleb128 0x14
 7334 1935 89070000 		.4byte	.LASF130
 7335 1939 01       		.byte	0x1
 7336 193a 3A01     		.2byte	0x13a
 7337 193c C3000000 		.4byte	0xc3
 7338 1940 3D180000 		.4byte	.LLST126
 7339 1944 14       		.uleb128 0x14
 7340 1945 56040000 		.4byte	.LASF195
 7341 1949 01       		.byte	0x1
 7342 194a 3B01     		.2byte	0x13b
 7343 194c CE000000 		.4byte	0xce
 7344 1950 B3180000 		.4byte	.LLST127
ARM GAS  C:\Users\CHRONI~1\AppData\Local\Temp\ccho61l0.s 			page 172


 7345 1954 14       		.uleb128 0x14
 7346 1955 48080000 		.4byte	.LASF196
 7347 1959 01       		.byte	0x1
 7348 195a 3B01     		.2byte	0x13b
 7349 195c CE000000 		.4byte	0xce
 7350 1960 DE180000 		.4byte	.LLST128
 7351 1964 19       		.uleb128 0x19
 7352 1965 B1090000 		.4byte	.LASF197
 7353 1969 01       		.byte	0x1
 7354 196a 3C01     		.2byte	0x13c
 7355 196c CE000000 		.4byte	0xce
 7356 1970 02       		.uleb128 0x2
 7357 1971 91       		.byte	0x91
 7358 1972 6F       		.sleb128 -17
 7359 1973 19       		.uleb128 0x19
 7360 1974 00000000 		.4byte	.LASF198
 7361 1978 01       		.byte	0x1
 7362 1979 3F01     		.2byte	0x13f
 7363 197b 79170000 		.4byte	0x1779
 7364 197f 02       		.uleb128 0x2
 7365 1980 91       		.byte	0x91
 7366 1981 68       		.sleb128 -24
 7367 1982 19       		.uleb128 0x19
 7368 1983 71010000 		.4byte	.LASF188
 7369 1987 01       		.byte	0x1
 7370 1988 4001     		.2byte	0x140
 7371 198a 79170000 		.4byte	0x1779
 7372 198e 02       		.uleb128 0x2
 7373 198f 91       		.byte	0x91
 7374 1990 60       		.sleb128 -32
 7375 1991 1D       		.uleb128 0x1d
 7376 1992 26000000 		.4byte	.LVL359
 7377 1996 7E180000 		.4byte	0x187e
 7378 199a AB190000 		.4byte	0x19ab
 7379 199e 1E       		.uleb128 0x1e
 7380 199f 01       		.uleb128 0x1
 7381 19a0 50       		.byte	0x50
 7382 19a1 02       		.uleb128 0x2
 7383 19a2 91       		.byte	0x91
 7384 19a3 6F       		.sleb128 -17
 7385 19a4 1E       		.uleb128 0x1e
 7386 19a5 01       		.uleb128 0x1
 7387 19a6 51       		.byte	0x51
 7388 19a7 02       		.uleb128 0x2
 7389 19a8 75       		.byte	0x75
 7390 19a9 00       		.sleb128 0
 7391 19aa 00       		.byte	0
 7392 19ab 1D       		.uleb128 0x1d
 7393 19ac 30000000 		.4byte	.LVL360
 7394 19b0 89170000 		.4byte	0x1789
 7395 19b4 BF190000 		.4byte	0x19bf
 7396 19b8 1E       		.uleb128 0x1e
 7397 19b9 01       		.uleb128 0x1
 7398 19ba 51       		.byte	0x51
 7399 19bb 02       		.uleb128 0x2
 7400 19bc 75       		.byte	0x75
 7401 19bd 00       		.sleb128 0
ARM GAS  C:\Users\CHRONI~1\AppData\Local\Temp\ccho61l0.s 			page 173


 7402 19be 00       		.byte	0
 7403 19bf 1D       		.uleb128 0x1d
 7404 19c0 48000000 		.4byte	.LVL363
 7405 19c4 5B0F0000 		.4byte	0xf5b
 7406 19c8 DE190000 		.4byte	0x19de
 7407 19cc 1E       		.uleb128 0x1e
 7408 19cd 01       		.uleb128 0x1
 7409 19ce 51       		.byte	0x51
 7410 19cf 02       		.uleb128 0x2
 7411 19d0 7D       		.byte	0x7d
 7412 19d1 00       		.sleb128 0
 7413 19d2 1E       		.uleb128 0x1e
 7414 19d3 01       		.uleb128 0x1
 7415 19d4 52       		.byte	0x52
 7416 19d5 01       		.uleb128 0x1
 7417 19d6 35       		.byte	0x35
 7418 19d7 1E       		.uleb128 0x1e
 7419 19d8 01       		.uleb128 0x1
 7420 19d9 53       		.byte	0x53
 7421 19da 02       		.uleb128 0x2
 7422 19db 75       		.byte	0x75
 7423 19dc 00       		.sleb128 0
 7424 19dd 00       		.byte	0
 7425 19de 1D       		.uleb128 0x1d
 7426 19df 5C000000 		.4byte	.LVL365
 7427 19e3 960A0000 		.4byte	0xa96
 7428 19e7 FD190000 		.4byte	0x19fd
 7429 19eb 1E       		.uleb128 0x1e
 7430 19ec 01       		.uleb128 0x1
 7431 19ed 50       		.byte	0x50
 7432 19ee 02       		.uleb128 0x2
 7433 19ef 74       		.byte	0x74
 7434 19f0 03       		.sleb128 3
 7435 19f1 1E       		.uleb128 0x1e
 7436 19f2 01       		.uleb128 0x1
 7437 19f3 51       		.byte	0x51
 7438 19f4 01       		.uleb128 0x1
 7439 19f5 37       		.byte	0x37
 7440 19f6 1E       		.uleb128 0x1e
 7441 19f7 01       		.uleb128 0x1
 7442 19f8 52       		.byte	0x52
 7443 19f9 02       		.uleb128 0x2
 7444 19fa 75       		.byte	0x75
 7445 19fb 00       		.sleb128 0
 7446 19fc 00       		.byte	0
 7447 19fd 1D       		.uleb128 0x1d
 7448 19fe 6A000000 		.4byte	.LVL367
 7449 1a02 960A0000 		.4byte	0xa96
 7450 1a06 1C1A0000 		.4byte	0x1a1c
 7451 1a0a 1E       		.uleb128 0x1e
 7452 1a0b 01       		.uleb128 0x1
 7453 1a0c 50       		.byte	0x50
 7454 1a0d 02       		.uleb128 0x2
 7455 1a0e 74       		.byte	0x74
 7456 1a0f 01       		.sleb128 1
 7457 1a10 1E       		.uleb128 0x1e
 7458 1a11 01       		.uleb128 0x1
ARM GAS  C:\Users\CHRONI~1\AppData\Local\Temp\ccho61l0.s 			page 174


 7459 1a12 51       		.byte	0x51
 7460 1a13 01       		.uleb128 0x1
 7461 1a14 35       		.byte	0x35
 7462 1a15 1E       		.uleb128 0x1e
 7463 1a16 01       		.uleb128 0x1
 7464 1a17 52       		.byte	0x52
 7465 1a18 02       		.uleb128 0x2
 7466 1a19 75       		.byte	0x75
 7467 1a1a 00       		.sleb128 0
 7468 1a1b 00       		.byte	0
 7469 1a1c 1D       		.uleb128 0x1d
 7470 1a1d 78000000 		.4byte	.LVL369
 7471 1a21 960A0000 		.4byte	0xa96
 7472 1a25 3B1A0000 		.4byte	0x1a3b
 7473 1a29 1E       		.uleb128 0x1e
 7474 1a2a 01       		.uleb128 0x1
 7475 1a2b 50       		.byte	0x50
 7476 1a2c 02       		.uleb128 0x2
 7477 1a2d 74       		.byte	0x74
 7478 1a2e 02       		.sleb128 2
 7479 1a2f 1E       		.uleb128 0x1e
 7480 1a30 01       		.uleb128 0x1
 7481 1a31 51       		.byte	0x51
 7482 1a32 01       		.uleb128 0x1
 7483 1a33 35       		.byte	0x35
 7484 1a34 1E       		.uleb128 0x1e
 7485 1a35 01       		.uleb128 0x1
 7486 1a36 52       		.byte	0x52
 7487 1a37 02       		.uleb128 0x2
 7488 1a38 75       		.byte	0x75
 7489 1a39 00       		.sleb128 0
 7490 1a3a 00       		.byte	0
 7491 1a3b 1D       		.uleb128 0x1d
 7492 1a3c 86000000 		.4byte	.LVL371
 7493 1a40 960A0000 		.4byte	0xa96
 7494 1a44 5A1A0000 		.4byte	0x1a5a
 7495 1a48 1E       		.uleb128 0x1e
 7496 1a49 01       		.uleb128 0x1
 7497 1a4a 50       		.byte	0x50
 7498 1a4b 02       		.uleb128 0x2
 7499 1a4c 74       		.byte	0x74
 7500 1a4d 00       		.sleb128 0
 7501 1a4e 1E       		.uleb128 0x1e
 7502 1a4f 01       		.uleb128 0x1
 7503 1a50 51       		.byte	0x51
 7504 1a51 01       		.uleb128 0x1
 7505 1a52 35       		.byte	0x35
 7506 1a53 1E       		.uleb128 0x1e
 7507 1a54 01       		.uleb128 0x1
 7508 1a55 52       		.byte	0x52
 7509 1a56 02       		.uleb128 0x2
 7510 1a57 75       		.byte	0x75
 7511 1a58 00       		.sleb128 0
 7512 1a59 00       		.byte	0
 7513 1a5a 1D       		.uleb128 0x1d
 7514 1a5b 94000000 		.4byte	.LVL373
 7515 1a5f 960A0000 		.4byte	0xa96
ARM GAS  C:\Users\CHRONI~1\AppData\Local\Temp\ccho61l0.s 			page 175


 7516 1a63 791A0000 		.4byte	0x1a79
 7517 1a67 1E       		.uleb128 0x1e
 7518 1a68 01       		.uleb128 0x1
 7519 1a69 50       		.byte	0x50
 7520 1a6a 02       		.uleb128 0x2
 7521 1a6b 74       		.byte	0x74
 7522 1a6c 04       		.sleb128 4
 7523 1a6d 1E       		.uleb128 0x1e
 7524 1a6e 01       		.uleb128 0x1
 7525 1a6f 51       		.byte	0x51
 7526 1a70 01       		.uleb128 0x1
 7527 1a71 38       		.byte	0x38
 7528 1a72 1E       		.uleb128 0x1e
 7529 1a73 01       		.uleb128 0x1
 7530 1a74 52       		.byte	0x52
 7531 1a75 02       		.uleb128 0x2
 7532 1a76 75       		.byte	0x75
 7533 1a77 00       		.sleb128 0
 7534 1a78 00       		.byte	0
 7535 1a79 1D       		.uleb128 0x1d
 7536 1a7a 22010000 		.4byte	.LVL380
 7537 1a7e C30C0000 		.4byte	0xcc3
 7538 1a82 9E1A0000 		.4byte	0x1a9e
 7539 1a86 1E       		.uleb128 0x1e
 7540 1a87 01       		.uleb128 0x1
 7541 1a88 50       		.byte	0x50
 7542 1a89 02       		.uleb128 0x2
 7543 1a8a 91       		.byte	0x91
 7544 1a8b 68       		.sleb128 -24
 7545 1a8c 1E       		.uleb128 0x1e
 7546 1a8d 01       		.uleb128 0x1
 7547 1a8e 51       		.byte	0x51
 7548 1a8f 02       		.uleb128 0x2
 7549 1a90 7D       		.byte	0x7d
 7550 1a91 00       		.sleb128 0
 7551 1a92 1E       		.uleb128 0x1e
 7552 1a93 01       		.uleb128 0x1
 7553 1a94 52       		.byte	0x52
 7554 1a95 01       		.uleb128 0x1
 7555 1a96 35       		.byte	0x35
 7556 1a97 1E       		.uleb128 0x1e
 7557 1a98 01       		.uleb128 0x1
 7558 1a99 53       		.byte	0x53
 7559 1a9a 02       		.uleb128 0x2
 7560 1a9b 75       		.byte	0x75
 7561 1a9c 00       		.sleb128 0
 7562 1a9d 00       		.byte	0
 7563 1a9e 21       		.uleb128 0x21
 7564 1a9f 32010000 		.4byte	.LVL382
 7565 1aa3 89170000 		.4byte	0x1789
 7566 1aa7 1E       		.uleb128 0x1e
 7567 1aa8 01       		.uleb128 0x1
 7568 1aa9 51       		.byte	0x51
 7569 1aaa 02       		.uleb128 0x2
 7570 1aab 75       		.byte	0x75
 7571 1aac 00       		.sleb128 0
 7572 1aad 00       		.byte	0
ARM GAS  C:\Users\CHRONI~1\AppData\Local\Temp\ccho61l0.s 			page 176


 7573 1aae 00       		.byte	0
 7574 1aaf 2D       		.uleb128 0x2d
 7575 1ab0 4A010000 		.4byte	.LASF199
 7576 1ab4 01       		.byte	0x1
 7577 1ab5 EB01     		.2byte	0x1eb
 7578 1ab7 FA000000 		.4byte	0xfa
 7579 1abb 00000000 		.4byte	.LFB9
 7580 1abf 8C000000 		.4byte	.LFE9-.LFB9
 7581 1ac3 01       		.uleb128 0x1
 7582 1ac4 9C       		.byte	0x9c
 7583 1ac5 921B0000 		.4byte	0x1b92
 7584 1ac9 12       		.uleb128 0x12
 7585 1aca C0060000 		.4byte	.LASF158
 7586 1ace 01       		.byte	0x1
 7587 1acf EB01     		.2byte	0x1eb
 7588 1ad1 90010000 		.4byte	0x190
 7589 1ad5 09190000 		.4byte	.LLST129
 7590 1ad9 12       		.uleb128 0x12
 7591 1ada 34000000 		.4byte	.LASF157
 7592 1ade 01       		.byte	0x1
 7593 1adf EB01     		.2byte	0x1eb
 7594 1ae1 73170000 		.4byte	0x1773
 7595 1ae5 2A190000 		.4byte	.LLST130
 7596 1ae9 18       		.uleb128 0x18
 7597 1aea 64657600 		.ascii	"dev\000"
 7598 1aee 01       		.byte	0x1
 7599 1aef EB01     		.2byte	0x1eb
 7600 1af1 BD050000 		.4byte	0x5bd
 7601 1af5 6C190000 		.4byte	.LLST131
 7602 1af9 14       		.uleb128 0x14
 7603 1afa 89070000 		.4byte	.LASF130
 7604 1afe 01       		.byte	0x1
 7605 1aff ED01     		.2byte	0x1ed
 7606 1b01 C3000000 		.4byte	0xc3
 7607 1b05 AE190000 		.4byte	.LLST132
 7608 1b09 14       		.uleb128 0x14
 7609 1b0a 4F020000 		.4byte	.LASF200
 7610 1b0e 01       		.byte	0x1
 7611 1b0f EE01     		.2byte	0x1ee
 7612 1b11 FA000000 		.4byte	0xfa
 7613 1b15 E2190000 		.4byte	.LLST133
 7614 1b19 14       		.uleb128 0x14
 7615 1b1a 1C040000 		.4byte	.LASF201
 7616 1b1e 01       		.byte	0x1
 7617 1b1f EF01     		.2byte	0x1ef
 7618 1b21 FA000000 		.4byte	0xfa
 7619 1b25 3F1A0000 		.4byte	.LLST134
 7620 1b29 19       		.uleb128 0x19
 7621 1b2a 99050000 		.4byte	.LASF202
 7622 1b2e 01       		.byte	0x1
 7623 1b2f F001     		.2byte	0x1f0
 7624 1b31 921B0000 		.4byte	0x1b92
 7625 1b35 02       		.uleb128 0x2
 7626 1b36 91       		.byte	0x91
 7627 1b37 68       		.sleb128 -24
 7628 1b38 1D       		.uleb128 0x1d
 7629 1b39 22000000 		.4byte	.LVL389
ARM GAS  C:\Users\CHRONI~1\AppData\Local\Temp\ccho61l0.s 			page 177


 7630 1b3d 960A0000 		.4byte	0xa96
 7631 1b41 571B0000 		.4byte	0x1b57
 7632 1b45 1E       		.uleb128 0x1e
 7633 1b46 01       		.uleb128 0x1
 7634 1b47 50       		.byte	0x50
 7635 1b48 02       		.uleb128 0x2
 7636 1b49 74       		.byte	0x74
 7637 1b4a 01       		.sleb128 1
 7638 1b4b 1E       		.uleb128 0x1e
 7639 1b4c 01       		.uleb128 0x1
 7640 1b4d 51       		.byte	0x51
 7641 1b4e 01       		.uleb128 0x1
 7642 1b4f 35       		.byte	0x35
 7643 1b50 1E       		.uleb128 0x1e
 7644 1b51 01       		.uleb128 0x1
 7645 1b52 52       		.byte	0x52
 7646 1b53 02       		.uleb128 0x2
 7647 1b54 75       		.byte	0x75
 7648 1b55 00       		.sleb128 0
 7649 1b56 00       		.byte	0
 7650 1b57 1D       		.uleb128 0x1d
 7651 1b58 30000000 		.4byte	.LVL391
 7652 1b5c 960A0000 		.4byte	0xa96
 7653 1b60 761B0000 		.4byte	0x1b76
 7654 1b64 1E       		.uleb128 0x1e
 7655 1b65 01       		.uleb128 0x1
 7656 1b66 50       		.byte	0x50
 7657 1b67 02       		.uleb128 0x2
 7658 1b68 74       		.byte	0x74
 7659 1b69 02       		.sleb128 2
 7660 1b6a 1E       		.uleb128 0x1e
 7661 1b6b 01       		.uleb128 0x1
 7662 1b6c 51       		.byte	0x51
 7663 1b6d 01       		.uleb128 0x1
 7664 1b6e 35       		.byte	0x35
 7665 1b6f 1E       		.uleb128 0x1e
 7666 1b70 01       		.uleb128 0x1
 7667 1b71 52       		.byte	0x52
 7668 1b72 02       		.uleb128 0x2
 7669 1b73 75       		.byte	0x75
 7670 1b74 00       		.sleb128 0
 7671 1b75 00       		.byte	0
 7672 1b76 21       		.uleb128 0x21
 7673 1b77 3E000000 		.4byte	.LVL393
 7674 1b7b 960A0000 		.4byte	0xa96
 7675 1b7f 1E       		.uleb128 0x1e
 7676 1b80 01       		.uleb128 0x1
 7677 1b81 50       		.byte	0x50
 7678 1b82 02       		.uleb128 0x2
 7679 1b83 74       		.byte	0x74
 7680 1b84 00       		.sleb128 0
 7681 1b85 1E       		.uleb128 0x1e
 7682 1b86 01       		.uleb128 0x1
 7683 1b87 51       		.byte	0x51
 7684 1b88 01       		.uleb128 0x1
 7685 1b89 35       		.byte	0x35
 7686 1b8a 1E       		.uleb128 0x1e
ARM GAS  C:\Users\CHRONI~1\AppData\Local\Temp\ccho61l0.s 			page 178


 7687 1b8b 01       		.uleb128 0x1
 7688 1b8c 52       		.byte	0x52
 7689 1b8d 02       		.uleb128 0x2
 7690 1b8e 75       		.byte	0x75
 7691 1b8f 00       		.sleb128 0
 7692 1b90 00       		.byte	0
 7693 1b91 00       		.byte	0
 7694 1b92 1A       		.uleb128 0x1a
 7695 1b93 CE000000 		.4byte	0xce
 7696 1b97 A21B0000 		.4byte	0x1ba2
 7697 1b9b 1B       		.uleb128 0x1b
 7698 1b9c 3A050000 		.4byte	0x53a
 7699 1ba0 05       		.byte	0x5
 7700 1ba1 00       		.byte	0
 7701 1ba2 2D       		.uleb128 0x2d
 7702 1ba3 A1040000 		.4byte	.LASF203
 7703 1ba7 01       		.byte	0x1
 7704 1ba8 1D02     		.2byte	0x21d
 7705 1baa C3000000 		.4byte	0xc3
 7706 1bae 00000000 		.4byte	.LFB10
 7707 1bb2 4A010000 		.4byte	.LFE10-.LFB10
 7708 1bb6 01       		.uleb128 0x1
 7709 1bb7 9C       		.byte	0x9c
 7710 1bb8 DB1C0000 		.4byte	0x1cdb
 7711 1bbc 12       		.uleb128 0x12
 7712 1bbd C0060000 		.4byte	.LASF158
 7713 1bc1 01       		.byte	0x1
 7714 1bc2 1D02     		.2byte	0x21d
 7715 1bc4 CE000000 		.4byte	0xce
 7716 1bc8 921A0000 		.4byte	.LLST135
 7717 1bcc 12       		.uleb128 0x12
 7718 1bcd C7040000 		.4byte	.LASF149
 7719 1bd1 01       		.byte	0x1
 7720 1bd2 1D02     		.2byte	0x21d
 7721 1bd4 A10B0000 		.4byte	0xba1
 7722 1bd8 B31A0000 		.4byte	.LLST136
 7723 1bdc 12       		.uleb128 0x12
 7724 1bdd 72090000 		.4byte	.LASF204
 7725 1be1 01       		.byte	0x1
 7726 1be2 1D02     		.2byte	0x21d
 7727 1be4 52010000 		.4byte	0x152
 7728 1be8 D11A0000 		.4byte	.LLST137
 7729 1bec 18       		.uleb128 0x18
 7730 1bed 64657600 		.ascii	"dev\000"
 7731 1bf1 01       		.byte	0x1
 7732 1bf2 1D02     		.2byte	0x21d
 7733 1bf4 BD050000 		.4byte	0x5bd
 7734 1bf8 EF1A0000 		.4byte	.LLST138
 7735 1bfc 14       		.uleb128 0x14
 7736 1bfd 89070000 		.4byte	.LASF130
 7737 1c01 01       		.byte	0x1
 7738 1c02 1F02     		.2byte	0x21f
 7739 1c04 C3000000 		.4byte	0xc3
 7740 1c08 7F1B0000 		.4byte	.LLST139
 7741 1c0c 26       		.uleb128 0x26
 7742 1c0d 6900     		.ascii	"i\000"
 7743 1c0f 01       		.byte	0x1
ARM GAS  C:\Users\CHRONI~1\AppData\Local\Temp\ccho61l0.s 			page 179


 7744 1c10 2002     		.2byte	0x220
 7745 1c12 CE000000 		.4byte	0xce
 7746 1c16 D41B0000 		.4byte	.LLST140
 7747 1c1a 26       		.uleb128 0x26
 7748 1c1b 6A00     		.ascii	"j\000"
 7749 1c1d 01       		.byte	0x1
 7750 1c1e 2002     		.2byte	0x220
 7751 1c20 CE000000 		.4byte	0xce
 7752 1c24 6E1C0000 		.4byte	.LLST141
 7753 1c28 14       		.uleb128 0x14
 7754 1c29 5C040000 		.4byte	.LASF205
 7755 1c2d 01       		.byte	0x1
 7756 1c2e 2002     		.2byte	0x220
 7757 1c30 CE000000 		.4byte	0xce
 7758 1c34 C71C0000 		.4byte	.LLST142
 7759 1c38 19       		.uleb128 0x19
 7760 1c39 FF010000 		.4byte	.LASF206
 7761 1c3d 01       		.byte	0x1
 7762 1c3e 2102     		.2byte	0x221
 7763 1c40 DB1C0000 		.4byte	0x1cdb
 7764 1c44 02       		.uleb128 0x2
 7765 1c45 91       		.byte	0x91
 7766 1c46 54       		.sleb128 -44
 7767 1c47 19       		.uleb128 0x19
 7768 1c48 AF070000 		.4byte	.LASF207
 7769 1c4c 01       		.byte	0x1
 7770 1c4d 2202     		.2byte	0x222
 7771 1c4f EB1C0000 		.4byte	0x1ceb
 7772 1c53 03       		.uleb128 0x3
 7773 1c54 91       		.byte	0x91
 7774 1c55 987F     		.sleb128 -104
 7775 1c57 1D       		.uleb128 0x1d
 7776 1c58 18000000 		.4byte	.LVL411
 7777 1c5c 19210000 		.4byte	0x2119
 7778 1c60 761C0000 		.4byte	0x1c76
 7779 1c64 1E       		.uleb128 0x1e
 7780 1c65 01       		.uleb128 0x1
 7781 1c66 50       		.byte	0x50
 7782 1c67 02       		.uleb128 0x2
 7783 1c68 7D       		.byte	0x7d
 7784 1c69 00       		.sleb128 0
 7785 1c6a 1E       		.uleb128 0x1e
 7786 1c6b 01       		.uleb128 0x1
 7787 1c6c 51       		.byte	0x51
 7788 1c6d 01       		.uleb128 0x1
 7789 1c6e 30       		.byte	0x30
 7790 1c6f 1E       		.uleb128 0x1e
 7791 1c70 01       		.uleb128 0x1
 7792 1c71 52       		.byte	0x52
 7793 1c72 02       		.uleb128 0x2
 7794 1c73 08       		.byte	0x8
 7795 1c74 3C       		.byte	0x3c
 7796 1c75 00       		.byte	0
 7797 1c76 1D       		.uleb128 0x1d
 7798 1c77 2A000000 		.4byte	.LVL412
 7799 1c7b 2D090000 		.4byte	0x92d
 7800 1c7f 8A1C0000 		.4byte	0x1c8a
ARM GAS  C:\Users\CHRONI~1\AppData\Local\Temp\ccho61l0.s 			page 180


 7801 1c83 1E       		.uleb128 0x1e
 7802 1c84 01       		.uleb128 0x1
 7803 1c85 50       		.byte	0x50
 7804 1c86 02       		.uleb128 0x2
 7805 1c87 76       		.byte	0x76
 7806 1c88 00       		.sleb128 0
 7807 1c89 00       		.byte	0
 7808 1c8a 1D       		.uleb128 0x1d
 7809 1c8b 42000000 		.4byte	.LVL413
 7810 1c8f 38110000 		.4byte	0x1138
 7811 1c93 A41C0000 		.4byte	0x1ca4
 7812 1c97 1E       		.uleb128 0x1e
 7813 1c98 01       		.uleb128 0x1
 7814 1c99 51       		.byte	0x51
 7815 1c9a 02       		.uleb128 0x2
 7816 1c9b 77       		.byte	0x77
 7817 1c9c 00       		.sleb128 0
 7818 1c9d 1E       		.uleb128 0x1e
 7819 1c9e 01       		.uleb128 0x1
 7820 1c9f 52       		.byte	0x52
 7821 1ca0 02       		.uleb128 0x2
 7822 1ca1 76       		.byte	0x76
 7823 1ca2 00       		.sleb128 0
 7824 1ca3 00       		.byte	0
 7825 1ca4 1D       		.uleb128 0x1d
 7826 1ca5 66000000 		.4byte	.LVL417
 7827 1ca9 5A130000 		.4byte	0x135a
 7828 1cad BE1C0000 		.4byte	0x1cbe
 7829 1cb1 1E       		.uleb128 0x1e
 7830 1cb2 01       		.uleb128 0x1
 7831 1cb3 50       		.byte	0x50
 7832 1cb4 02       		.uleb128 0x2
 7833 1cb5 91       		.byte	0x91
 7834 1cb6 54       		.sleb128 -44
 7835 1cb7 1E       		.uleb128 0x1e
 7836 1cb8 01       		.uleb128 0x1
 7837 1cb9 51       		.byte	0x51
 7838 1cba 02       		.uleb128 0x2
 7839 1cbb 76       		.byte	0x76
 7840 1cbc 00       		.sleb128 0
 7841 1cbd 00       		.byte	0
 7842 1cbe 21       		.uleb128 0x21
 7843 1cbf B2000000 		.4byte	.LVL427
 7844 1cc3 A70B0000 		.4byte	0xba7
 7845 1cc7 1E       		.uleb128 0x1e
 7846 1cc8 01       		.uleb128 0x1
 7847 1cc9 50       		.byte	0x50
 7848 1cca 02       		.uleb128 0x2
 7849 1ccb 79       		.byte	0x79
 7850 1ccc 00       		.sleb128 0
 7851 1ccd 1E       		.uleb128 0x1e
 7852 1cce 01       		.uleb128 0x1
 7853 1ccf 51       		.byte	0x51
 7854 1cd0 02       		.uleb128 0x2
 7855 1cd1 74       		.byte	0x74
 7856 1cd2 00       		.sleb128 0
 7857 1cd3 1E       		.uleb128 0x1e
ARM GAS  C:\Users\CHRONI~1\AppData\Local\Temp\ccho61l0.s 			page 181


 7858 1cd4 01       		.uleb128 0x1
 7859 1cd5 52       		.byte	0x52
 7860 1cd6 02       		.uleb128 0x2
 7861 1cd7 91       		.byte	0x91
 7862 1cd8 54       		.sleb128 -44
 7863 1cd9 00       		.byte	0
 7864 1cda 00       		.byte	0
 7865 1cdb 1A       		.uleb128 0x1a
 7866 1cdc A10B0000 		.4byte	0xba1
 7867 1ce0 EB1C0000 		.4byte	0x1ceb
 7868 1ce4 1B       		.uleb128 0x1b
 7869 1ce5 3A050000 		.4byte	0x53a
 7870 1ce9 02       		.byte	0x2
 7871 1cea 00       		.byte	0
 7872 1ceb 1A       		.uleb128 0x1a
 7873 1cec D5010000 		.4byte	0x1d5
 7874 1cf0 FB1C0000 		.4byte	0x1cfb
 7875 1cf4 1B       		.uleb128 0x1b
 7876 1cf5 3A050000 		.4byte	0x53a
 7877 1cf9 02       		.byte	0x2
 7878 1cfa 00       		.byte	0
 7879 1cfb 2D       		.uleb128 0x2d
 7880 1cfc 0A000000 		.4byte	.LASF208
 7881 1d00 01       		.byte	0x1
 7882 1d01 7702     		.2byte	0x277
 7883 1d03 C3000000 		.4byte	0xc3
 7884 1d07 00000000 		.4byte	.LFB11
 7885 1d0b B4000000 		.4byte	.LFE11-.LFB11
 7886 1d0f 01       		.uleb128 0x1
 7887 1d10 9C       		.byte	0x9c
 7888 1d11 281E0000 		.4byte	0x1e28
 7889 1d15 12       		.uleb128 0x12
 7890 1d16 C0060000 		.4byte	.LASF158
 7891 1d1a 01       		.byte	0x1
 7892 1d1b 7702     		.2byte	0x277
 7893 1d1d CE000000 		.4byte	0xce
 7894 1d21 1F1D0000 		.4byte	.LLST143
 7895 1d25 12       		.uleb128 0x12
 7896 1d26 34000000 		.4byte	.LASF157
 7897 1d2a 01       		.byte	0x1
 7898 1d2b 7702     		.2byte	0x277
 7899 1d2d 400F0000 		.4byte	0xf40
 7900 1d31 591D0000 		.4byte	.LLST144
 7901 1d35 18       		.uleb128 0x18
 7902 1d36 64657600 		.ascii	"dev\000"
 7903 1d3a 01       		.byte	0x1
 7904 1d3b 7702     		.2byte	0x277
 7905 1d3d BD050000 		.4byte	0x5bd
 7906 1d41 901D0000 		.4byte	.LLST145
 7907 1d45 14       		.uleb128 0x14
 7908 1d46 89070000 		.4byte	.LASF130
 7909 1d4a 01       		.byte	0x1
 7910 1d4b 7902     		.2byte	0x279
 7911 1d4d C3000000 		.4byte	0xc3
 7912 1d51 C71D0000 		.4byte	.LLST146
 7913 1d55 19       		.uleb128 0x19
 7914 1d56 6A060000 		.4byte	.LASF159
ARM GAS  C:\Users\CHRONI~1\AppData\Local\Temp\ccho61l0.s 			page 182


 7915 1d5a 01       		.byte	0x1
 7916 1d5b 7A02     		.2byte	0x27a
 7917 1d5d CE000000 		.4byte	0xce
 7918 1d61 02       		.uleb128 0x2
 7919 1d62 91       		.byte	0x91
 7920 1d63 6F       		.sleb128 -17
 7921 1d64 14       		.uleb128 0x14
 7922 1d65 8B040000 		.4byte	.LASF209
 7923 1d69 01       		.byte	0x1
 7924 1d6a 7B02     		.2byte	0x27b
 7925 1d6c CE000000 		.4byte	0xce
 7926 1d70 061E0000 		.4byte	.LLST147
 7927 1d74 14       		.uleb128 0x14
 7928 1d75 07070000 		.4byte	.LASF210
 7929 1d79 01       		.byte	0x1
 7930 1d7a 7B02     		.2byte	0x27b
 7931 1d7c CE000000 		.4byte	0xce
 7932 1d80 311E0000 		.4byte	.LLST148
 7933 1d84 19       		.uleb128 0x19
 7934 1d85 5E080000 		.4byte	.LASF211
 7935 1d89 01       		.byte	0x1
 7936 1d8a 7C02     		.2byte	0x27c
 7937 1d8c 281E0000 		.4byte	0x1e28
 7938 1d90 02       		.uleb128 0x2
 7939 1d91 91       		.byte	0x91
 7940 1d92 6C       		.sleb128 -20
 7941 1d93 19       		.uleb128 0x19
 7942 1d94 67040000 		.4byte	.LASF212
 7943 1d98 01       		.byte	0x1
 7944 1d99 7D02     		.2byte	0x27d
 7945 1d9b 281E0000 		.4byte	0x1e28
 7946 1d9f 02       		.uleb128 0x2
 7947 1da0 91       		.byte	0x91
 7948 1da1 68       		.sleb128 -24
 7949 1da2 1D       		.uleb128 0x1d
 7950 1da3 24000000 		.4byte	.LVL453
 7951 1da7 89170000 		.4byte	0x1789
 7952 1dab BB1D0000 		.4byte	0x1dbb
 7953 1daf 1E       		.uleb128 0x1e
 7954 1db0 01       		.uleb128 0x1
 7955 1db1 50       		.byte	0x50
 7956 1db2 01       		.uleb128 0x1
 7957 1db3 30       		.byte	0x30
 7958 1db4 1E       		.uleb128 0x1e
 7959 1db5 01       		.uleb128 0x1
 7960 1db6 51       		.byte	0x51
 7961 1db7 02       		.uleb128 0x2
 7962 1db8 74       		.byte	0x74
 7963 1db9 00       		.sleb128 0
 7964 1dba 00       		.byte	0
 7965 1dbb 1D       		.uleb128 0x1d
 7966 1dbc 36000000 		.4byte	.LVL455
 7967 1dc0 960D0000 		.4byte	0xd96
 7968 1dc4 E11D0000 		.4byte	0x1de1
 7969 1dc8 1E       		.uleb128 0x1e
 7970 1dc9 01       		.uleb128 0x1
 7971 1dca 50       		.byte	0x50
ARM GAS  C:\Users\CHRONI~1\AppData\Local\Temp\ccho61l0.s 			page 183


 7972 1dcb 02       		.uleb128 0x2
 7973 1dcc 75       		.byte	0x75
 7974 1dcd 00       		.sleb128 0
 7975 1dce 1E       		.uleb128 0x1e
 7976 1dcf 01       		.uleb128 0x1
 7977 1dd0 51       		.byte	0x51
 7978 1dd1 02       		.uleb128 0x2
 7979 1dd2 76       		.byte	0x76
 7980 1dd3 00       		.sleb128 0
 7981 1dd4 1E       		.uleb128 0x1e
 7982 1dd5 01       		.uleb128 0x1
 7983 1dd6 52       		.byte	0x52
 7984 1dd7 02       		.uleb128 0x2
 7985 1dd8 91       		.byte	0x91
 7986 1dd9 6F       		.sleb128 -17
 7987 1dda 1E       		.uleb128 0x1e
 7988 1ddb 01       		.uleb128 0x1
 7989 1ddc 53       		.byte	0x53
 7990 1ddd 02       		.uleb128 0x2
 7991 1dde 74       		.byte	0x74
 7992 1ddf 00       		.sleb128 0
 7993 1de0 00       		.byte	0
 7994 1de1 1D       		.uleb128 0x1d
 7995 1de2 46000000 		.4byte	.LVL458
 7996 1de6 5B0F0000 		.4byte	0xf5b
 7997 1dea 061E0000 		.4byte	0x1e06
 7998 1dee 1E       		.uleb128 0x1e
 7999 1def 01       		.uleb128 0x1
 8000 1df0 50       		.byte	0x50
 8001 1df1 02       		.uleb128 0x2
 8002 1df2 08       		.byte	0x8
 8003 1df3 70       		.byte	0x70
 8004 1df4 1E       		.uleb128 0x1e
 8005 1df5 01       		.uleb128 0x1
 8006 1df6 51       		.byte	0x51
 8007 1df7 02       		.uleb128 0x2
 8008 1df8 91       		.byte	0x91
 8009 1df9 6C       		.sleb128 -20
 8010 1dfa 1E       		.uleb128 0x1e
 8011 1dfb 01       		.uleb128 0x1
 8012 1dfc 52       		.byte	0x52
 8013 1dfd 01       		.uleb128 0x1
 8014 1dfe 32       		.byte	0x32
 8015 1dff 1E       		.uleb128 0x1e
 8016 1e00 01       		.uleb128 0x1
 8017 1e01 53       		.byte	0x53
 8018 1e02 02       		.uleb128 0x2
 8019 1e03 74       		.byte	0x74
 8020 1e04 00       		.sleb128 0
 8021 1e05 00       		.byte	0
 8022 1e06 21       		.uleb128 0x21
 8023 1e07 A2000000 		.4byte	.LVL466
 8024 1e0b C30C0000 		.4byte	0xcc3
 8025 1e0f 1E       		.uleb128 0x1e
 8026 1e10 01       		.uleb128 0x1
 8027 1e11 50       		.byte	0x50
 8028 1e12 02       		.uleb128 0x2
ARM GAS  C:\Users\CHRONI~1\AppData\Local\Temp\ccho61l0.s 			page 184


 8029 1e13 7D       		.byte	0x7d
 8030 1e14 00       		.sleb128 0
 8031 1e15 1E       		.uleb128 0x1e
 8032 1e16 01       		.uleb128 0x1
 8033 1e17 51       		.byte	0x51
 8034 1e18 02       		.uleb128 0x2
 8035 1e19 91       		.byte	0x91
 8036 1e1a 6C       		.sleb128 -20
 8037 1e1b 1E       		.uleb128 0x1e
 8038 1e1c 01       		.uleb128 0x1
 8039 1e1d 52       		.byte	0x52
 8040 1e1e 01       		.uleb128 0x1
 8041 1e1f 32       		.byte	0x32
 8042 1e20 1E       		.uleb128 0x1e
 8043 1e21 01       		.uleb128 0x1
 8044 1e22 53       		.byte	0x53
 8045 1e23 02       		.uleb128 0x2
 8046 1e24 74       		.byte	0x74
 8047 1e25 00       		.sleb128 0
 8048 1e26 00       		.byte	0
 8049 1e27 00       		.byte	0
 8050 1e28 1A       		.uleb128 0x1a
 8051 1e29 CE000000 		.4byte	0xce
 8052 1e2d 381E0000 		.4byte	0x1e38
 8053 1e31 1B       		.uleb128 0x1b
 8054 1e32 3A050000 		.4byte	0x53a
 8055 1e36 01       		.byte	0x1
 8056 1e37 00       		.byte	0
 8057 1e38 2D       		.uleb128 0x2d
 8058 1e39 F2000000 		.4byte	.LASF213
 8059 1e3d 01       		.byte	0x1
 8060 1e3e B002     		.2byte	0x2b0
 8061 1e40 C3000000 		.4byte	0xc3
 8062 1e44 00000000 		.4byte	.LFB12
 8063 1e48 92000000 		.4byte	.LFE12-.LFB12
 8064 1e4c 01       		.uleb128 0x1
 8065 1e4d 9C       		.byte	0x9c
 8066 1e4e E61E0000 		.4byte	0x1ee6
 8067 1e52 12       		.uleb128 0x12
 8068 1e53 34000000 		.4byte	.LASF157
 8069 1e57 01       		.byte	0x1
 8070 1e58 B002     		.2byte	0x2b0
 8071 1e5a 400F0000 		.4byte	0xf40
 8072 1e5e 5C1E0000 		.4byte	.LLST149
 8073 1e62 18       		.uleb128 0x18
 8074 1e63 64657600 		.ascii	"dev\000"
 8075 1e67 01       		.byte	0x1
 8076 1e68 B002     		.2byte	0x2b0
 8077 1e6a BD050000 		.4byte	0x5bd
 8078 1e6e 931E0000 		.4byte	.LLST150
 8079 1e72 14       		.uleb128 0x14
 8080 1e73 89070000 		.4byte	.LASF130
 8081 1e77 01       		.byte	0x1
 8082 1e78 B202     		.2byte	0x2b2
 8083 1e7a C3000000 		.4byte	0xc3
 8084 1e7e D51E0000 		.4byte	.LLST151
 8085 1e82 19       		.uleb128 0x19
ARM GAS  C:\Users\CHRONI~1\AppData\Local\Temp\ccho61l0.s 			page 185


 8086 1e83 71010000 		.4byte	.LASF188
 8087 1e87 01       		.byte	0x1
 8088 1e88 B302     		.2byte	0x2b3
 8089 1e8a 4B0F0000 		.4byte	0xf4b
 8090 1e8e 02       		.uleb128 0x2
 8091 1e8f 91       		.byte	0x91
 8092 1e90 64       		.sleb128 -28
 8093 1e91 26       		.uleb128 0x26
 8094 1e92 6900     		.ascii	"i\000"
 8095 1e94 01       		.byte	0x1
 8096 1e95 B402     		.2byte	0x2b4
 8097 1e97 CE000000 		.4byte	0xce
 8098 1e9b 211F0000 		.4byte	.LLST152
 8099 1e9f 1D       		.uleb128 0x1d
 8100 1ea0 2A000000 		.4byte	.LVL474
 8101 1ea4 5B0F0000 		.4byte	0xf5b
 8102 1ea8 C41E0000 		.4byte	0x1ec4
 8103 1eac 1E       		.uleb128 0x1e
 8104 1ead 01       		.uleb128 0x1
 8105 1eae 50       		.byte	0x50
 8106 1eaf 02       		.uleb128 0x2
 8107 1eb0 08       		.byte	0x8
 8108 1eb1 5A       		.byte	0x5a
 8109 1eb2 1E       		.uleb128 0x1e
 8110 1eb3 01       		.uleb128 0x1
 8111 1eb4 51       		.byte	0x51
 8112 1eb5 02       		.uleb128 0x2
 8113 1eb6 91       		.byte	0x91
 8114 1eb7 64       		.sleb128 -28
 8115 1eb8 1E       		.uleb128 0x1e
 8116 1eb9 01       		.uleb128 0x1
 8117 1eba 52       		.byte	0x52
 8118 1ebb 01       		.uleb128 0x1
 8119 1ebc 3A       		.byte	0x3a
 8120 1ebd 1E       		.uleb128 0x1e
 8121 1ebe 01       		.uleb128 0x1
 8122 1ebf 53       		.byte	0x53
 8123 1ec0 02       		.uleb128 0x2
 8124 1ec1 75       		.byte	0x75
 8125 1ec2 00       		.sleb128 0
 8126 1ec3 00       		.byte	0
 8127 1ec4 21       		.uleb128 0x21
 8128 1ec5 58000000 		.4byte	.LVL481
 8129 1ec9 5B0F0000 		.4byte	0xf5b
 8130 1ecd 1E       		.uleb128 0x1e
 8131 1ece 01       		.uleb128 0x1
 8132 1ecf 50       		.byte	0x50
 8133 1ed0 02       		.uleb128 0x2
 8134 1ed1 08       		.byte	0x8
 8135 1ed2 64       		.byte	0x64
 8136 1ed3 1E       		.uleb128 0x1e
 8137 1ed4 01       		.uleb128 0x1
 8138 1ed5 51       		.byte	0x51
 8139 1ed6 02       		.uleb128 0x2
 8140 1ed7 91       		.byte	0x91
 8141 1ed8 64       		.sleb128 -28
 8142 1ed9 1E       		.uleb128 0x1e
ARM GAS  C:\Users\CHRONI~1\AppData\Local\Temp\ccho61l0.s 			page 186


 8143 1eda 01       		.uleb128 0x1
 8144 1edb 52       		.byte	0x52
 8145 1edc 01       		.uleb128 0x1
 8146 1edd 3A       		.byte	0x3a
 8147 1ede 1E       		.uleb128 0x1e
 8148 1edf 01       		.uleb128 0x1
 8149 1ee0 53       		.byte	0x53
 8150 1ee1 02       		.uleb128 0x2
 8151 1ee2 75       		.byte	0x75
 8152 1ee3 00       		.sleb128 0
 8153 1ee4 00       		.byte	0
 8154 1ee5 00       		.byte	0
 8155 1ee6 2D       		.uleb128 0x2d
 8156 1ee7 E8060000 		.4byte	.LASF214
 8157 1eeb 01       		.byte	0x1
 8158 1eec D802     		.2byte	0x2d8
 8159 1eee C3000000 		.4byte	0xc3
 8160 1ef2 00000000 		.4byte	.LFB13
 8161 1ef6 54010000 		.4byte	.LFE13-.LFB13
 8162 1efa 01       		.uleb128 0x1
 8163 1efb 9C       		.byte	0x9c
 8164 1efc 09210000 		.4byte	0x2109
 8165 1f00 18       		.uleb128 0x18
 8166 1f01 64657600 		.ascii	"dev\000"
 8167 1f05 01       		.byte	0x1
 8168 1f06 D802     		.2byte	0x2d8
 8169 1f08 4C060000 		.4byte	0x64c
 8170 1f0c 6B1F0000 		.4byte	.LLST153
 8171 1f10 14       		.uleb128 0x14
 8172 1f11 89070000 		.4byte	.LASF130
 8173 1f15 01       		.byte	0x1
 8174 1f16 DA02     		.2byte	0x2da
 8175 1f18 C3000000 		.4byte	0xc3
 8176 1f1c 971F0000 		.4byte	.LLST154
 8177 1f20 19       		.uleb128 0x19
 8178 1f21 12020000 		.4byte	.LASF215
 8179 1f25 01       		.byte	0x1
 8180 1f26 DB02     		.2byte	0x2db
 8181 1f28 CE000000 		.4byte	0xce
 8182 1f2c 02       		.uleb128 0x2
 8183 1f2d 91       		.byte	0x91
 8184 1f2e 77       		.sleb128 -9
 8185 1f2f 26       		.uleb128 0x26
 8186 1f30 6900     		.ascii	"i\000"
 8187 1f32 01       		.byte	0x1
 8188 1f33 DC02     		.2byte	0x2dc
 8189 1f35 CE000000 		.4byte	0xce
 8190 1f39 2E200000 		.4byte	.LLST155
 8191 1f3d 19       		.uleb128 0x19
 8192 1f3e C7040000 		.4byte	.LASF149
 8193 1f42 01       		.byte	0x1
 8194 1f43 DD02     		.2byte	0x2dd
 8195 1f45 09210000 		.4byte	0x2109
 8196 1f49 03       		.uleb128 0x3
 8197 1f4a 91       		.byte	0x91
 8198 1f4b FC7E     		.sleb128 -132
 8199 1f4d 19       		.uleb128 0x19
ARM GAS  C:\Users\CHRONI~1\AppData\Local\Temp\ccho61l0.s 			page 187


 8200 1f4e 9F060000 		.4byte	.LASF216
 8201 1f52 01       		.byte	0x1
 8202 1f53 DE02     		.2byte	0x2de
 8203 1f55 90040000 		.4byte	0x490
 8204 1f59 03       		.uleb128 0x3
 8205 1f5a 91       		.byte	0x91
 8206 1f5b AC7E     		.sleb128 -212
 8207 1f5d 19       		.uleb128 0x19
 8208 1f5e 34000000 		.4byte	.LASF157
 8209 1f62 01       		.byte	0x1
 8210 1f63 DF02     		.2byte	0x2df
 8211 1f65 D2030000 		.4byte	0x3d2
 8212 1f69 03       		.uleb128 0x3
 8213 1f6a 91       		.byte	0x91
 8214 1f6b A47E     		.sleb128 -220
 8215 1f6d 19       		.uleb128 0x19
 8216 1f6e E7000000 		.4byte	.LASF217
 8217 1f72 01       		.byte	0x1
 8218 1f73 E002     		.2byte	0x2e0
 8219 1f75 21040000 		.4byte	0x421
 8220 1f79 03       		.uleb128 0x3
 8221 1f7a 91       		.byte	0x91
 8222 1f7b 907E     		.sleb128 -240
 8223 1f7d 1D       		.uleb128 0x1d
 8224 1f7e 10000000 		.4byte	.LVL492
 8225 1f82 19210000 		.4byte	0x2119
 8226 1f86 9D1F0000 		.4byte	0x1f9d
 8227 1f8a 1E       		.uleb128 0x1e
 8228 1f8b 01       		.uleb128 0x1
 8229 1f8c 50       		.byte	0x50
 8230 1f8d 03       		.uleb128 0x3
 8231 1f8e 91       		.byte	0x91
 8232 1f8f FC7E     		.sleb128 -132
 8233 1f91 1E       		.uleb128 0x1e
 8234 1f92 01       		.uleb128 0x1
 8235 1f93 51       		.byte	0x51
 8236 1f94 01       		.uleb128 0x1
 8237 1f95 30       		.byte	0x30
 8238 1f96 1E       		.uleb128 0x1e
 8239 1f97 01       		.uleb128 0x1
 8240 1f98 52       		.byte	0x52
 8241 1f99 02       		.uleb128 0x2
 8242 1f9a 08       		.byte	0x8
 8243 1f9b 78       		.byte	0x78
 8244 1f9c 00       		.byte	0
 8245 1f9d 1D       		.uleb128 0x1d
 8246 1f9e 16000000 		.4byte	.LVL493
 8247 1fa2 2D090000 		.4byte	0x92d
 8248 1fa6 B11F0000 		.4byte	0x1fb1
 8249 1faa 1E       		.uleb128 0x1e
 8250 1fab 01       		.uleb128 0x1
 8251 1fac 50       		.byte	0x50
 8252 1fad 02       		.uleb128 0x2
 8253 1fae 74       		.byte	0x74
 8254 1faf 00       		.sleb128 0
 8255 1fb0 00       		.byte	0
 8256 1fb1 1D       		.uleb128 0x1d
ARM GAS  C:\Users\CHRONI~1\AppData\Local\Temp\ccho61l0.s 			page 188


 8257 1fb2 3C000000 		.4byte	.LVL495
 8258 1fb6 57160000 		.4byte	0x1657
 8259 1fba C61F0000 		.4byte	0x1fc6
 8260 1fbe 1E       		.uleb128 0x1e
 8261 1fbf 01       		.uleb128 0x1
 8262 1fc0 50       		.byte	0x50
 8263 1fc1 03       		.uleb128 0x3
 8264 1fc2 91       		.byte	0x91
 8265 1fc3 AC7E     		.sleb128 -212
 8266 1fc5 00       		.byte	0
 8267 1fc6 1D       		.uleb128 0x1d
 8268 1fc7 72000000 		.4byte	.LVL498
 8269 1fcb FB1C0000 		.4byte	0x1cfb
 8270 1fcf E61F0000 		.4byte	0x1fe6
 8271 1fd3 1E       		.uleb128 0x1e
 8272 1fd4 01       		.uleb128 0x1
 8273 1fd5 50       		.byte	0x50
 8274 1fd6 01       		.uleb128 0x1
 8275 1fd7 31       		.byte	0x31
 8276 1fd8 1E       		.uleb128 0x1e
 8277 1fd9 01       		.uleb128 0x1
 8278 1fda 51       		.byte	0x51
 8279 1fdb 02       		.uleb128 0x2
 8280 1fdc 7D       		.byte	0x7d
 8281 1fdd 00       		.sleb128 0
 8282 1fde 1E       		.uleb128 0x1e
 8283 1fdf 01       		.uleb128 0x1
 8284 1fe0 52       		.byte	0x52
 8285 1fe1 03       		.uleb128 0x3
 8286 1fe2 91       		.byte	0x91
 8287 1fe3 AC7E     		.sleb128 -212
 8288 1fe5 00       		.byte	0
 8289 1fe6 1D       		.uleb128 0x1d
 8290 1fe7 7E000000 		.4byte	.LVL500
 8291 1feb FA180000 		.4byte	0x18fa
 8292 1fef 02200000 		.4byte	0x2002
 8293 1ff3 1E       		.uleb128 0x1e
 8294 1ff4 01       		.uleb128 0x1
 8295 1ff5 50       		.byte	0x50
 8296 1ff6 03       		.uleb128 0x3
 8297 1ff7 91       		.byte	0x91
 8298 1ff8 A47E     		.sleb128 -220
 8299 1ffa 1E       		.uleb128 0x1e
 8300 1ffb 01       		.uleb128 0x1
 8301 1ffc 51       		.byte	0x51
 8302 1ffd 03       		.uleb128 0x3
 8303 1ffe 91       		.byte	0x91
 8304 1fff AC7E     		.sleb128 -212
 8305 2001 00       		.byte	0
 8306 2002 1D       		.uleb128 0x1d
 8307 2003 8A000000 		.4byte	.LVL502
 8308 2007 89170000 		.4byte	0x1789
 8309 200b 1C200000 		.4byte	0x201c
 8310 200f 1E       		.uleb128 0x1e
 8311 2010 01       		.uleb128 0x1
 8312 2011 50       		.byte	0x50
 8313 2012 01       		.uleb128 0x1
ARM GAS  C:\Users\CHRONI~1\AppData\Local\Temp\ccho61l0.s 			page 189


 8314 2013 31       		.byte	0x31
 8315 2014 1E       		.uleb128 0x1e
 8316 2015 01       		.uleb128 0x1
 8317 2016 51       		.byte	0x51
 8318 2017 03       		.uleb128 0x3
 8319 2018 91       		.byte	0x91
 8320 2019 AC7E     		.sleb128 -212
 8321 201b 00       		.byte	0
 8322 201c 2E       		.uleb128 0x2e
 8323 201d 96000000 		.4byte	.LVL504
 8324 2021 2F200000 		.4byte	0x202f
 8325 2025 1E       		.uleb128 0x1e
 8326 2026 01       		.uleb128 0x1
 8327 2027 50       		.byte	0x50
 8328 2028 05       		.uleb128 0x5
 8329 2029 0C       		.byte	0xc
 8330 202a 40420F00 		.4byte	0xf4240
 8331 202e 00       		.byte	0
 8332 202f 1D       		.uleb128 0x1d
 8333 2030 A4000000 		.4byte	.LVL505
 8334 2034 A21B0000 		.4byte	0x1ba2
 8335 2038 56200000 		.4byte	0x2056
 8336 203c 1E       		.uleb128 0x1e
 8337 203d 01       		.uleb128 0x1
 8338 203e 50       		.byte	0x50
 8339 203f 01       		.uleb128 0x1
 8340 2040 31       		.byte	0x31
 8341 2041 1E       		.uleb128 0x1e
 8342 2042 01       		.uleb128 0x1
 8343 2043 51       		.byte	0x51
 8344 2044 03       		.uleb128 0x3
 8345 2045 91       		.byte	0x91
 8346 2046 FC7E     		.sleb128 -132
 8347 2048 1E       		.uleb128 0x1e
 8348 2049 01       		.uleb128 0x1
 8349 204a 52       		.byte	0x52
 8350 204b 02       		.uleb128 0x2
 8351 204c 91       		.byte	0x91
 8352 204d 77       		.sleb128 -9
 8353 204e 1E       		.uleb128 0x1e
 8354 204f 01       		.uleb128 0x1
 8355 2050 53       		.byte	0x53
 8356 2051 03       		.uleb128 0x3
 8357 2052 91       		.byte	0x91
 8358 2053 AC7E     		.sleb128 -212
 8359 2055 00       		.byte	0
 8360 2056 1D       		.uleb128 0x1d
 8361 2057 F4000000 		.4byte	.LVL512
 8362 205b FB1C0000 		.4byte	0x1cfb
 8363 205f 76200000 		.4byte	0x2076
 8364 2063 1E       		.uleb128 0x1e
 8365 2064 01       		.uleb128 0x1
 8366 2065 50       		.byte	0x50
 8367 2066 01       		.uleb128 0x1
 8368 2067 31       		.byte	0x31
 8369 2068 1E       		.uleb128 0x1e
 8370 2069 01       		.uleb128 0x1
ARM GAS  C:\Users\CHRONI~1\AppData\Local\Temp\ccho61l0.s 			page 190


 8371 206a 51       		.byte	0x51
 8372 206b 02       		.uleb128 0x2
 8373 206c 7D       		.byte	0x7d
 8374 206d 00       		.sleb128 0
 8375 206e 1E       		.uleb128 0x1e
 8376 206f 01       		.uleb128 0x1
 8377 2070 52       		.byte	0x52
 8378 2071 03       		.uleb128 0x3
 8379 2072 91       		.byte	0x91
 8380 2073 AC7E     		.sleb128 -212
 8381 2075 00       		.byte	0
 8382 2076 1D       		.uleb128 0x1d
 8383 2077 00010000 		.4byte	.LVL514
 8384 207b FA180000 		.4byte	0x18fa
 8385 207f 92200000 		.4byte	0x2092
 8386 2083 1E       		.uleb128 0x1e
 8387 2084 01       		.uleb128 0x1
 8388 2085 50       		.byte	0x50
 8389 2086 03       		.uleb128 0x3
 8390 2087 91       		.byte	0x91
 8391 2088 A47E     		.sleb128 -220
 8392 208a 1E       		.uleb128 0x1e
 8393 208b 01       		.uleb128 0x1
 8394 208c 51       		.byte	0x51
 8395 208d 03       		.uleb128 0x3
 8396 208e 91       		.byte	0x91
 8397 208f AC7E     		.sleb128 -212
 8398 2091 00       		.byte	0
 8399 2092 1D       		.uleb128 0x1d
 8400 2093 0C010000 		.4byte	.LVL516
 8401 2097 89170000 		.4byte	0x1789
 8402 209b AC200000 		.4byte	0x20ac
 8403 209f 1E       		.uleb128 0x1e
 8404 20a0 01       		.uleb128 0x1
 8405 20a1 50       		.byte	0x50
 8406 20a2 01       		.uleb128 0x1
 8407 20a3 31       		.byte	0x31
 8408 20a4 1E       		.uleb128 0x1e
 8409 20a5 01       		.uleb128 0x1
 8410 20a6 51       		.byte	0x51
 8411 20a7 03       		.uleb128 0x3
 8412 20a8 91       		.byte	0x91
 8413 20a9 AC7E     		.sleb128 -212
 8414 20ab 00       		.byte	0
 8415 20ac 2E       		.uleb128 0x2e
 8416 20ad 18010000 		.4byte	.LVL518
 8417 20b1 BF200000 		.4byte	0x20bf
 8418 20b5 1E       		.uleb128 0x1e
 8419 20b6 01       		.uleb128 0x1
 8420 20b7 50       		.byte	0x50
 8421 20b8 05       		.uleb128 0x5
 8422 20b9 0C       		.byte	0xc
 8423 20ba 80841E00 		.4byte	0x1e8480
 8424 20be 00       		.byte	0
 8425 20bf 1D       		.uleb128 0x1d
 8426 20c0 2E010000 		.4byte	.LVL519
 8427 20c4 A21B0000 		.4byte	0x1ba2
ARM GAS  C:\Users\CHRONI~1\AppData\Local\Temp\ccho61l0.s 			page 191


 8428 20c8 F2200000 		.4byte	0x20f2
 8429 20cc 1E       		.uleb128 0x1e
 8430 20cd 01       		.uleb128 0x1
 8431 20ce 50       		.byte	0x50
 8432 20cf 01       		.uleb128 0x1
 8433 20d0 31       		.byte	0x31
 8434 20d1 1E       		.uleb128 0x1e
 8435 20d2 01       		.uleb128 0x1
 8436 20d3 51       		.byte	0x51
 8437 20d4 0F       		.uleb128 0xf
 8438 20d5 74       		.byte	0x74
 8439 20d6 00       		.sleb128 0
 8440 20d7 32       		.byte	0x32
 8441 20d8 24       		.byte	0x24
 8442 20d9 74       		.byte	0x74
 8443 20da 00       		.sleb128 0
 8444 20db 22       		.byte	0x22
 8445 20dc 32       		.byte	0x32
 8446 20dd 24       		.byte	0x24
 8447 20de 91       		.byte	0x91
 8448 20df 00       		.sleb128 0
 8449 20e0 22       		.byte	0x22
 8450 20e1 08       		.byte	0x8
 8451 20e2 84       		.byte	0x84
 8452 20e3 1C       		.byte	0x1c
 8453 20e4 1E       		.uleb128 0x1e
 8454 20e5 01       		.uleb128 0x1
 8455 20e6 52       		.byte	0x52
 8456 20e7 02       		.uleb128 0x2
 8457 20e8 91       		.byte	0x91
 8458 20e9 77       		.sleb128 -9
 8459 20ea 1E       		.uleb128 0x1e
 8460 20eb 01       		.uleb128 0x1
 8461 20ec 53       		.byte	0x53
 8462 20ed 03       		.uleb128 0x3
 8463 20ee 91       		.byte	0x91
 8464 20ef AC7E     		.sleb128 -212
 8465 20f1 00       		.byte	0
 8466 20f2 21       		.uleb128 0x21
 8467 20f3 44010000 		.4byte	.LVL523
 8468 20f7 410C0000 		.4byte	0xc41
 8469 20fb 1E       		.uleb128 0x1e
 8470 20fc 01       		.uleb128 0x1
 8471 20fd 50       		.byte	0x50
 8472 20fe 03       		.uleb128 0x3
 8473 20ff 91       		.byte	0x91
 8474 2100 FC7E     		.sleb128 -132
 8475 2102 1E       		.uleb128 0x1e
 8476 2103 01       		.uleb128 0x1
 8477 2104 51       		.byte	0x51
 8478 2105 01       		.uleb128 0x1
 8479 2106 36       		.byte	0x36
 8480 2107 00       		.byte	0
 8481 2108 00       		.byte	0
 8482 2109 1A       		.uleb128 0x1a
 8483 210a D5010000 		.4byte	0x1d5
 8484 210e 19210000 		.4byte	0x2119
ARM GAS  C:\Users\CHRONI~1\AppData\Local\Temp\ccho61l0.s 			page 192


 8485 2112 1B       		.uleb128 0x1b
 8486 2113 3A050000 		.4byte	0x53a
 8487 2117 05       		.byte	0x5
 8488 2118 00       		.byte	0
 8489 2119 30       		.uleb128 0x30
 8490 211a D3000000 		.4byte	.LASF222
 8491 211e D3000000 		.4byte	.LASF222
 8492 2122 00       		.byte	0
 8493              		.section	.debug_abbrev,"",%progbits
 8494              	.Ldebug_abbrev0:
 8495 0000 01       		.uleb128 0x1
 8496 0001 11       		.uleb128 0x11
 8497 0002 01       		.byte	0x1
 8498 0003 25       		.uleb128 0x25
 8499 0004 0E       		.uleb128 0xe
 8500 0005 13       		.uleb128 0x13
 8501 0006 0B       		.uleb128 0xb
 8502 0007 03       		.uleb128 0x3
 8503 0008 0E       		.uleb128 0xe
 8504 0009 1B       		.uleb128 0x1b
 8505 000a 0E       		.uleb128 0xe
 8506 000b 55       		.uleb128 0x55
 8507 000c 17       		.uleb128 0x17
 8508 000d 11       		.uleb128 0x11
 8509 000e 01       		.uleb128 0x1
 8510 000f 10       		.uleb128 0x10
 8511 0010 17       		.uleb128 0x17
 8512 0011 00       		.byte	0
 8513 0012 00       		.byte	0
 8514 0013 02       		.uleb128 0x2
 8515 0014 24       		.uleb128 0x24
 8516 0015 00       		.byte	0
 8517 0016 0B       		.uleb128 0xb
 8518 0017 0B       		.uleb128 0xb
 8519 0018 3E       		.uleb128 0x3e
 8520 0019 0B       		.uleb128 0xb
 8521 001a 03       		.uleb128 0x3
 8522 001b 0E       		.uleb128 0xe
 8523 001c 00       		.byte	0
 8524 001d 00       		.byte	0
 8525 001e 03       		.uleb128 0x3
 8526 001f 24       		.uleb128 0x24
 8527 0020 00       		.byte	0
 8528 0021 0B       		.uleb128 0xb
 8529 0022 0B       		.uleb128 0xb
 8530 0023 3E       		.uleb128 0x3e
 8531 0024 0B       		.uleb128 0xb
 8532 0025 03       		.uleb128 0x3
 8533 0026 08       		.uleb128 0x8
 8534 0027 00       		.byte	0
 8535 0028 00       		.byte	0
 8536 0029 04       		.uleb128 0x4
 8537 002a 16       		.uleb128 0x16
 8538 002b 00       		.byte	0
 8539 002c 03       		.uleb128 0x3
 8540 002d 0E       		.uleb128 0xe
 8541 002e 3A       		.uleb128 0x3a
ARM GAS  C:\Users\CHRONI~1\AppData\Local\Temp\ccho61l0.s 			page 193


 8542 002f 0B       		.uleb128 0xb
 8543 0030 3B       		.uleb128 0x3b
 8544 0031 0B       		.uleb128 0xb
 8545 0032 49       		.uleb128 0x49
 8546 0033 13       		.uleb128 0x13
 8547 0034 00       		.byte	0
 8548 0035 00       		.byte	0
 8549 0036 05       		.uleb128 0x5
 8550 0037 16       		.uleb128 0x16
 8551 0038 00       		.byte	0
 8552 0039 03       		.uleb128 0x3
 8553 003a 0E       		.uleb128 0xe
 8554 003b 3A       		.uleb128 0x3a
 8555 003c 0B       		.uleb128 0xb
 8556 003d 3B       		.uleb128 0x3b
 8557 003e 05       		.uleb128 0x5
 8558 003f 49       		.uleb128 0x49
 8559 0040 13       		.uleb128 0x13
 8560 0041 00       		.byte	0
 8561 0042 00       		.byte	0
 8562 0043 06       		.uleb128 0x6
 8563 0044 0F       		.uleb128 0xf
 8564 0045 00       		.byte	0
 8565 0046 0B       		.uleb128 0xb
 8566 0047 0B       		.uleb128 0xb
 8567 0048 49       		.uleb128 0x49
 8568 0049 13       		.uleb128 0x13
 8569 004a 00       		.byte	0
 8570 004b 00       		.byte	0
 8571 004c 07       		.uleb128 0x7
 8572 004d 15       		.uleb128 0x15
 8573 004e 01       		.byte	0x1
 8574 004f 27       		.uleb128 0x27
 8575 0050 19       		.uleb128 0x19
 8576 0051 49       		.uleb128 0x49
 8577 0052 13       		.uleb128 0x13
 8578 0053 01       		.uleb128 0x1
 8579 0054 13       		.uleb128 0x13
 8580 0055 00       		.byte	0
 8581 0056 00       		.byte	0
 8582 0057 08       		.uleb128 0x8
 8583 0058 05       		.uleb128 0x5
 8584 0059 00       		.byte	0
 8585 005a 49       		.uleb128 0x49
 8586 005b 13       		.uleb128 0x13
 8587 005c 00       		.byte	0
 8588 005d 00       		.byte	0
 8589 005e 09       		.uleb128 0x9
 8590 005f 0F       		.uleb128 0xf
 8591 0060 00       		.byte	0
 8592 0061 0B       		.uleb128 0xb
 8593 0062 0B       		.uleb128 0xb
 8594 0063 00       		.byte	0
 8595 0064 00       		.byte	0
 8596 0065 0A       		.uleb128 0xa
 8597 0066 26       		.uleb128 0x26
 8598 0067 00       		.byte	0
ARM GAS  C:\Users\CHRONI~1\AppData\Local\Temp\ccho61l0.s 			page 194


 8599 0068 49       		.uleb128 0x49
 8600 0069 13       		.uleb128 0x13
 8601 006a 00       		.byte	0
 8602 006b 00       		.byte	0
 8603 006c 0B       		.uleb128 0xb
 8604 006d 15       		.uleb128 0x15
 8605 006e 01       		.byte	0x1
 8606 006f 27       		.uleb128 0x27
 8607 0070 19       		.uleb128 0x19
 8608 0071 01       		.uleb128 0x1
 8609 0072 13       		.uleb128 0x13
 8610 0073 00       		.byte	0
 8611 0074 00       		.byte	0
 8612 0075 0C       		.uleb128 0xc
 8613 0076 04       		.uleb128 0x4
 8614 0077 01       		.byte	0x1
 8615 0078 03       		.uleb128 0x3
 8616 0079 0E       		.uleb128 0xe
 8617 007a 0B       		.uleb128 0xb
 8618 007b 0B       		.uleb128 0xb
 8619 007c 49       		.uleb128 0x49
 8620 007d 13       		.uleb128 0x13
 8621 007e 3A       		.uleb128 0x3a
 8622 007f 0B       		.uleb128 0xb
 8623 0080 3B       		.uleb128 0x3b
 8624 0081 05       		.uleb128 0x5
 8625 0082 01       		.uleb128 0x1
 8626 0083 13       		.uleb128 0x13
 8627 0084 00       		.byte	0
 8628 0085 00       		.byte	0
 8629 0086 0D       		.uleb128 0xd
 8630 0087 28       		.uleb128 0x28
 8631 0088 00       		.byte	0
 8632 0089 03       		.uleb128 0x3
 8633 008a 0E       		.uleb128 0xe
 8634 008b 1C       		.uleb128 0x1c
 8635 008c 0B       		.uleb128 0xb
 8636 008d 00       		.byte	0
 8637 008e 00       		.byte	0
 8638 008f 0E       		.uleb128 0xe
 8639 0090 13       		.uleb128 0x13
 8640 0091 01       		.byte	0x1
 8641 0092 03       		.uleb128 0x3
 8642 0093 0E       		.uleb128 0xe
 8643 0094 0B       		.uleb128 0xb
 8644 0095 0B       		.uleb128 0xb
 8645 0096 3A       		.uleb128 0x3a
 8646 0097 0B       		.uleb128 0xb
 8647 0098 3B       		.uleb128 0x3b
 8648 0099 05       		.uleb128 0x5
 8649 009a 01       		.uleb128 0x1
 8650 009b 13       		.uleb128 0x13
 8651 009c 00       		.byte	0
 8652 009d 00       		.byte	0
 8653 009e 0F       		.uleb128 0xf
 8654 009f 0D       		.uleb128 0xd
 8655 00a0 00       		.byte	0
ARM GAS  C:\Users\CHRONI~1\AppData\Local\Temp\ccho61l0.s 			page 195


 8656 00a1 03       		.uleb128 0x3
 8657 00a2 0E       		.uleb128 0xe
 8658 00a3 3A       		.uleb128 0x3a
 8659 00a4 0B       		.uleb128 0xb
 8660 00a5 3B       		.uleb128 0x3b
 8661 00a6 05       		.uleb128 0x5
 8662 00a7 49       		.uleb128 0x49
 8663 00a8 13       		.uleb128 0x13
 8664 00a9 38       		.uleb128 0x38
 8665 00aa 0B       		.uleb128 0xb
 8666 00ab 00       		.byte	0
 8667 00ac 00       		.byte	0
 8668 00ad 10       		.uleb128 0x10
 8669 00ae 0D       		.uleb128 0xd
 8670 00af 00       		.byte	0
 8671 00b0 03       		.uleb128 0x3
 8672 00b1 08       		.uleb128 0x8
 8673 00b2 3A       		.uleb128 0x3a
 8674 00b3 0B       		.uleb128 0xb
 8675 00b4 3B       		.uleb128 0x3b
 8676 00b5 05       		.uleb128 0x5
 8677 00b6 49       		.uleb128 0x49
 8678 00b7 13       		.uleb128 0x13
 8679 00b8 38       		.uleb128 0x38
 8680 00b9 0B       		.uleb128 0xb
 8681 00ba 00       		.byte	0
 8682 00bb 00       		.byte	0
 8683 00bc 11       		.uleb128 0x11
 8684 00bd 2E       		.uleb128 0x2e
 8685 00be 01       		.byte	0x1
 8686 00bf 03       		.uleb128 0x3
 8687 00c0 0E       		.uleb128 0xe
 8688 00c1 3A       		.uleb128 0x3a
 8689 00c2 0B       		.uleb128 0xb
 8690 00c3 3B       		.uleb128 0x3b
 8691 00c4 05       		.uleb128 0x5
 8692 00c5 27       		.uleb128 0x27
 8693 00c6 19       		.uleb128 0x19
 8694 00c7 49       		.uleb128 0x49
 8695 00c8 13       		.uleb128 0x13
 8696 00c9 11       		.uleb128 0x11
 8697 00ca 01       		.uleb128 0x1
 8698 00cb 12       		.uleb128 0x12
 8699 00cc 06       		.uleb128 0x6
 8700 00cd 40       		.uleb128 0x40
 8701 00ce 18       		.uleb128 0x18
 8702 00cf 9742     		.uleb128 0x2117
 8703 00d1 19       		.uleb128 0x19
 8704 00d2 01       		.uleb128 0x1
 8705 00d3 13       		.uleb128 0x13
 8706 00d4 00       		.byte	0
 8707 00d5 00       		.byte	0
 8708 00d6 12       		.uleb128 0x12
 8709 00d7 05       		.uleb128 0x5
 8710 00d8 00       		.byte	0
 8711 00d9 03       		.uleb128 0x3
 8712 00da 0E       		.uleb128 0xe
ARM GAS  C:\Users\CHRONI~1\AppData\Local\Temp\ccho61l0.s 			page 196


 8713 00db 3A       		.uleb128 0x3a
 8714 00dc 0B       		.uleb128 0xb
 8715 00dd 3B       		.uleb128 0x3b
 8716 00de 05       		.uleb128 0x5
 8717 00df 49       		.uleb128 0x49
 8718 00e0 13       		.uleb128 0x13
 8719 00e1 02       		.uleb128 0x2
 8720 00e2 17       		.uleb128 0x17
 8721 00e3 00       		.byte	0
 8722 00e4 00       		.byte	0
 8723 00e5 13       		.uleb128 0x13
 8724 00e6 05       		.uleb128 0x5
 8725 00e7 00       		.byte	0
 8726 00e8 03       		.uleb128 0x3
 8727 00e9 08       		.uleb128 0x8
 8728 00ea 3A       		.uleb128 0x3a
 8729 00eb 0B       		.uleb128 0xb
 8730 00ec 3B       		.uleb128 0x3b
 8731 00ed 05       		.uleb128 0x5
 8732 00ee 49       		.uleb128 0x49
 8733 00ef 13       		.uleb128 0x13
 8734 00f0 02       		.uleb128 0x2
 8735 00f1 18       		.uleb128 0x18
 8736 00f2 00       		.byte	0
 8737 00f3 00       		.byte	0
 8738 00f4 14       		.uleb128 0x14
 8739 00f5 34       		.uleb128 0x34
 8740 00f6 00       		.byte	0
 8741 00f7 03       		.uleb128 0x3
 8742 00f8 0E       		.uleb128 0xe
 8743 00f9 3A       		.uleb128 0x3a
 8744 00fa 0B       		.uleb128 0xb
 8745 00fb 3B       		.uleb128 0x3b
 8746 00fc 05       		.uleb128 0x5
 8747 00fd 49       		.uleb128 0x49
 8748 00fe 13       		.uleb128 0x13
 8749 00ff 02       		.uleb128 0x2
 8750 0100 17       		.uleb128 0x17
 8751 0101 00       		.byte	0
 8752 0102 00       		.byte	0
 8753 0103 15       		.uleb128 0x15
 8754 0104 34       		.uleb128 0x34
 8755 0105 00       		.byte	0
 8756 0106 03       		.uleb128 0x3
 8757 0107 0E       		.uleb128 0xe
 8758 0108 3A       		.uleb128 0x3a
 8759 0109 0B       		.uleb128 0xb
 8760 010a 3B       		.uleb128 0x3b
 8761 010b 05       		.uleb128 0x5
 8762 010c 49       		.uleb128 0x49
 8763 010d 13       		.uleb128 0x13
 8764 010e 00       		.byte	0
 8765 010f 00       		.byte	0
 8766 0110 16       		.uleb128 0x16
 8767 0111 34       		.uleb128 0x34
 8768 0112 00       		.byte	0
 8769 0113 03       		.uleb128 0x3
ARM GAS  C:\Users\CHRONI~1\AppData\Local\Temp\ccho61l0.s 			page 197


 8770 0114 0E       		.uleb128 0xe
 8771 0115 3A       		.uleb128 0x3a
 8772 0116 0B       		.uleb128 0xb
 8773 0117 3B       		.uleb128 0x3b
 8774 0118 05       		.uleb128 0x5
 8775 0119 49       		.uleb128 0x49
 8776 011a 13       		.uleb128 0x13
 8777 011b 1C       		.uleb128 0x1c
 8778 011c 06       		.uleb128 0x6
 8779 011d 00       		.byte	0
 8780 011e 00       		.byte	0
 8781 011f 17       		.uleb128 0x17
 8782 0120 2E       		.uleb128 0x2e
 8783 0121 01       		.byte	0x1
 8784 0122 03       		.uleb128 0x3
 8785 0123 0E       		.uleb128 0xe
 8786 0124 3A       		.uleb128 0x3a
 8787 0125 0B       		.uleb128 0xb
 8788 0126 3B       		.uleb128 0x3b
 8789 0127 05       		.uleb128 0x5
 8790 0128 27       		.uleb128 0x27
 8791 0129 19       		.uleb128 0x19
 8792 012a 49       		.uleb128 0x49
 8793 012b 13       		.uleb128 0x13
 8794 012c 11       		.uleb128 0x11
 8795 012d 01       		.uleb128 0x1
 8796 012e 12       		.uleb128 0x12
 8797 012f 06       		.uleb128 0x6
 8798 0130 40       		.uleb128 0x40
 8799 0131 18       		.uleb128 0x18
 8800 0132 9642     		.uleb128 0x2116
 8801 0134 19       		.uleb128 0x19
 8802 0135 01       		.uleb128 0x1
 8803 0136 13       		.uleb128 0x13
 8804 0137 00       		.byte	0
 8805 0138 00       		.byte	0
 8806 0139 18       		.uleb128 0x18
 8807 013a 05       		.uleb128 0x5
 8808 013b 00       		.byte	0
 8809 013c 03       		.uleb128 0x3
 8810 013d 08       		.uleb128 0x8
 8811 013e 3A       		.uleb128 0x3a
 8812 013f 0B       		.uleb128 0xb
 8813 0140 3B       		.uleb128 0x3b
 8814 0141 05       		.uleb128 0x5
 8815 0142 49       		.uleb128 0x49
 8816 0143 13       		.uleb128 0x13
 8817 0144 02       		.uleb128 0x2
 8818 0145 17       		.uleb128 0x17
 8819 0146 00       		.byte	0
 8820 0147 00       		.byte	0
 8821 0148 19       		.uleb128 0x19
 8822 0149 34       		.uleb128 0x34
 8823 014a 00       		.byte	0
 8824 014b 03       		.uleb128 0x3
 8825 014c 0E       		.uleb128 0xe
 8826 014d 3A       		.uleb128 0x3a
ARM GAS  C:\Users\CHRONI~1\AppData\Local\Temp\ccho61l0.s 			page 198


 8827 014e 0B       		.uleb128 0xb
 8828 014f 3B       		.uleb128 0x3b
 8829 0150 05       		.uleb128 0x5
 8830 0151 49       		.uleb128 0x49
 8831 0152 13       		.uleb128 0x13
 8832 0153 02       		.uleb128 0x2
 8833 0154 18       		.uleb128 0x18
 8834 0155 00       		.byte	0
 8835 0156 00       		.byte	0
 8836 0157 1A       		.uleb128 0x1a
 8837 0158 01       		.uleb128 0x1
 8838 0159 01       		.byte	0x1
 8839 015a 49       		.uleb128 0x49
 8840 015b 13       		.uleb128 0x13
 8841 015c 01       		.uleb128 0x1
 8842 015d 13       		.uleb128 0x13
 8843 015e 00       		.byte	0
 8844 015f 00       		.byte	0
 8845 0160 1B       		.uleb128 0x1b
 8846 0161 21       		.uleb128 0x21
 8847 0162 00       		.byte	0
 8848 0163 49       		.uleb128 0x49
 8849 0164 13       		.uleb128 0x13
 8850 0165 2F       		.uleb128 0x2f
 8851 0166 0B       		.uleb128 0xb
 8852 0167 00       		.byte	0
 8853 0168 00       		.byte	0
 8854 0169 1C       		.uleb128 0x1c
 8855 016a 34       		.uleb128 0x34
 8856 016b 00       		.byte	0
 8857 016c 03       		.uleb128 0x3
 8858 016d 08       		.uleb128 0x8
 8859 016e 3A       		.uleb128 0x3a
 8860 016f 0B       		.uleb128 0xb
 8861 0170 3B       		.uleb128 0x3b
 8862 0171 05       		.uleb128 0x5
 8863 0172 49       		.uleb128 0x49
 8864 0173 13       		.uleb128 0x13
 8865 0174 02       		.uleb128 0x2
 8866 0175 18       		.uleb128 0x18
 8867 0176 00       		.byte	0
 8868 0177 00       		.byte	0
 8869 0178 1D       		.uleb128 0x1d
 8870 0179 898201   		.uleb128 0x4109
 8871 017c 01       		.byte	0x1
 8872 017d 11       		.uleb128 0x11
 8873 017e 01       		.uleb128 0x1
 8874 017f 31       		.uleb128 0x31
 8875 0180 13       		.uleb128 0x13
 8876 0181 01       		.uleb128 0x1
 8877 0182 13       		.uleb128 0x13
 8878 0183 00       		.byte	0
 8879 0184 00       		.byte	0
 8880 0185 1E       		.uleb128 0x1e
 8881 0186 8A8201   		.uleb128 0x410a
 8882 0189 00       		.byte	0
 8883 018a 02       		.uleb128 0x2
ARM GAS  C:\Users\CHRONI~1\AppData\Local\Temp\ccho61l0.s 			page 199


 8884 018b 18       		.uleb128 0x18
 8885 018c 9142     		.uleb128 0x2111
 8886 018e 18       		.uleb128 0x18
 8887 018f 00       		.byte	0
 8888 0190 00       		.byte	0
 8889 0191 1F       		.uleb128 0x1f
 8890 0192 898201   		.uleb128 0x4109
 8891 0195 01       		.byte	0x1
 8892 0196 11       		.uleb128 0x11
 8893 0197 01       		.uleb128 0x1
 8894 0198 9342     		.uleb128 0x2113
 8895 019a 18       		.uleb128 0x18
 8896 019b 01       		.uleb128 0x1
 8897 019c 13       		.uleb128 0x13
 8898 019d 00       		.byte	0
 8899 019e 00       		.byte	0
 8900 019f 20       		.uleb128 0x20
 8901 01a0 898201   		.uleb128 0x4109
 8902 01a3 01       		.byte	0x1
 8903 01a4 11       		.uleb128 0x11
 8904 01a5 01       		.uleb128 0x1
 8905 01a6 9342     		.uleb128 0x2113
 8906 01a8 18       		.uleb128 0x18
 8907 01a9 00       		.byte	0
 8908 01aa 00       		.byte	0
 8909 01ab 21       		.uleb128 0x21
 8910 01ac 898201   		.uleb128 0x4109
 8911 01af 01       		.byte	0x1
 8912 01b0 11       		.uleb128 0x11
 8913 01b1 01       		.uleb128 0x1
 8914 01b2 31       		.uleb128 0x31
 8915 01b3 13       		.uleb128 0x13
 8916 01b4 00       		.byte	0
 8917 01b5 00       		.byte	0
 8918 01b6 22       		.uleb128 0x22
 8919 01b7 2E       		.uleb128 0x2e
 8920 01b8 01       		.byte	0x1
 8921 01b9 03       		.uleb128 0x3
 8922 01ba 0E       		.uleb128 0xe
 8923 01bb 3A       		.uleb128 0x3a
 8924 01bc 0B       		.uleb128 0xb
 8925 01bd 3B       		.uleb128 0x3b
 8926 01be 05       		.uleb128 0x5
 8927 01bf 27       		.uleb128 0x27
 8928 01c0 19       		.uleb128 0x19
 8929 01c1 11       		.uleb128 0x11
 8930 01c2 01       		.uleb128 0x1
 8931 01c3 12       		.uleb128 0x12
 8932 01c4 06       		.uleb128 0x6
 8933 01c5 40       		.uleb128 0x40
 8934 01c6 18       		.uleb128 0x18
 8935 01c7 9742     		.uleb128 0x2117
 8936 01c9 19       		.uleb128 0x19
 8937 01ca 01       		.uleb128 0x1
 8938 01cb 13       		.uleb128 0x13
 8939 01cc 00       		.byte	0
 8940 01cd 00       		.byte	0
ARM GAS  C:\Users\CHRONI~1\AppData\Local\Temp\ccho61l0.s 			page 200


 8941 01ce 23       		.uleb128 0x23
 8942 01cf 05       		.uleb128 0x5
 8943 01d0 00       		.byte	0
 8944 01d1 03       		.uleb128 0x3
 8945 01d2 0E       		.uleb128 0xe
 8946 01d3 3A       		.uleb128 0x3a
 8947 01d4 0B       		.uleb128 0xb
 8948 01d5 3B       		.uleb128 0x3b
 8949 01d6 05       		.uleb128 0x5
 8950 01d7 49       		.uleb128 0x49
 8951 01d8 13       		.uleb128 0x13
 8952 01d9 02       		.uleb128 0x2
 8953 01da 18       		.uleb128 0x18
 8954 01db 00       		.byte	0
 8955 01dc 00       		.byte	0
 8956 01dd 24       		.uleb128 0x24
 8957 01de 0B       		.uleb128 0xb
 8958 01df 01       		.byte	0x1
 8959 01e0 11       		.uleb128 0x11
 8960 01e1 01       		.uleb128 0x1
 8961 01e2 12       		.uleb128 0x12
 8962 01e3 06       		.uleb128 0x6
 8963 01e4 01       		.uleb128 0x1
 8964 01e5 13       		.uleb128 0x13
 8965 01e6 00       		.byte	0
 8966 01e7 00       		.byte	0
 8967 01e8 25       		.uleb128 0x25
 8968 01e9 898201   		.uleb128 0x4109
 8969 01ec 00       		.byte	0
 8970 01ed 11       		.uleb128 0x11
 8971 01ee 01       		.uleb128 0x1
 8972 01ef 31       		.uleb128 0x31
 8973 01f0 13       		.uleb128 0x13
 8974 01f1 00       		.byte	0
 8975 01f2 00       		.byte	0
 8976 01f3 26       		.uleb128 0x26
 8977 01f4 34       		.uleb128 0x34
 8978 01f5 00       		.byte	0
 8979 01f6 03       		.uleb128 0x3
 8980 01f7 08       		.uleb128 0x8
 8981 01f8 3A       		.uleb128 0x3a
 8982 01f9 0B       		.uleb128 0xb
 8983 01fa 3B       		.uleb128 0x3b
 8984 01fb 05       		.uleb128 0x5
 8985 01fc 49       		.uleb128 0x49
 8986 01fd 13       		.uleb128 0x13
 8987 01fe 02       		.uleb128 0x2
 8988 01ff 17       		.uleb128 0x17
 8989 0200 00       		.byte	0
 8990 0201 00       		.byte	0
 8991 0202 27       		.uleb128 0x27
 8992 0203 2E       		.uleb128 0x2e
 8993 0204 01       		.byte	0x1
 8994 0205 3F       		.uleb128 0x3f
 8995 0206 19       		.uleb128 0x19
 8996 0207 03       		.uleb128 0x3
 8997 0208 0E       		.uleb128 0xe
ARM GAS  C:\Users\CHRONI~1\AppData\Local\Temp\ccho61l0.s 			page 201


 8998 0209 3A       		.uleb128 0x3a
 8999 020a 0B       		.uleb128 0xb
 9000 020b 3B       		.uleb128 0x3b
 9001 020c 0B       		.uleb128 0xb
 9002 020d 27       		.uleb128 0x27
 9003 020e 19       		.uleb128 0x19
 9004 020f 49       		.uleb128 0x49
 9005 0210 13       		.uleb128 0x13
 9006 0211 11       		.uleb128 0x11
 9007 0212 01       		.uleb128 0x1
 9008 0213 12       		.uleb128 0x12
 9009 0214 06       		.uleb128 0x6
 9010 0215 40       		.uleb128 0x40
 9011 0216 18       		.uleb128 0x18
 9012 0217 9742     		.uleb128 0x2117
 9013 0219 19       		.uleb128 0x19
 9014 021a 01       		.uleb128 0x1
 9015 021b 13       		.uleb128 0x13
 9016 021c 00       		.byte	0
 9017 021d 00       		.byte	0
 9018 021e 28       		.uleb128 0x28
 9019 021f 05       		.uleb128 0x5
 9020 0220 00       		.byte	0
 9021 0221 03       		.uleb128 0x3
 9022 0222 0E       		.uleb128 0xe
 9023 0223 3A       		.uleb128 0x3a
 9024 0224 0B       		.uleb128 0xb
 9025 0225 3B       		.uleb128 0x3b
 9026 0226 0B       		.uleb128 0xb
 9027 0227 49       		.uleb128 0x49
 9028 0228 13       		.uleb128 0x13
 9029 0229 02       		.uleb128 0x2
 9030 022a 17       		.uleb128 0x17
 9031 022b 00       		.byte	0
 9032 022c 00       		.byte	0
 9033 022d 29       		.uleb128 0x29
 9034 022e 05       		.uleb128 0x5
 9035 022f 00       		.byte	0
 9036 0230 03       		.uleb128 0x3
 9037 0231 08       		.uleb128 0x8
 9038 0232 3A       		.uleb128 0x3a
 9039 0233 0B       		.uleb128 0xb
 9040 0234 3B       		.uleb128 0x3b
 9041 0235 0B       		.uleb128 0xb
 9042 0236 49       		.uleb128 0x49
 9043 0237 13       		.uleb128 0x13
 9044 0238 02       		.uleb128 0x2
 9045 0239 17       		.uleb128 0x17
 9046 023a 00       		.byte	0
 9047 023b 00       		.byte	0
 9048 023c 2A       		.uleb128 0x2a
 9049 023d 34       		.uleb128 0x34
 9050 023e 00       		.byte	0
 9051 023f 03       		.uleb128 0x3
 9052 0240 0E       		.uleb128 0xe
 9053 0241 3A       		.uleb128 0x3a
 9054 0242 0B       		.uleb128 0xb
ARM GAS  C:\Users\CHRONI~1\AppData\Local\Temp\ccho61l0.s 			page 202


 9055 0243 3B       		.uleb128 0x3b
 9056 0244 0B       		.uleb128 0xb
 9057 0245 49       		.uleb128 0x49
 9058 0246 13       		.uleb128 0x13
 9059 0247 02       		.uleb128 0x2
 9060 0248 17       		.uleb128 0x17
 9061 0249 00       		.byte	0
 9062 024a 00       		.byte	0
 9063 024b 2B       		.uleb128 0x2b
 9064 024c 34       		.uleb128 0x34
 9065 024d 00       		.byte	0
 9066 024e 03       		.uleb128 0x3
 9067 024f 0E       		.uleb128 0xe
 9068 0250 3A       		.uleb128 0x3a
 9069 0251 0B       		.uleb128 0xb
 9070 0252 3B       		.uleb128 0x3b
 9071 0253 0B       		.uleb128 0xb
 9072 0254 49       		.uleb128 0x49
 9073 0255 13       		.uleb128 0x13
 9074 0256 02       		.uleb128 0x2
 9075 0257 18       		.uleb128 0x18
 9076 0258 00       		.byte	0
 9077 0259 00       		.byte	0
 9078 025a 2C       		.uleb128 0x2c
 9079 025b 898201   		.uleb128 0x4109
 9080 025e 01       		.byte	0x1
 9081 025f 11       		.uleb128 0x11
 9082 0260 01       		.uleb128 0x1
 9083 0261 00       		.byte	0
 9084 0262 00       		.byte	0
 9085 0263 2D       		.uleb128 0x2d
 9086 0264 2E       		.uleb128 0x2e
 9087 0265 01       		.byte	0x1
 9088 0266 3F       		.uleb128 0x3f
 9089 0267 19       		.uleb128 0x19
 9090 0268 03       		.uleb128 0x3
 9091 0269 0E       		.uleb128 0xe
 9092 026a 3A       		.uleb128 0x3a
 9093 026b 0B       		.uleb128 0xb
 9094 026c 3B       		.uleb128 0x3b
 9095 026d 05       		.uleb128 0x5
 9096 026e 27       		.uleb128 0x27
 9097 026f 19       		.uleb128 0x19
 9098 0270 49       		.uleb128 0x49
 9099 0271 13       		.uleb128 0x13
 9100 0272 11       		.uleb128 0x11
 9101 0273 01       		.uleb128 0x1
 9102 0274 12       		.uleb128 0x12
 9103 0275 06       		.uleb128 0x6
 9104 0276 40       		.uleb128 0x40
 9105 0277 18       		.uleb128 0x18
 9106 0278 9742     		.uleb128 0x2117
 9107 027a 19       		.uleb128 0x19
 9108 027b 01       		.uleb128 0x1
 9109 027c 13       		.uleb128 0x13
 9110 027d 00       		.byte	0
 9111 027e 00       		.byte	0
ARM GAS  C:\Users\CHRONI~1\AppData\Local\Temp\ccho61l0.s 			page 203


 9112 027f 2E       		.uleb128 0x2e
 9113 0280 898201   		.uleb128 0x4109
 9114 0283 01       		.byte	0x1
 9115 0284 11       		.uleb128 0x11
 9116 0285 01       		.uleb128 0x1
 9117 0286 01       		.uleb128 0x1
 9118 0287 13       		.uleb128 0x13
 9119 0288 00       		.byte	0
 9120 0289 00       		.byte	0
 9121 028a 2F       		.uleb128 0x2f
 9122 028b 34       		.uleb128 0x34
 9123 028c 00       		.byte	0
 9124 028d 03       		.uleb128 0x3
 9125 028e 0E       		.uleb128 0xe
 9126 028f 3A       		.uleb128 0x3a
 9127 0290 0B       		.uleb128 0xb
 9128 0291 3B       		.uleb128 0x3b
 9129 0292 05       		.uleb128 0x5
 9130 0293 49       		.uleb128 0x49
 9131 0294 13       		.uleb128 0x13
 9132 0295 1C       		.uleb128 0x1c
 9133 0296 0B       		.uleb128 0xb
 9134 0297 00       		.byte	0
 9135 0298 00       		.byte	0
 9136 0299 30       		.uleb128 0x30
 9137 029a 2E       		.uleb128 0x2e
 9138 029b 00       		.byte	0
 9139 029c 3F       		.uleb128 0x3f
 9140 029d 19       		.uleb128 0x19
 9141 029e 3C       		.uleb128 0x3c
 9142 029f 19       		.uleb128 0x19
 9143 02a0 6E       		.uleb128 0x6e
 9144 02a1 0E       		.uleb128 0xe
 9145 02a2 03       		.uleb128 0x3
 9146 02a3 0E       		.uleb128 0xe
 9147 02a4 00       		.byte	0
 9148 02a5 00       		.byte	0
 9149 02a6 00       		.byte	0
 9150              		.section	.debug_loc,"",%progbits
 9151              	.Ldebug_loc0:
 9152              	.LLST0:
 9153 0000 00000000 		.4byte	.LVL0
 9154 0004 0A000000 		.4byte	.LVL1
 9155 0008 0100     		.2byte	0x1
 9156 000a 50       		.byte	0x50
 9157 000b 0A000000 		.4byte	.LVL1
 9158 000f 70000000 		.4byte	.LFE14
 9159 0013 0400     		.2byte	0x4
 9160 0015 F3       		.byte	0xf3
 9161 0016 01       		.uleb128 0x1
 9162 0017 50       		.byte	0x50
 9163 0018 9F       		.byte	0x9f
 9164 0019 00000000 		.4byte	0
 9165 001d 00000000 		.4byte	0
 9166              	.LLST1:
 9167 0021 0E000000 		.4byte	.LVL2
 9168 0025 2E000000 		.4byte	.LVL4
ARM GAS  C:\Users\CHRONI~1\AppData\Local\Temp\ccho61l0.s 			page 204


 9169 0029 0600     		.2byte	0x6
 9170 002b 52       		.byte	0x52
 9171 002c 93       		.byte	0x93
 9172 002d 04       		.uleb128 0x4
 9173 002e 53       		.byte	0x53
 9174 002f 93       		.byte	0x93
 9175 0030 04       		.uleb128 0x4
 9176 0031 00000000 		.4byte	0
 9177 0035 00000000 		.4byte	0
 9178              	.LLST2:
 9179 0039 42000000 		.4byte	.LVL6
 9180 003d 4E000000 		.4byte	.LVL7
 9181 0041 0600     		.2byte	0x6
 9182 0043 54       		.byte	0x54
 9183 0044 93       		.byte	0x93
 9184 0045 04       		.uleb128 0x4
 9185 0046 52       		.byte	0x52
 9186 0047 93       		.byte	0x93
 9187 0048 04       		.uleb128 0x4
 9188 0049 00000000 		.4byte	0
 9189 004d 00000000 		.4byte	0
 9190              	.LLST3:
 9191 0051 68000000 		.4byte	.LVL10
 9192 0055 6C000000 		.4byte	.LVL11
 9193 0059 0900     		.2byte	0x9
 9194 005b 70       		.byte	0x70
 9195 005c 00       		.sleb128 0
 9196 005d 09       		.byte	0x9
 9197 005e EC       		.byte	0xec
 9198 005f 24       		.byte	0x24
 9199 0060 09       		.byte	0x9
 9200 0061 F4       		.byte	0xf4
 9201 0062 26       		.byte	0x26
 9202 0063 9F       		.byte	0x9f
 9203 0064 6C000000 		.4byte	.LVL11
 9204 0068 70000000 		.4byte	.LFE14
 9205 006c 0F00     		.2byte	0xf
 9206 006e 71       		.byte	0x71
 9207 006f 38       		.sleb128 56
 9208 0070 06       		.byte	0x6
 9209 0071 35       		.byte	0x35
 9210 0072 1E       		.byte	0x1e
 9211 0073 23       		.byte	0x23
 9212 0074 8001     		.uleb128 0x80
 9213 0076 09       		.byte	0x9
 9214 0077 EC       		.byte	0xec
 9215 0078 24       		.byte	0x24
 9216 0079 09       		.byte	0x9
 9217 007a F4       		.byte	0xf4
 9218 007b 26       		.byte	0x26
 9219 007c 9F       		.byte	0x9f
 9220 007d 00000000 		.4byte	0
 9221 0081 00000000 		.4byte	0
 9222              	.LLST4:
 9223 0085 00000000 		.4byte	.LVL13
 9224 0089 5E000000 		.4byte	.LVL25
 9225 008d 0100     		.2byte	0x1
ARM GAS  C:\Users\CHRONI~1\AppData\Local\Temp\ccho61l0.s 			page 205


 9226 008f 50       		.byte	0x50
 9227 0090 5E000000 		.4byte	.LVL25
 9228 0094 C4000000 		.4byte	.LFE15
 9229 0098 0400     		.2byte	0x4
 9230 009a F3       		.byte	0xf3
 9231 009b 01       		.uleb128 0x1
 9232 009c 50       		.byte	0x50
 9233 009d 9F       		.byte	0x9f
 9234 009e 00000000 		.4byte	0
 9235 00a2 00000000 		.4byte	0
 9236              	.LLST5:
 9237 00a6 0A000000 		.4byte	.LVL15
 9238 00aa 46000000 		.4byte	.LVL19
 9239 00ae 0100     		.2byte	0x1
 9240 00b0 54       		.byte	0x54
 9241 00b1 46000000 		.4byte	.LVL19
 9242 00b5 4C000000 		.4byte	.LVL20
 9243 00b9 0A00     		.2byte	0xa
 9244 00bb 71       		.byte	0x71
 9245 00bc 38       		.sleb128 56
 9246 00bd 06       		.byte	0x6
 9247 00be 31       		.byte	0x31
 9248 00bf 26       		.byte	0x26
 9249 00c0 0A       		.byte	0xa
 9250 00c1 00FA     		.2byte	0xfa00
 9251 00c3 1C       		.byte	0x1c
 9252 00c4 9F       		.byte	0x9f
 9253 00c5 4C000000 		.4byte	.LVL20
 9254 00c9 52000000 		.4byte	.LVL22
 9255 00cd 0100     		.2byte	0x1
 9256 00cf 52       		.byte	0x52
 9257 00d0 52000000 		.4byte	.LVL22
 9258 00d4 58000000 		.4byte	.LVL23
 9259 00d8 0500     		.2byte	0x5
 9260 00da 72       		.byte	0x72
 9261 00db 80807E   		.sleb128 -32768
 9262 00de 9F       		.byte	0x9f
 9263 00df 58000000 		.4byte	.LVL23
 9264 00e3 5A000000 		.4byte	.LVL24
 9265 00e7 3800     		.2byte	0x38
 9266 00e9 71       		.byte	0x71
 9267 00ea 28       		.sleb128 40
 9268 00eb 94       		.byte	0x94
 9269 00ec 01       		.byte	0x1
 9270 00ed 48       		.byte	0x48
 9271 00ee 24       		.byte	0x24
 9272 00ef 48       		.byte	0x48
 9273 00f0 26       		.byte	0x26
 9274 00f1 35       		.byte	0x35
 9275 00f2 24       		.byte	0x24
 9276 00f3 71       		.byte	0x71
 9277 00f4 38       		.sleb128 56
 9278 00f5 06       		.byte	0x6
 9279 00f6 31       		.byte	0x31
 9280 00f7 26       		.byte	0x26
 9281 00f8 0A       		.byte	0xa
 9282 00f9 00FA     		.2byte	0xfa00
ARM GAS  C:\Users\CHRONI~1\AppData\Local\Temp\ccho61l0.s 			page 206


 9283 00fb 1C       		.byte	0x1c
 9284 00fc 32       		.byte	0x32
 9285 00fd 26       		.byte	0x26
 9286 00fe 71       		.byte	0x71
 9287 00ff 38       		.sleb128 56
 9288 0100 06       		.byte	0x6
 9289 0101 31       		.byte	0x31
 9290 0102 26       		.byte	0x26
 9291 0103 0A       		.byte	0xa
 9292 0104 00FA     		.2byte	0xfa00
 9293 0106 1C       		.byte	0x1c
 9294 0107 32       		.byte	0x32
 9295 0108 26       		.byte	0x26
 9296 0109 1E       		.byte	0x1e
 9297 010a 3D       		.byte	0x3d
 9298 010b 26       		.byte	0x26
 9299 010c 1E       		.byte	0x1e
 9300 010d 33       		.byte	0x33
 9301 010e 26       		.byte	0x26
 9302 010f 71       		.byte	0x71
 9303 0110 38       		.sleb128 56
 9304 0111 06       		.byte	0x6
 9305 0112 31       		.byte	0x31
 9306 0113 26       		.byte	0x26
 9307 0114 0A       		.byte	0xa
 9308 0115 00FA     		.2byte	0xfa00
 9309 0117 1C       		.byte	0x1c
 9310 0118 75       		.byte	0x75
 9311 0119 00       		.sleb128 0
 9312 011a 1E       		.byte	0x1e
 9313 011b 31       		.byte	0x31
 9314 011c 26       		.byte	0x26
 9315 011d 22       		.byte	0x22
 9316 011e 42       		.byte	0x42
 9317 011f 26       		.byte	0x26
 9318 0120 9F       		.byte	0x9f
 9319 0121 5A000000 		.4byte	.LVL24
 9320 0125 82000000 		.4byte	.LVL32
 9321 0129 0100     		.2byte	0x1
 9322 012b 52       		.byte	0x52
 9323 012c 82000000 		.4byte	.LVL32
 9324 0130 8E000000 		.4byte	.LVL33
 9325 0134 4700     		.2byte	0x47
 9326 0136 71       		.byte	0x71
 9327 0137 28       		.sleb128 40
 9328 0138 94       		.byte	0x94
 9329 0139 01       		.byte	0x1
 9330 013a 48       		.byte	0x48
 9331 013b 24       		.byte	0x24
 9332 013c 48       		.byte	0x48
 9333 013d 26       		.byte	0x26
 9334 013e 35       		.byte	0x35
 9335 013f 24       		.byte	0x24
 9336 0140 71       		.byte	0x71
 9337 0141 38       		.sleb128 56
 9338 0142 06       		.byte	0x6
 9339 0143 31       		.byte	0x31
ARM GAS  C:\Users\CHRONI~1\AppData\Local\Temp\ccho61l0.s 			page 207


 9340 0144 26       		.byte	0x26
 9341 0145 0A       		.byte	0xa
 9342 0146 00FA     		.2byte	0xfa00
 9343 0148 1C       		.byte	0x1c
 9344 0149 32       		.byte	0x32
 9345 014a 26       		.byte	0x26
 9346 014b 71       		.byte	0x71
 9347 014c 38       		.sleb128 56
 9348 014d 06       		.byte	0x6
 9349 014e 31       		.byte	0x31
 9350 014f 26       		.byte	0x26
 9351 0150 0A       		.byte	0xa
 9352 0151 00FA     		.2byte	0xfa00
 9353 0153 1C       		.byte	0x1c
 9354 0154 32       		.byte	0x32
 9355 0155 26       		.byte	0x26
 9356 0156 1E       		.byte	0x1e
 9357 0157 3D       		.byte	0x3d
 9358 0158 26       		.byte	0x26
 9359 0159 1E       		.byte	0x1e
 9360 015a 33       		.byte	0x33
 9361 015b 26       		.byte	0x26
 9362 015c 71       		.byte	0x71
 9363 015d 38       		.sleb128 56
 9364 015e 06       		.byte	0x6
 9365 015f 31       		.byte	0x31
 9366 0160 26       		.byte	0x26
 9367 0161 0A       		.byte	0xa
 9368 0162 00FA     		.2byte	0xfa00
 9369 0164 1C       		.byte	0x1c
 9370 0165 75       		.byte	0x75
 9371 0166 00       		.sleb128 0
 9372 0167 1E       		.byte	0x1e
 9373 0168 31       		.byte	0x31
 9374 0169 26       		.byte	0x26
 9375 016a 22       		.byte	0x22
 9376 016b 42       		.byte	0x42
 9377 016c 26       		.byte	0x26
 9378 016d 23       		.byte	0x23
 9379 016e 808002   		.uleb128 0x8000
 9380 0171 71       		.byte	0x71
 9381 0172 24       		.sleb128 36
 9382 0173 94       		.byte	0x94
 9383 0174 02       		.byte	0x2
 9384 0175 0A       		.byte	0xa
 9385 0176 FFFF     		.2byte	0xffff
 9386 0178 1A       		.byte	0x1a
 9387 0179 1E       		.byte	0x1e
 9388 017a 3F       		.byte	0x3f
 9389 017b 26       		.byte	0x26
 9390 017c 9F       		.byte	0x9f
 9391 017d 8E000000 		.4byte	.LVL33
 9392 0181 C2000000 		.4byte	.LVL40
 9393 0185 0500     		.2byte	0x5
 9394 0187 75       		.byte	0x75
 9395 0188 00       		.sleb128 0
 9396 0189 3C       		.byte	0x3c
ARM GAS  C:\Users\CHRONI~1\AppData\Local\Temp\ccho61l0.s 			page 208


 9397 018a 26       		.byte	0x26
 9398 018b 9F       		.byte	0x9f
 9399 018c C2000000 		.4byte	.LVL40
 9400 0190 C4000000 		.4byte	.LFE15
 9401 0194 1700     		.2byte	0x17
 9402 0196 73       		.byte	0x73
 9403 0197 00       		.sleb128 0
 9404 0198 33       		.byte	0x33
 9405 0199 26       		.byte	0x26
 9406 019a 73       		.byte	0x73
 9407 019b 00       		.sleb128 0
 9408 019c 33       		.byte	0x33
 9409 019d 26       		.byte	0x26
 9410 019e 1E       		.byte	0x1e
 9411 019f 3D       		.byte	0x3d
 9412 01a0 26       		.byte	0x26
 9413 01a1 71       		.byte	0x71
 9414 01a2 32       		.sleb128 50
 9415 01a3 94       		.byte	0x94
 9416 01a4 02       		.byte	0x2
 9417 01a5 40       		.byte	0x40
 9418 01a6 24       		.byte	0x24
 9419 01a7 40       		.byte	0x40
 9420 01a8 26       		.byte	0x26
 9421 01a9 1E       		.byte	0x1e
 9422 01aa 3C       		.byte	0x3c
 9423 01ab 26       		.byte	0x26
 9424 01ac 9F       		.byte	0x9f
 9425 01ad 00000000 		.4byte	0
 9426 01b1 00000000 		.4byte	0
 9427              	.LLST6:
 9428 01b5 1A000000 		.4byte	.LVL16
 9429 01b9 28000000 		.4byte	.LVL17
 9430 01bd 0500     		.2byte	0x5
 9431 01bf 72       		.byte	0x72
 9432 01c0 00       		.sleb128 0
 9433 01c1 32       		.byte	0x32
 9434 01c2 26       		.byte	0x26
 9435 01c3 9F       		.byte	0x9f
 9436 01c4 28000000 		.4byte	.LVL17
 9437 01c8 62000000 		.4byte	.LVL26
 9438 01cc 0100     		.2byte	0x1
 9439 01ce 53       		.byte	0x53
 9440 01cf 62000000 		.4byte	.LVL26
 9441 01d3 9A000000 		.4byte	.LVL34
 9442 01d7 4700     		.2byte	0x47
 9443 01d9 71       		.byte	0x71
 9444 01da 38       		.sleb128 56
 9445 01db 06       		.byte	0x6
 9446 01dc 31       		.byte	0x31
 9447 01dd 26       		.byte	0x26
 9448 01de 0A       		.byte	0xa
 9449 01df 00FA     		.2byte	0xfa00
 9450 01e1 1C       		.byte	0x1c
 9451 01e2 32       		.byte	0x32
 9452 01e3 26       		.byte	0x26
 9453 01e4 71       		.byte	0x71
ARM GAS  C:\Users\CHRONI~1\AppData\Local\Temp\ccho61l0.s 			page 209


 9454 01e5 38       		.sleb128 56
 9455 01e6 06       		.byte	0x6
 9456 01e7 31       		.byte	0x31
 9457 01e8 26       		.byte	0x26
 9458 01e9 0A       		.byte	0xa
 9459 01ea 00FA     		.2byte	0xfa00
 9460 01ec 1C       		.byte	0x1c
 9461 01ed 32       		.byte	0x32
 9462 01ee 26       		.byte	0x26
 9463 01ef 1E       		.byte	0x1e
 9464 01f0 3B       		.byte	0x3b
 9465 01f1 26       		.byte	0x26
 9466 01f2 71       		.byte	0x71
 9467 01f3 2E       		.sleb128 46
 9468 01f4 94       		.byte	0x94
 9469 01f5 01       		.byte	0x1
 9470 01f6 48       		.byte	0x48
 9471 01f7 24       		.byte	0x24
 9472 01f8 48       		.byte	0x48
 9473 01f9 26       		.byte	0x26
 9474 01fa 1E       		.byte	0x1e
 9475 01fb 32       		.byte	0x32
 9476 01fc 26       		.byte	0x26
 9477 01fd 71       		.byte	0x71
 9478 01fe 38       		.sleb128 56
 9479 01ff 06       		.byte	0x6
 9480 0200 31       		.byte	0x31
 9481 0201 26       		.byte	0x26
 9482 0202 0A       		.byte	0xa
 9483 0203 00FA     		.2byte	0xfa00
 9484 0205 1C       		.byte	0x1c
 9485 0206 71       		.byte	0x71
 9486 0207 2C       		.sleb128 44
 9487 0208 94       		.byte	0x94
 9488 0209 02       		.byte	0x2
 9489 020a 40       		.byte	0x40
 9490 020b 24       		.byte	0x24
 9491 020c 40       		.byte	0x40
 9492 020d 26       		.byte	0x26
 9493 020e 1E       		.byte	0x1e
 9494 020f 31       		.byte	0x31
 9495 0210 24       		.byte	0x24
 9496 0211 22       		.byte	0x22
 9497 0212 32       		.byte	0x32
 9498 0213 26       		.byte	0x26
 9499 0214 71       		.byte	0x71
 9500 0215 2A       		.sleb128 42
 9501 0216 94       		.byte	0x94
 9502 0217 02       		.byte	0x2
 9503 0218 40       		.byte	0x40
 9504 0219 24       		.byte	0x24
 9505 021a 40       		.byte	0x40
 9506 021b 26       		.byte	0x26
 9507 021c 40       		.byte	0x40
 9508 021d 24       		.byte	0x24
 9509 021e 22       		.byte	0x22
 9510 021f 9F       		.byte	0x9f
ARM GAS  C:\Users\CHRONI~1\AppData\Local\Temp\ccho61l0.s 			page 210


 9511 0220 9A000000 		.4byte	.LVL34
 9512 0224 B0000000 		.4byte	.LVL36
 9513 0228 0100     		.2byte	0x1
 9514 022a 52       		.byte	0x52
 9515 022b B0000000 		.4byte	.LVL36
 9516 022f C4000000 		.4byte	.LFE15
 9517 0233 1000     		.2byte	0x10
 9518 0235 73       		.byte	0x73
 9519 0236 00       		.sleb128 0
 9520 0237 32       		.byte	0x32
 9521 0238 26       		.byte	0x26
 9522 0239 71       		.byte	0x71
 9523 023a 30       		.sleb128 48
 9524 023b 94       		.byte	0x94
 9525 023c 02       		.byte	0x2
 9526 023d 40       		.byte	0x40
 9527 023e 24       		.byte	0x24
 9528 023f 40       		.byte	0x40
 9529 0240 26       		.byte	0x26
 9530 0241 1E       		.byte	0x1e
 9531 0242 3D       		.byte	0x3d
 9532 0243 26       		.byte	0x26
 9533 0244 9F       		.byte	0x9f
 9534 0245 00000000 		.4byte	0
 9535 0249 00000000 		.4byte	0
 9536              	.LLST7:
 9537 024d AC000000 		.4byte	.LVL35
 9538 0251 B4000000 		.4byte	.LVL37
 9539 0255 0500     		.2byte	0x5
 9540 0257 70       		.byte	0x70
 9541 0258 00       		.sleb128 0
 9542 0259 41       		.byte	0x41
 9543 025a 26       		.byte	0x26
 9544 025b 9F       		.byte	0x9f
 9545 025c B4000000 		.4byte	.LVL37
 9546 0260 C2000000 		.4byte	.LVL40
 9547 0264 1400     		.2byte	0x14
 9548 0266 73       		.byte	0x73
 9549 0267 00       		.sleb128 0
 9550 0268 38       		.byte	0x38
 9551 0269 26       		.byte	0x26
 9552 026a 73       		.byte	0x73
 9553 026b 00       		.sleb128 0
 9554 026c 38       		.byte	0x38
 9555 026d 26       		.byte	0x26
 9556 026e 1E       		.byte	0x1e
 9557 026f 73       		.byte	0x73
 9558 0270 00       		.sleb128 0
 9559 0271 38       		.byte	0x38
 9560 0272 26       		.byte	0x26
 9561 0273 1E       		.byte	0x1e
 9562 0274 74       		.byte	0x74
 9563 0275 00       		.sleb128 0
 9564 0276 1E       		.byte	0x1e
 9565 0277 41       		.byte	0x41
 9566 0278 26       		.byte	0x26
 9567 0279 9F       		.byte	0x9f
ARM GAS  C:\Users\CHRONI~1\AppData\Local\Temp\ccho61l0.s 			page 211


 9568 027a C2000000 		.4byte	.LVL40
 9569 027e C4000000 		.4byte	.LFE15
 9570 0282 1900     		.2byte	0x19
 9571 0284 73       		.byte	0x73
 9572 0285 00       		.sleb128 0
 9573 0286 38       		.byte	0x38
 9574 0287 26       		.byte	0x26
 9575 0288 73       		.byte	0x73
 9576 0289 00       		.sleb128 0
 9577 028a 38       		.byte	0x38
 9578 028b 26       		.byte	0x26
 9579 028c 1E       		.byte	0x1e
 9580 028d 73       		.byte	0x73
 9581 028e 00       		.sleb128 0
 9582 028f 38       		.byte	0x38
 9583 0290 26       		.byte	0x26
 9584 0291 1E       		.byte	0x1e
 9585 0292 71       		.byte	0x71
 9586 0293 34       		.sleb128 52
 9587 0294 94       		.byte	0x94
 9588 0295 01       		.byte	0x1
 9589 0296 08       		.byte	0x8
 9590 0297 FF       		.byte	0xff
 9591 0298 1A       		.byte	0x1a
 9592 0299 1E       		.byte	0x1e
 9593 029a 41       		.byte	0x41
 9594 029b 26       		.byte	0x26
 9595 029c 9F       		.byte	0x9f
 9596 029d 00000000 		.4byte	0
 9597 02a1 00000000 		.4byte	0
 9598              	.LLST8:
 9599 02a5 5E000000 		.4byte	.LVL25
 9600 02a9 76000000 		.4byte	.LVL28
 9601 02ad 0100     		.2byte	0x1
 9602 02af 50       		.byte	0x50
 9603 02b0 76000000 		.4byte	.LVL28
 9604 02b4 78000000 		.4byte	.LVL29
 9605 02b8 0100     		.2byte	0x1
 9606 02ba 53       		.byte	0x53
 9607 02bb 78000000 		.4byte	.LVL29
 9608 02bf 7A000000 		.4byte	.LVL30
 9609 02c3 0100     		.2byte	0x1
 9610 02c5 50       		.byte	0x50
 9611 02c6 7A000000 		.4byte	.LVL30
 9612 02ca 7E000000 		.4byte	.LVL31
 9613 02ce 0600     		.2byte	0x6
 9614 02d0 74       		.byte	0x74
 9615 02d1 00       		.sleb128 0
 9616 02d2 73       		.byte	0x73
 9617 02d3 00       		.sleb128 0
 9618 02d4 1E       		.byte	0x1e
 9619 02d5 9F       		.byte	0x9f
 9620 02d6 7E000000 		.4byte	.LVL31
 9621 02da BC000000 		.4byte	.LVL38
 9622 02de 0100     		.2byte	0x1
 9623 02e0 53       		.byte	0x53
 9624 02e1 BC000000 		.4byte	.LVL38
ARM GAS  C:\Users\CHRONI~1\AppData\Local\Temp\ccho61l0.s 			page 212


 9625 02e5 C0000000 		.4byte	.LVL39
 9626 02e9 0800     		.2byte	0x8
 9627 02eb 70       		.byte	0x70
 9628 02ec 00       		.sleb128 0
 9629 02ed 34       		.byte	0x34
 9630 02ee 26       		.byte	0x26
 9631 02ef 73       		.byte	0x73
 9632 02f0 00       		.sleb128 0
 9633 02f1 22       		.byte	0x22
 9634 02f2 9F       		.byte	0x9f
 9635 02f3 C0000000 		.4byte	.LVL39
 9636 02f7 C4000000 		.4byte	.LFE15
 9637 02fb 0100     		.2byte	0x1
 9638 02fd 50       		.byte	0x50
 9639 02fe 00000000 		.4byte	0
 9640 0302 00000000 		.4byte	0
 9641              	.LLST9:
 9642 0306 00000000 		.4byte	.LVL41
 9643 030a 12000000 		.4byte	.LVL43
 9644 030e 0100     		.2byte	0x1
 9645 0310 50       		.byte	0x50
 9646 0311 12000000 		.4byte	.LVL43
 9647 0315 C4000000 		.4byte	.LFE16
 9648 0319 0400     		.2byte	0x4
 9649 031b F3       		.byte	0xf3
 9650 031c 01       		.uleb128 0x1
 9651 031d 50       		.byte	0x50
 9652 031e 9F       		.byte	0x9f
 9653 031f 00000000 		.4byte	0
 9654 0323 00000000 		.4byte	0
 9655              	.LLST10:
 9656 0327 2A000000 		.4byte	.LVL44
 9657 032b 70000000 		.4byte	.LVL46
 9658 032f 0100     		.2byte	0x1
 9659 0331 50       		.byte	0x50
 9660 0332 00000000 		.4byte	0
 9661 0336 00000000 		.4byte	0
 9662              	.LLST11:
 9663 033a 6C000000 		.4byte	.LVL45
 9664 033e 76000000 		.4byte	.LVL48
 9665 0342 0100     		.2byte	0x1
 9666 0344 53       		.byte	0x53
 9667 0345 76000000 		.4byte	.LVL48
 9668 0349 7A000000 		.4byte	.LVL49
 9669 034d 4400     		.2byte	0x44
 9670 034f 7E       		.byte	0x7e
 9671 0350 00       		.sleb128 0
 9672 0351 35       		.byte	0x35
 9673 0352 26       		.byte	0x26
 9674 0353 71       		.byte	0x71
 9675 0354 16       		.sleb128 22
 9676 0355 94       		.byte	0x94
 9677 0356 01       		.byte	0x1
 9678 0357 48       		.byte	0x48
 9679 0358 24       		.byte	0x24
 9680 0359 48       		.byte	0x48
 9681 035a 26       		.byte	0x26
ARM GAS  C:\Users\CHRONI~1\AppData\Local\Temp\ccho61l0.s 			page 213


 9682 035b 74       		.byte	0x74
 9683 035c 00       		.sleb128 0
 9684 035d 1E       		.byte	0x1e
 9685 035e F7       		.byte	0xf7
 9686 035f 2C       		.uleb128 0x2c
 9687 0360 F7       		.byte	0xf7
 9688 0361 25       		.uleb128 0x25
 9689 0362 75       		.byte	0x75
 9690 0363 00       		.sleb128 0
 9691 0364 F7       		.byte	0xf7
 9692 0365 2C       		.uleb128 0x2c
 9693 0366 F7       		.byte	0xf7
 9694 0367 25       		.uleb128 0x25
 9695 0368 1E       		.byte	0x1e
 9696 0369 08       		.byte	0x8
 9697 036a 20       		.byte	0x20
 9698 036b F7       		.byte	0xf7
 9699 036c 25       		.uleb128 0x25
 9700 036d 25       		.byte	0x25
 9701 036e F7       		.byte	0xf7
 9702 036f 33       		.uleb128 0x33
 9703 0370 35       		.byte	0x35
 9704 0371 26       		.byte	0x26
 9705 0372 71       		.byte	0x71
 9706 0373 16       		.sleb128 22
 9707 0374 94       		.byte	0x94
 9708 0375 01       		.byte	0x1
 9709 0376 48       		.byte	0x48
 9710 0377 24       		.byte	0x24
 9711 0378 48       		.byte	0x48
 9712 0379 26       		.byte	0x26
 9713 037a 74       		.byte	0x74
 9714 037b 00       		.sleb128 0
 9715 037c 1E       		.byte	0x1e
 9716 037d 4F       		.byte	0x4f
 9717 037e 26       		.byte	0x26
 9718 037f 1C       		.byte	0x1c
 9719 0380 74       		.byte	0x74
 9720 0381 00       		.sleb128 0
 9721 0382 1E       		.byte	0x1e
 9722 0383 4F       		.byte	0x4f
 9723 0384 26       		.byte	0x26
 9724 0385 1C       		.byte	0x1c
 9725 0386 77       		.byte	0x77
 9726 0387 00       		.sleb128 0
 9727 0388 22       		.byte	0x22
 9728 0389 23       		.byte	0x23
 9729 038a 808001   		.uleb128 0x4000
 9730 038d 76       		.byte	0x76
 9731 038e 00       		.sleb128 0
 9732 038f 1E       		.byte	0x1e
 9733 0390 3A       		.byte	0x3a
 9734 0391 26       		.byte	0x26
 9735 0392 9F       		.byte	0x9f
 9736 0393 7A000000 		.4byte	.LVL49
 9737 0397 7E000000 		.4byte	.LVL50
 9738 039b 5C00     		.2byte	0x5c
ARM GAS  C:\Users\CHRONI~1\AppData\Local\Temp\ccho61l0.s 			page 214


 9739 039d 7E       		.byte	0x7e
 9740 039e 00       		.sleb128 0
 9741 039f 35       		.byte	0x35
 9742 03a0 26       		.byte	0x26
 9743 03a1 71       		.byte	0x71
 9744 03a2 38       		.sleb128 56
 9745 03a3 06       		.byte	0x6
 9746 03a4 35       		.byte	0x35
 9747 03a5 1E       		.byte	0x1e
 9748 03a6 23       		.byte	0x23
 9749 03a7 8001     		.uleb128 0x80
 9750 03a9 38       		.byte	0x38
 9751 03aa 26       		.byte	0x26
 9752 03ab F7       		.byte	0xf7
 9753 03ac 2C       		.uleb128 0x2c
 9754 03ad F7       		.byte	0xf7
 9755 03ae 25       		.uleb128 0x25
 9756 03af 71       		.byte	0x71
 9757 03b0 16       		.sleb128 22
 9758 03b1 94       		.byte	0x94
 9759 03b2 01       		.byte	0x1
 9760 03b3 F7       		.byte	0xf7
 9761 03b4 3A       		.uleb128 0x3a
 9762 03b5 F7       		.byte	0xf7
 9763 03b6 25       		.uleb128 0x25
 9764 03b7 1E       		.byte	0x1e
 9765 03b8 75       		.byte	0x75
 9766 03b9 00       		.sleb128 0
 9767 03ba F7       		.byte	0xf7
 9768 03bb 2C       		.uleb128 0x2c
 9769 03bc F7       		.byte	0xf7
 9770 03bd 25       		.uleb128 0x25
 9771 03be 1E       		.byte	0x1e
 9772 03bf 08       		.byte	0x8
 9773 03c0 20       		.byte	0x20
 9774 03c1 F7       		.byte	0xf7
 9775 03c2 25       		.uleb128 0x25
 9776 03c3 25       		.byte	0x25
 9777 03c4 F7       		.byte	0xf7
 9778 03c5 33       		.uleb128 0x33
 9779 03c6 35       		.byte	0x35
 9780 03c7 26       		.byte	0x26
 9781 03c8 71       		.byte	0x71
 9782 03c9 38       		.sleb128 56
 9783 03ca 06       		.byte	0x6
 9784 03cb 35       		.byte	0x35
 9785 03cc 1E       		.byte	0x1e
 9786 03cd 23       		.byte	0x23
 9787 03ce 8001     		.uleb128 0x80
 9788 03d0 38       		.byte	0x38
 9789 03d1 26       		.byte	0x26
 9790 03d2 71       		.byte	0x71
 9791 03d3 16       		.sleb128 22
 9792 03d4 94       		.byte	0x94
 9793 03d5 01       		.byte	0x1
 9794 03d6 48       		.byte	0x48
 9795 03d7 24       		.byte	0x24
ARM GAS  C:\Users\CHRONI~1\AppData\Local\Temp\ccho61l0.s 			page 215


 9796 03d8 48       		.byte	0x48
 9797 03d9 26       		.byte	0x26
 9798 03da 1E       		.byte	0x1e
 9799 03db 4F       		.byte	0x4f
 9800 03dc 26       		.byte	0x26
 9801 03dd 1C       		.byte	0x1c
 9802 03de 71       		.byte	0x71
 9803 03df 38       		.sleb128 56
 9804 03e0 06       		.byte	0x6
 9805 03e1 35       		.byte	0x35
 9806 03e2 1E       		.byte	0x1e
 9807 03e3 23       		.byte	0x23
 9808 03e4 8001     		.uleb128 0x80
 9809 03e6 38       		.byte	0x38
 9810 03e7 26       		.byte	0x26
 9811 03e8 1E       		.byte	0x1e
 9812 03e9 4F       		.byte	0x4f
 9813 03ea 26       		.byte	0x26
 9814 03eb 1C       		.byte	0x1c
 9815 03ec 77       		.byte	0x77
 9816 03ed 00       		.sleb128 0
 9817 03ee 22       		.byte	0x22
 9818 03ef 23       		.byte	0x23
 9819 03f0 808001   		.uleb128 0x4000
 9820 03f3 76       		.byte	0x76
 9821 03f4 00       		.sleb128 0
 9822 03f5 1E       		.byte	0x1e
 9823 03f6 3A       		.byte	0x3a
 9824 03f7 26       		.byte	0x26
 9825 03f8 9F       		.byte	0x9f
 9826 03f9 7E000000 		.4byte	.LVL50
 9827 03fd BA000000 		.4byte	.LVL61
 9828 0401 5D00     		.2byte	0x5d
 9829 0403 7E       		.byte	0x7e
 9830 0404 00       		.sleb128 0
 9831 0405 35       		.byte	0x35
 9832 0406 26       		.byte	0x26
 9833 0407 71       		.byte	0x71
 9834 0408 38       		.sleb128 56
 9835 0409 06       		.byte	0x6
 9836 040a 35       		.byte	0x35
 9837 040b 1E       		.byte	0x1e
 9838 040c 23       		.byte	0x23
 9839 040d 8001     		.uleb128 0x80
 9840 040f 38       		.byte	0x38
 9841 0410 26       		.byte	0x26
 9842 0411 F7       		.byte	0xf7
 9843 0412 2C       		.uleb128 0x2c
 9844 0413 F7       		.byte	0xf7
 9845 0414 25       		.uleb128 0x25
 9846 0415 71       		.byte	0x71
 9847 0416 16       		.sleb128 22
 9848 0417 94       		.byte	0x94
 9849 0418 01       		.byte	0x1
 9850 0419 F7       		.byte	0xf7
 9851 041a 3A       		.uleb128 0x3a
 9852 041b F7       		.byte	0xf7
ARM GAS  C:\Users\CHRONI~1\AppData\Local\Temp\ccho61l0.s 			page 216


 9853 041c 25       		.uleb128 0x25
 9854 041d 1E       		.byte	0x1e
 9855 041e 0C       		.byte	0xc
 9856 041f 1F85EB51 		.4byte	0x51eb851f
 9857 0423 F7       		.byte	0xf7
 9858 0424 25       		.uleb128 0x25
 9859 0425 1E       		.byte	0x1e
 9860 0426 08       		.byte	0x8
 9861 0427 20       		.byte	0x20
 9862 0428 F7       		.byte	0xf7
 9863 0429 25       		.uleb128 0x25
 9864 042a 25       		.byte	0x25
 9865 042b F7       		.byte	0xf7
 9866 042c 33       		.uleb128 0x33
 9867 042d 35       		.byte	0x35
 9868 042e 26       		.byte	0x26
 9869 042f 71       		.byte	0x71
 9870 0430 38       		.sleb128 56
 9871 0431 06       		.byte	0x6
 9872 0432 35       		.byte	0x35
 9873 0433 1E       		.byte	0x1e
 9874 0434 23       		.byte	0x23
 9875 0435 8001     		.uleb128 0x80
 9876 0437 38       		.byte	0x38
 9877 0438 26       		.byte	0x26
 9878 0439 71       		.byte	0x71
 9879 043a 16       		.sleb128 22
 9880 043b 94       		.byte	0x94
 9881 043c 01       		.byte	0x1
 9882 043d 48       		.byte	0x48
 9883 043e 24       		.byte	0x24
 9884 043f 48       		.byte	0x48
 9885 0440 26       		.byte	0x26
 9886 0441 1E       		.byte	0x1e
 9887 0442 4F       		.byte	0x4f
 9888 0443 26       		.byte	0x26
 9889 0444 1C       		.byte	0x1c
 9890 0445 71       		.byte	0x71
 9891 0446 38       		.sleb128 56
 9892 0447 06       		.byte	0x6
 9893 0448 35       		.byte	0x35
 9894 0449 1E       		.byte	0x1e
 9895 044a 23       		.byte	0x23
 9896 044b 8001     		.uleb128 0x80
 9897 044d 38       		.byte	0x38
 9898 044e 26       		.byte	0x26
 9899 044f 1E       		.byte	0x1e
 9900 0450 4F       		.byte	0x4f
 9901 0451 26       		.byte	0x26
 9902 0452 1C       		.byte	0x1c
 9903 0453 77       		.byte	0x77
 9904 0454 00       		.sleb128 0
 9905 0455 22       		.byte	0x22
 9906 0456 23       		.byte	0x23
 9907 0457 808001   		.uleb128 0x4000
 9908 045a 76       		.byte	0x76
 9909 045b 00       		.sleb128 0
ARM GAS  C:\Users\CHRONI~1\AppData\Local\Temp\ccho61l0.s 			page 217


 9910 045c 1E       		.byte	0x1e
 9911 045d 3A       		.byte	0x3a
 9912 045e 26       		.byte	0x26
 9913 045f 9F       		.byte	0x9f
 9914 0460 BA000000 		.4byte	.LVL61
 9915 0464 C4000000 		.4byte	.LFE16
 9916 0468 9F00     		.2byte	0x9f
 9917 046a 71       		.byte	0x71
 9918 046b 38       		.sleb128 56
 9919 046c 06       		.byte	0x6
 9920 046d 35       		.byte	0x35
 9921 046e 1E       		.byte	0x1e
 9922 046f 23       		.byte	0x23
 9923 0470 8001     		.uleb128 0x80
 9924 0472 38       		.byte	0x38
 9925 0473 26       		.byte	0x26
 9926 0474 F7       		.byte	0xf7
 9927 0475 2C       		.uleb128 0x2c
 9928 0476 F7       		.byte	0xf7
 9929 0477 25       		.uleb128 0x25
 9930 0478 71       		.byte	0x71
 9931 0479 15       		.sleb128 21
 9932 047a 94       		.byte	0x94
 9933 047b 01       		.byte	0x1
 9934 047c F7       		.byte	0xf7
 9935 047d 3A       		.uleb128 0x3a
 9936 047e F7       		.byte	0xf7
 9937 047f 25       		.uleb128 0x25
 9938 0480 1E       		.byte	0x1e
 9939 0481 0C       		.byte	0xc
 9940 0482 1F85EB51 		.4byte	0x51eb851f
 9941 0486 F7       		.byte	0xf7
 9942 0487 25       		.uleb128 0x25
 9943 0488 1E       		.byte	0x1e
 9944 0489 08       		.byte	0x8
 9945 048a 20       		.byte	0x20
 9946 048b F7       		.byte	0xf7
 9947 048c 25       		.uleb128 0x25
 9948 048d 25       		.byte	0x25
 9949 048e F7       		.byte	0xf7
 9950 048f 33       		.uleb128 0x33
 9951 0490 35       		.byte	0x35
 9952 0491 26       		.byte	0x26
 9953 0492 71       		.byte	0x71
 9954 0493 38       		.sleb128 56
 9955 0494 06       		.byte	0x6
 9956 0495 35       		.byte	0x35
 9957 0496 1E       		.byte	0x1e
 9958 0497 23       		.byte	0x23
 9959 0498 8001     		.uleb128 0x80
 9960 049a 38       		.byte	0x38
 9961 049b 26       		.byte	0x26
 9962 049c F7       		.byte	0xf7
 9963 049d 2C       		.uleb128 0x2c
 9964 049e F7       		.byte	0xf7
 9965 049f 25       		.uleb128 0x25
 9966 04a0 71       		.byte	0x71
ARM GAS  C:\Users\CHRONI~1\AppData\Local\Temp\ccho61l0.s 			page 218


 9967 04a1 16       		.sleb128 22
 9968 04a2 94       		.byte	0x94
 9969 04a3 01       		.byte	0x1
 9970 04a4 F7       		.byte	0xf7
 9971 04a5 3A       		.uleb128 0x3a
 9972 04a6 F7       		.byte	0xf7
 9973 04a7 25       		.uleb128 0x25
 9974 04a8 1E       		.byte	0x1e
 9975 04a9 0C       		.byte	0xc
 9976 04aa 1F85EB51 		.4byte	0x51eb851f
 9977 04ae F7       		.byte	0xf7
 9978 04af 25       		.uleb128 0x25
 9979 04b0 1E       		.byte	0x1e
 9980 04b1 08       		.byte	0x8
 9981 04b2 20       		.byte	0x20
 9982 04b3 F7       		.byte	0xf7
 9983 04b4 25       		.uleb128 0x25
 9984 04b5 25       		.byte	0x25
 9985 04b6 F7       		.byte	0xf7
 9986 04b7 33       		.uleb128 0x33
 9987 04b8 35       		.byte	0x35
 9988 04b9 26       		.byte	0x26
 9989 04ba 71       		.byte	0x71
 9990 04bb 38       		.sleb128 56
 9991 04bc 06       		.byte	0x6
 9992 04bd 35       		.byte	0x35
 9993 04be 1E       		.byte	0x1e
 9994 04bf 23       		.byte	0x23
 9995 04c0 8001     		.uleb128 0x80
 9996 04c2 38       		.byte	0x38
 9997 04c3 26       		.byte	0x26
 9998 04c4 71       		.byte	0x71
 9999 04c5 16       		.sleb128 22
 10000 04c6 94       		.byte	0x94
 10001 04c7 01       		.byte	0x1
 10002 04c8 48       		.byte	0x48
 10003 04c9 24       		.byte	0x24
 10004 04ca 48       		.byte	0x48
 10005 04cb 26       		.byte	0x26
 10006 04cc 1E       		.byte	0x1e
 10007 04cd 4F       		.byte	0x4f
 10008 04ce 26       		.byte	0x26
 10009 04cf 1C       		.byte	0x1c
 10010 04d0 71       		.byte	0x71
 10011 04d1 38       		.sleb128 56
 10012 04d2 06       		.byte	0x6
 10013 04d3 35       		.byte	0x35
 10014 04d4 1E       		.byte	0x1e
 10015 04d5 23       		.byte	0x23
 10016 04d6 8001     		.uleb128 0x80
 10017 04d8 38       		.byte	0x38
 10018 04d9 26       		.byte	0x26
 10019 04da 1E       		.byte	0x1e
 10020 04db 4F       		.byte	0x4f
 10021 04dc 26       		.byte	0x26
 10022 04dd 1C       		.byte	0x1c
 10023 04de 71       		.byte	0x71
ARM GAS  C:\Users\CHRONI~1\AppData\Local\Temp\ccho61l0.s 			page 219


 10024 04df 38       		.sleb128 56
 10025 04e0 06       		.byte	0x6
 10026 04e1 35       		.byte	0x35
 10027 04e2 1E       		.byte	0x1e
 10028 04e3 23       		.byte	0x23
 10029 04e4 8001     		.uleb128 0x80
 10030 04e6 38       		.byte	0x38
 10031 04e7 26       		.byte	0x26
 10032 04e8 71       		.byte	0x71
 10033 04e9 15       		.sleb128 21
 10034 04ea 94       		.byte	0x94
 10035 04eb 01       		.byte	0x1
 10036 04ec 48       		.byte	0x48
 10037 04ed 24       		.byte	0x24
 10038 04ee 48       		.byte	0x48
 10039 04ef 26       		.byte	0x26
 10040 04f0 1E       		.byte	0x1e
 10041 04f1 4F       		.byte	0x4f
 10042 04f2 26       		.byte	0x26
 10043 04f3 1C       		.byte	0x1c
 10044 04f4 7E       		.byte	0x7e
 10045 04f5 00       		.sleb128 0
 10046 04f6 35       		.byte	0x35
 10047 04f7 26       		.byte	0x26
 10048 04f8 22       		.byte	0x22
 10049 04f9 23       		.byte	0x23
 10050 04fa 808001   		.uleb128 0x4000
 10051 04fd 71       		.byte	0x71
 10052 04fe 12       		.sleb128 18
 10053 04ff 94       		.byte	0x94
 10054 0500 02       		.byte	0x2
 10055 0501 0A       		.byte	0xa
 10056 0502 FFFF     		.2byte	0xffff
 10057 0504 1A       		.byte	0x1a
 10058 0505 1E       		.byte	0x1e
 10059 0506 3A       		.byte	0x3a
 10060 0507 26       		.byte	0x26
 10061 0508 9F       		.byte	0x9f
 10062 0509 00000000 		.4byte	0
 10063 050d 00000000 		.4byte	0
 10064              	.LLST12:
 10065 0511 70000000 		.4byte	.LVL46
 10066 0515 9A000000 		.4byte	.LVL54
 10067 0519 0100     		.2byte	0x1
 10068 051b 50       		.byte	0x50
 10069 051c 00000000 		.4byte	0
 10070 0520 00000000 		.4byte	0
 10071              	.LLST13:
 10072 0524 72000000 		.4byte	.LVL47
 10073 0528 8A000000 		.4byte	.LVL51
 10074 052c 0500     		.2byte	0x5
 10075 052e 72       		.byte	0x72
 10076 052f 00       		.sleb128 0
 10077 0530 37       		.byte	0x37
 10078 0531 24       		.byte	0x24
 10079 0532 9F       		.byte	0x9f
 10080 0533 8A000000 		.4byte	.LVL51
ARM GAS  C:\Users\CHRONI~1\AppData\Local\Temp\ccho61l0.s 			page 220


 10081 0537 96000000 		.4byte	.LVL53
 10082 053b 0100     		.2byte	0x1
 10083 053d 54       		.byte	0x54
 10084 053e 96000000 		.4byte	.LVL53
 10085 0542 A0000000 		.4byte	.LVL55
 10086 0546 2200     		.2byte	0x22
 10087 0548 72       		.byte	0x72
 10088 0549 00       		.sleb128 0
 10089 054a 37       		.byte	0x37
 10090 054b 24       		.byte	0x24
 10091 054c 75       		.byte	0x75
 10092 054d 00       		.sleb128 0
 10093 054e 35       		.byte	0x35
 10094 054f 26       		.byte	0x26
 10095 0550 71       		.byte	0x71
 10096 0551 38       		.sleb128 56
 10097 0552 06       		.byte	0x6
 10098 0553 35       		.byte	0x35
 10099 0554 1E       		.byte	0x1e
 10100 0555 23       		.byte	0x23
 10101 0556 8001     		.uleb128 0x80
 10102 0558 38       		.byte	0x38
 10103 0559 26       		.byte	0x26
 10104 055a 71       		.byte	0x71
 10105 055b 18       		.sleb128 24
 10106 055c 94       		.byte	0x94
 10107 055d 01       		.byte	0x1
 10108 055e 48       		.byte	0x48
 10109 055f 24       		.byte	0x24
 10110 0560 48       		.byte	0x48
 10111 0561 26       		.byte	0x26
 10112 0562 1E       		.byte	0x1e
 10113 0563 4F       		.byte	0x4f
 10114 0564 26       		.byte	0x26
 10115 0565 1C       		.byte	0x1c
 10116 0566 22       		.byte	0x22
 10117 0567 34       		.byte	0x34
 10118 0568 26       		.byte	0x26
 10119 0569 9F       		.byte	0x9f
 10120 056a A0000000 		.4byte	.LVL55
 10121 056e BA000000 		.4byte	.LVL61
 10122 0572 2700     		.2byte	0x27
 10123 0574 71       		.byte	0x71
 10124 0575 17       		.sleb128 23
 10125 0576 94       		.byte	0x94
 10126 0577 01       		.byte	0x1
 10127 0578 08       		.byte	0x8
 10128 0579 FF       		.byte	0xff
 10129 057a 1A       		.byte	0x1a
 10130 057b 37       		.byte	0x37
 10131 057c 24       		.byte	0x24
 10132 057d 75       		.byte	0x75
 10133 057e 00       		.sleb128 0
 10134 057f 35       		.byte	0x35
 10135 0580 26       		.byte	0x26
 10136 0581 71       		.byte	0x71
 10137 0582 38       		.sleb128 56
ARM GAS  C:\Users\CHRONI~1\AppData\Local\Temp\ccho61l0.s 			page 221


 10138 0583 06       		.byte	0x6
 10139 0584 35       		.byte	0x35
 10140 0585 1E       		.byte	0x1e
 10141 0586 23       		.byte	0x23
 10142 0587 8001     		.uleb128 0x80
 10143 0589 38       		.byte	0x38
 10144 058a 26       		.byte	0x26
 10145 058b 71       		.byte	0x71
 10146 058c 18       		.sleb128 24
 10147 058d 94       		.byte	0x94
 10148 058e 01       		.byte	0x1
 10149 058f 48       		.byte	0x48
 10150 0590 24       		.byte	0x24
 10151 0591 48       		.byte	0x48
 10152 0592 26       		.byte	0x26
 10153 0593 1E       		.byte	0x1e
 10154 0594 4F       		.byte	0x4f
 10155 0595 26       		.byte	0x26
 10156 0596 1C       		.byte	0x1c
 10157 0597 22       		.byte	0x22
 10158 0598 34       		.byte	0x34
 10159 0599 26       		.byte	0x26
 10160 059a 9F       		.byte	0x9f
 10161 059b BA000000 		.4byte	.LVL61
 10162 059f C4000000 		.4byte	.LFE16
 10163 05a3 4B00     		.2byte	0x4b
 10164 05a5 71       		.byte	0x71
 10165 05a6 17       		.sleb128 23
 10166 05a7 94       		.byte	0x94
 10167 05a8 01       		.byte	0x1
 10168 05a9 08       		.byte	0x8
 10169 05aa FF       		.byte	0xff
 10170 05ab 1A       		.byte	0x1a
 10171 05ac 37       		.byte	0x37
 10172 05ad 24       		.byte	0x24
 10173 05ae 71       		.byte	0x71
 10174 05af 38       		.sleb128 56
 10175 05b0 06       		.byte	0x6
 10176 05b1 35       		.byte	0x35
 10177 05b2 1E       		.byte	0x1e
 10178 05b3 23       		.byte	0x23
 10179 05b4 8001     		.uleb128 0x80
 10180 05b6 38       		.byte	0x38
 10181 05b7 26       		.byte	0x26
 10182 05b8 F7       		.byte	0xf7
 10183 05b9 2C       		.uleb128 0x2c
 10184 05ba F7       		.byte	0xf7
 10185 05bb 25       		.uleb128 0x25
 10186 05bc 71       		.byte	0x71
 10187 05bd 18       		.sleb128 24
 10188 05be 94       		.byte	0x94
 10189 05bf 01       		.byte	0x1
 10190 05c0 F7       		.byte	0xf7
 10191 05c1 3A       		.uleb128 0x3a
 10192 05c2 F7       		.byte	0xf7
 10193 05c3 25       		.uleb128 0x25
 10194 05c4 1E       		.byte	0x1e
ARM GAS  C:\Users\CHRONI~1\AppData\Local\Temp\ccho61l0.s 			page 222


 10195 05c5 0C       		.byte	0xc
 10196 05c6 1F85EB51 		.4byte	0x51eb851f
 10197 05ca F7       		.byte	0xf7
 10198 05cb 25       		.uleb128 0x25
 10199 05cc 1E       		.byte	0x1e
 10200 05cd 08       		.byte	0x8
 10201 05ce 20       		.byte	0x20
 10202 05cf F7       		.byte	0xf7
 10203 05d0 25       		.uleb128 0x25
 10204 05d1 25       		.byte	0x25
 10205 05d2 F7       		.byte	0xf7
 10206 05d3 33       		.uleb128 0x33
 10207 05d4 35       		.byte	0x35
 10208 05d5 26       		.byte	0x26
 10209 05d6 71       		.byte	0x71
 10210 05d7 38       		.sleb128 56
 10211 05d8 06       		.byte	0x6
 10212 05d9 35       		.byte	0x35
 10213 05da 1E       		.byte	0x1e
 10214 05db 23       		.byte	0x23
 10215 05dc 8001     		.uleb128 0x80
 10216 05de 38       		.byte	0x38
 10217 05df 26       		.byte	0x26
 10218 05e0 71       		.byte	0x71
 10219 05e1 18       		.sleb128 24
 10220 05e2 94       		.byte	0x94
 10221 05e3 01       		.byte	0x1
 10222 05e4 48       		.byte	0x48
 10223 05e5 24       		.byte	0x24
 10224 05e6 48       		.byte	0x48
 10225 05e7 26       		.byte	0x26
 10226 05e8 1E       		.byte	0x1e
 10227 05e9 4F       		.byte	0x4f
 10228 05ea 26       		.byte	0x26
 10229 05eb 1C       		.byte	0x1c
 10230 05ec 22       		.byte	0x22
 10231 05ed 34       		.byte	0x34
 10232 05ee 26       		.byte	0x26
 10233 05ef 9F       		.byte	0x9f
 10234 05f0 00000000 		.4byte	0
 10235 05f4 00000000 		.4byte	0
 10236              	.LLST14:
 10237 05f8 92000000 		.4byte	.LVL52
 10238 05fc A8000000 		.4byte	.LVL57
 10239 0600 0100     		.2byte	0x1
 10240 0602 53       		.byte	0x53
 10241 0603 00000000 		.4byte	0
 10242 0607 00000000 		.4byte	0
 10243              	.LLST15:
 10244 060b 96000000 		.4byte	.LVL53
 10245 060f BA000000 		.4byte	.LVL61
 10246 0613 0500     		.2byte	0x5
 10247 0615 74       		.byte	0x74
 10248 0616 00       		.sleb128 0
 10249 0617 31       		.byte	0x31
 10250 0618 26       		.byte	0x26
 10251 0619 9F       		.byte	0x9f
ARM GAS  C:\Users\CHRONI~1\AppData\Local\Temp\ccho61l0.s 			page 223


 10252 061a 00000000 		.4byte	0
 10253 061e 00000000 		.4byte	0
 10254              	.LLST16:
 10255 0622 0C000000 		.4byte	.LVL42
 10256 0626 7A000000 		.4byte	.LVL49
 10257 062a 0100     		.2byte	0x1
 10258 062c 54       		.byte	0x54
 10259 062d 7A000000 		.4byte	.LVL49
 10260 0631 C4000000 		.4byte	.LFE16
 10261 0635 0B00     		.2byte	0xb
 10262 0637 71       		.byte	0x71
 10263 0638 38       		.sleb128 56
 10264 0639 06       		.byte	0x6
 10265 063a 35       		.byte	0x35
 10266 063b 1E       		.byte	0x1e
 10267 063c 23       		.byte	0x23
 10268 063d 8001     		.uleb128 0x80
 10269 063f 38       		.byte	0x38
 10270 0640 26       		.byte	0x26
 10271 0641 9F       		.byte	0x9f
 10272 0642 00000000 		.4byte	0
 10273 0646 00000000 		.4byte	0
 10274              	.LLST17:
 10275 064a A6000000 		.4byte	.LVL56
 10276 064e B4000000 		.4byte	.LVL58
 10277 0652 0100     		.2byte	0x1
 10278 0654 50       		.byte	0x50
 10279 0655 B6000000 		.4byte	.LVL59
 10280 0659 C4000000 		.4byte	.LFE16
 10281 065d 0100     		.2byte	0x1
 10282 065f 50       		.byte	0x50
 10283 0660 00000000 		.4byte	0
 10284 0664 00000000 		.4byte	0
 10285              	.LLST18:
 10286 0668 00000000 		.4byte	.LVL62
 10287 066c 12000000 		.4byte	.LVL63
 10288 0670 0100     		.2byte	0x1
 10289 0672 50       		.byte	0x50
 10290 0673 12000000 		.4byte	.LVL63
 10291 0677 AC000000 		.4byte	.LFE17
 10292 067b 0400     		.2byte	0x4
 10293 067d F3       		.byte	0xf3
 10294 067e 01       		.uleb128 0x1
 10295 067f 50       		.byte	0x50
 10296 0680 9F       		.byte	0x9f
 10297 0681 00000000 		.4byte	0
 10298 0685 00000000 		.4byte	0
 10299              	.LLST19:
 10300 0689 00000000 		.4byte	.LVL62
 10301 068d 12000000 		.4byte	.LVL63
 10302 0691 0100     		.2byte	0x1
 10303 0693 51       		.byte	0x51
 10304 0694 12000000 		.4byte	.LVL63
 10305 0698 AC000000 		.4byte	.LFE17
 10306 069c 0400     		.2byte	0x4
 10307 069e F3       		.byte	0xf3
 10308 069f 01       		.uleb128 0x1
ARM GAS  C:\Users\CHRONI~1\AppData\Local\Temp\ccho61l0.s 			page 224


 10309 06a0 51       		.byte	0x51
 10310 06a1 9F       		.byte	0x9f
 10311 06a2 00000000 		.4byte	0
 10312 06a6 00000000 		.4byte	0
 10313              	.LLST20:
 10314 06aa 00000000 		.4byte	.LVL62
 10315 06ae 12000000 		.4byte	.LVL63
 10316 06b2 0100     		.2byte	0x1
 10317 06b4 52       		.byte	0x52
 10318 06b5 12000000 		.4byte	.LVL63
 10319 06b9 A3000000 		.4byte	.LVL69-1
 10320 06bd 0100     		.2byte	0x1
 10321 06bf 5C       		.byte	0x5c
 10322 06c0 A3000000 		.4byte	.LVL69-1
 10323 06c4 AC000000 		.4byte	.LFE17
 10324 06c8 0400     		.2byte	0x4
 10325 06ca F3       		.byte	0xf3
 10326 06cb 01       		.uleb128 0x1
 10327 06cc 52       		.byte	0x52
 10328 06cd 9F       		.byte	0x9f
 10329 06ce 00000000 		.4byte	0
 10330 06d2 00000000 		.4byte	0
 10331              	.LLST21:
 10332 06d6 72000000 		.4byte	.LVL64
 10333 06da 90000000 		.4byte	.LVL66
 10334 06de 0600     		.2byte	0x6
 10335 06e0 50       		.byte	0x50
 10336 06e1 93       		.byte	0x93
 10337 06e2 04       		.uleb128 0x4
 10338 06e3 51       		.byte	0x51
 10339 06e4 93       		.byte	0x93
 10340 06e5 04       		.uleb128 0x4
 10341 06e6 00000000 		.4byte	0
 10342 06ea 00000000 		.4byte	0
 10343              	.LLST22:
 10344 06ee 82000000 		.4byte	.LVL65
 10345 06f2 A3000000 		.4byte	.LVL69-1
 10346 06f6 0600     		.2byte	0x6
 10347 06f8 52       		.byte	0x52
 10348 06f9 93       		.byte	0x93
 10349 06fa 04       		.uleb128 0x4
 10350 06fb 53       		.byte	0x53
 10351 06fc 93       		.byte	0x93
 10352 06fd 04       		.uleb128 0x4
 10353 06fe 00000000 		.4byte	0
 10354 0702 00000000 		.4byte	0
 10355              	.LLST23:
 10356 0706 96000000 		.4byte	.LVL67
 10357 070a 9E000000 		.4byte	.LVL68
 10358 070e 0600     		.2byte	0x6
 10359 0710 50       		.byte	0x50
 10360 0711 93       		.byte	0x93
 10361 0712 04       		.uleb128 0x4
 10362 0713 51       		.byte	0x51
 10363 0714 93       		.byte	0x93
 10364 0715 04       		.uleb128 0x4
 10365 0716 00000000 		.4byte	0
ARM GAS  C:\Users\CHRONI~1\AppData\Local\Temp\ccho61l0.s 			page 225


 10366 071a 00000000 		.4byte	0
 10367              	.LLST24:
 10368 071e 00000000 		.4byte	.LVL70
 10369 0722 0C000000 		.4byte	.LVL72
 10370 0726 0100     		.2byte	0x1
 10371 0728 50       		.byte	0x50
 10372 0729 0C000000 		.4byte	.LVL72
 10373 072d 28000000 		.4byte	.LFE18
 10374 0731 0400     		.2byte	0x4
 10375 0733 F3       		.byte	0xf3
 10376 0734 01       		.uleb128 0x1
 10377 0735 50       		.byte	0x50
 10378 0736 9F       		.byte	0x9f
 10379 0737 00000000 		.4byte	0
 10380 073b 00000000 		.4byte	0
 10381              	.LLST25:
 10382 073f 00000000 		.4byte	.LVL70
 10383 0743 08000000 		.4byte	.LVL71
 10384 0747 0100     		.2byte	0x1
 10385 0749 51       		.byte	0x51
 10386 074a 08000000 		.4byte	.LVL71
 10387 074e 28000000 		.4byte	.LFE18
 10388 0752 0400     		.2byte	0x4
 10389 0754 F3       		.byte	0xf3
 10390 0755 01       		.uleb128 0x1
 10391 0756 51       		.byte	0x51
 10392 0757 9F       		.byte	0x9f
 10393 0758 00000000 		.4byte	0
 10394 075c 00000000 		.4byte	0
 10395              	.LLST26:
 10396 0760 20000000 		.4byte	.LVL76
 10397 0764 26000000 		.4byte	.LVL77
 10398 0768 0600     		.2byte	0x6
 10399 076a 70       		.byte	0x70
 10400 076b 00       		.sleb128 0
 10401 076c 08       		.byte	0x8
 10402 076d 64       		.byte	0x64
 10403 076e 1E       		.byte	0x1e
 10404 076f 9F       		.byte	0x9f
 10405 0770 26000000 		.4byte	.LVL77
 10406 0774 28000000 		.4byte	.LFE18
 10407 0778 0100     		.2byte	0x1
 10408 077a 50       		.byte	0x50
 10409 077b 00000000 		.4byte	0
 10410 077f 00000000 		.4byte	0
 10411              	.LLST27:
 10412 0783 08000000 		.4byte	.LVL71
 10413 0787 1C000000 		.4byte	.LVL75
 10414 078b 0100     		.2byte	0x1
 10415 078d 51       		.byte	0x51
 10416 078e 00000000 		.4byte	0
 10417 0792 00000000 		.4byte	0
 10418              	.LLST28:
 10419 0796 0C000000 		.4byte	.LVL72
 10420 079a 20000000 		.4byte	.LVL76
 10421 079e 0100     		.2byte	0x1
 10422 07a0 50       		.byte	0x50
ARM GAS  C:\Users\CHRONI~1\AppData\Local\Temp\ccho61l0.s 			page 226


 10423 07a1 00000000 		.4byte	0
 10424 07a5 00000000 		.4byte	0
 10425              	.LLST29:
 10426 07a9 00000000 		.4byte	.LVL78
 10427 07ad 0C000000 		.4byte	.LVL79
 10428 07b1 0100     		.2byte	0x1
 10429 07b3 50       		.byte	0x50
 10430 07b4 0C000000 		.4byte	.LVL79
 10431 07b8 90000000 		.4byte	.LVL88
 10432 07bc 0100     		.2byte	0x1
 10433 07be 50       		.byte	0x50
 10434 07bf 00000000 		.4byte	0
 10435 07c3 00000000 		.4byte	0
 10436              	.LLST30:
 10437 07c7 00000000 		.4byte	.LVL78
 10438 07cb 7C000000 		.4byte	.LVL85
 10439 07cf 0100     		.2byte	0x1
 10440 07d1 51       		.byte	0x51
 10441 07d2 7C000000 		.4byte	.LVL85
 10442 07d6 B0000000 		.4byte	.LFE19
 10443 07da 0400     		.2byte	0x4
 10444 07dc F3       		.byte	0xf3
 10445 07dd 01       		.uleb128 0x1
 10446 07de 51       		.byte	0x51
 10447 07df 9F       		.byte	0x9f
 10448 07e0 00000000 		.4byte	0
 10449 07e4 00000000 		.4byte	0
 10450              	.LLST31:
 10451 07e8 24000000 		.4byte	.LVL80
 10452 07ec A2000000 		.4byte	.LVL92
 10453 07f0 0500     		.2byte	0x5
 10454 07f2 77       		.byte	0x77
 10455 07f3 00       		.sleb128 0
 10456 07f4 38       		.byte	0x38
 10457 07f5 24       		.byte	0x24
 10458 07f6 9F       		.byte	0x9f
 10459 07f7 A2000000 		.4byte	.LVL92
 10460 07fb B0000000 		.4byte	.LFE19
 10461 07ff 4500     		.2byte	0x45
 10462 0801 F3       		.byte	0xf3
 10463 0802 01       		.uleb128 0x1
 10464 0803 51       		.byte	0x51
 10465 0804 23       		.byte	0x23
 10466 0805 0E       		.uleb128 0xe
 10467 0806 94       		.byte	0x94
 10468 0807 01       		.byte	0x1
 10469 0808 F7       		.byte	0xf7
 10470 0809 3A       		.uleb128 0x3a
 10471 080a F7       		.byte	0xf7
 10472 080b 25       		.uleb128 0x25
 10473 080c F3       		.byte	0xf3
 10474 080d 01       		.uleb128 0x1
 10475 080e 51       		.byte	0x51
 10476 080f 23       		.byte	0x23
 10477 0810 1C       		.uleb128 0x1c
 10478 0811 94       		.byte	0x94
 10479 0812 01       		.byte	0x1
ARM GAS  C:\Users\CHRONI~1\AppData\Local\Temp\ccho61l0.s 			page 227


 10480 0813 F7       		.byte	0xf7
 10481 0814 3A       		.uleb128 0x3a
 10482 0815 F7       		.byte	0xf7
 10483 0816 25       		.uleb128 0x25
 10484 0817 1E       		.byte	0x1e
 10485 0818 0C       		.byte	0xc
 10486 0819 D34D6210 		.4byte	0x10624dd3
 10487 081d F7       		.byte	0xf7
 10488 081e 25       		.uleb128 0x25
 10489 081f 1E       		.byte	0x1e
 10490 0820 08       		.byte	0x8
 10491 0821 20       		.byte	0x20
 10492 0822 F7       		.byte	0xf7
 10493 0823 25       		.uleb128 0x25
 10494 0824 25       		.byte	0x25
 10495 0825 F7       		.byte	0xf7
 10496 0826 33       		.uleb128 0x33
 10497 0827 36       		.byte	0x36
 10498 0828 26       		.byte	0x26
 10499 0829 F3       		.byte	0xf3
 10500 082a 01       		.uleb128 0x1
 10501 082b 51       		.byte	0x51
 10502 082c 23       		.byte	0x23
 10503 082d 0E       		.uleb128 0xe
 10504 082e 94       		.byte	0x94
 10505 082f 01       		.byte	0x1
 10506 0830 48       		.byte	0x48
 10507 0831 24       		.byte	0x24
 10508 0832 48       		.byte	0x48
 10509 0833 26       		.byte	0x26
 10510 0834 F3       		.byte	0xf3
 10511 0835 01       		.uleb128 0x1
 10512 0836 51       		.byte	0x51
 10513 0837 23       		.byte	0x23
 10514 0838 1C       		.uleb128 0x1c
 10515 0839 94       		.byte	0x94
 10516 083a 01       		.byte	0x1
 10517 083b 48       		.byte	0x48
 10518 083c 24       		.byte	0x24
 10519 083d 48       		.byte	0x48
 10520 083e 26       		.byte	0x26
 10521 083f 1E       		.byte	0x1e
 10522 0840 4F       		.byte	0x4f
 10523 0841 26       		.byte	0x26
 10524 0842 1C       		.byte	0x1c
 10525 0843 38       		.byte	0x38
 10526 0844 24       		.byte	0x24
 10527 0845 9F       		.byte	0x9f
 10528 0846 00000000 		.4byte	0
 10529 084a 00000000 		.4byte	0
 10530              	.LLST32:
 10531 084e 60000000 		.4byte	.LVL81
 10532 0852 64000000 		.4byte	.LVL82
 10533 0856 0100     		.2byte	0x1
 10534 0858 52       		.byte	0x52
 10535 0859 64000000 		.4byte	.LVL82
 10536 085d A2000000 		.4byte	.LVL92
ARM GAS  C:\Users\CHRONI~1\AppData\Local\Temp\ccho61l0.s 			page 228


 10537 0861 0600     		.2byte	0x6
 10538 0863 75       		.byte	0x75
 10539 0864 00       		.sleb128 0
 10540 0865 7E       		.byte	0x7e
 10541 0866 00       		.sleb128 0
 10542 0867 1E       		.byte	0x1e
 10543 0868 9F       		.byte	0x9f
 10544 0869 00000000 		.4byte	0
 10545 086d 00000000 		.4byte	0
 10546              	.LLST33:
 10547 0871 6A000000 		.4byte	.LVL83
 10548 0875 A2000000 		.4byte	.LVL92
 10549 0879 0100     		.2byte	0x1
 10550 087b 54       		.byte	0x54
 10551 087c 00000000 		.4byte	0
 10552 0880 00000000 		.4byte	0
 10553              	.LLST34:
 10554 0884 74000000 		.4byte	.LVL84
 10555 0888 98000000 		.4byte	.LVL89
 10556 088c 0100     		.2byte	0x1
 10557 088e 52       		.byte	0x52
 10558 088f 98000000 		.4byte	.LVL89
 10559 0893 A2000000 		.4byte	.LVL92
 10560 0897 1000     		.2byte	0x10
 10561 0899 74       		.byte	0x74
 10562 089a 00       		.sleb128 0
 10563 089b F3       		.byte	0xf3
 10564 089c 01       		.uleb128 0x1
 10565 089d 51       		.byte	0x51
 10566 089e 23       		.byte	0x23
 10567 089f 3C       		.uleb128 0x3c
 10568 08a0 94       		.byte	0x94
 10569 08a1 01       		.byte	0x1
 10570 08a2 08       		.byte	0x8
 10571 08a3 FF       		.byte	0xff
 10572 08a4 1A       		.byte	0x1a
 10573 08a5 23       		.byte	0x23
 10574 08a6 04       		.uleb128 0x4
 10575 08a7 1B       		.byte	0x1b
 10576 08a8 9F       		.byte	0x9f
 10577 08a9 00000000 		.4byte	0
 10578 08ad 00000000 		.4byte	0
 10579              	.LLST35:
 10580 08b1 84000000 		.4byte	.LVL86
 10581 08b5 88000000 		.4byte	.LVL87
 10582 08b9 0100     		.2byte	0x1
 10583 08bb 53       		.byte	0x53
 10584 08bc 88000000 		.4byte	.LVL87
 10585 08c0 B0000000 		.4byte	.LFE19
 10586 08c4 1500     		.2byte	0x15
 10587 08c6 71       		.byte	0x71
 10588 08c7 00       		.sleb128 0
 10589 08c8 31       		.byte	0x31
 10590 08c9 24       		.byte	0x24
 10591 08ca F3       		.byte	0xf3
 10592 08cb 01       		.uleb128 0x1
 10593 08cc 51       		.byte	0x51
ARM GAS  C:\Users\CHRONI~1\AppData\Local\Temp\ccho61l0.s 			page 229


 10594 08cd 23       		.byte	0x23
 10595 08ce 3D       		.uleb128 0x3d
 10596 08cf 94       		.byte	0x94
 10597 08d0 01       		.byte	0x1
 10598 08d1 48       		.byte	0x48
 10599 08d2 24       		.byte	0x24
 10600 08d3 48       		.byte	0x48
 10601 08d4 26       		.byte	0x26
 10602 08d5 22       		.byte	0x22
 10603 08d6 23       		.byte	0x23
 10604 08d7 808004   		.uleb128 0x10000
 10605 08da 9F       		.byte	0x9f
 10606 08db 00000000 		.4byte	0
 10607 08df 00000000 		.4byte	0
 10608              	.LLST36:
 10609 08e3 90000000 		.4byte	.LVL88
 10610 08e7 98000000 		.4byte	.LVL89
 10611 08eb 0100     		.2byte	0x1
 10612 08ed 50       		.byte	0x50
 10613 08ee 98000000 		.4byte	.LVL89
 10614 08f2 9A000000 		.4byte	.LVL90
 10615 08f6 0300     		.2byte	0x3
 10616 08f8 73       		.byte	0x73
 10617 08f9 4E       		.sleb128 -50
 10618 08fa 9F       		.byte	0x9f
 10619 08fb 9A000000 		.4byte	.LVL90
 10620 08ff A2000000 		.4byte	.LVL92
 10621 0903 2C00     		.2byte	0x2c
 10622 0905 74       		.byte	0x74
 10623 0906 00       		.sleb128 0
 10624 0907 F3       		.byte	0xf3
 10625 0908 01       		.uleb128 0x1
 10626 0909 51       		.byte	0x51
 10627 090a 23       		.byte	0x23
 10628 090b 3C       		.uleb128 0x3c
 10629 090c 94       		.byte	0x94
 10630 090d 01       		.byte	0x1
 10631 090e 08       		.byte	0x8
 10632 090f FF       		.byte	0xff
 10633 0910 1A       		.byte	0x1a
 10634 0911 23       		.byte	0x23
 10635 0912 04       		.uleb128 0x4
 10636 0913 1B       		.byte	0x1b
 10637 0914 71       		.byte	0x71
 10638 0915 00       		.sleb128 0
 10639 0916 31       		.byte	0x31
 10640 0917 24       		.byte	0x24
 10641 0918 F3       		.byte	0xf3
 10642 0919 01       		.uleb128 0x1
 10643 091a 51       		.byte	0x51
 10644 091b 23       		.byte	0x23
 10645 091c 3D       		.uleb128 0x3d
 10646 091d 94       		.byte	0x94
 10647 091e 01       		.byte	0x1
 10648 091f 48       		.byte	0x48
 10649 0920 24       		.byte	0x24
 10650 0921 48       		.byte	0x48
ARM GAS  C:\Users\CHRONI~1\AppData\Local\Temp\ccho61l0.s 			page 230


 10651 0922 26       		.byte	0x26
 10652 0923 22       		.byte	0x22
 10653 0924 23       		.byte	0x23
 10654 0925 808004   		.uleb128 0x10000
 10655 0928 1B       		.byte	0x1b
 10656 0929 08       		.byte	0x8
 10657 092a FA       		.byte	0xfa
 10658 092b 1C       		.byte	0x1c
 10659 092c 41       		.byte	0x41
 10660 092d 1E       		.byte	0x1e
 10661 092e 31       		.byte	0x31
 10662 092f 24       		.byte	0x24
 10663 0930 9F       		.byte	0x9f
 10664 0931 00000000 		.4byte	0
 10665 0935 00000000 		.4byte	0
 10666              	.LLST37:
 10667 0939 00000000 		.4byte	.LVL93
 10668 093d 0C000000 		.4byte	.LVL95
 10669 0941 0100     		.2byte	0x1
 10670 0943 50       		.byte	0x50
 10671 0944 0C000000 		.4byte	.LVL95
 10672 0948 16000000 		.4byte	.LVL98
 10673 094c 0100     		.2byte	0x1
 10674 094e 50       		.byte	0x50
 10675 094f 20000000 		.4byte	.LVL101
 10676 0953 22000000 		.4byte	.LVL102
 10677 0957 0100     		.2byte	0x1
 10678 0959 50       		.byte	0x50
 10679 095a 22000000 		.4byte	.LVL102
 10680 095e 24000000 		.4byte	.LFE20
 10681 0962 0400     		.2byte	0x4
 10682 0964 F3       		.byte	0xf3
 10683 0965 01       		.uleb128 0x1
 10684 0966 50       		.byte	0x50
 10685 0967 9F       		.byte	0x9f
 10686 0968 00000000 		.4byte	0
 10687 096c 00000000 		.4byte	0
 10688              	.LLST38:
 10689 0970 00000000 		.4byte	.LVL93
 10690 0974 0A000000 		.4byte	.LVL94
 10691 0978 0200     		.2byte	0x2
 10692 097a 30       		.byte	0x30
 10693 097b 9F       		.byte	0x9f
 10694 097c 0A000000 		.4byte	.LVL94
 10695 0980 0E000000 		.4byte	.LVL96
 10696 0984 0100     		.2byte	0x1
 10697 0986 53       		.byte	0x53
 10698 0987 10000000 		.4byte	.LVL97
 10699 098b 18000000 		.4byte	.LVL99
 10700 098f 0100     		.2byte	0x1
 10701 0991 53       		.byte	0x53
 10702 0992 20000000 		.4byte	.LVL101
 10703 0996 24000000 		.4byte	.LFE20
 10704 099a 0200     		.2byte	0x2
 10705 099c 30       		.byte	0x30
 10706 099d 9F       		.byte	0x9f
 10707 099e 00000000 		.4byte	0
ARM GAS  C:\Users\CHRONI~1\AppData\Local\Temp\ccho61l0.s 			page 231


 10708 09a2 00000000 		.4byte	0
 10709              	.LLST39:
 10710 09a6 1E000000 		.4byte	.LVL100
 10711 09aa 20000000 		.4byte	.LVL101
 10712 09ae 0100     		.2byte	0x1
 10713 09b0 50       		.byte	0x50
 10714 09b1 22000000 		.4byte	.LVL102
 10715 09b5 24000000 		.4byte	.LFE20
 10716 09b9 0100     		.2byte	0x1
 10717 09bb 50       		.byte	0x50
 10718 09bc 00000000 		.4byte	0
 10719 09c0 00000000 		.4byte	0
 10720              	.LLST40:
 10721 09c4 00000000 		.4byte	.LVL103
 10722 09c8 10000000 		.4byte	.LVL104
 10723 09cc 0100     		.2byte	0x1
 10724 09ce 50       		.byte	0x50
 10725 09cf 10000000 		.4byte	.LVL104
 10726 09d3 12000000 		.4byte	.LVL105
 10727 09d7 0400     		.2byte	0x4
 10728 09d9 F3       		.byte	0xf3
 10729 09da 01       		.uleb128 0x1
 10730 09db 50       		.byte	0x50
 10731 09dc 9F       		.byte	0x9f
 10732 09dd 12000000 		.4byte	.LVL105
 10733 09e1 16000000 		.4byte	.LVL106
 10734 09e5 0100     		.2byte	0x1
 10735 09e7 50       		.byte	0x50
 10736 09e8 16000000 		.4byte	.LVL106
 10737 09ec 18000000 		.4byte	.LVL107
 10738 09f0 0400     		.2byte	0x4
 10739 09f2 F3       		.byte	0xf3
 10740 09f3 01       		.uleb128 0x1
 10741 09f4 50       		.byte	0x50
 10742 09f5 9F       		.byte	0x9f
 10743 09f6 18000000 		.4byte	.LVL107
 10744 09fa 1C000000 		.4byte	.LVL108
 10745 09fe 0100     		.2byte	0x1
 10746 0a00 50       		.byte	0x50
 10747 0a01 1C000000 		.4byte	.LVL108
 10748 0a05 1E000000 		.4byte	.LVL109
 10749 0a09 0400     		.2byte	0x4
 10750 0a0b F3       		.byte	0xf3
 10751 0a0c 01       		.uleb128 0x1
 10752 0a0d 50       		.byte	0x50
 10753 0a0e 9F       		.byte	0x9f
 10754 0a0f 1E000000 		.4byte	.LVL109
 10755 0a13 22000000 		.4byte	.LVL110
 10756 0a17 0100     		.2byte	0x1
 10757 0a19 50       		.byte	0x50
 10758 0a1a 22000000 		.4byte	.LVL110
 10759 0a1e 24000000 		.4byte	.LVL111
 10760 0a22 0400     		.2byte	0x4
 10761 0a24 F3       		.byte	0xf3
 10762 0a25 01       		.uleb128 0x1
 10763 0a26 50       		.byte	0x50
 10764 0a27 9F       		.byte	0x9f
ARM GAS  C:\Users\CHRONI~1\AppData\Local\Temp\ccho61l0.s 			page 232


 10765 0a28 24000000 		.4byte	.LVL111
 10766 0a2c 28000000 		.4byte	.LVL112
 10767 0a30 0100     		.2byte	0x1
 10768 0a32 50       		.byte	0x50
 10769 0a33 28000000 		.4byte	.LVL112
 10770 0a37 2A000000 		.4byte	.LFE26
 10771 0a3b 0400     		.2byte	0x4
 10772 0a3d F3       		.byte	0xf3
 10773 0a3e 01       		.uleb128 0x1
 10774 0a3f 50       		.byte	0x50
 10775 0a40 9F       		.byte	0x9f
 10776 0a41 00000000 		.4byte	0
 10777 0a45 00000000 		.4byte	0
 10778              	.LLST41:
 10779 0a49 00000000 		.4byte	.LVL103
 10780 0a4d 28000000 		.4byte	.LVL112
 10781 0a51 0200     		.2byte	0x2
 10782 0a53 30       		.byte	0x30
 10783 0a54 9F       		.byte	0x9f
 10784 0a55 28000000 		.4byte	.LVL112
 10785 0a59 2A000000 		.4byte	.LFE26
 10786 0a5d 0100     		.2byte	0x1
 10787 0a5f 50       		.byte	0x50
 10788 0a60 00000000 		.4byte	0
 10789 0a64 00000000 		.4byte	0
 10790              	.LLST42:
 10791 0a68 00000000 		.4byte	.LVL113
 10792 0a6c 0A000000 		.4byte	.LVL114
 10793 0a70 0100     		.2byte	0x1
 10794 0a72 50       		.byte	0x50
 10795 0a73 0A000000 		.4byte	.LVL114
 10796 0a77 70000000 		.4byte	.LFE23
 10797 0a7b 0400     		.2byte	0x4
 10798 0a7d F3       		.byte	0xf3
 10799 0a7e 01       		.uleb128 0x1
 10800 0a7f 50       		.byte	0x50
 10801 0a80 9F       		.byte	0x9f
 10802 0a81 00000000 		.4byte	0
 10803 0a85 00000000 		.4byte	0
 10804              	.LLST43:
 10805 0a89 00000000 		.4byte	.LVL113
 10806 0a8d 0D000000 		.4byte	.LVL115-1
 10807 0a91 0100     		.2byte	0x1
 10808 0a93 51       		.byte	0x51
 10809 0a94 0D000000 		.4byte	.LVL115-1
 10810 0a98 70000000 		.4byte	.LFE23
 10811 0a9c 0100     		.2byte	0x1
 10812 0a9e 54       		.byte	0x54
 10813 0a9f 00000000 		.4byte	0
 10814 0aa3 00000000 		.4byte	0
 10815              	.LLST44:
 10816 0aa7 0E000000 		.4byte	.LVL115
 10817 0aab 32000000 		.4byte	.LVL118
 10818 0aaf 0100     		.2byte	0x1
 10819 0ab1 50       		.byte	0x50
 10820 0ab2 3E000000 		.4byte	.LVL120
 10821 0ab6 70000000 		.4byte	.LFE23
ARM GAS  C:\Users\CHRONI~1\AppData\Local\Temp\ccho61l0.s 			page 233


 10822 0aba 0100     		.2byte	0x1
 10823 0abc 55       		.byte	0x55
 10824 0abd 00000000 		.4byte	0
 10825 0ac1 00000000 		.4byte	0
 10826              	.LLST45:
 10827 0ac5 1E000000 		.4byte	.LVL116
 10828 0ac9 2A000000 		.4byte	.LVL117
 10829 0acd 0100     		.2byte	0x1
 10830 0acf 53       		.byte	0x53
 10831 0ad0 2A000000 		.4byte	.LVL117
 10832 0ad4 33000000 		.4byte	.LVL119-1
 10833 0ad8 0200     		.2byte	0x2
 10834 0ada 74       		.byte	0x74
 10835 0adb 0D       		.sleb128 13
 10836 0adc 00000000 		.4byte	0
 10837 0ae0 00000000 		.4byte	0
 10838              	.LLST46:
 10839 0ae4 00000000 		.4byte	.LVL123
 10840 0ae8 09000000 		.4byte	.LVL124-1
 10841 0aec 0100     		.2byte	0x1
 10842 0aee 50       		.byte	0x50
 10843 0aef 09000000 		.4byte	.LVL124-1
 10844 0af3 38000000 		.4byte	.LFE24
 10845 0af7 0100     		.2byte	0x1
 10846 0af9 54       		.byte	0x54
 10847 0afa 00000000 		.4byte	0
 10848 0afe 00000000 		.4byte	0
 10849              	.LLST47:
 10850 0b02 0A000000 		.4byte	.LVL124
 10851 0b06 1A000000 		.4byte	.LVL125
 10852 0b0a 0100     		.2byte	0x1
 10853 0b0c 50       		.byte	0x50
 10854 0b0d 32000000 		.4byte	.LVL127
 10855 0b11 38000000 		.4byte	.LFE24
 10856 0b15 0100     		.2byte	0x1
 10857 0b17 55       		.byte	0x55
 10858 0b18 00000000 		.4byte	0
 10859 0b1c 00000000 		.4byte	0
 10860              	.LLST48:
 10861 0b20 00000000 		.4byte	.LVL128
 10862 0b24 0A000000 		.4byte	.LVL129
 10863 0b28 0100     		.2byte	0x1
 10864 0b2a 50       		.byte	0x50
 10865 0b2b 0A000000 		.4byte	.LVL129
 10866 0b2f 34000000 		.4byte	.LFE25
 10867 0b33 0100     		.2byte	0x1
 10868 0b35 54       		.byte	0x54
 10869 0b36 00000000 		.4byte	0
 10870 0b3a 00000000 		.4byte	0
 10871              	.LLST49:
 10872 0b3e 00000000 		.4byte	.LVL128
 10873 0b42 0D000000 		.4byte	.LVL130-1
 10874 0b46 0100     		.2byte	0x1
 10875 0b48 51       		.byte	0x51
 10876 0b49 0D000000 		.4byte	.LVL130-1
 10877 0b4d 34000000 		.4byte	.LFE25
 10878 0b51 0400     		.2byte	0x4
ARM GAS  C:\Users\CHRONI~1\AppData\Local\Temp\ccho61l0.s 			page 234


 10879 0b53 F3       		.byte	0xf3
 10880 0b54 01       		.uleb128 0x1
 10881 0b55 51       		.byte	0x51
 10882 0b56 9F       		.byte	0x9f
 10883 0b57 00000000 		.4byte	0
 10884 0b5b 00000000 		.4byte	0
 10885              	.LLST50:
 10886 0b5f 00000000 		.4byte	.LVL128
 10887 0b63 0D000000 		.4byte	.LVL130-1
 10888 0b67 0100     		.2byte	0x1
 10889 0b69 52       		.byte	0x52
 10890 0b6a 0D000000 		.4byte	.LVL130-1
 10891 0b6e 34000000 		.4byte	.LFE25
 10892 0b72 0100     		.2byte	0x1
 10893 0b74 55       		.byte	0x55
 10894 0b75 00000000 		.4byte	0
 10895 0b79 00000000 		.4byte	0
 10896              	.LLST51:
 10897 0b7d 0E000000 		.4byte	.LVL130
 10898 0b81 2C000000 		.4byte	.LVL132
 10899 0b85 0100     		.2byte	0x1
 10900 0b87 50       		.byte	0x50
 10901 0b88 2E000000 		.4byte	.LVL133
 10902 0b8c 34000000 		.4byte	.LFE25
 10903 0b90 0100     		.2byte	0x1
 10904 0b92 50       		.byte	0x50
 10905 0b93 00000000 		.4byte	0
 10906 0b97 00000000 		.4byte	0
 10907              	.LLST52:
 10908 0b9b 00000000 		.4byte	.LVL135
 10909 0b9f 10000000 		.4byte	.LVL136
 10910 0ba3 0100     		.2byte	0x1
 10911 0ba5 50       		.byte	0x50
 10912 0ba6 10000000 		.4byte	.LVL136
 10913 0baa 20000000 		.4byte	.LVL137
 10914 0bae 0400     		.2byte	0x4
 10915 0bb0 F3       		.byte	0xf3
 10916 0bb1 01       		.uleb128 0x1
 10917 0bb2 50       		.byte	0x50
 10918 0bb3 9F       		.byte	0x9f
 10919 0bb4 20000000 		.4byte	.LVL137
 10920 0bb8 30000000 		.4byte	.LVL142
 10921 0bbc 0100     		.2byte	0x1
 10922 0bbe 50       		.byte	0x50
 10923 0bbf 3A000000 		.4byte	.LVL145
 10924 0bc3 3C000000 		.4byte	.LVL146
 10925 0bc7 0100     		.2byte	0x1
 10926 0bc9 50       		.byte	0x50
 10927 0bca 3C000000 		.4byte	.LVL146
 10928 0bce 44000000 		.4byte	.LFE28
 10929 0bd2 0400     		.2byte	0x4
 10930 0bd4 F3       		.byte	0xf3
 10931 0bd5 01       		.uleb128 0x1
 10932 0bd6 50       		.byte	0x50
 10933 0bd7 9F       		.byte	0x9f
 10934 0bd8 00000000 		.4byte	0
 10935 0bdc 00000000 		.4byte	0
ARM GAS  C:\Users\CHRONI~1\AppData\Local\Temp\ccho61l0.s 			page 235


 10936              	.LLST53:
 10937 0be0 00000000 		.4byte	.LVL135
 10938 0be4 24000000 		.4byte	.LVL138
 10939 0be8 0200     		.2byte	0x2
 10940 0bea 30       		.byte	0x30
 10941 0beb 9F       		.byte	0x9f
 10942 0bec 24000000 		.4byte	.LVL138
 10943 0bf0 28000000 		.4byte	.LVL140
 10944 0bf4 0100     		.2byte	0x1
 10945 0bf6 53       		.byte	0x53
 10946 0bf7 2A000000 		.4byte	.LVL141
 10947 0bfb 32000000 		.4byte	.LVL143
 10948 0bff 0100     		.2byte	0x1
 10949 0c01 53       		.byte	0x53
 10950 0c02 3A000000 		.4byte	.LVL145
 10951 0c06 44000000 		.4byte	.LFE28
 10952 0c0a 0200     		.2byte	0x2
 10953 0c0c 30       		.byte	0x30
 10954 0c0d 9F       		.byte	0x9f
 10955 0c0e 00000000 		.4byte	0
 10956 0c12 00000000 		.4byte	0
 10957              	.LLST54:
 10958 0c16 38000000 		.4byte	.LVL144
 10959 0c1a 3A000000 		.4byte	.LVL145
 10960 0c1e 0100     		.2byte	0x1
 10961 0c20 50       		.byte	0x50
 10962 0c21 3C000000 		.4byte	.LVL146
 10963 0c25 44000000 		.4byte	.LFE28
 10964 0c29 0100     		.2byte	0x1
 10965 0c2b 50       		.byte	0x50
 10966 0c2c 00000000 		.4byte	0
 10967 0c30 00000000 		.4byte	0
 10968              	.LLST55:
 10969 0c34 00000000 		.4byte	.LVL149
 10970 0c38 33000000 		.4byte	.LVL154-1
 10971 0c3c 0100     		.2byte	0x1
 10972 0c3e 50       		.byte	0x50
 10973 0c3f 33000000 		.4byte	.LVL154-1
 10974 0c43 36000000 		.4byte	.LVL155
 10975 0c47 0400     		.2byte	0x4
 10976 0c49 F3       		.byte	0xf3
 10977 0c4a 01       		.uleb128 0x1
 10978 0c4b 50       		.byte	0x50
 10979 0c4c 9F       		.byte	0x9f
 10980 0c4d 36000000 		.4byte	.LVL155
 10981 0c51 41000000 		.4byte	.LVL156-1
 10982 0c55 0100     		.2byte	0x1
 10983 0c57 50       		.byte	0x50
 10984 0c58 41000000 		.4byte	.LVL156-1
 10985 0c5c 44000000 		.4byte	.LFE29
 10986 0c60 0400     		.2byte	0x4
 10987 0c62 F3       		.byte	0xf3
 10988 0c63 01       		.uleb128 0x1
 10989 0c64 50       		.byte	0x50
 10990 0c65 9F       		.byte	0x9f
 10991 0c66 00000000 		.4byte	0
 10992 0c6a 00000000 		.4byte	0
ARM GAS  C:\Users\CHRONI~1\AppData\Local\Temp\ccho61l0.s 			page 236


 10993              	.LLST56:
 10994 0c6e 00000000 		.4byte	.LVL149
 10995 0c72 33000000 		.4byte	.LVL154-1
 10996 0c76 0100     		.2byte	0x1
 10997 0c78 51       		.byte	0x51
 10998 0c79 33000000 		.4byte	.LVL154-1
 10999 0c7d 36000000 		.4byte	.LVL155
 11000 0c81 0400     		.2byte	0x4
 11001 0c83 F3       		.byte	0xf3
 11002 0c84 01       		.uleb128 0x1
 11003 0c85 51       		.byte	0x51
 11004 0c86 9F       		.byte	0x9f
 11005 0c87 36000000 		.4byte	.LVL155
 11006 0c8b 41000000 		.4byte	.LVL156-1
 11007 0c8f 0100     		.2byte	0x1
 11008 0c91 51       		.byte	0x51
 11009 0c92 41000000 		.4byte	.LVL156-1
 11010 0c96 44000000 		.4byte	.LFE29
 11011 0c9a 0400     		.2byte	0x4
 11012 0c9c F3       		.byte	0xf3
 11013 0c9d 01       		.uleb128 0x1
 11014 0c9e 51       		.byte	0x51
 11015 0c9f 9F       		.byte	0x9f
 11016 0ca0 00000000 		.4byte	0
 11017 0ca4 00000000 		.4byte	0
 11018              	.LLST57:
 11019 0ca8 00000000 		.4byte	.LVL149
 11020 0cac 33000000 		.4byte	.LVL154-1
 11021 0cb0 0100     		.2byte	0x1
 11022 0cb2 52       		.byte	0x52
 11023 0cb3 33000000 		.4byte	.LVL154-1
 11024 0cb7 36000000 		.4byte	.LVL155
 11025 0cbb 0400     		.2byte	0x4
 11026 0cbd F3       		.byte	0xf3
 11027 0cbe 01       		.uleb128 0x1
 11028 0cbf 52       		.byte	0x52
 11029 0cc0 9F       		.byte	0x9f
 11030 0cc1 36000000 		.4byte	.LVL155
 11031 0cc5 41000000 		.4byte	.LVL156-1
 11032 0cc9 0100     		.2byte	0x1
 11033 0ccb 52       		.byte	0x52
 11034 0ccc 41000000 		.4byte	.LVL156-1
 11035 0cd0 44000000 		.4byte	.LFE29
 11036 0cd4 0400     		.2byte	0x4
 11037 0cd6 F3       		.byte	0xf3
 11038 0cd7 01       		.uleb128 0x1
 11039 0cd8 52       		.byte	0x52
 11040 0cd9 9F       		.byte	0x9f
 11041 0cda 00000000 		.4byte	0
 11042 0cde 00000000 		.4byte	0
 11043              	.LLST58:
 11044 0ce2 0E000000 		.4byte	.LVL151
 11045 0ce6 20000000 		.4byte	.LVL152
 11046 0cea 0600     		.2byte	0x6
 11047 0cec 75       		.byte	0x75
 11048 0ced 00       		.sleb128 0
 11049 0cee 08       		.byte	0x8
ARM GAS  C:\Users\CHRONI~1\AppData\Local\Temp\ccho61l0.s 			page 237


 11050 0cef FF       		.byte	0xff
 11051 0cf0 1A       		.byte	0x1a
 11052 0cf1 9F       		.byte	0x9f
 11053 0cf2 20000000 		.4byte	.LVL152
 11054 0cf6 24000000 		.4byte	.LVL153
 11055 0cfa 0800     		.2byte	0x8
 11056 0cfc 73       		.byte	0x73
 11057 0cfd 02       		.sleb128 2
 11058 0cfe 94       		.byte	0x94
 11059 0cff 01       		.byte	0x1
 11060 0d00 08       		.byte	0x8
 11061 0d01 FF       		.byte	0xff
 11062 0d02 1A       		.byte	0x1a
 11063 0d03 9F       		.byte	0x9f
 11064 0d04 24000000 		.4byte	.LVL153
 11065 0d08 33000000 		.4byte	.LVL154-1
 11066 0d0c 1000     		.2byte	0x10
 11067 0d0e 71       		.byte	0x71
 11068 0d0f 00       		.sleb128 0
 11069 0d10 32       		.byte	0x32
 11070 0d11 24       		.byte	0x24
 11071 0d12 72       		.byte	0x72
 11072 0d13 00       		.sleb128 0
 11073 0d14 22       		.byte	0x22
 11074 0d15 06       		.byte	0x6
 11075 0d16 23       		.byte	0x23
 11076 0d17 02       		.uleb128 0x2
 11077 0d18 94       		.byte	0x94
 11078 0d19 01       		.byte	0x1
 11079 0d1a 08       		.byte	0x8
 11080 0d1b FF       		.byte	0xff
 11081 0d1c 1A       		.byte	0x1a
 11082 0d1d 9F       		.byte	0x9f
 11083 0d1e 36000000 		.4byte	.LVL155
 11084 0d22 42000000 		.4byte	.LVL156
 11085 0d26 0600     		.2byte	0x6
 11086 0d28 75       		.byte	0x75
 11087 0d29 00       		.sleb128 0
 11088 0d2a 08       		.byte	0x8
 11089 0d2b FF       		.byte	0xff
 11090 0d2c 1A       		.byte	0x1a
 11091 0d2d 9F       		.byte	0x9f
 11092 0d2e 00000000 		.4byte	0
 11093 0d32 00000000 		.4byte	0
 11094              	.LLST59:
 11095 0d36 24000000 		.4byte	.LVL153
 11096 0d3a 33000000 		.4byte	.LVL154-1
 11097 0d3e 0100     		.2byte	0x1
 11098 0d40 53       		.byte	0x53
 11099 0d41 00000000 		.4byte	0
 11100 0d45 00000000 		.4byte	0
 11101              	.LLST60:
 11102 0d49 00000000 		.4byte	.LVL157
 11103 0d4d 80000000 		.4byte	.LVL175
 11104 0d51 0100     		.2byte	0x1
 11105 0d53 50       		.byte	0x50
 11106 0d54 80000000 		.4byte	.LVL175
ARM GAS  C:\Users\CHRONI~1\AppData\Local\Temp\ccho61l0.s 			page 238


 11107 0d58 82000000 		.4byte	.LVL176
 11108 0d5c 0400     		.2byte	0x4
 11109 0d5e F3       		.byte	0xf3
 11110 0d5f 01       		.uleb128 0x1
 11111 0d60 50       		.byte	0x50
 11112 0d61 9F       		.byte	0x9f
 11113 0d62 82000000 		.4byte	.LVL176
 11114 0d66 86000000 		.4byte	.LVL177
 11115 0d6a 0100     		.2byte	0x1
 11116 0d6c 50       		.byte	0x50
 11117 0d6d 86000000 		.4byte	.LVL177
 11118 0d71 8A000000 		.4byte	.LFE31
 11119 0d75 0400     		.2byte	0x4
 11120 0d77 F3       		.byte	0xf3
 11121 0d78 01       		.uleb128 0x1
 11122 0d79 50       		.byte	0x50
 11123 0d7a 9F       		.byte	0x9f
 11124 0d7b 00000000 		.4byte	0
 11125 0d7f 00000000 		.4byte	0
 11126              	.LLST61:
 11127 0d83 02000000 		.4byte	.LVL158
 11128 0d87 86000000 		.4byte	.LVL177
 11129 0d8b 0200     		.2byte	0x2
 11130 0d8d 30       		.byte	0x30
 11131 0d8e 9F       		.byte	0x9f
 11132 0d8f 86000000 		.4byte	.LVL177
 11133 0d93 8A000000 		.4byte	.LFE31
 11134 0d97 0100     		.2byte	0x1
 11135 0d99 50       		.byte	0x50
 11136 0d9a 00000000 		.4byte	0
 11137 0d9e 00000000 		.4byte	0
 11138              	.LLST62:
 11139 0da2 02000000 		.4byte	.LVL158
 11140 0da6 12000000 		.4byte	.LVL159
 11141 0daa 0200     		.2byte	0x2
 11142 0dac 30       		.byte	0x30
 11143 0dad 9F       		.byte	0x9f
 11144 0dae 12000000 		.4byte	.LVL159
 11145 0db2 26000000 		.4byte	.LVL160
 11146 0db6 0100     		.2byte	0x1
 11147 0db8 55       		.byte	0x55
 11148 0db9 28000000 		.4byte	.LVL161
 11149 0dbd 3A000000 		.4byte	.LVL162
 11150 0dc1 0100     		.2byte	0x1
 11151 0dc3 55       		.byte	0x55
 11152 0dc4 3C000000 		.4byte	.LVL163
 11153 0dc8 50000000 		.4byte	.LVL165
 11154 0dcc 0100     		.2byte	0x1
 11155 0dce 55       		.byte	0x55
 11156 0dcf 52000000 		.4byte	.LVL166
 11157 0dd3 7A000000 		.4byte	.LVL173
 11158 0dd7 0100     		.2byte	0x1
 11159 0dd9 55       		.byte	0x55
 11160 0dda 7C000000 		.4byte	.LVL174
 11161 0dde 88000000 		.4byte	.LVL178
 11162 0de2 0100     		.2byte	0x1
 11163 0de4 55       		.byte	0x55
ARM GAS  C:\Users\CHRONI~1\AppData\Local\Temp\ccho61l0.s 			page 239


 11164 0de5 00000000 		.4byte	0
 11165 0de9 00000000 		.4byte	0
 11166              	.LLST63:
 11167 0ded 40000000 		.4byte	.LVL164
 11168 0df1 54000000 		.4byte	.LVL167
 11169 0df5 0100     		.2byte	0x1
 11170 0df7 53       		.byte	0x53
 11171 0df8 56000000 		.4byte	.LVL168
 11172 0dfc 62000000 		.4byte	.LVL169
 11173 0e00 0100     		.2byte	0x1
 11174 0e02 53       		.byte	0x53
 11175 0e03 72000000 		.4byte	.LVL171
 11176 0e07 74000000 		.4byte	.LVL172
 11177 0e0b 0100     		.2byte	0x1
 11178 0e0d 53       		.byte	0x53
 11179 0e0e 00000000 		.4byte	0
 11180 0e12 00000000 		.4byte	0
 11181              	.LLST64:
 11182 0e16 02000000 		.4byte	.LVL158
 11183 0e1a 70000000 		.4byte	.LVL170
 11184 0e1e 0200     		.2byte	0x2
 11185 0e20 30       		.byte	0x30
 11186 0e21 9F       		.byte	0x9f
 11187 0e22 70000000 		.4byte	.LVL170
 11188 0e26 72000000 		.4byte	.LVL171
 11189 0e2a 0100     		.2byte	0x1
 11190 0e2c 53       		.byte	0x53
 11191 0e2d 72000000 		.4byte	.LVL171
 11192 0e31 74000000 		.4byte	.LVL172
 11193 0e35 0200     		.2byte	0x2
 11194 0e37 30       		.byte	0x30
 11195 0e38 9F       		.byte	0x9f
 11196 0e39 74000000 		.4byte	.LVL172
 11197 0e3d 8A000000 		.4byte	.LFE31
 11198 0e41 0100     		.2byte	0x1
 11199 0e43 53       		.byte	0x53
 11200 0e44 00000000 		.4byte	0
 11201 0e48 00000000 		.4byte	0
 11202              	.LLST65:
 11203 0e4c 00000000 		.4byte	.LVL179
 11204 0e50 1C000000 		.4byte	.LVL181
 11205 0e54 0100     		.2byte	0x1
 11206 0e56 50       		.byte	0x50
 11207 0e57 1C000000 		.4byte	.LVL181
 11208 0e5b CA000000 		.4byte	.LFE2
 11209 0e5f 0100     		.2byte	0x1
 11210 0e61 56       		.byte	0x56
 11211 0e62 00000000 		.4byte	0
 11212 0e66 00000000 		.4byte	0
 11213              	.LLST66:
 11214 0e6a 00000000 		.4byte	.LVL179
 11215 0e6e 1F000000 		.4byte	.LVL182-1
 11216 0e72 0100     		.2byte	0x1
 11217 0e74 51       		.byte	0x51
 11218 0e75 1F000000 		.4byte	.LVL182-1
 11219 0e79 CA000000 		.4byte	.LFE2
 11220 0e7d 0100     		.2byte	0x1
ARM GAS  C:\Users\CHRONI~1\AppData\Local\Temp\ccho61l0.s 			page 240


 11221 0e7f 58       		.byte	0x58
 11222 0e80 00000000 		.4byte	0
 11223 0e84 00000000 		.4byte	0
 11224              	.LLST67:
 11225 0e88 00000000 		.4byte	.LVL179
 11226 0e8c 1F000000 		.4byte	.LVL182-1
 11227 0e90 0100     		.2byte	0x1
 11228 0e92 52       		.byte	0x52
 11229 0e93 1F000000 		.4byte	.LVL182-1
 11230 0e97 CA000000 		.4byte	.LFE2
 11231 0e9b 0100     		.2byte	0x1
 11232 0e9d 57       		.byte	0x57
 11233 0e9e 00000000 		.4byte	0
 11234 0ea2 00000000 		.4byte	0
 11235              	.LLST68:
 11236 0ea6 00000000 		.4byte	.LVL179
 11237 0eaa 10000000 		.4byte	.LVL180
 11238 0eae 0100     		.2byte	0x1
 11239 0eb0 53       		.byte	0x53
 11240 0eb1 10000000 		.4byte	.LVL180
 11241 0eb5 CA000000 		.4byte	.LFE2
 11242 0eb9 0100     		.2byte	0x1
 11243 0ebb 55       		.byte	0x55
 11244 0ebc 00000000 		.4byte	0
 11245 0ec0 00000000 		.4byte	0
 11246              	.LLST69:
 11247 0ec4 20000000 		.4byte	.LVL182
 11248 0ec8 3C000000 		.4byte	.LVL183
 11249 0ecc 0100     		.2byte	0x1
 11250 0ece 50       		.byte	0x50
 11251 0ecf 3C000000 		.4byte	.LVL183
 11252 0ed3 84000000 		.4byte	.LVL188
 11253 0ed7 0100     		.2byte	0x1
 11254 0ed9 59       		.byte	0x59
 11255 0eda 84000000 		.4byte	.LVL188
 11256 0ede 86000000 		.4byte	.LVL189
 11257 0ee2 0100     		.2byte	0x1
 11258 0ee4 50       		.byte	0x50
 11259 0ee5 86000000 		.4byte	.LVL189
 11260 0ee9 AC000000 		.4byte	.LVL192
 11261 0eed 0100     		.2byte	0x1
 11262 0eef 59       		.byte	0x59
 11263 0ef0 AC000000 		.4byte	.LVL192
 11264 0ef4 BE000000 		.4byte	.LVL193
 11265 0ef8 0100     		.2byte	0x1
 11266 0efa 50       		.byte	0x50
 11267 0efb BE000000 		.4byte	.LVL193
 11268 0eff CA000000 		.4byte	.LFE2
 11269 0f03 0100     		.2byte	0x1
 11270 0f05 59       		.byte	0x59
 11271 0f06 00000000 		.4byte	0
 11272 0f0a 00000000 		.4byte	0
 11273              	.LLST70:
 11274 0f0e 3C000000 		.4byte	.LVL183
 11275 0f12 80000000 		.4byte	.LVL186
 11276 0f16 0100     		.2byte	0x1
 11277 0f18 54       		.byte	0x54
ARM GAS  C:\Users\CHRONI~1\AppData\Local\Temp\ccho61l0.s 			page 241


 11278 0f19 82000000 		.4byte	.LVL187
 11279 0f1d 84000000 		.4byte	.LVL188
 11280 0f21 0100     		.2byte	0x1
 11281 0f23 54       		.byte	0x54
 11282 0f24 86000000 		.4byte	.LVL189
 11283 0f28 94000000 		.4byte	.LVL190
 11284 0f2c 0100     		.2byte	0x1
 11285 0f2e 54       		.byte	0x54
 11286 0f2f 00000000 		.4byte	0
 11287 0f33 00000000 		.4byte	0
 11288              	.LLST71:
 11289 0f37 00000000 		.4byte	.LVL195
 11290 0f3b 4C000000 		.4byte	.LVL199
 11291 0f3f 0100     		.2byte	0x1
 11292 0f41 50       		.byte	0x50
 11293 0f42 4C000000 		.4byte	.LVL199
 11294 0f46 70000000 		.4byte	.LVL203
 11295 0f4a 0100     		.2byte	0x1
 11296 0f4c 55       		.byte	0x55
 11297 0f4d 70000000 		.4byte	.LVL203
 11298 0f51 84000000 		.4byte	.LVL204
 11299 0f55 0100     		.2byte	0x1
 11300 0f57 50       		.byte	0x50
 11301 0f58 84000000 		.4byte	.LVL204
 11302 0f5c CA000000 		.4byte	.LVL210
 11303 0f60 0100     		.2byte	0x1
 11304 0f62 55       		.byte	0x55
 11305 0f63 CA000000 		.4byte	.LVL210
 11306 0f67 EC000000 		.4byte	.LVL212
 11307 0f6b 0100     		.2byte	0x1
 11308 0f6d 50       		.byte	0x50
 11309 0f6e EC000000 		.4byte	.LVL212
 11310 0f72 4C010000 		.4byte	.LVL220
 11311 0f76 0100     		.2byte	0x1
 11312 0f78 55       		.byte	0x55
 11313 0f79 4C010000 		.4byte	.LVL220
 11314 0f7d 72010000 		.4byte	.LVL221
 11315 0f81 0100     		.2byte	0x1
 11316 0f83 50       		.byte	0x50
 11317 0f84 72010000 		.4byte	.LVL221
 11318 0f88 A2010000 		.4byte	.LFE27
 11319 0f8c 0100     		.2byte	0x1
 11320 0f8e 55       		.byte	0x55
 11321 0f8f 00000000 		.4byte	0
 11322 0f93 00000000 		.4byte	0
 11323              	.LLST72:
 11324 0f97 00000000 		.4byte	.LVL195
 11325 0f9b 4A000000 		.4byte	.LVL198
 11326 0f9f 0100     		.2byte	0x1
 11327 0fa1 51       		.byte	0x51
 11328 0fa2 4A000000 		.4byte	.LVL198
 11329 0fa6 70000000 		.4byte	.LVL203
 11330 0faa 0400     		.2byte	0x4
 11331 0fac F3       		.byte	0xf3
 11332 0fad 01       		.uleb128 0x1
 11333 0fae 51       		.byte	0x51
 11334 0faf 9F       		.byte	0x9f
ARM GAS  C:\Users\CHRONI~1\AppData\Local\Temp\ccho61l0.s 			page 242


 11335 0fb0 70000000 		.4byte	.LVL203
 11336 0fb4 84000000 		.4byte	.LVL204
 11337 0fb8 0100     		.2byte	0x1
 11338 0fba 51       		.byte	0x51
 11339 0fbb 84000000 		.4byte	.LVL204
 11340 0fbf CA000000 		.4byte	.LVL210
 11341 0fc3 0400     		.2byte	0x4
 11342 0fc5 F3       		.byte	0xf3
 11343 0fc6 01       		.uleb128 0x1
 11344 0fc7 51       		.byte	0x51
 11345 0fc8 9F       		.byte	0x9f
 11346 0fc9 CA000000 		.4byte	.LVL210
 11347 0fcd EC000000 		.4byte	.LVL212
 11348 0fd1 0100     		.2byte	0x1
 11349 0fd3 51       		.byte	0x51
 11350 0fd4 EC000000 		.4byte	.LVL212
 11351 0fd8 4C010000 		.4byte	.LVL220
 11352 0fdc 0400     		.2byte	0x4
 11353 0fde F3       		.byte	0xf3
 11354 0fdf 01       		.uleb128 0x1
 11355 0fe0 51       		.byte	0x51
 11356 0fe1 9F       		.byte	0x9f
 11357 0fe2 4C010000 		.4byte	.LVL220
 11358 0fe6 72010000 		.4byte	.LVL221
 11359 0fea 0100     		.2byte	0x1
 11360 0fec 51       		.byte	0x51
 11361 0fed 72010000 		.4byte	.LVL221
 11362 0ff1 A2010000 		.4byte	.LFE27
 11363 0ff5 0400     		.2byte	0x4
 11364 0ff7 F3       		.byte	0xf3
 11365 0ff8 01       		.uleb128 0x1
 11366 0ff9 51       		.byte	0x51
 11367 0ffa 9F       		.byte	0x9f
 11368 0ffb 00000000 		.4byte	0
 11369 0fff 00000000 		.4byte	0
 11370              	.LLST73:
 11371 1003 00000000 		.4byte	.LVL195
 11372 1007 4F000000 		.4byte	.LVL200-1
 11373 100b 0100     		.2byte	0x1
 11374 100d 52       		.byte	0x52
 11375 100e 4F000000 		.4byte	.LVL200-1
 11376 1012 70000000 		.4byte	.LVL203
 11377 1016 0100     		.2byte	0x1
 11378 1018 58       		.byte	0x58
 11379 1019 70000000 		.4byte	.LVL203
 11380 101d 84000000 		.4byte	.LVL204
 11381 1021 0100     		.2byte	0x1
 11382 1023 52       		.byte	0x52
 11383 1024 84000000 		.4byte	.LVL204
 11384 1028 CA000000 		.4byte	.LVL210
 11385 102c 0100     		.2byte	0x1
 11386 102e 58       		.byte	0x58
 11387 102f CA000000 		.4byte	.LVL210
 11388 1033 EC000000 		.4byte	.LVL212
 11389 1037 0100     		.2byte	0x1
 11390 1039 52       		.byte	0x52
 11391 103a EC000000 		.4byte	.LVL212
ARM GAS  C:\Users\CHRONI~1\AppData\Local\Temp\ccho61l0.s 			page 243


 11392 103e 4C010000 		.4byte	.LVL220
 11393 1042 0100     		.2byte	0x1
 11394 1044 58       		.byte	0x58
 11395 1045 4C010000 		.4byte	.LVL220
 11396 1049 72010000 		.4byte	.LVL221
 11397 104d 0100     		.2byte	0x1
 11398 104f 52       		.byte	0x52
 11399 1050 72010000 		.4byte	.LVL221
 11400 1054 A2010000 		.4byte	.LFE27
 11401 1058 0100     		.2byte	0x1
 11402 105a 58       		.byte	0x58
 11403 105b 00000000 		.4byte	0
 11404 105f 00000000 		.4byte	0
 11405              	.LLST74:
 11406 1063 00000000 		.4byte	.LVL195
 11407 1067 0E000000 		.4byte	.LVL197
 11408 106b 0100     		.2byte	0x1
 11409 106d 53       		.byte	0x53
 11410 106e 0E000000 		.4byte	.LVL197
 11411 1072 A2010000 		.4byte	.LFE27
 11412 1076 0100     		.2byte	0x1
 11413 1078 57       		.byte	0x57
 11414 1079 00000000 		.4byte	0
 11415 107d 00000000 		.4byte	0
 11416              	.LLST75:
 11417 1081 0C000000 		.4byte	.LVL196
 11418 1085 E8000000 		.4byte	.LVL211
 11419 1089 0200     		.2byte	0x2
 11420 108b 30       		.byte	0x30
 11421 108c 9F       		.byte	0x9f
 11422 108d E8000000 		.4byte	.LVL211
 11423 1091 4C010000 		.4byte	.LVL220
 11424 1095 0100     		.2byte	0x1
 11425 1097 59       		.byte	0x59
 11426 1098 4C010000 		.4byte	.LVL220
 11427 109c 72010000 		.4byte	.LVL221
 11428 10a0 0200     		.2byte	0x2
 11429 10a2 30       		.byte	0x30
 11430 10a3 9F       		.byte	0x9f
 11431 10a4 72010000 		.4byte	.LVL221
 11432 10a8 A2010000 		.4byte	.LFE27
 11433 10ac 0100     		.2byte	0x1
 11434 10ae 59       		.byte	0x59
 11435 10af 00000000 		.4byte	0
 11436 10b3 00000000 		.4byte	0
 11437              	.LLST76:
 11438 10b7 84000000 		.4byte	.LVL204
 11439 10bb B6000000 		.4byte	.LVL207
 11440 10bf 0100     		.2byte	0x1
 11441 10c1 54       		.byte	0x54
 11442 10c2 B8000000 		.4byte	.LVL208
 11443 10c6 C4000000 		.4byte	.LVL209
 11444 10ca 0100     		.2byte	0x1
 11445 10cc 54       		.byte	0x54
 11446 10cd E8000000 		.4byte	.LVL211
 11447 10d1 EC000000 		.4byte	.LVL212
 11448 10d5 0200     		.2byte	0x2
ARM GAS  C:\Users\CHRONI~1\AppData\Local\Temp\ccho61l0.s 			page 244


 11449 10d7 30       		.byte	0x30
 11450 10d8 9F       		.byte	0x9f
 11451 10d9 EC000000 		.4byte	.LVL212
 11452 10dd 1A010000 		.4byte	.LVL214
 11453 10e1 0100     		.2byte	0x1
 11454 10e3 54       		.byte	0x54
 11455 10e4 1C010000 		.4byte	.LVL215
 11456 10e8 28010000 		.4byte	.LVL216
 11457 10ec 0100     		.2byte	0x1
 11458 10ee 54       		.byte	0x54
 11459 10ef 00000000 		.4byte	0
 11460 10f3 00000000 		.4byte	0
 11461              	.LLST77:
 11462 10f7 0C000000 		.4byte	.LVL196
 11463 10fb 6C000000 		.4byte	.LVL202
 11464 10ff 0200     		.2byte	0x2
 11465 1101 30       		.byte	0x30
 11466 1102 9F       		.byte	0x9f
 11467 1103 6C000000 		.4byte	.LVL202
 11468 1107 70000000 		.4byte	.LVL203
 11469 110b 0200     		.2byte	0x2
 11470 110d 31       		.byte	0x31
 11471 110e 9F       		.byte	0x9f
 11472 110f 70000000 		.4byte	.LVL203
 11473 1113 C4000000 		.4byte	.LVL209
 11474 1117 0200     		.2byte	0x2
 11475 1119 30       		.byte	0x30
 11476 111a 9F       		.byte	0x9f
 11477 111b C4000000 		.4byte	.LVL209
 11478 111f CA000000 		.4byte	.LVL210
 11479 1123 0100     		.2byte	0x1
 11480 1125 54       		.byte	0x54
 11481 1126 CA000000 		.4byte	.LVL210
 11482 112a 28010000 		.4byte	.LVL216
 11483 112e 0200     		.2byte	0x2
 11484 1130 30       		.byte	0x30
 11485 1131 9F       		.byte	0x9f
 11486 1132 28010000 		.4byte	.LVL216
 11487 1136 4C010000 		.4byte	.LVL220
 11488 113a 0100     		.2byte	0x1
 11489 113c 54       		.byte	0x54
 11490 113d 4C010000 		.4byte	.LVL220
 11491 1141 72010000 		.4byte	.LVL221
 11492 1145 0200     		.2byte	0x2
 11493 1147 30       		.byte	0x30
 11494 1148 9F       		.byte	0x9f
 11495 1149 72010000 		.4byte	.LVL221
 11496 114d A2010000 		.4byte	.LFE27
 11497 1151 0100     		.2byte	0x1
 11498 1153 54       		.byte	0x54
 11499 1154 00000000 		.4byte	0
 11500 1158 00000000 		.4byte	0
 11501              	.LLST78:
 11502 115c 00000000 		.4byte	.LVL226
 11503 1160 0E000000 		.4byte	.LVL227
 11504 1164 0100     		.2byte	0x1
 11505 1166 50       		.byte	0x50
ARM GAS  C:\Users\CHRONI~1\AppData\Local\Temp\ccho61l0.s 			page 245


 11506 1167 0E000000 		.4byte	.LVL227
 11507 116b 2C000000 		.4byte	.LVL231
 11508 116f 0400     		.2byte	0x4
 11509 1171 F3       		.byte	0xf3
 11510 1172 01       		.uleb128 0x1
 11511 1173 50       		.byte	0x50
 11512 1174 9F       		.byte	0x9f
 11513 1175 2C000000 		.4byte	.LVL231
 11514 1179 40000000 		.4byte	.LVL233
 11515 117d 0100     		.2byte	0x1
 11516 117f 56       		.byte	0x56
 11517 1180 40000000 		.4byte	.LVL233
 11518 1184 4C000000 		.4byte	.LVL234
 11519 1188 0400     		.2byte	0x4
 11520 118a F3       		.byte	0xf3
 11521 118b 01       		.uleb128 0x1
 11522 118c 50       		.byte	0x50
 11523 118d 9F       		.byte	0x9f
 11524 118e 4C000000 		.4byte	.LVL234
 11525 1192 50000000 		.4byte	.LVL235
 11526 1196 0100     		.2byte	0x1
 11527 1198 56       		.byte	0x56
 11528 1199 00000000 		.4byte	0
 11529 119d 00000000 		.4byte	0
 11530              	.LLST79:
 11531 11a1 00000000 		.4byte	.LVL226
 11532 11a5 11000000 		.4byte	.LVL228-1
 11533 11a9 0100     		.2byte	0x1
 11534 11ab 51       		.byte	0x51
 11535 11ac 11000000 		.4byte	.LVL228-1
 11536 11b0 56000000 		.4byte	.LFE3
 11537 11b4 0100     		.2byte	0x1
 11538 11b6 55       		.byte	0x55
 11539 11b7 00000000 		.4byte	0
 11540 11bb 00000000 		.4byte	0
 11541              	.LLST80:
 11542 11bf 00000000 		.4byte	.LVL226
 11543 11c3 11000000 		.4byte	.LVL228-1
 11544 11c7 0100     		.2byte	0x1
 11545 11c9 52       		.byte	0x52
 11546 11ca 11000000 		.4byte	.LVL228-1
 11547 11ce 56000000 		.4byte	.LFE3
 11548 11d2 0100     		.2byte	0x1
 11549 11d4 59       		.byte	0x59
 11550 11d5 00000000 		.4byte	0
 11551 11d9 00000000 		.4byte	0
 11552              	.LLST81:
 11553 11dd 00000000 		.4byte	.LVL226
 11554 11e1 11000000 		.4byte	.LVL228-1
 11555 11e5 0100     		.2byte	0x1
 11556 11e7 53       		.byte	0x53
 11557 11e8 11000000 		.4byte	.LVL228-1
 11558 11ec 56000000 		.4byte	.LFE3
 11559 11f0 0100     		.2byte	0x1
 11560 11f2 54       		.byte	0x54
 11561 11f3 00000000 		.4byte	0
 11562 11f7 00000000 		.4byte	0
ARM GAS  C:\Users\CHRONI~1\AppData\Local\Temp\ccho61l0.s 			page 246


 11563              	.LLST82:
 11564 11fb 12000000 		.4byte	.LVL228
 11565 11ff 20000000 		.4byte	.LVL229
 11566 1203 0100     		.2byte	0x1
 11567 1205 50       		.byte	0x50
 11568 1206 24000000 		.4byte	.LVL230
 11569 120a 2C000000 		.4byte	.LVL231
 11570 120e 0100     		.2byte	0x1
 11571 1210 50       		.byte	0x50
 11572 1211 2C000000 		.4byte	.LVL231
 11573 1215 40000000 		.4byte	.LVL233
 11574 1219 0100     		.2byte	0x1
 11575 121b 58       		.byte	0x58
 11576 121c 40000000 		.4byte	.LVL233
 11577 1220 4C000000 		.4byte	.LVL234
 11578 1224 0100     		.2byte	0x1
 11579 1226 50       		.byte	0x50
 11580 1227 4C000000 		.4byte	.LVL234
 11581 122b 56000000 		.4byte	.LFE3
 11582 122f 0100     		.2byte	0x1
 11583 1231 58       		.byte	0x58
 11584 1232 00000000 		.4byte	0
 11585 1236 00000000 		.4byte	0
 11586              	.LLST83:
 11587 123a 00000000 		.4byte	.LVL236
 11588 123e 14000000 		.4byte	.LVL237
 11589 1242 0100     		.2byte	0x1
 11590 1244 50       		.byte	0x50
 11591 1245 14000000 		.4byte	.LVL237
 11592 1249 17000000 		.4byte	.LVL238-1
 11593 124d 0100     		.2byte	0x1
 11594 124f 53       		.byte	0x53
 11595 1250 17000000 		.4byte	.LVL238-1
 11596 1254 28000000 		.4byte	.LFE33
 11597 1258 0100     		.2byte	0x1
 11598 125a 54       		.byte	0x54
 11599 125b 00000000 		.4byte	0
 11600 125f 00000000 		.4byte	0
 11601              	.LLST84:
 11602 1263 18000000 		.4byte	.LVL238
 11603 1267 24000000 		.4byte	.LVL239
 11604 126b 0100     		.2byte	0x1
 11605 126d 50       		.byte	0x50
 11606 126e 00000000 		.4byte	0
 11607 1272 00000000 		.4byte	0
 11608              	.LLST85:
 11609 1276 00000000 		.4byte	.LVL240
 11610 127a 0E000000 		.4byte	.LVL241
 11611 127e 0100     		.2byte	0x1
 11612 1280 50       		.byte	0x50
 11613 1281 0E000000 		.4byte	.LVL241
 11614 1285 11000000 		.4byte	.LVL242-1
 11615 1289 0100     		.2byte	0x1
 11616 128b 53       		.byte	0x53
 11617 128c 11000000 		.4byte	.LVL242-1
 11618 1290 52010000 		.4byte	.LFE32
 11619 1294 0100     		.2byte	0x1
ARM GAS  C:\Users\CHRONI~1\AppData\Local\Temp\ccho61l0.s 			page 247


 11620 1296 54       		.byte	0x54
 11621 1297 00000000 		.4byte	0
 11622 129b 00000000 		.4byte	0
 11623              	.LLST86:
 11624 129f 12000000 		.4byte	.LVL242
 11625 12a3 20000000 		.4byte	.LVL243
 11626 12a7 0100     		.2byte	0x1
 11627 12a9 50       		.byte	0x50
 11628 12aa 26000000 		.4byte	.LVL245
 11629 12ae 2A000000 		.4byte	.LVL246
 11630 12b2 0100     		.2byte	0x1
 11631 12b4 53       		.byte	0x53
 11632 12b5 38000000 		.4byte	.LVL248
 11633 12b9 52010000 		.4byte	.LFE32
 11634 12bd 0100     		.2byte	0x1
 11635 12bf 53       		.byte	0x53
 11636 12c0 00000000 		.4byte	0
 11637 12c4 00000000 		.4byte	0
 11638              	.LLST87:
 11639 12c8 00000000 		.4byte	.LVL249
 11640 12cc 1E000000 		.4byte	.LVL252
 11641 12d0 0100     		.2byte	0x1
 11642 12d2 50       		.byte	0x50
 11643 12d3 1E000000 		.4byte	.LVL252
 11644 12d7 96010000 		.4byte	.LFE21
 11645 12db 0400     		.2byte	0x4
 11646 12dd F3       		.byte	0xf3
 11647 12de 01       		.uleb128 0x1
 11648 12df 50       		.byte	0x50
 11649 12e0 9F       		.byte	0x9f
 11650 12e1 00000000 		.4byte	0
 11651 12e5 00000000 		.4byte	0
 11652              	.LLST88:
 11653 12e9 00000000 		.4byte	.LVL249
 11654 12ed 1E000000 		.4byte	.LVL252
 11655 12f1 0100     		.2byte	0x1
 11656 12f3 51       		.byte	0x51
 11657 12f4 1E000000 		.4byte	.LVL252
 11658 12f8 96010000 		.4byte	.LFE21
 11659 12fc 0100     		.2byte	0x1
 11660 12fe 55       		.byte	0x55
 11661 12ff 00000000 		.4byte	0
 11662 1303 00000000 		.4byte	0
 11663              	.LLST89:
 11664 1307 00000000 		.4byte	.LVL249
 11665 130b 1E000000 		.4byte	.LVL252
 11666 130f 0100     		.2byte	0x1
 11667 1311 52       		.byte	0x52
 11668 1312 1E000000 		.4byte	.LVL252
 11669 1316 96010000 		.4byte	.LFE21
 11670 131a 0100     		.2byte	0x1
 11671 131c 59       		.byte	0x59
 11672 131d 00000000 		.4byte	0
 11673 1321 00000000 		.4byte	0
 11674              	.LLST90:
 11675 1325 0C000000 		.4byte	.LVL250
 11676 1329 1E000000 		.4byte	.LVL252
ARM GAS  C:\Users\CHRONI~1\AppData\Local\Temp\ccho61l0.s 			page 248


 11677 132d 0200     		.2byte	0x2
 11678 132f 30       		.byte	0x30
 11679 1330 9F       		.byte	0x9f
 11680 1331 1E000000 		.4byte	.LVL252
 11681 1335 00010000 		.4byte	.LVL263
 11682 1339 0100     		.2byte	0x1
 11683 133b 56       		.byte	0x56
 11684 133c 00010000 		.4byte	.LVL263
 11685 1340 06010000 		.4byte	.LVL264
 11686 1344 0100     		.2byte	0x1
 11687 1346 50       		.byte	0x50
 11688 1347 16010000 		.4byte	.LVL266
 11689 134b 96010000 		.4byte	.LFE21
 11690 134f 0100     		.2byte	0x1
 11691 1351 56       		.byte	0x56
 11692 1352 00000000 		.4byte	0
 11693 1356 00000000 		.4byte	0
 11694              	.LLST91:
 11695 135a AE000000 		.4byte	.LVL261
 11696 135e 80010000 		.4byte	.LVL276
 11697 1362 0300     		.2byte	0x3
 11698 1364 91       		.byte	0x91
 11699 1365 BC7F     		.sleb128 -68
 11700 1367 00000000 		.4byte	0
 11701 136b 00000000 		.4byte	0
 11702              	.LLST92:
 11703 136f B2000000 		.4byte	.LVL262
 11704 1373 80010000 		.4byte	.LVL276
 11705 1377 0100     		.2byte	0x1
 11706 1379 5B       		.byte	0x5b
 11707 137a 00000000 		.4byte	0
 11708 137e 00000000 		.4byte	0
 11709              	.LLST93:
 11710 1382 7C000000 		.4byte	.LVL256
 11711 1386 84000000 		.4byte	.LVL257
 11712 138a 0100     		.2byte	0x1
 11713 138c 53       		.byte	0x53
 11714 138d 84000000 		.4byte	.LVL257
 11715 1391 80010000 		.4byte	.LVL276
 11716 1395 0200     		.2byte	0x2
 11717 1397 7D       		.byte	0x7d
 11718 1398 00       		.sleb128 0
 11719 1399 00000000 		.4byte	0
 11720 139d 00000000 		.4byte	0
 11721              	.LLST94:
 11722 13a1 64000000 		.4byte	.LVL255
 11723 13a5 80010000 		.4byte	.LVL276
 11724 13a9 0100     		.2byte	0x1
 11725 13ab 54       		.byte	0x54
 11726 13ac 00000000 		.4byte	0
 11727 13b0 00000000 		.4byte	0
 11728              	.LLST95:
 11729 13b4 88000000 		.4byte	.LVL258
 11730 13b8 80010000 		.4byte	.LVL276
 11731 13bc 0100     		.2byte	0x1
 11732 13be 58       		.byte	0x58
 11733 13bf 00000000 		.4byte	0
ARM GAS  C:\Users\CHRONI~1\AppData\Local\Temp\ccho61l0.s 			page 249


 11734 13c3 00000000 		.4byte	0
 11735              	.LLST96:
 11736 13c7 98000000 		.4byte	.LVL259
 11737 13cb 80010000 		.4byte	.LVL276
 11738 13cf 0300     		.2byte	0x3
 11739 13d1 91       		.byte	0x91
 11740 13d2 B47F     		.sleb128 -76
 11741 13d4 00000000 		.4byte	0
 11742 13d8 00000000 		.4byte	0
 11743              	.LLST97:
 11744 13dc A8000000 		.4byte	.LVL260
 11745 13e0 80010000 		.4byte	.LVL276
 11746 13e4 0300     		.2byte	0x3
 11747 13e6 91       		.byte	0x91
 11748 13e7 B87F     		.sleb128 -72
 11749 13e9 00000000 		.4byte	0
 11750 13ed 00000000 		.4byte	0
 11751              	.LLST98:
 11752 13f1 1A000000 		.4byte	.LVL251
 11753 13f5 1E000000 		.4byte	.LVL252
 11754 13f9 0200     		.2byte	0x2
 11755 13fb 35       		.byte	0x35
 11756 13fc 9F       		.byte	0x9f
 11757 13fd 1E000000 		.4byte	.LVL252
 11758 1401 7E010000 		.4byte	.LVL275
 11759 1405 0100     		.2byte	0x1
 11760 1407 57       		.byte	0x57
 11761 1408 80010000 		.4byte	.LVL276
 11762 140c 96010000 		.4byte	.LFE21
 11763 1410 0100     		.2byte	0x1
 11764 1412 57       		.byte	0x57
 11765 1413 00000000 		.4byte	0
 11766 1417 00000000 		.4byte	0
 11767              	.LLST99:
 11768 141b 00000000 		.4byte	.LVL278
 11769 141f 10000000 		.4byte	.LVL281
 11770 1423 0100     		.2byte	0x1
 11771 1425 50       		.byte	0x50
 11772 1426 10000000 		.4byte	.LVL281
 11773 142a 44020000 		.4byte	.LFE22
 11774 142e 0100     		.2byte	0x1
 11775 1430 5B       		.byte	0x5b
 11776 1431 00000000 		.4byte	0
 11777 1435 00000000 		.4byte	0
 11778              	.LLST100:
 11779 1439 00000000 		.4byte	.LVL278
 11780 143d 0E000000 		.4byte	.LVL280
 11781 1441 0100     		.2byte	0x1
 11782 1443 51       		.byte	0x51
 11783 1444 0E000000 		.4byte	.LVL280
 11784 1448 44020000 		.4byte	.LFE22
 11785 144c 0100     		.2byte	0x1
 11786 144e 58       		.byte	0x58
 11787 144f 00000000 		.4byte	0
 11788 1453 00000000 		.4byte	0
 11789              	.LLST101:
 11790 1457 0A000000 		.4byte	.LVL279
ARM GAS  C:\Users\CHRONI~1\AppData\Local\Temp\ccho61l0.s 			page 250


 11791 145b 48000000 		.4byte	.LVL284
 11792 145f 0200     		.2byte	0x2
 11793 1461 30       		.byte	0x30
 11794 1462 9F       		.byte	0x9f
 11795 1463 48000000 		.4byte	.LVL284
 11796 1467 40020000 		.4byte	.LVL309
 11797 146b 0200     		.2byte	0x2
 11798 146d 7D       		.byte	0x7d
 11799 146e 00       		.sleb128 0
 11800 146f 40020000 		.4byte	.LVL309
 11801 1473 44020000 		.4byte	.LFE22
 11802 1477 0300     		.2byte	0x3
 11803 1479 91       		.byte	0x91
 11804 147a F07E     		.sleb128 -144
 11805 147c 00000000 		.4byte	0
 11806 1480 00000000 		.4byte	0
 11807              	.LLST102:
 11808 1484 4E010000 		.4byte	.LVL297
 11809 1488 2E020000 		.4byte	.LVL308
 11810 148c 0100     		.2byte	0x1
 11811 148e 59       		.byte	0x59
 11812 148f 00000000 		.4byte	0
 11813 1493 00000000 		.4byte	0
 11814              	.LLST103:
 11815 1497 54010000 		.4byte	.LVL298
 11816 149b 2E020000 		.4byte	.LVL308
 11817 149f 0300     		.2byte	0x3
 11818 14a1 91       		.byte	0x91
 11819 14a2 FC7E     		.sleb128 -132
 11820 14a4 00000000 		.4byte	0
 11821 14a8 00000000 		.4byte	0
 11822              	.LLST104:
 11823 14ac F4000000 		.4byte	.LVL292
 11824 14b0 DF010000 		.4byte	.LVL301-1
 11825 14b4 0100     		.2byte	0x1
 11826 14b6 50       		.byte	0x50
 11827 14b7 00000000 		.4byte	0
 11828 14bb 00000000 		.4byte	0
 11829              	.LLST105:
 11830 14bf CE000000 		.4byte	.LVL291
 11831 14c3 F4010000 		.4byte	.LVL303
 11832 14c7 0100     		.2byte	0x1
 11833 14c9 54       		.byte	0x54
 11834 14ca 00000000 		.4byte	0
 11835 14ce 00000000 		.4byte	0
 11836              	.LLST106:
 11837 14d2 0E010000 		.4byte	.LVL293
 11838 14d6 2E020000 		.4byte	.LVL308
 11839 14da 0100     		.2byte	0x1
 11840 14dc 56       		.byte	0x56
 11841 14dd 00000000 		.4byte	0
 11842 14e1 00000000 		.4byte	0
 11843              	.LLST107:
 11844 14e5 2C010000 		.4byte	.LVL294
 11845 14e9 2E020000 		.4byte	.LVL308
 11846 14ed 0300     		.2byte	0x3
 11847 14ef 91       		.byte	0x91
ARM GAS  C:\Users\CHRONI~1\AppData\Local\Temp\ccho61l0.s 			page 251


 11848 14f0 F47E     		.sleb128 -140
 11849 14f2 00000000 		.4byte	0
 11850 14f6 00000000 		.4byte	0
 11851              	.LLST108:
 11852 14fa 4A010000 		.4byte	.LVL296
 11853 14fe 2E020000 		.4byte	.LVL308
 11854 1502 0300     		.2byte	0x3
 11855 1504 91       		.byte	0x91
 11856 1505 F87E     		.sleb128 -136
 11857 1507 00000000 		.4byte	0
 11858 150b 00000000 		.4byte	0
 11859              	.LLST109:
 11860 150f 78000000 		.4byte	.LVL290
 11861 1513 3A010000 		.4byte	.LVL295
 11862 1517 0100     		.2byte	0x1
 11863 1519 53       		.byte	0x53
 11864 151a 3A010000 		.4byte	.LVL295
 11865 151e 72010000 		.4byte	.LVL299
 11866 1522 0300     		.2byte	0x3
 11867 1524 73       		.byte	0x73
 11868 1525 70       		.sleb128 -16
 11869 1526 9F       		.byte	0x9f
 11870 1527 72010000 		.4byte	.LVL299
 11871 152b 98010000 		.4byte	.LVL300
 11872 152f 0300     		.2byte	0x3
 11873 1531 7E       		.byte	0x7e
 11874 1532 72       		.sleb128 -14
 11875 1533 9F       		.byte	0x9f
 11876 1534 98010000 		.4byte	.LVL300
 11877 1538 2A020000 		.4byte	.LVL307
 11878 153c 0800     		.2byte	0x8
 11879 153e 7A       		.byte	0x7a
 11880 153f 00       		.sleb128 0
 11881 1540 34       		.byte	0x34
 11882 1541 24       		.byte	0x24
 11883 1542 7A       		.byte	0x7a
 11884 1543 00       		.sleb128 0
 11885 1544 22       		.byte	0x22
 11886 1545 9F       		.byte	0x9f
 11887 1546 2A020000 		.4byte	.LVL307
 11888 154a 2E020000 		.4byte	.LVL308
 11889 154e 0500     		.2byte	0x5
 11890 1550 7A       		.byte	0x7a
 11891 1551 7F       		.sleb128 -1
 11892 1552 41       		.byte	0x41
 11893 1553 1E       		.byte	0x1e
 11894 1554 9F       		.byte	0x9f
 11895 1555 00000000 		.4byte	0
 11896 1559 00000000 		.4byte	0
 11897              	.LLST110:
 11898 155d 6C000000 		.4byte	.LVL288
 11899 1561 72000000 		.4byte	.LVL289
 11900 1565 0200     		.2byte	0x2
 11901 1567 30       		.byte	0x30
 11902 1568 9F       		.byte	0x9f
 11903 1569 72000000 		.4byte	.LVL289
 11904 156d 2A020000 		.4byte	.LVL307
ARM GAS  C:\Users\CHRONI~1\AppData\Local\Temp\ccho61l0.s 			page 252


 11905 1571 0100     		.2byte	0x1
 11906 1573 5A       		.byte	0x5a
 11907 1574 2E020000 		.4byte	.LVL308
 11908 1578 44020000 		.4byte	.LFE22
 11909 157c 0100     		.2byte	0x1
 11910 157e 5A       		.byte	0x5a
 11911 157f 00000000 		.4byte	0
 11912 1583 00000000 		.4byte	0
 11913              	.LLST111:
 11914 1587 00000000 		.4byte	.LVL310
 11915 158b 15000000 		.4byte	.LVL311-1
 11916 158f 0100     		.2byte	0x1
 11917 1591 50       		.byte	0x50
 11918 1592 15000000 		.4byte	.LVL311-1
 11919 1596 58000000 		.4byte	.LFE4
 11920 159a 0100     		.2byte	0x1
 11921 159c 55       		.byte	0x55
 11922 159d 00000000 		.4byte	0
 11923 15a1 00000000 		.4byte	0
 11924              	.LLST112:
 11925 15a5 16000000 		.4byte	.LVL311
 11926 15a9 20000000 		.4byte	.LVL312
 11927 15ad 0100     		.2byte	0x1
 11928 15af 50       		.byte	0x50
 11929 15b0 26000000 		.4byte	.LVL314
 11930 15b4 38000000 		.4byte	.LVL315
 11931 15b8 0100     		.2byte	0x1
 11932 15ba 54       		.byte	0x54
 11933 15bb 38000000 		.4byte	.LVL315
 11934 15bf 44000000 		.4byte	.LVL316
 11935 15c3 0100     		.2byte	0x1
 11936 15c5 50       		.byte	0x50
 11937 15c6 52000000 		.4byte	.LVL319
 11938 15ca 58000000 		.4byte	.LFE4
 11939 15ce 0100     		.2byte	0x1
 11940 15d0 54       		.byte	0x54
 11941 15d1 00000000 		.4byte	0
 11942 15d5 00000000 		.4byte	0
 11943              	.LLST113:
 11944 15d9 00000000 		.4byte	.LVL320
 11945 15dd 07000000 		.4byte	.LVL321-1
 11946 15e1 0100     		.2byte	0x1
 11947 15e3 50       		.byte	0x50
 11948 15e4 07000000 		.4byte	.LVL321-1
 11949 15e8 3A000000 		.4byte	.LFE1
 11950 15ec 0100     		.2byte	0x1
 11951 15ee 54       		.byte	0x54
 11952 15ef 00000000 		.4byte	0
 11953 15f3 00000000 		.4byte	0
 11954              	.LLST114:
 11955 15f7 14000000 		.4byte	.LVL322
 11956 15fb 20000000 		.4byte	.LVL323
 11957 15ff 0100     		.2byte	0x1
 11958 1601 50       		.byte	0x50
 11959 1602 24000000 		.4byte	.LVL324
 11960 1606 2A000000 		.4byte	.LVL325
 11961 160a 0100     		.2byte	0x1
ARM GAS  C:\Users\CHRONI~1\AppData\Local\Temp\ccho61l0.s 			page 253


 11962 160c 50       		.byte	0x50
 11963 160d 30000000 		.4byte	.LVL327
 11964 1611 32000000 		.4byte	.LVL328
 11965 1615 0100     		.2byte	0x1
 11966 1617 53       		.byte	0x53
 11967 1618 32000000 		.4byte	.LVL328
 11968 161c 36000000 		.4byte	.LVL329
 11969 1620 0100     		.2byte	0x1
 11970 1622 50       		.byte	0x50
 11971 1623 36000000 		.4byte	.LVL329
 11972 1627 3A000000 		.4byte	.LFE1
 11973 162b 0100     		.2byte	0x1
 11974 162d 53       		.byte	0x53
 11975 162e 00000000 		.4byte	0
 11976 1632 00000000 		.4byte	0
 11977              	.LLST115:
 11978 1636 00000000 		.4byte	.LVL330
 11979 163a 0E000000 		.4byte	.LVL333
 11980 163e 0100     		.2byte	0x1
 11981 1640 50       		.byte	0x50
 11982 1641 0E000000 		.4byte	.LVL333
 11983 1645 58000000 		.4byte	.LFE6
 11984 1649 0100     		.2byte	0x1
 11985 164b 54       		.byte	0x54
 11986 164c 00000000 		.4byte	0
 11987 1650 00000000 		.4byte	0
 11988              	.LLST116:
 11989 1654 00000000 		.4byte	.LVL330
 11990 1658 0C000000 		.4byte	.LVL332
 11991 165c 0100     		.2byte	0x1
 11992 165e 51       		.byte	0x51
 11993 165f 0C000000 		.4byte	.LVL332
 11994 1663 11000000 		.4byte	.LVL334-1
 11995 1667 0100     		.2byte	0x1
 11996 1669 53       		.byte	0x53
 11997 166a 11000000 		.4byte	.LVL334-1
 11998 166e 58000000 		.4byte	.LFE6
 11999 1672 0400     		.2byte	0x4
 12000 1674 F3       		.byte	0xf3
 12001 1675 01       		.uleb128 0x1
 12002 1676 51       		.byte	0x51
 12003 1677 9F       		.byte	0x9f
 12004 1678 00000000 		.4byte	0
 12005 167c 00000000 		.4byte	0
 12006              	.LLST117:
 12007 1680 00000000 		.4byte	.LVL336
 12008 1684 10000000 		.4byte	.LVL338
 12009 1688 0100     		.2byte	0x1
 12010 168a 50       		.byte	0x50
 12011 168b 10000000 		.4byte	.LVL338
 12012 168f 80000000 		.4byte	.LFE7
 12013 1693 0400     		.2byte	0x4
 12014 1695 F3       		.byte	0xf3
 12015 1696 01       		.uleb128 0x1
 12016 1697 50       		.byte	0x50
 12017 1698 9F       		.byte	0x9f
 12018 1699 00000000 		.4byte	0
ARM GAS  C:\Users\CHRONI~1\AppData\Local\Temp\ccho61l0.s 			page 254


 12019 169d 00000000 		.4byte	0
 12020              	.LLST118:
 12021 16a1 00000000 		.4byte	.LVL336
 12022 16a5 10000000 		.4byte	.LVL338
 12023 16a9 0100     		.2byte	0x1
 12024 16ab 51       		.byte	0x51
 12025 16ac 10000000 		.4byte	.LVL338
 12026 16b0 80000000 		.4byte	.LFE7
 12027 16b4 0100     		.2byte	0x1
 12028 16b6 56       		.byte	0x56
 12029 16b7 00000000 		.4byte	0
 12030 16bb 00000000 		.4byte	0
 12031              	.LLST119:
 12032 16bf 1E000000 		.4byte	.LVL339
 12033 16c3 3E000000 		.4byte	.LVL343
 12034 16c7 0100     		.2byte	0x1
 12035 16c9 50       		.byte	0x50
 12036 16ca 44000000 		.4byte	.LVL345
 12037 16ce 80000000 		.4byte	.LFE7
 12038 16d2 0100     		.2byte	0x1
 12039 16d4 54       		.byte	0x54
 12040 16d5 00000000 		.4byte	0
 12041 16d9 00000000 		.4byte	0
 12042              	.LLST120:
 12043 16dd 08000000 		.4byte	.LVL337
 12044 16e1 10000000 		.4byte	.LVL338
 12045 16e5 0200     		.2byte	0x2
 12046 16e7 30       		.byte	0x30
 12047 16e8 9F       		.byte	0x9f
 12048 16e9 10000000 		.4byte	.LVL338
 12049 16ed 26000000 		.4byte	.LVL340
 12050 16f1 0100     		.2byte	0x1
 12051 16f3 55       		.byte	0x55
 12052 16f4 26000000 		.4byte	.LVL340
 12053 16f8 30000000 		.4byte	.LVL341
 12054 16fc 0500     		.2byte	0x5
 12055 16fe 73       		.byte	0x73
 12056 16ff 00       		.sleb128 0
 12057 1700 33       		.byte	0x33
 12058 1701 1A       		.byte	0x1a
 12059 1702 9F       		.byte	0x9f
 12060 1703 30000000 		.4byte	.LVL341
 12061 1707 36000000 		.4byte	.LVL342
 12062 170b 0700     		.2byte	0x7
 12063 170d 91       		.byte	0x91
 12064 170e 67       		.sleb128 -25
 12065 170f 94       		.byte	0x94
 12066 1710 01       		.byte	0x1
 12067 1711 33       		.byte	0x33
 12068 1712 1A       		.byte	0x1a
 12069 1713 9F       		.byte	0x9f
 12070 1714 4E000000 		.4byte	.LVL346
 12071 1718 80000000 		.4byte	.LFE7
 12072 171c 0100     		.2byte	0x1
 12073 171e 55       		.byte	0x55
 12074 171f 00000000 		.4byte	0
 12075 1723 00000000 		.4byte	0
ARM GAS  C:\Users\CHRONI~1\AppData\Local\Temp\ccho61l0.s 			page 255


 12076              	.LLST121:
 12077 1727 00000000 		.4byte	.LVL349
 12078 172b 12000000 		.4byte	.LVL351
 12079 172f 0100     		.2byte	0x1
 12080 1731 50       		.byte	0x50
 12081 1732 12000000 		.4byte	.LVL351
 12082 1736 22000000 		.4byte	.LVL353
 12083 173a 0100     		.2byte	0x1
 12084 173c 54       		.byte	0x54
 12085 173d 22000000 		.4byte	.LVL353
 12086 1741 26000000 		.4byte	.LVL354
 12087 1745 0100     		.2byte	0x1
 12088 1747 50       		.byte	0x50
 12089 1748 26000000 		.4byte	.LVL354
 12090 174c 28000000 		.4byte	.LVL355
 12091 1750 0400     		.2byte	0x4
 12092 1752 F3       		.byte	0xf3
 12093 1753 01       		.uleb128 0x1
 12094 1754 50       		.byte	0x50
 12095 1755 9F       		.byte	0x9f
 12096 1756 28000000 		.4byte	.LVL355
 12097 175a 2C000000 		.4byte	.LFE8
 12098 175e 0100     		.2byte	0x1
 12099 1760 54       		.byte	0x54
 12100 1761 00000000 		.4byte	0
 12101 1765 00000000 		.4byte	0
 12102              	.LLST122:
 12103 1769 00000000 		.4byte	.LVL349
 12104 176d 10000000 		.4byte	.LVL350
 12105 1771 0100     		.2byte	0x1
 12106 1773 51       		.byte	0x51
 12107 1774 10000000 		.4byte	.LVL350
 12108 1778 15000000 		.4byte	.LVL352-1
 12109 177c 0100     		.2byte	0x1
 12110 177e 53       		.byte	0x53
 12111 177f 15000000 		.4byte	.LVL352-1
 12112 1783 22000000 		.4byte	.LVL353
 12113 1787 0400     		.2byte	0x4
 12114 1789 F3       		.byte	0xf3
 12115 178a 01       		.uleb128 0x1
 12116 178b 51       		.byte	0x51
 12117 178c 9F       		.byte	0x9f
 12118 178d 22000000 		.4byte	.LVL353
 12119 1791 28000000 		.4byte	.LVL355
 12120 1795 0100     		.2byte	0x1
 12121 1797 51       		.byte	0x51
 12122 1798 28000000 		.4byte	.LVL355
 12123 179c 2C000000 		.4byte	.LFE8
 12124 17a0 0400     		.2byte	0x4
 12125 17a2 F3       		.byte	0xf3
 12126 17a3 01       		.uleb128 0x1
 12127 17a4 51       		.byte	0x51
 12128 17a5 9F       		.byte	0x9f
 12129 17a6 00000000 		.4byte	0
 12130 17aa 00000000 		.4byte	0
 12131              	.LLST123:
 12132 17ae 16000000 		.4byte	.LVL352
ARM GAS  C:\Users\CHRONI~1\AppData\Local\Temp\ccho61l0.s 			page 256


 12133 17b2 22000000 		.4byte	.LVL353
 12134 17b6 0100     		.2byte	0x1
 12135 17b8 50       		.byte	0x50
 12136 17b9 28000000 		.4byte	.LVL355
 12137 17bd 2C000000 		.4byte	.LFE8
 12138 17c1 0100     		.2byte	0x1
 12139 17c3 50       		.byte	0x50
 12140 17c4 00000000 		.4byte	0
 12141 17c8 00000000 		.4byte	0
 12142              	.LLST124:
 12143 17cc 00000000 		.4byte	.LVL356
 12144 17d0 0E000000 		.4byte	.LVL358
 12145 17d4 0100     		.2byte	0x1
 12146 17d6 50       		.byte	0x50
 12147 17d7 0E000000 		.4byte	.LVL358
 12148 17db E6000000 		.4byte	.LVL375
 12149 17df 0100     		.2byte	0x1
 12150 17e1 54       		.byte	0x54
 12151 17e2 E6000000 		.4byte	.LVL375
 12152 17e6 10010000 		.4byte	.LVL377
 12153 17ea 0400     		.2byte	0x4
 12154 17ec F3       		.byte	0xf3
 12155 17ed 01       		.uleb128 0x1
 12156 17ee 50       		.byte	0x50
 12157 17ef 9F       		.byte	0x9f
 12158 17f0 10010000 		.4byte	.LVL377
 12159 17f4 14010000 		.4byte	.LVL378
 12160 17f8 0100     		.2byte	0x1
 12161 17fa 54       		.byte	0x54
 12162 17fb 14010000 		.4byte	.LVL378
 12163 17ff 40010000 		.4byte	.LFE5
 12164 1803 0400     		.2byte	0x4
 12165 1805 F3       		.byte	0xf3
 12166 1806 01       		.uleb128 0x1
 12167 1807 50       		.byte	0x50
 12168 1808 9F       		.byte	0x9f
 12169 1809 00000000 		.4byte	0
 12170 180d 00000000 		.4byte	0
 12171              	.LLST125:
 12172 1811 00000000 		.4byte	.LVL356
 12173 1815 25000000 		.4byte	.LVL359-1
 12174 1819 0100     		.2byte	0x1
 12175 181b 51       		.byte	0x51
 12176 181c 25000000 		.4byte	.LVL359-1
 12177 1820 3A010000 		.4byte	.LVL384
 12178 1824 0100     		.2byte	0x1
 12179 1826 55       		.byte	0x55
 12180 1827 3A010000 		.4byte	.LVL384
 12181 182b 40010000 		.4byte	.LFE5
 12182 182f 0400     		.2byte	0x4
 12183 1831 F3       		.byte	0xf3
 12184 1832 01       		.uleb128 0x1
 12185 1833 51       		.byte	0x51
 12186 1834 9F       		.byte	0x9f
 12187 1835 00000000 		.4byte	0
 12188 1839 00000000 		.4byte	0
 12189              	.LLST126:
ARM GAS  C:\Users\CHRONI~1\AppData\Local\Temp\ccho61l0.s 			page 257


 12190 183d 26000000 		.4byte	.LVL359
 12191 1841 2F000000 		.4byte	.LVL360-1
 12192 1845 0100     		.2byte	0x1
 12193 1847 50       		.byte	0x50
 12194 1848 32000000 		.4byte	.LVL361
 12195 184c 3C000000 		.4byte	.LVL362
 12196 1850 0100     		.2byte	0x1
 12197 1852 53       		.byte	0x53
 12198 1853 48000000 		.4byte	.LVL363
 12199 1857 58000000 		.4byte	.LVL364
 12200 185b 0100     		.2byte	0x1
 12201 185d 50       		.byte	0x50
 12202 185e 5E000000 		.4byte	.LVL366
 12203 1862 69000000 		.4byte	.LVL367-1
 12204 1866 0100     		.2byte	0x1
 12205 1868 53       		.byte	0x53
 12206 1869 6C000000 		.4byte	.LVL368
 12207 186d 77000000 		.4byte	.LVL369-1
 12208 1871 0100     		.2byte	0x1
 12209 1873 53       		.byte	0x53
 12210 1874 7A000000 		.4byte	.LVL370
 12211 1878 85000000 		.4byte	.LVL371-1
 12212 187c 0100     		.2byte	0x1
 12213 187e 53       		.byte	0x53
 12214 187f 88000000 		.4byte	.LVL372
 12215 1883 93000000 		.4byte	.LVL373-1
 12216 1887 0100     		.2byte	0x1
 12217 1889 53       		.byte	0x53
 12218 188a 96000000 		.4byte	.LVL374
 12219 188e 18010000 		.4byte	.LVL379
 12220 1892 0100     		.2byte	0x1
 12221 1894 53       		.byte	0x53
 12222 1895 24010000 		.4byte	.LVL381
 12223 1899 31010000 		.4byte	.LVL382-1
 12224 189d 0100     		.2byte	0x1
 12225 189f 53       		.byte	0x53
 12226 18a0 34010000 		.4byte	.LVL383
 12227 18a4 40010000 		.4byte	.LFE5
 12228 18a8 0100     		.2byte	0x1
 12229 18aa 53       		.byte	0x53
 12230 18ab 00000000 		.4byte	0
 12231 18af 00000000 		.4byte	0
 12232              	.LLST127:
 12233 18b3 08000000 		.4byte	.LVL357
 12234 18b7 F2000000 		.4byte	.LVL376
 12235 18bb 0200     		.2byte	0x2
 12236 18bd 30       		.byte	0x30
 12237 18be 9F       		.byte	0x9f
 12238 18bf F2000000 		.4byte	.LVL376
 12239 18c3 10010000 		.4byte	.LVL377
 12240 18c7 0100     		.2byte	0x1
 12241 18c9 54       		.byte	0x54
 12242 18ca 10010000 		.4byte	.LVL377
 12243 18ce 14010000 		.4byte	.LVL378
 12244 18d2 0200     		.2byte	0x2
 12245 18d4 30       		.byte	0x30
 12246 18d5 9F       		.byte	0x9f
ARM GAS  C:\Users\CHRONI~1\AppData\Local\Temp\ccho61l0.s 			page 258


 12247 18d6 00000000 		.4byte	0
 12248 18da 00000000 		.4byte	0
 12249              	.LLST128:
 12250 18de 08000000 		.4byte	.LVL357
 12251 18e2 F2000000 		.4byte	.LVL376
 12252 18e6 0200     		.2byte	0x2
 12253 18e8 31       		.byte	0x31
 12254 18e9 9F       		.byte	0x9f
 12255 18ea F2000000 		.4byte	.LVL376
 12256 18ee 10010000 		.4byte	.LVL377
 12257 18f2 0100     		.2byte	0x1
 12258 18f4 56       		.byte	0x56
 12259 18f5 10010000 		.4byte	.LVL377
 12260 18f9 14010000 		.4byte	.LVL378
 12261 18fd 0200     		.2byte	0x2
 12262 18ff 31       		.byte	0x31
 12263 1900 9F       		.byte	0x9f
 12264 1901 00000000 		.4byte	0
 12265 1905 00000000 		.4byte	0
 12266              	.LLST129:
 12267 1909 00000000 		.4byte	.LVL385
 12268 190d 0C000000 		.4byte	.LVL387
 12269 1911 0100     		.2byte	0x1
 12270 1913 50       		.byte	0x50
 12271 1914 0C000000 		.4byte	.LVL387
 12272 1918 8C000000 		.4byte	.LFE9
 12273 191c 0400     		.2byte	0x4
 12274 191e F3       		.byte	0xf3
 12275 191f 01       		.uleb128 0x1
 12276 1920 50       		.byte	0x50
 12277 1921 9F       		.byte	0x9f
 12278 1922 00000000 		.4byte	0
 12279 1926 00000000 		.4byte	0
 12280              	.LLST130:
 12281 192a 00000000 		.4byte	.LVL385
 12282 192e 1C000000 		.4byte	.LVL388
 12283 1932 0100     		.2byte	0x1
 12284 1934 51       		.byte	0x51
 12285 1935 1C000000 		.4byte	.LVL388
 12286 1939 7C000000 		.4byte	.LVL403
 12287 193d 0100     		.2byte	0x1
 12288 193f 54       		.byte	0x54
 12289 1940 7C000000 		.4byte	.LVL403
 12290 1944 80000000 		.4byte	.LVL404
 12291 1948 0100     		.2byte	0x1
 12292 194a 51       		.byte	0x51
 12293 194b 80000000 		.4byte	.LVL404
 12294 194f 82000000 		.4byte	.LVL405
 12295 1953 0100     		.2byte	0x1
 12296 1955 54       		.byte	0x54
 12297 1956 82000000 		.4byte	.LVL405
 12298 195a 8C000000 		.4byte	.LFE9
 12299 195e 0400     		.2byte	0x4
 12300 1960 F3       		.byte	0xf3
 12301 1961 01       		.uleb128 0x1
 12302 1962 51       		.byte	0x51
 12303 1963 9F       		.byte	0x9f
ARM GAS  C:\Users\CHRONI~1\AppData\Local\Temp\ccho61l0.s 			page 259


 12304 1964 00000000 		.4byte	0
 12305 1968 00000000 		.4byte	0
 12306              	.LLST131:
 12307 196c 00000000 		.4byte	.LVL385
 12308 1970 21000000 		.4byte	.LVL389-1
 12309 1974 0100     		.2byte	0x1
 12310 1976 52       		.byte	0x52
 12311 1977 21000000 		.4byte	.LVL389-1
 12312 197b 7C000000 		.4byte	.LVL403
 12313 197f 0100     		.2byte	0x1
 12314 1981 55       		.byte	0x55
 12315 1982 7C000000 		.4byte	.LVL403
 12316 1986 80000000 		.4byte	.LVL404
 12317 198a 0100     		.2byte	0x1
 12318 198c 52       		.byte	0x52
 12319 198d 80000000 		.4byte	.LVL404
 12320 1991 82000000 		.4byte	.LVL405
 12321 1995 0100     		.2byte	0x1
 12322 1997 55       		.byte	0x55
 12323 1998 82000000 		.4byte	.LVL405
 12324 199c 8C000000 		.4byte	.LFE9
 12325 19a0 0400     		.2byte	0x4
 12326 19a2 F3       		.byte	0xf3
 12327 19a3 01       		.uleb128 0x1
 12328 19a4 52       		.byte	0x52
 12329 19a5 9F       		.byte	0x9f
 12330 19a6 00000000 		.4byte	0
 12331 19aa 00000000 		.4byte	0
 12332              	.LLST132:
 12333 19ae 22000000 		.4byte	.LVL389
 12334 19b2 2C000000 		.4byte	.LVL390
 12335 19b6 0100     		.2byte	0x1
 12336 19b8 50       		.byte	0x50
 12337 19b9 32000000 		.4byte	.LVL392
 12338 19bd 3D000000 		.4byte	.LVL393-1
 12339 19c1 0100     		.2byte	0x1
 12340 19c3 53       		.byte	0x53
 12341 19c4 40000000 		.4byte	.LVL394
 12342 19c8 44000000 		.4byte	.LVL395
 12343 19cc 0100     		.2byte	0x1
 12344 19ce 53       		.byte	0x53
 12345 19cf 80000000 		.4byte	.LVL404
 12346 19d3 82000000 		.4byte	.LVL405
 12347 19d7 0100     		.2byte	0x1
 12348 19d9 53       		.byte	0x53
 12349 19da 00000000 		.4byte	0
 12350 19de 00000000 		.4byte	0
 12351              	.LLST133:
 12352 19e2 06000000 		.4byte	.LVL386
 12353 19e6 6A000000 		.4byte	.LVL399
 12354 19ea 0200     		.2byte	0x2
 12355 19ec 30       		.byte	0x30
 12356 19ed 9F       		.byte	0x9f
 12357 19ee 6A000000 		.4byte	.LVL399
 12358 19f2 70000000 		.4byte	.LVL400
 12359 19f6 0400     		.2byte	0x4
 12360 19f8 73       		.byte	0x73
ARM GAS  C:\Users\CHRONI~1\AppData\Local\Temp\ccho61l0.s 			page 260


 12361 19f9 F40E     		.sleb128 1908
 12362 19fb 9F       		.byte	0x9f
 12363 19fc 70000000 		.4byte	.LVL400
 12364 1a00 78000000 		.4byte	.LVL401
 12365 1a04 0100     		.2byte	0x1
 12366 1a06 50       		.byte	0x50
 12367 1a07 78000000 		.4byte	.LVL401
 12368 1a0b 7A000000 		.4byte	.LVL402
 12369 1a0f 0400     		.2byte	0x4
 12370 1a11 73       		.byte	0x73
 12371 1a12 C521     		.sleb128 4293
 12372 1a14 9F       		.byte	0x9f
 12373 1a15 7A000000 		.4byte	.LVL402
 12374 1a19 7C000000 		.4byte	.LVL403
 12375 1a1d 0100     		.2byte	0x1
 12376 1a1f 50       		.byte	0x50
 12377 1a20 7C000000 		.4byte	.LVL403
 12378 1a24 82000000 		.4byte	.LVL405
 12379 1a28 0200     		.2byte	0x2
 12380 1a2a 30       		.byte	0x30
 12381 1a2b 9F       		.byte	0x9f
 12382 1a2c 82000000 		.4byte	.LVL405
 12383 1a30 8C000000 		.4byte	.LFE9
 12384 1a34 0100     		.2byte	0x1
 12385 1a36 50       		.byte	0x50
 12386 1a37 00000000 		.4byte	0
 12387 1a3b 00000000 		.4byte	0
 12388              	.LLST134:
 12389 1a3f 4C000000 		.4byte	.LVL396
 12390 1a43 6A000000 		.4byte	.LVL399
 12391 1a47 0100     		.2byte	0x1
 12392 1a49 53       		.byte	0x53
 12393 1a4a 6A000000 		.4byte	.LVL399
 12394 1a4e 7C000000 		.4byte	.LVL403
 12395 1a52 3600     		.2byte	0x36
 12396 1a54 74       		.byte	0x74
 12397 1a55 01       		.sleb128 1
 12398 1a56 94       		.byte	0x94
 12399 1a57 01       		.byte	0x1
 12400 1a58 08       		.byte	0x8
 12401 1a59 FF       		.byte	0xff
 12402 1a5a 1A       		.byte	0x1a
 12403 1a5b 71       		.byte	0x71
 12404 1a5c 00       		.sleb128 0
 12405 1a5d 22       		.byte	0x22
 12406 1a5e 38       		.byte	0x38
 12407 1a5f 1C       		.byte	0x1c
 12408 1a60 94       		.byte	0x94
 12409 1a61 01       		.byte	0x1
 12410 1a62 08       		.byte	0x8
 12411 1a63 FF       		.byte	0xff
 12412 1a64 1A       		.byte	0x1a
 12413 1a65 74       		.byte	0x74
 12414 1a66 00       		.sleb128 0
 12415 1a67 94       		.byte	0x94
 12416 1a68 01       		.byte	0x1
 12417 1a69 08       		.byte	0x8
ARM GAS  C:\Users\CHRONI~1\AppData\Local\Temp\ccho61l0.s 			page 261


 12418 1a6a FF       		.byte	0xff
 12419 1a6b 1A       		.byte	0x1a
 12420 1a6c 71       		.byte	0x71
 12421 1a6d 00       		.sleb128 0
 12422 1a6e 22       		.byte	0x22
 12423 1a6f 38       		.byte	0x38
 12424 1a70 1C       		.byte	0x1c
 12425 1a71 94       		.byte	0x94
 12426 1a72 01       		.byte	0x1
 12427 1a73 08       		.byte	0x8
 12428 1a74 FF       		.byte	0xff
 12429 1a75 1A       		.byte	0x1a
 12430 1a76 22       		.byte	0x22
 12431 1a77 74       		.byte	0x74
 12432 1a78 02       		.sleb128 2
 12433 1a79 94       		.byte	0x94
 12434 1a7a 01       		.byte	0x1
 12435 1a7b 08       		.byte	0x8
 12436 1a7c FF       		.byte	0xff
 12437 1a7d 1A       		.byte	0x1a
 12438 1a7e 71       		.byte	0x71
 12439 1a7f 00       		.sleb128 0
 12440 1a80 22       		.byte	0x22
 12441 1a81 38       		.byte	0x38
 12442 1a82 1C       		.byte	0x1c
 12443 1a83 94       		.byte	0x94
 12444 1a84 01       		.byte	0x1
 12445 1a85 08       		.byte	0x8
 12446 1a86 FF       		.byte	0xff
 12447 1a87 1A       		.byte	0x1a
 12448 1a88 22       		.byte	0x22
 12449 1a89 9F       		.byte	0x9f
 12450 1a8a 00000000 		.4byte	0
 12451 1a8e 00000000 		.4byte	0
 12452              	.LLST135:
 12453 1a92 00000000 		.4byte	.LVL406
 12454 1a96 14000000 		.4byte	.LVL410
 12455 1a9a 0100     		.2byte	0x1
 12456 1a9c 50       		.byte	0x50
 12457 1a9d 14000000 		.4byte	.LVL410
 12458 1aa1 4A010000 		.4byte	.LFE10
 12459 1aa5 0400     		.2byte	0x4
 12460 1aa7 F3       		.byte	0xf3
 12461 1aa8 01       		.uleb128 0x1
 12462 1aa9 50       		.byte	0x50
 12463 1aaa 9F       		.byte	0x9f
 12464 1aab 00000000 		.4byte	0
 12465 1aaf 00000000 		.4byte	0
 12466              	.LLST136:
 12467 1ab3 00000000 		.4byte	.LVL406
 12468 1ab7 12000000 		.4byte	.LVL409
 12469 1abb 0100     		.2byte	0x1
 12470 1abd 51       		.byte	0x51
 12471 1abe 12000000 		.4byte	.LVL409
 12472 1ac2 4A010000 		.4byte	.LFE10
 12473 1ac6 0100     		.2byte	0x1
 12474 1ac8 57       		.byte	0x57
ARM GAS  C:\Users\CHRONI~1\AppData\Local\Temp\ccho61l0.s 			page 262


 12475 1ac9 00000000 		.4byte	0
 12476 1acd 00000000 		.4byte	0
 12477              	.LLST137:
 12478 1ad1 00000000 		.4byte	.LVL406
 12479 1ad5 10000000 		.4byte	.LVL408
 12480 1ad9 0100     		.2byte	0x1
 12481 1adb 52       		.byte	0x52
 12482 1adc 10000000 		.4byte	.LVL408
 12483 1ae0 4A010000 		.4byte	.LFE10
 12484 1ae4 0100     		.2byte	0x1
 12485 1ae6 55       		.byte	0x55
 12486 1ae7 00000000 		.4byte	0
 12487 1aeb 00000000 		.4byte	0
 12488              	.LLST138:
 12489 1aef 00000000 		.4byte	.LVL406
 12490 1af3 17000000 		.4byte	.LVL411-1
 12491 1af7 0100     		.2byte	0x1
 12492 1af9 53       		.byte	0x53
 12493 1afa 17000000 		.4byte	.LVL411-1
 12494 1afe 44000000 		.4byte	.LVL414
 12495 1b02 0100     		.2byte	0x1
 12496 1b04 56       		.byte	0x56
 12497 1b05 44000000 		.4byte	.LVL414
 12498 1b09 56000000 		.4byte	.LVL415
 12499 1b0d 0400     		.2byte	0x4
 12500 1b0f F3       		.byte	0xf3
 12501 1b10 01       		.uleb128 0x1
 12502 1b11 53       		.byte	0x53
 12503 1b12 9F       		.byte	0x9f
 12504 1b13 56000000 		.4byte	.LVL415
 12505 1b17 68000000 		.4byte	.LVL418
 12506 1b1b 0100     		.2byte	0x1
 12507 1b1d 56       		.byte	0x56
 12508 1b1e 68000000 		.4byte	.LVL418
 12509 1b22 20010000 		.4byte	.LVL439
 12510 1b26 0400     		.2byte	0x4
 12511 1b28 F3       		.byte	0xf3
 12512 1b29 01       		.uleb128 0x1
 12513 1b2a 53       		.byte	0x53
 12514 1b2b 9F       		.byte	0x9f
 12515 1b2c 20010000 		.4byte	.LVL439
 12516 1b30 26010000 		.4byte	.LVL440
 12517 1b34 0100     		.2byte	0x1
 12518 1b36 56       		.byte	0x56
 12519 1b37 26010000 		.4byte	.LVL440
 12520 1b3b 32010000 		.4byte	.LVL443
 12521 1b3f 0400     		.2byte	0x4
 12522 1b41 F3       		.byte	0xf3
 12523 1b42 01       		.uleb128 0x1
 12524 1b43 53       		.byte	0x53
 12525 1b44 9F       		.byte	0x9f
 12526 1b45 32010000 		.4byte	.LVL443
 12527 1b49 36010000 		.4byte	.LVL444
 12528 1b4d 0100     		.2byte	0x1
 12529 1b4f 56       		.byte	0x56
 12530 1b50 36010000 		.4byte	.LVL444
 12531 1b54 38010000 		.4byte	.LVL445
ARM GAS  C:\Users\CHRONI~1\AppData\Local\Temp\ccho61l0.s 			page 263


 12532 1b58 0400     		.2byte	0x4
 12533 1b5a F3       		.byte	0xf3
 12534 1b5b 01       		.uleb128 0x1
 12535 1b5c 53       		.byte	0x53
 12536 1b5d 9F       		.byte	0x9f
 12537 1b5e 38010000 		.4byte	.LVL445
 12538 1b62 3C010000 		.4byte	.LVL446
 12539 1b66 0100     		.2byte	0x1
 12540 1b68 56       		.byte	0x56
 12541 1b69 3C010000 		.4byte	.LVL446
 12542 1b6d 4A010000 		.4byte	.LFE10
 12543 1b71 0400     		.2byte	0x4
 12544 1b73 F3       		.byte	0xf3
 12545 1b74 01       		.uleb128 0x1
 12546 1b75 53       		.byte	0x53
 12547 1b76 9F       		.byte	0x9f
 12548 1b77 00000000 		.4byte	0
 12549 1b7b 00000000 		.4byte	0
 12550              	.LLST139:
 12551 1b7f 2A000000 		.4byte	.LVL412
 12552 1b83 41000000 		.4byte	.LVL413-1
 12553 1b87 0100     		.2byte	0x1
 12554 1b89 50       		.byte	0x50
 12555 1b8a 42000000 		.4byte	.LVL413
 12556 1b8e 62000000 		.4byte	.LVL416
 12557 1b92 0100     		.2byte	0x1
 12558 1b94 50       		.byte	0x50
 12559 1b95 68000000 		.4byte	.LVL418
 12560 1b99 12010000 		.4byte	.LVL438
 12561 1b9d 0100     		.2byte	0x1
 12562 1b9f 56       		.byte	0x56
 12563 1ba0 12010000 		.4byte	.LVL438
 12564 1ba4 28010000 		.4byte	.LVL441
 12565 1ba8 0100     		.2byte	0x1
 12566 1baa 50       		.byte	0x50
 12567 1bab 28010000 		.4byte	.LVL441
 12568 1baf 32010000 		.4byte	.LVL443
 12569 1bb3 0100     		.2byte	0x1
 12570 1bb5 56       		.byte	0x56
 12571 1bb6 32010000 		.4byte	.LVL443
 12572 1bba 3E010000 		.4byte	.LVL447
 12573 1bbe 0100     		.2byte	0x1
 12574 1bc0 50       		.byte	0x50
 12575 1bc1 3E010000 		.4byte	.LVL447
 12576 1bc5 4A010000 		.4byte	.LFE10
 12577 1bc9 0100     		.2byte	0x1
 12578 1bcb 56       		.byte	0x56
 12579 1bcc 00000000 		.4byte	0
 12580 1bd0 00000000 		.4byte	0
 12581              	.LLST140:
 12582 1bd4 0E000000 		.4byte	.LVL407
 12583 1bd8 70000000 		.4byte	.LVL419
 12584 1bdc 0200     		.2byte	0x2
 12585 1bde 30       		.byte	0x30
 12586 1bdf 9F       		.byte	0x9f
 12587 1be0 70000000 		.4byte	.LVL419
 12588 1be4 8C000000 		.4byte	.LVL422
ARM GAS  C:\Users\CHRONI~1\AppData\Local\Temp\ccho61l0.s 			page 264


 12589 1be8 0100     		.2byte	0x1
 12590 1bea 53       		.byte	0x53
 12591 1beb 8E000000 		.4byte	.LVL423
 12592 1bef 9C000000 		.4byte	.LVL424
 12593 1bf3 0100     		.2byte	0x1
 12594 1bf5 53       		.byte	0x53
 12595 1bf6 9C000000 		.4byte	.LVL424
 12596 1bfa BC000000 		.4byte	.LVL430
 12597 1bfe 0100     		.2byte	0x1
 12598 1c00 59       		.byte	0x59
 12599 1c01 BE000000 		.4byte	.LVL431
 12600 1c05 C2000000 		.4byte	.LVL432
 12601 1c09 0100     		.2byte	0x1
 12602 1c0b 53       		.byte	0x53
 12603 1c0c C2000000 		.4byte	.LVL432
 12604 1c10 D2000000 		.4byte	.LVL433
 12605 1c14 0100     		.2byte	0x1
 12606 1c16 59       		.byte	0x59
 12607 1c17 D2000000 		.4byte	.LVL433
 12608 1c1b F6000000 		.4byte	.LVL434
 12609 1c1f 0100     		.2byte	0x1
 12610 1c21 5C       		.byte	0x5c
 12611 1c22 FA000000 		.4byte	.LVL435
 12612 1c26 FC000000 		.4byte	.LVL436
 12613 1c2a 0100     		.2byte	0x1
 12614 1c2c 5C       		.byte	0x5c
 12615 1c2d FC000000 		.4byte	.LVL436
 12616 1c31 00010000 		.4byte	.LVL437
 12617 1c35 0100     		.2byte	0x1
 12618 1c37 59       		.byte	0x59
 12619 1c38 00010000 		.4byte	.LVL437
 12620 1c3c 12010000 		.4byte	.LVL438
 12621 1c40 0100     		.2byte	0x1
 12622 1c42 5C       		.byte	0x5c
 12623 1c43 12010000 		.4byte	.LVL438
 12624 1c47 28010000 		.4byte	.LVL441
 12625 1c4b 0200     		.2byte	0x2
 12626 1c4d 30       		.byte	0x30
 12627 1c4e 9F       		.byte	0x9f
 12628 1c4f 28010000 		.4byte	.LVL441
 12629 1c53 2A010000 		.4byte	.LVL442
 12630 1c57 0100     		.2byte	0x1
 12631 1c59 5C       		.byte	0x5c
 12632 1c5a 32010000 		.4byte	.LVL443
 12633 1c5e 3E010000 		.4byte	.LVL447
 12634 1c62 0200     		.2byte	0x2
 12635 1c64 30       		.byte	0x30
 12636 1c65 9F       		.byte	0x9f
 12637 1c66 00000000 		.4byte	0
 12638 1c6a 00000000 		.4byte	0
 12639              	.LLST141:
 12640 1c6e 0E000000 		.4byte	.LVL407
 12641 1c72 9C000000 		.4byte	.LVL424
 12642 1c76 0200     		.2byte	0x2
 12643 1c78 30       		.byte	0x30
 12644 1c79 9F       		.byte	0x9f
 12645 1c7a A4000000 		.4byte	.LVL425
ARM GAS  C:\Users\CHRONI~1\AppData\Local\Temp\ccho61l0.s 			page 265


 12646 1c7e A8000000 		.4byte	.LVL426
 12647 1c82 0100     		.2byte	0x1
 12648 1c84 5A       		.byte	0x5a
 12649 1c85 A8000000 		.4byte	.LVL426
 12650 1c89 B4000000 		.4byte	.LVL428
 12651 1c8d 0100     		.2byte	0x1
 12652 1c8f 54       		.byte	0x54
 12653 1c90 B6000000 		.4byte	.LVL429
 12654 1c94 BE000000 		.4byte	.LVL431
 12655 1c98 0100     		.2byte	0x1
 12656 1c9a 54       		.byte	0x54
 12657 1c9b BE000000 		.4byte	.LVL431
 12658 1c9f C2000000 		.4byte	.LVL432
 12659 1ca3 0200     		.2byte	0x2
 12660 1ca5 30       		.byte	0x30
 12661 1ca6 9F       		.byte	0x9f
 12662 1ca7 12010000 		.4byte	.LVL438
 12663 1cab 28010000 		.4byte	.LVL441
 12664 1caf 0200     		.2byte	0x2
 12665 1cb1 30       		.byte	0x30
 12666 1cb2 9F       		.byte	0x9f
 12667 1cb3 32010000 		.4byte	.LVL443
 12668 1cb7 3E010000 		.4byte	.LVL447
 12669 1cbb 0200     		.2byte	0x2
 12670 1cbd 30       		.byte	0x30
 12671 1cbe 9F       		.byte	0x9f
 12672 1cbf 00000000 		.4byte	0
 12673 1cc3 00000000 		.4byte	0
 12674              	.LLST142:
 12675 1cc7 0E000000 		.4byte	.LVL407
 12676 1ccb 70000000 		.4byte	.LVL419
 12677 1ccf 0200     		.2byte	0x2
 12678 1cd1 30       		.byte	0x30
 12679 1cd2 9F       		.byte	0x9f
 12680 1cd3 70000000 		.4byte	.LVL419
 12681 1cd7 86000000 		.4byte	.LVL420
 12682 1cdb 0100     		.2byte	0x1
 12683 1cdd 58       		.byte	0x58
 12684 1cde 8A000000 		.4byte	.LVL421
 12685 1ce2 12010000 		.4byte	.LVL438
 12686 1ce6 0100     		.2byte	0x1
 12687 1ce8 58       		.byte	0x58
 12688 1ce9 12010000 		.4byte	.LVL438
 12689 1ced 28010000 		.4byte	.LVL441
 12690 1cf1 0200     		.2byte	0x2
 12691 1cf3 30       		.byte	0x30
 12692 1cf4 9F       		.byte	0x9f
 12693 1cf5 28010000 		.4byte	.LVL441
 12694 1cf9 32010000 		.4byte	.LVL443
 12695 1cfd 0100     		.2byte	0x1
 12696 1cff 58       		.byte	0x58
 12697 1d00 32010000 		.4byte	.LVL443
 12698 1d04 3E010000 		.4byte	.LVL447
 12699 1d08 0200     		.2byte	0x2
 12700 1d0a 30       		.byte	0x30
 12701 1d0b 9F       		.byte	0x9f
 12702 1d0c 3E010000 		.4byte	.LVL447
ARM GAS  C:\Users\CHRONI~1\AppData\Local\Temp\ccho61l0.s 			page 266


 12703 1d10 42010000 		.4byte	.LVL448
 12704 1d14 0100     		.2byte	0x1
 12705 1d16 58       		.byte	0x58
 12706 1d17 00000000 		.4byte	0
 12707 1d1b 00000000 		.4byte	0
 12708              	.LLST143:
 12709 1d1f 00000000 		.4byte	.LVL449
 12710 1d23 20000000 		.4byte	.LVL452
 12711 1d27 0100     		.2byte	0x1
 12712 1d29 50       		.byte	0x50
 12713 1d2a 20000000 		.4byte	.LVL452
 12714 1d2e A6000000 		.4byte	.LVL468
 12715 1d32 0400     		.2byte	0x4
 12716 1d34 F3       		.byte	0xf3
 12717 1d35 01       		.uleb128 0x1
 12718 1d36 50       		.byte	0x50
 12719 1d37 9F       		.byte	0x9f
 12720 1d38 A6000000 		.4byte	.LVL468
 12721 1d3c AA000000 		.4byte	.LVL469
 12722 1d40 0100     		.2byte	0x1
 12723 1d42 50       		.byte	0x50
 12724 1d43 AA000000 		.4byte	.LVL469
 12725 1d47 B4000000 		.4byte	.LFE11
 12726 1d4b 0400     		.2byte	0x4
 12727 1d4d F3       		.byte	0xf3
 12728 1d4e 01       		.uleb128 0x1
 12729 1d4f 50       		.byte	0x50
 12730 1d50 9F       		.byte	0x9f
 12731 1d51 00000000 		.4byte	0
 12732 1d55 00000000 		.4byte	0
 12733              	.LLST144:
 12734 1d59 00000000 		.4byte	.LVL449
 12735 1d5d 1E000000 		.4byte	.LVL451
 12736 1d61 0100     		.2byte	0x1
 12737 1d63 51       		.byte	0x51
 12738 1d64 1E000000 		.4byte	.LVL451
 12739 1d68 A6000000 		.4byte	.LVL468
 12740 1d6c 0100     		.2byte	0x1
 12741 1d6e 55       		.byte	0x55
 12742 1d6f A6000000 		.4byte	.LVL468
 12743 1d73 AA000000 		.4byte	.LVL469
 12744 1d77 0100     		.2byte	0x1
 12745 1d79 51       		.byte	0x51
 12746 1d7a AA000000 		.4byte	.LVL469
 12747 1d7e B4000000 		.4byte	.LFE11
 12748 1d82 0400     		.2byte	0x4
 12749 1d84 F3       		.byte	0xf3
 12750 1d85 01       		.uleb128 0x1
 12751 1d86 51       		.byte	0x51
 12752 1d87 9F       		.byte	0x9f
 12753 1d88 00000000 		.4byte	0
 12754 1d8c 00000000 		.4byte	0
 12755              	.LLST145:
 12756 1d90 00000000 		.4byte	.LVL449
 12757 1d94 23000000 		.4byte	.LVL453-1
 12758 1d98 0100     		.2byte	0x1
 12759 1d9a 52       		.byte	0x52
ARM GAS  C:\Users\CHRONI~1\AppData\Local\Temp\ccho61l0.s 			page 267


 12760 1d9b 23000000 		.4byte	.LVL453-1
 12761 1d9f A6000000 		.4byte	.LVL468
 12762 1da3 0100     		.2byte	0x1
 12763 1da5 54       		.byte	0x54
 12764 1da6 A6000000 		.4byte	.LVL468
 12765 1daa AA000000 		.4byte	.LVL469
 12766 1dae 0100     		.2byte	0x1
 12767 1db0 52       		.byte	0x52
 12768 1db1 AA000000 		.4byte	.LVL469
 12769 1db5 B4000000 		.4byte	.LFE11
 12770 1db9 0400     		.2byte	0x4
 12771 1dbb F3       		.byte	0xf3
 12772 1dbc 01       		.uleb128 0x1
 12773 1dbd 52       		.byte	0x52
 12774 1dbe 9F       		.byte	0x9f
 12775 1dbf 00000000 		.4byte	0
 12776 1dc3 00000000 		.4byte	0
 12777              	.LLST146:
 12778 1dc7 24000000 		.4byte	.LVL453
 12779 1dcb 32000000 		.4byte	.LVL454
 12780 1dcf 0100     		.2byte	0x1
 12781 1dd1 50       		.byte	0x50
 12782 1dd2 38000000 		.4byte	.LVL456
 12783 1dd6 3C000000 		.4byte	.LVL457
 12784 1dda 0100     		.2byte	0x1
 12785 1ddc 53       		.byte	0x53
 12786 1ddd 46000000 		.4byte	.LVL458
 12787 1de1 9E000000 		.4byte	.LVL465
 12788 1de5 0100     		.2byte	0x1
 12789 1de7 50       		.byte	0x50
 12790 1de8 A4000000 		.4byte	.LVL467
 12791 1dec A6000000 		.4byte	.LVL468
 12792 1df0 0100     		.2byte	0x1
 12793 1df2 53       		.byte	0x53
 12794 1df3 AA000000 		.4byte	.LVL469
 12795 1df7 B4000000 		.4byte	.LFE11
 12796 1dfb 0100     		.2byte	0x1
 12797 1dfd 53       		.byte	0x53
 12798 1dfe 00000000 		.4byte	0
 12799 1e02 00000000 		.4byte	0
 12800              	.LLST147:
 12801 1e06 50000000 		.4byte	.LVL459
 12802 1e0a 5C000000 		.4byte	.LVL460
 12803 1e0e 0200     		.2byte	0x2
 12804 1e10 30       		.byte	0x30
 12805 1e11 9F       		.byte	0x9f
 12806 1e12 62000000 		.4byte	.LVL461
 12807 1e16 66000000 		.4byte	.LVL462
 12808 1e1a 0200     		.2byte	0x2
 12809 1e1c 30       		.byte	0x30
 12810 1e1d 9F       		.byte	0x9f
 12811 1e1e 66000000 		.4byte	.LVL462
 12812 1e22 7E000000 		.4byte	.LVL463
 12813 1e26 0100     		.2byte	0x1
 12814 1e28 53       		.byte	0x53
 12815 1e29 00000000 		.4byte	0
 12816 1e2d 00000000 		.4byte	0
ARM GAS  C:\Users\CHRONI~1\AppData\Local\Temp\ccho61l0.s 			page 268


 12817              	.LLST148:
 12818 1e31 0A000000 		.4byte	.LVL450
 12819 1e35 66000000 		.4byte	.LVL462
 12820 1e39 0200     		.2byte	0x2
 12821 1e3b 30       		.byte	0x30
 12822 1e3c 9F       		.byte	0x9f
 12823 1e3d 66000000 		.4byte	.LVL462
 12824 1e41 9C000000 		.4byte	.LVL464
 12825 1e45 0100     		.2byte	0x1
 12826 1e47 51       		.byte	0x51
 12827 1e48 A6000000 		.4byte	.LVL468
 12828 1e4c AA000000 		.4byte	.LVL469
 12829 1e50 0200     		.2byte	0x2
 12830 1e52 30       		.byte	0x30
 12831 1e53 9F       		.byte	0x9f
 12832 1e54 00000000 		.4byte	0
 12833 1e58 00000000 		.4byte	0
 12834              	.LLST149:
 12835 1e5c 00000000 		.4byte	.LVL470
 12836 1e60 26000000 		.4byte	.LVL473
 12837 1e64 0100     		.2byte	0x1
 12838 1e66 50       		.byte	0x50
 12839 1e67 26000000 		.4byte	.LVL473
 12840 1e6b 7C000000 		.4byte	.LVL487
 12841 1e6f 0100     		.2byte	0x1
 12842 1e71 54       		.byte	0x54
 12843 1e72 7C000000 		.4byte	.LVL487
 12844 1e76 8C000000 		.4byte	.LVL488
 12845 1e7a 0100     		.2byte	0x1
 12846 1e7c 50       		.byte	0x50
 12847 1e7d 8C000000 		.4byte	.LVL488
 12848 1e81 92000000 		.4byte	.LFE12
 12849 1e85 0400     		.2byte	0x4
 12850 1e87 F3       		.byte	0xf3
 12851 1e88 01       		.uleb128 0x1
 12852 1e89 50       		.byte	0x50
 12853 1e8a 9F       		.byte	0x9f
 12854 1e8b 00000000 		.4byte	0
 12855 1e8f 00000000 		.4byte	0
 12856              	.LLST150:
 12857 1e93 00000000 		.4byte	.LVL470
 12858 1e97 24000000 		.4byte	.LVL472
 12859 1e9b 0100     		.2byte	0x1
 12860 1e9d 51       		.byte	0x51
 12861 1e9e 24000000 		.4byte	.LVL472
 12862 1ea2 29000000 		.4byte	.LVL474-1
 12863 1ea6 0100     		.2byte	0x1
 12864 1ea8 53       		.byte	0x53
 12865 1ea9 29000000 		.4byte	.LVL474-1
 12866 1ead 7C000000 		.4byte	.LVL487
 12867 1eb1 0100     		.2byte	0x1
 12868 1eb3 55       		.byte	0x55
 12869 1eb4 7C000000 		.4byte	.LVL487
 12870 1eb8 8C000000 		.4byte	.LVL488
 12871 1ebc 0100     		.2byte	0x1
 12872 1ebe 51       		.byte	0x51
 12873 1ebf 8C000000 		.4byte	.LVL488
ARM GAS  C:\Users\CHRONI~1\AppData\Local\Temp\ccho61l0.s 			page 269


 12874 1ec3 92000000 		.4byte	.LFE12
 12875 1ec7 0400     		.2byte	0x4
 12876 1ec9 F3       		.byte	0xf3
 12877 1eca 01       		.uleb128 0x1
 12878 1ecb 51       		.byte	0x51
 12879 1ecc 9F       		.byte	0x9f
 12880 1ecd 00000000 		.4byte	0
 12881 1ed1 00000000 		.4byte	0
 12882              	.LLST151:
 12883 1ed5 04000000 		.4byte	.LVL471
 12884 1ed9 2A000000 		.4byte	.LVL474
 12885 1edd 0200     		.2byte	0x2
 12886 1edf 30       		.byte	0x30
 12887 1ee0 9F       		.byte	0x9f
 12888 1ee1 2A000000 		.4byte	.LVL474
 12889 1ee5 30000000 		.4byte	.LVL475
 12890 1ee9 0100     		.2byte	0x1
 12891 1eeb 50       		.byte	0x50
 12892 1eec 44000000 		.4byte	.LVL478
 12893 1ef0 46000000 		.4byte	.LVL479
 12894 1ef4 0100     		.2byte	0x1
 12895 1ef6 50       		.byte	0x50
 12896 1ef7 58000000 		.4byte	.LVL481
 12897 1efb 7C000000 		.4byte	.LVL487
 12898 1eff 0100     		.2byte	0x1
 12899 1f01 50       		.byte	0x50
 12900 1f02 7C000000 		.4byte	.LVL487
 12901 1f06 8C000000 		.4byte	.LVL488
 12902 1f0a 0200     		.2byte	0x2
 12903 1f0c 30       		.byte	0x30
 12904 1f0d 9F       		.byte	0x9f
 12905 1f0e 8C000000 		.4byte	.LVL488
 12906 1f12 92000000 		.4byte	.LFE12
 12907 1f16 0100     		.2byte	0x1
 12908 1f18 56       		.byte	0x56
 12909 1f19 00000000 		.4byte	0
 12910 1f1d 00000000 		.4byte	0
 12911              	.LLST152:
 12912 1f21 30000000 		.4byte	.LVL475
 12913 1f25 40000000 		.4byte	.LVL476
 12914 1f29 0100     		.2byte	0x1
 12915 1f2b 53       		.byte	0x53
 12916 1f2c 42000000 		.4byte	.LVL477
 12917 1f30 44000000 		.4byte	.LVL478
 12918 1f34 0100     		.2byte	0x1
 12919 1f36 53       		.byte	0x53
 12920 1f37 46000000 		.4byte	.LVL479
 12921 1f3b 4E000000 		.4byte	.LVL480
 12922 1f3f 0100     		.2byte	0x1
 12923 1f41 53       		.byte	0x53
 12924 1f42 5E000000 		.4byte	.LVL482
 12925 1f46 6E000000 		.4byte	.LVL483
 12926 1f4a 0100     		.2byte	0x1
 12927 1f4c 53       		.byte	0x53
 12928 1f4d 70000000 		.4byte	.LVL484
 12929 1f51 72000000 		.4byte	.LVL485
 12930 1f55 0100     		.2byte	0x1
ARM GAS  C:\Users\CHRONI~1\AppData\Local\Temp\ccho61l0.s 			page 270


 12931 1f57 53       		.byte	0x53
 12932 1f58 74000000 		.4byte	.LVL486
 12933 1f5c 7C000000 		.4byte	.LVL487
 12934 1f60 0100     		.2byte	0x1
 12935 1f62 53       		.byte	0x53
 12936 1f63 00000000 		.4byte	0
 12937 1f67 00000000 		.4byte	0
 12938              	.LLST153:
 12939 1f6b 00000000 		.4byte	.LVL489
 12940 1f6f 0C000000 		.4byte	.LVL491
 12941 1f73 0100     		.2byte	0x1
 12942 1f75 50       		.byte	0x50
 12943 1f76 0C000000 		.4byte	.LVL491
 12944 1f7a D2000000 		.4byte	.LVL507
 12945 1f7e 0100     		.2byte	0x1
 12946 1f80 54       		.byte	0x54
 12947 1f81 D2000000 		.4byte	.LVL507
 12948 1f85 54010000 		.4byte	.LFE13
 12949 1f89 0400     		.2byte	0x4
 12950 1f8b F3       		.byte	0xf3
 12951 1f8c 01       		.uleb128 0x1
 12952 1f8d 50       		.byte	0x50
 12953 1f8e 9F       		.byte	0x9f
 12954 1f8f 00000000 		.4byte	0
 12955 1f93 00000000 		.4byte	0
 12956              	.LLST154:
 12957 1f97 16000000 		.4byte	.LVL493
 12958 1f9b 38000000 		.4byte	.LVL494
 12959 1f9f 0100     		.2byte	0x1
 12960 1fa1 50       		.byte	0x50
 12961 1fa2 3E000000 		.4byte	.LVL496
 12962 1fa6 4C000000 		.4byte	.LVL497
 12963 1faa 0100     		.2byte	0x1
 12964 1fac 53       		.byte	0x53
 12965 1fad 72000000 		.4byte	.LVL498
 12966 1fb1 7A000000 		.4byte	.LVL499
 12967 1fb5 0100     		.2byte	0x1
 12968 1fb7 50       		.byte	0x50
 12969 1fb8 7E000000 		.4byte	.LVL500
 12970 1fbc 86000000 		.4byte	.LVL501
 12971 1fc0 0100     		.2byte	0x1
 12972 1fc2 50       		.byte	0x50
 12973 1fc3 8A000000 		.4byte	.LVL502
 12974 1fc7 92000000 		.4byte	.LVL503
 12975 1fcb 0100     		.2byte	0x1
 12976 1fcd 50       		.byte	0x50
 12977 1fce A4000000 		.4byte	.LVL505
 12978 1fd2 C8000000 		.4byte	.LVL506
 12979 1fd6 0100     		.2byte	0x1
 12980 1fd8 50       		.byte	0x50
 12981 1fd9 C8000000 		.4byte	.LVL506
 12982 1fdd DE000000 		.4byte	.LVL509
 12983 1fe1 0100     		.2byte	0x1
 12984 1fe3 53       		.byte	0x53
 12985 1fe4 E4000000 		.4byte	.LVL510
 12986 1fe8 E6000000 		.4byte	.LVL511
 12987 1fec 0100     		.2byte	0x1
ARM GAS  C:\Users\CHRONI~1\AppData\Local\Temp\ccho61l0.s 			page 271


 12988 1fee 53       		.byte	0x53
 12989 1fef F4000000 		.4byte	.LVL512
 12990 1ff3 FC000000 		.4byte	.LVL513
 12991 1ff7 0100     		.2byte	0x1
 12992 1ff9 50       		.byte	0x50
 12993 1ffa 00010000 		.4byte	.LVL514
 12994 1ffe 08010000 		.4byte	.LVL515
 12995 2002 0100     		.2byte	0x1
 12996 2004 50       		.byte	0x50
 12997 2005 0C010000 		.4byte	.LVL516
 12998 2009 14010000 		.4byte	.LVL517
 12999 200d 0100     		.2byte	0x1
 13000 200f 50       		.byte	0x50
 13001 2010 30010000 		.4byte	.LVL520
 13002 2014 43010000 		.4byte	.LVL523-1
 13003 2018 0100     		.2byte	0x1
 13004 201a 53       		.byte	0x53
 13005 201b 46010000 		.4byte	.LVL524
 13006 201f 54010000 		.4byte	.LFE13
 13007 2023 0100     		.2byte	0x1
 13008 2025 53       		.byte	0x53
 13009 2026 00000000 		.4byte	0
 13010 202a 00000000 		.4byte	0
 13011              	.LLST155:
 13012 202e 06000000 		.4byte	.LVL490
 13013 2032 D4000000 		.4byte	.LVL508
 13014 2036 0200     		.2byte	0x2
 13015 2038 30       		.byte	0x30
 13016 2039 9F       		.byte	0x9f
 13017 203a D4000000 		.4byte	.LVL508
 13018 203e 32010000 		.4byte	.LVL521
 13019 2042 0100     		.2byte	0x1
 13020 2044 54       		.byte	0x54
 13021 2045 34010000 		.4byte	.LVL522
 13022 2049 46010000 		.4byte	.LVL524
 13023 204d 0100     		.2byte	0x1
 13024 204f 54       		.byte	0x54
 13025 2050 00000000 		.4byte	0
 13026 2054 00000000 		.4byte	0
 13027              		.section	.debug_aranges,"",%progbits
 13028 0000 1C010000 		.4byte	0x11c
 13029 0004 0200     		.2byte	0x2
 13030 0006 00000000 		.4byte	.Ldebug_info0
 13031 000a 04       		.byte	0x4
 13032 000b 00       		.byte	0
 13033 000c 0000     		.2byte	0
 13034 000e 0000     		.2byte	0
 13035 0010 00000000 		.4byte	.LFB14
 13036 0014 70000000 		.4byte	.LFE14-.LFB14
 13037 0018 00000000 		.4byte	.LFB15
 13038 001c C4000000 		.4byte	.LFE15-.LFB15
 13039 0020 00000000 		.4byte	.LFB16
 13040 0024 C4000000 		.4byte	.LFE16-.LFB16
 13041 0028 00000000 		.4byte	.LFB17
 13042 002c AC000000 		.4byte	.LFE17-.LFB17
 13043 0030 00000000 		.4byte	.LFB18
 13044 0034 28000000 		.4byte	.LFE18-.LFB18
ARM GAS  C:\Users\CHRONI~1\AppData\Local\Temp\ccho61l0.s 			page 272


 13045 0038 00000000 		.4byte	.LFB19
 13046 003c B0000000 		.4byte	.LFE19-.LFB19
 13047 0040 00000000 		.4byte	.LFB20
 13048 0044 24000000 		.4byte	.LFE20-.LFB20
 13049 0048 00000000 		.4byte	.LFB26
 13050 004c 2A000000 		.4byte	.LFE26-.LFB26
 13051 0050 00000000 		.4byte	.LFB23
 13052 0054 70000000 		.4byte	.LFE23-.LFB23
 13053 0058 00000000 		.4byte	.LFB24
 13054 005c 38000000 		.4byte	.LFE24-.LFB24
 13055 0060 00000000 		.4byte	.LFB25
 13056 0064 34000000 		.4byte	.LFE25-.LFB25
 13057 0068 00000000 		.4byte	.LFB28
 13058 006c 44000000 		.4byte	.LFE28-.LFB28
 13059 0070 00000000 		.4byte	.LFB30
 13060 0074 16000000 		.4byte	.LFE30-.LFB30
 13061 0078 00000000 		.4byte	.LFB29
 13062 007c 44000000 		.4byte	.LFE29-.LFB29
 13063 0080 00000000 		.4byte	.LFB31
 13064 0084 8A000000 		.4byte	.LFE31-.LFB31
 13065 0088 00000000 		.4byte	.LFB2
 13066 008c CA000000 		.4byte	.LFE2-.LFB2
 13067 0090 00000000 		.4byte	.LFB27
 13068 0094 A2010000 		.4byte	.LFE27-.LFB27
 13069 0098 00000000 		.4byte	.LFB3
 13070 009c 56000000 		.4byte	.LFE3-.LFB3
 13071 00a0 00000000 		.4byte	.LFB33
 13072 00a4 28000000 		.4byte	.LFE33-.LFB33
 13073 00a8 00000000 		.4byte	.LFB32
 13074 00ac 52010000 		.4byte	.LFE32-.LFB32
 13075 00b0 00000000 		.4byte	.LFB21
 13076 00b4 96010000 		.4byte	.LFE21-.LFB21
 13077 00b8 00000000 		.4byte	.LFB22
 13078 00bc 44020000 		.4byte	.LFE22-.LFB22
 13079 00c0 00000000 		.4byte	.LFB4
 13080 00c4 58000000 		.4byte	.LFE4-.LFB4
 13081 00c8 00000000 		.4byte	.LFB1
 13082 00cc 3A000000 		.4byte	.LFE1-.LFB1
 13083 00d0 00000000 		.4byte	.LFB6
 13084 00d4 58000000 		.4byte	.LFE6-.LFB6
 13085 00d8 00000000 		.4byte	.LFB7
 13086 00dc 80000000 		.4byte	.LFE7-.LFB7
 13087 00e0 00000000 		.4byte	.LFB8
 13088 00e4 2C000000 		.4byte	.LFE8-.LFB8
 13089 00e8 00000000 		.4byte	.LFB5
 13090 00ec 40010000 		.4byte	.LFE5-.LFB5
 13091 00f0 00000000 		.4byte	.LFB9
 13092 00f4 8C000000 		.4byte	.LFE9-.LFB9
 13093 00f8 00000000 		.4byte	.LFB10
 13094 00fc 4A010000 		.4byte	.LFE10-.LFB10
 13095 0100 00000000 		.4byte	.LFB11
 13096 0104 B4000000 		.4byte	.LFE11-.LFB11
 13097 0108 00000000 		.4byte	.LFB12
 13098 010c 92000000 		.4byte	.LFE12-.LFB12
 13099 0110 00000000 		.4byte	.LFB13
 13100 0114 54010000 		.4byte	.LFE13-.LFB13
 13101 0118 00000000 		.4byte	0
ARM GAS  C:\Users\CHRONI~1\AppData\Local\Temp\ccho61l0.s 			page 273


 13102 011c 00000000 		.4byte	0
 13103              		.section	.debug_ranges,"",%progbits
 13104              	.Ldebug_ranges0:
 13105 0000 00000000 		.4byte	.LFB14
 13106 0004 70000000 		.4byte	.LFE14
 13107 0008 00000000 		.4byte	.LFB15
 13108 000c C4000000 		.4byte	.LFE15
 13109 0010 00000000 		.4byte	.LFB16
 13110 0014 C4000000 		.4byte	.LFE16
 13111 0018 00000000 		.4byte	.LFB17
 13112 001c AC000000 		.4byte	.LFE17
 13113 0020 00000000 		.4byte	.LFB18
 13114 0024 28000000 		.4byte	.LFE18
 13115 0028 00000000 		.4byte	.LFB19
 13116 002c B0000000 		.4byte	.LFE19
 13117 0030 00000000 		.4byte	.LFB20
 13118 0034 24000000 		.4byte	.LFE20
 13119 0038 00000000 		.4byte	.LFB26
 13120 003c 2A000000 		.4byte	.LFE26
 13121 0040 00000000 		.4byte	.LFB23
 13122 0044 70000000 		.4byte	.LFE23
 13123 0048 00000000 		.4byte	.LFB24
 13124 004c 38000000 		.4byte	.LFE24
 13125 0050 00000000 		.4byte	.LFB25
 13126 0054 34000000 		.4byte	.LFE25
 13127 0058 00000000 		.4byte	.LFB28
 13128 005c 44000000 		.4byte	.LFE28
 13129 0060 00000000 		.4byte	.LFB30
 13130 0064 16000000 		.4byte	.LFE30
 13131 0068 00000000 		.4byte	.LFB29
 13132 006c 44000000 		.4byte	.LFE29
 13133 0070 00000000 		.4byte	.LFB31
 13134 0074 8A000000 		.4byte	.LFE31
 13135 0078 00000000 		.4byte	.LFB2
 13136 007c CA000000 		.4byte	.LFE2
 13137 0080 00000000 		.4byte	.LFB27
 13138 0084 A2010000 		.4byte	.LFE27
 13139 0088 00000000 		.4byte	.LFB3
 13140 008c 56000000 		.4byte	.LFE3
 13141 0090 00000000 		.4byte	.LFB33
 13142 0094 28000000 		.4byte	.LFE33
 13143 0098 00000000 		.4byte	.LFB32
 13144 009c 52010000 		.4byte	.LFE32
 13145 00a0 00000000 		.4byte	.LFB21
 13146 00a4 96010000 		.4byte	.LFE21
 13147 00a8 00000000 		.4byte	.LFB22
 13148 00ac 44020000 		.4byte	.LFE22
 13149 00b0 00000000 		.4byte	.LFB4
 13150 00b4 58000000 		.4byte	.LFE4
 13151 00b8 00000000 		.4byte	.LFB1
 13152 00bc 3A000000 		.4byte	.LFE1
 13153 00c0 00000000 		.4byte	.LFB6
 13154 00c4 58000000 		.4byte	.LFE6
 13155 00c8 00000000 		.4byte	.LFB7
 13156 00cc 80000000 		.4byte	.LFE7
 13157 00d0 00000000 		.4byte	.LFB8
 13158 00d4 2C000000 		.4byte	.LFE8
ARM GAS  C:\Users\CHRONI~1\AppData\Local\Temp\ccho61l0.s 			page 274


 13159 00d8 00000000 		.4byte	.LFB5
 13160 00dc 40010000 		.4byte	.LFE5
 13161 00e0 00000000 		.4byte	.LFB9
 13162 00e4 8C000000 		.4byte	.LFE9
 13163 00e8 00000000 		.4byte	.LFB10
 13164 00ec 4A010000 		.4byte	.LFE10
 13165 00f0 00000000 		.4byte	.LFB11
 13166 00f4 B4000000 		.4byte	.LFE11
 13167 00f8 00000000 		.4byte	.LFB12
 13168 00fc 92000000 		.4byte	.LFE12
 13169 0100 00000000 		.4byte	.LFB13
 13170 0104 54010000 		.4byte	.LFE13
 13171 0108 00000000 		.4byte	0
 13172 010c 00000000 		.4byte	0
 13173              		.section	.debug_line,"",%progbits
 13174              	.Ldebug_line0:
 13175 0000 93070000 		.section	.debug_str,"MS",%progbits,1
 13175      02003E01 
 13175      00000201 
 13175      FB0E0D00 
 13175      01010101 
 13176              	.LASF198:
 13177 0000 7265675F 		.ascii	"reg_array\000"
 13177      61727261 
 13177      7900
 13178              	.LASF208:
 13179 000a 626D6536 		.ascii	"bme68x_set_heatr_conf\000"
 13179      38785F73 
 13179      65745F68 
 13179      65617472 
 13179      5F636F6E 
 13180              	.LASF27:
 13181 0020 626D6536 		.ascii	"bme68x_write_fptr_t\000"
 13181      38785F77 
 13181      72697465 
 13181      5F667074 
 13181      725F7400 
 13182              	.LASF157:
 13183 0034 636F6E66 		.ascii	"conf\000"
 13183      00
 13184              	.LASF171:
 13185 0039 636F6566 		.ascii	"coeff_array\000"
 13185      665F6172 
 13185      72617900 
 13186              	.LASF37:
 13187 0045 74656D70 		.ascii	"temperature\000"
 13187      65726174 
 13187      75726500 
 13188              	.LASF123:
 13189 0051 74656D70 		.ascii	"temp\000"
 13189      00
 13190              	.LASF38:
 13191 0056 70726573 		.ascii	"pressure\000"
 13191      73757265 
 13191      00
 13192              	.LASF116:
 13193 005f 6761735F 		.ascii	"gas_res_adc\000"
ARM GAS  C:\Users\CHRONI~1\AppData\Local\Temp\ccho61l0.s 			page 275


 13193      7265735F 
 13193      61646300 
 13194              	.LASF40:
 13195 006b 6761735F 		.ascii	"gas_resistance\000"
 13195      72657369 
 13195      7374616E 
 13195      636500
 13196              	.LASF167:
 13197 007a 626D6536 		.ascii	"bme68x_set_regs\000"
 13197      38785F73 
 13197      65745F72 
 13197      65677300 
 13198              	.LASF136:
 13199 008a 63616C63 		.ascii	"calc_heatr_dur_shared\000"
 13199      5F686561 
 13199      74725F64 
 13199      75725F73 
 13199      68617265 
 13200              	.LASF1:
 13201 00a0 756E7369 		.ascii	"unsigned int\000"
 13201      676E6564 
 13201      20696E74 
 13201      00
 13202              	.LASF10:
 13203 00ad 5F5F696E 		.ascii	"__int32_t\000"
 13203      7433325F 
 13203      7400
 13204              	.LASF79:
 13205 00b7 68656174 		.ascii	"heatr_temp_prof\000"
 13205      725F7465 
 13205      6D705F70 
 13205      726F6600 
 13206              	.LASF175:
 13207 00c7 6761735F 		.ascii	"gas_range_h\000"
 13207      72616E67 
 13207      655F6800 
 13208              	.LASF222:
 13209 00d3 6D656D73 		.ascii	"memset\000"
 13209      657400
 13210              	.LASF72:
 13211 00da 6F735F74 		.ascii	"os_temp\000"
 13211      656D7000 
 13212              	.LASF193:
 13213 00e2 6D6F6465 		.ascii	"mode\000"
 13213      00
 13214              	.LASF217:
 13215 00e7 68656174 		.ascii	"heatr_conf\000"
 13215      725F636F 
 13215      6E6600
 13216              	.LASF213:
 13217 00f2 626D6536 		.ascii	"bme68x_get_heatr_conf\000"
 13217      38785F67 
 13217      65745F68 
 13217      65617472 
 13217      5F636F6E 
 13218              	.LASF122:
 13219 0108 63616C63 		.ascii	"calc_res_heat\000"
ARM GAS  C:\Users\CHRONI~1\AppData\Local\Temp\ccho61l0.s 			page 276


 13219      5F726573 
 13219      5F686561 
 13219      7400
 13220              	.LASF181:
 13221 0116 74726965 		.ascii	"tries\000"
 13221      7300
 13222              	.LASF117:
 13223 011c 6761735F 		.ascii	"gas_range\000"
 13223      72616E67 
 13223      6500
 13224              	.LASF88:
 13225 0126 6D656D5F 		.ascii	"mem_page\000"
 13225      70616765 
 13225      00
 13226              	.LASF22:
 13227 012f 75696E74 		.ascii	"uint32_t\000"
 13227      33325F74 
 13227      00
 13228              	.LASF17:
 13229 0138 696E7438 		.ascii	"int8_t\000"
 13229      5F7400
 13230              	.LASF144:
 13231 013f 68696768 		.ascii	"high_index\000"
 13231      5F696E64 
 13231      657800
 13232              	.LASF199:
 13233 014a 626D6536 		.ascii	"bme68x_get_meas_dur\000"
 13233      38785F67 
 13233      65745F6D 
 13233      6561735F 
 13233      64757200 
 13234              	.LASF189:
 13235 015e 626D6536 		.ascii	"bme68x_set_op_mode\000"
 13235      38785F73 
 13235      65745F6F 
 13235      705F6D6F 
 13235      646500
 13236              	.LASF188:
 13237 0171 64617461 		.ascii	"data_array\000"
 13237      5F617272 
 13237      617900
 13238              	.LASF168:
 13239 017c 626D6536 		.ascii	"bme68x_get_regs\000"
 13239      38785F67 
 13239      65745F72 
 13239      65677300 
 13240              	.LASF113:
 13241 018c 74656D70 		.ascii	"temp_scaled\000"
 13241      5F736361 
 13241      6C656400 
 13242              	.LASF163:
 13243 0198 72685F72 		.ascii	"rh_reg_addr\000"
 13243      65675F61 
 13243      64647200 
 13244              	.LASF140:
 13245 01a4 6669656C 		.ascii	"field\000"
 13245      6400
ARM GAS  C:\Users\CHRONI~1\AppData\Local\Temp\ccho61l0.s 			page 277


 13246              	.LASF69:
 13247 01aa 72616E67 		.ascii	"range_sw_err\000"
 13247      655F7377 
 13247      5F657272 
 13247      00
 13248              	.LASF155:
 13249 01b7 696E6465 		.ascii	"index\000"
 13249      7800
 13250              	.LASF19:
 13251 01bd 696E7431 		.ascii	"int16_t\000"
 13251      365F7400 
 13252              	.LASF90:
 13253 01c5 63616C69 		.ascii	"calib\000"
 13253      6200
 13254              	.LASF75:
 13255 01cb 626D6536 		.ascii	"bme68x_heatr_conf\000"
 13255      38785F68 
 13255      65617472 
 13255      5F636F6E 
 13255      6600
 13256              	.LASF0:
 13257 01dd 6C6F6E67 		.ascii	"long long unsigned int\000"
 13257      206C6F6E 
 13257      6720756E 
 13257      7369676E 
 13257      65642069 
 13258              	.LASF33:
 13259 01f4 6D656173 		.ascii	"meas_index\000"
 13259      5F696E64 
 13259      657800
 13260              	.LASF206:
 13261 01ff 6669656C 		.ascii	"field_ptr\000"
 13261      645F7074 
 13261      7200
 13262              	.LASF153:
 13263 0209 7265675F 		.ascii	"reg_data\000"
 13263      64617461 
 13263      00
 13264              	.LASF215:
 13265 0212 6E5F6669 		.ascii	"n_fields\000"
 13265      656C6473 
 13265      00
 13266              	.LASF34:
 13267 021b 7265735F 		.ascii	"res_heat\000"
 13267      68656174 
 13267      00
 13268              	.LASF8:
 13269 0224 5F5F7569 		.ascii	"__uint16_t\000"
 13269      6E743136 
 13269      5F7400
 13270              	.LASF186:
 13271 022f 626D6536 		.ascii	"bme68x_init\000"
 13271      38785F69 
 13271      6E697400 
 13272              	.LASF35:
 13273 023b 69646163 		.ascii	"idac\000"
 13273      00
ARM GAS  C:\Users\CHRONI~1\AppData\Local\Temp\ccho61l0.s 			page 278


 13274              	.LASF44:
 13275 0240 7061725F 		.ascii	"par_h2\000"
 13275      683200
 13276              	.LASF109:
 13277 0247 68756D5F 		.ascii	"hum_adc\000"
 13277      61646300 
 13278              	.LASF200:
 13279 024f 6D656173 		.ascii	"meas_dur\000"
 13279      5F647572 
 13279      00
 13280              	.LASF48:
 13281 0258 7061725F 		.ascii	"par_h6\000"
 13281      683600
 13282              	.LASF166:
 13283 025f 67775F72 		.ascii	"gw_reg_data\000"
 13283      65675F64 
 13283      61746100 
 13284              	.LASF220:
 13285 026b 433A5C55 		.ascii	"C:\\Users\\Chronikle\\Documents\\GitHub\\BodyAnalyz"
 13285      73657273 
 13285      5C436872 
 13285      6F6E696B 
 13285      6C655C44 
 13286 0299 65725C65 		.ascii	"er\\esw_uCOS3_cykit.cydsn\000"
 13286      73775F75 
 13286      434F5333 
 13286      5F63796B 
 13286      69742E63 
 13287              	.LASF135:
 13288 02b2 76616C75 		.ascii	"value\000"
 13288      6500
 13289              	.LASF218:
 13290 02b8 474E5520 		.ascii	"GNU C11 5.4.1 20160609 (release) [ARM/embedded-5-br"
 13290      43313120 
 13290      352E342E 
 13290      31203230 
 13290      31363036 
 13291 02eb 616E6368 		.ascii	"anch revision 237715] -mcpu=cortex-m3 -mthumb -g -O"
 13291      20726576 
 13291      6973696F 
 13291      6E203233 
 13291      37373135 
 13292 031e 67202D66 		.ascii	"g -ffunction-sections -ffat-lto-objects\000"
 13292      66756E63 
 13292      74696F6E 
 13292      2D736563 
 13292      74696F6E 
 13293              	.LASF133:
 13294 0346 6765745F 		.ascii	"get_mem_page\000"
 13294      6D656D5F 
 13294      70616765 
 13294      00
 13295              	.LASF84:
 13296 0353 63686970 		.ascii	"chip_id\000"
 13296      5F696400 
 13297              	.LASF192:
 13298 035b 626D6536 		.ascii	"bme68x_get_op_mode\000"
ARM GAS  C:\Users\CHRONI~1\AppData\Local\Temp\ccho61l0.s 			page 279


 13298      38785F67 
 13298      65745F6F 
 13298      705F6D6F 
 13298      646500
 13299              	.LASF80:
 13300 036e 68656174 		.ascii	"heatr_dur_prof\000"
 13300      725F6475 
 13300      725F7072 
 13300      6F6600
 13301              	.LASF23:
 13302 037d 696E7436 		.ascii	"int64_t\000"
 13302      345F7400 
 13303              	.LASF60:
 13304 0385 7061725F 		.ascii	"par_p5\000"
 13304      703500
 13305              	.LASF128:
 13306 038c 64757276 		.ascii	"durval\000"
 13306      616C00
 13307              	.LASF145:
 13308 0393 6D656173 		.ascii	"meas_index1\000"
 13308      5F696E64 
 13308      65783100 
 13309              	.LASF146:
 13310 039f 6D656173 		.ascii	"meas_index2\000"
 13310      5F696E64 
 13310      65783200 
 13311              	.LASF185:
 13312 03ab 736F6674 		.ascii	"soft_rst_cmd\000"
 13312      5F727374 
 13312      5F636D64 
 13312      00
 13313              	.LASF151:
 13314 03b8 73656C66 		.ascii	"self_test_failed\000"
 13314      5F746573 
 13314      745F6661 
 13314      696C6564 
 13314      00
 13315              	.LASF56:
 13316 03c9 7061725F 		.ascii	"par_p1\000"
 13316      703100
 13317              	.LASF57:
 13318 03d0 7061725F 		.ascii	"par_p2\000"
 13318      703200
 13319              	.LASF58:
 13320 03d7 7061725F 		.ascii	"par_p3\000"
 13320      703300
 13321              	.LASF59:
 13322 03de 7061725F 		.ascii	"par_p4\000"
 13322      703400
 13323              	.LASF16:
 13324 03e5 5F5F7569 		.ascii	"__uint64_t\000"
 13324      6E743634 
 13324      5F7400
 13325              	.LASF61:
 13326 03f0 7061725F 		.ascii	"par_p6\000"
 13326      703600
 13327              	.LASF62:
ARM GAS  C:\Users\CHRONI~1\AppData\Local\Temp\ccho61l0.s 			page 280


 13328 03f7 7061725F 		.ascii	"par_p7\000"
 13328      703700
 13329              	.LASF63:
 13330 03fe 7061725F 		.ascii	"par_p8\000"
 13330      703800
 13331              	.LASF64:
 13332 0405 7061725F 		.ascii	"par_p9\000"
 13332      703900
 13333              	.LASF179:
 13334 040c 6164635F 		.ascii	"adc_gas_res_low\000"
 13334      6761735F 
 13334      7265735F 
 13334      6C6F7700 
 13335              	.LASF201:
 13336 041c 6D656173 		.ascii	"meas_cycles\000"
 13336      5F637963 
 13336      6C657300 
 13337              	.LASF183:
 13338 0428 7365745F 		.ascii	"set_val\000"
 13338      76616C00 
 13339              	.LASF108:
 13340 0430 63616C63 		.ascii	"calc_humidity\000"
 13340      5F68756D 
 13340      69646974 
 13340      7900
 13341              	.LASF78:
 13342 043e 68656174 		.ascii	"heatr_dur\000"
 13342      725F6475 
 13342      7200
 13343              	.LASF138:
 13344 0448 696E6465 		.ascii	"index1\000"
 13344      783100
 13345              	.LASF139:
 13346 044f 696E6465 		.ascii	"index2\000"
 13346      783200
 13347              	.LASF195:
 13348 0456 6F647232 		.ascii	"odr20\000"
 13348      3000
 13349              	.LASF205:
 13350 045c 6E65775F 		.ascii	"new_fields\000"
 13350      6669656C 
 13350      647300
 13351              	.LASF212:
 13352 0467 6374726C 		.ascii	"ctrl_gas_addr\000"
 13352      5F676173 
 13352      5F616464 
 13352      7200
 13353              	.LASF97:
 13354 0475 63686172 		.ascii	"char\000"
 13354      00
 13355              	.LASF81:
 13356 047a 70726F66 		.ascii	"profile_len\000"
 13356      696C655F 
 13356      6C656E00 
 13357              	.LASF173:
 13358 0486 62756666 		.ascii	"buff\000"
 13358      00
ARM GAS  C:\Users\CHRONI~1\AppData\Local\Temp\ccho61l0.s 			page 281


 13359              	.LASF209:
 13360 048b 68637472 		.ascii	"hctrl\000"
 13360      6C00
 13361              	.LASF187:
 13362 0491 626D6536 		.ascii	"bme68x_get_conf\000"
 13362      38785F67 
 13362      65745F63 
 13362      6F6E6600 
 13363              	.LASF203:
 13364 04a1 626D6536 		.ascii	"bme68x_get_data\000"
 13364      38785F67 
 13364      65745F64 
 13364      61746100 
 13365              	.LASF129:
 13366 04b1 6E756C6C 		.ascii	"null_ptr_check\000"
 13366      5F707472 
 13366      5F636865 
 13366      636B00
 13367              	.LASF71:
 13368 04c0 6F735F68 		.ascii	"os_hum\000"
 13368      756D00
 13369              	.LASF149:
 13370 04c7 64617461 		.ascii	"data\000"
 13370      00
 13371              	.LASF119:
 13372 04cc 6C6F6F6B 		.ascii	"lookup_table1\000"
 13372      75705F74 
 13372      61626C65 
 13372      3100
 13373              	.LASF120:
 13374 04da 6C6F6F6B 		.ascii	"lookup_table2\000"
 13374      75705F74 
 13374      61626C65 
 13374      3200
 13375              	.LASF18:
 13376 04e8 75696E74 		.ascii	"uint8_t\000"
 13376      385F7400 
 13377              	.LASF31:
 13378 04f0 73746174 		.ascii	"status\000"
 13378      757300
 13379              	.LASF150:
 13380 04f7 6E5F6D65 		.ascii	"n_meas\000"
 13380      617300
 13381              	.LASF73:
 13382 04fe 6F735F70 		.ascii	"os_pres\000"
 13382      72657300 
 13383              	.LASF65:
 13384 0506 7061725F 		.ascii	"par_p10\000"
 13384      70313000 
 13385              	.LASF143:
 13386 050e 6C6F775F 		.ascii	"low_index\000"
 13386      696E6465 
 13386      7800
 13387              	.LASF66:
 13388 0518 745F6669 		.ascii	"t_fine\000"
 13388      6E6500
 13389              	.LASF126:
ARM GAS  C:\Users\CHRONI~1\AppData\Local\Temp\ccho61l0.s 			page 282


 13390 051f 63616C63 		.ascii	"calc_gas_wait\000"
 13390      5F676173 
 13390      5F776169 
 13390      7400
 13391              	.LASF131:
 13392 052d 7365745F 		.ascii	"set_mem_page\000"
 13392      6D656D5F 
 13392      70616765 
 13392      00
 13393              	.LASF118:
 13394 053a 63616C63 		.ascii	"calc_gas_res\000"
 13394      5F676173 
 13394      5F726573 
 13394      00
 13395              	.LASF121:
 13396 0547 63616C63 		.ascii	"calc_gas_resistance_high\000"
 13396      5F676173 
 13396      5F726573 
 13396      69737461 
 13396      6E63655F 
 13397              	.LASF87:
 13398 0560 696E7466 		.ascii	"intf\000"
 13398      00
 13399              	.LASF178:
 13400 0565 6164635F 		.ascii	"adc_hum\000"
 13400      68756D00 
 13401              	.LASF15:
 13402 056d 6C6F6E67 		.ascii	"long long int\000"
 13402      206C6F6E 
 13402      6720696E 
 13402      7400
 13403              	.LASF92:
 13404 057b 77726974 		.ascii	"write\000"
 13404      6500
 13405              	.LASF50:
 13406 0581 7061725F 		.ascii	"par_gh1\000"
 13406      67683100 
 13407              	.LASF51:
 13408 0589 7061725F 		.ascii	"par_gh2\000"
 13408      67683200 
 13409              	.LASF52:
 13410 0591 7061725F 		.ascii	"par_gh3\000"
 13410      67683300 
 13411              	.LASF202:
 13412 0599 6F735F74 		.ascii	"os_to_meas_cycles\000"
 13412      6F5F6D65 
 13412      61735F63 
 13412      79636C65 
 13412      7300
 13413              	.LASF134:
 13414 05ab 626F756E 		.ascii	"boundary_check\000"
 13414      64617279 
 13414      5F636865 
 13414      636B00
 13415              	.LASF70:
 13416 05ba 626D6536 		.ascii	"bme68x_conf\000"
 13416      38785F63 
ARM GAS  C:\Users\CHRONI~1\AppData\Local\Temp\ccho61l0.s 			page 283


 13416      6F6E6600 
 13417              	.LASF161:
 13418 05c6 77726974 		.ascii	"write_len\000"
 13418      655F6C65 
 13418      6E00
 13419              	.LASF6:
 13420 05d0 5F5F696E 		.ascii	"__int16_t\000"
 13420      7431365F 
 13420      7400
 13421              	.LASF191:
 13422 05da 706F775F 		.ascii	"pow_mode\000"
 13422      6D6F6465 
 13422      00
 13423              	.LASF99:
 13424 05e3 76617231 		.ascii	"var1\000"
 13424      00
 13425              	.LASF105:
 13426 05e8 76617232 		.ascii	"var2\000"
 13426      00
 13427              	.LASF100:
 13428 05ed 76617233 		.ascii	"var3\000"
 13428      00
 13429              	.LASF110:
 13430 05f2 76617234 		.ascii	"var4\000"
 13430      00
 13431              	.LASF111:
 13432 05f7 76617235 		.ascii	"var5\000"
 13432      00
 13433              	.LASF112:
 13434 05fc 76617236 		.ascii	"var6\000"
 13434      00
 13435              	.LASF176:
 13436 0601 6164635F 		.ascii	"adc_temp\000"
 13436      74656D70 
 13436      00
 13437              	.LASF172:
 13438 060a 72656164 		.ascii	"read_field_data\000"
 13438      5F666965 
 13438      6C645F64 
 13438      61746100 
 13439              	.LASF36:
 13440 061a 6761735F 		.ascii	"gas_wait\000"
 13440      77616974 
 13440      00
 13441              	.LASF85:
 13442 0623 696E7466 		.ascii	"intf_ptr\000"
 13442      5F707472 
 13442      00
 13443              	.LASF28:
 13444 062c 626D6536 		.ascii	"bme68x_delay_us_fptr_t\000"
 13444      38785F64 
 13444      656C6179 
 13444      5F75735F 
 13444      66707472 
 13445              	.LASF142:
 13446 0643 736F7274 		.ascii	"sort_sensor_data\000"
 13446      5F73656E 
ARM GAS  C:\Users\CHRONI~1\AppData\Local\Temp\ccho61l0.s 			page 284


 13446      736F725F 
 13446      64617461 
 13446      00
 13447              	.LASF3:
 13448 0654 5F5F696E 		.ascii	"__int8_t\000"
 13448      74385F74 
 13448      00
 13449              	.LASF68:
 13450 065d 7265735F 		.ascii	"res_heat_val\000"
 13450      68656174 
 13450      5F76616C 
 13450      00
 13451              	.LASF159:
 13452 066a 6E625F63 		.ascii	"nb_conv\000"
 13452      6F6E7600 
 13453              	.LASF53:
 13454 0672 7061725F 		.ascii	"par_t1\000"
 13454      743100
 13455              	.LASF54:
 13456 0679 7061725F 		.ascii	"par_t2\000"
 13456      743200
 13457              	.LASF14:
 13458 0680 5F5F696E 		.ascii	"__int64_t\000"
 13458      7436345F 
 13458      7400
 13459              	.LASF25:
 13460 068a 6C6F6E67 		.ascii	"long double\000"
 13460      20646F75 
 13460      626C6500 
 13461              	.LASF20:
 13462 0696 75696E74 		.ascii	"uint16_t\000"
 13462      31365F74 
 13462      00
 13463              	.LASF216:
 13464 069f 745F6465 		.ascii	"t_dev\000"
 13464      7600
 13465              	.LASF137:
 13466 06a5 68656174 		.ascii	"heatdurval\000"
 13466      64757276 
 13466      616C00
 13467              	.LASF29:
 13468 06b0 424D4536 		.ascii	"BME68X_SPI_INTF\000"
 13468      38585F53 
 13468      50495F49 
 13468      4E544600 
 13469              	.LASF158:
 13470 06c0 6F705F6D 		.ascii	"op_mode\000"
 13470      6F646500 
 13471              	.LASF104:
 13472 06c8 70726573 		.ascii	"pres_adc\000"
 13472      5F616463 
 13472      00
 13473              	.LASF162:
 13474 06d1 68656174 		.ascii	"heater_dur_shared_addr\000"
 13474      65725F64 
 13474      75725F73 
 13474      68617265 
ARM GAS  C:\Users\CHRONI~1\AppData\Local\Temp\ccho61l0.s 			page 285


 13474      645F6164 
 13475              	.LASF214:
 13476 06e8 626D6536 		.ascii	"bme68x_selftest_check\000"
 13476      38785F73 
 13476      656C6674 
 13476      6573745F 
 13476      63686563 
 13477              	.LASF95:
 13478 06fe 696E666F 		.ascii	"info_msg\000"
 13478      5F6D7367 
 13478      00
 13479              	.LASF210:
 13480 0707 72756E5F 		.ascii	"run_gas\000"
 13480      67617300 
 13481              	.LASF160:
 13482 070f 73686172 		.ascii	"shared_dur\000"
 13482      65645F64 
 13482      757200
 13483              	.LASF152:
 13484 071a 63656E74 		.ascii	"cent_res\000"
 13484      5F726573 
 13484      00
 13485              	.LASF30:
 13486 0723 424D4536 		.ascii	"BME68X_I2C_INTF\000"
 13486      38585F49 
 13486      32435F49 
 13486      4E544600 
 13487              	.LASF7:
 13488 0733 73686F72 		.ascii	"short int\000"
 13488      7420696E 
 13488      7400
 13489              	.LASF174:
 13490 073d 6761735F 		.ascii	"gas_range_l\000"
 13490      72616E67 
 13490      655F6C00 
 13491              	.LASF148:
 13492 0749 616E616C 		.ascii	"analyze_sensor_data\000"
 13492      797A655F 
 13492      73656E73 
 13492      6F725F64 
 13492      61746100 
 13493              	.LASF132:
 13494 075d 7265675F 		.ascii	"reg_addr\000"
 13494      61646472 
 13494      00
 13495              	.LASF219:
 13496 0766 53656E73 		.ascii	"SensorLib\\bme688\\bme68x.c\000"
 13496      6F724C69 
 13496      625C626D 
 13496      65363838 
 13496      5C626D65 
 13497              	.LASF11:
 13498 0780 6C6F6E67 		.ascii	"long int\000"
 13498      20696E74 
 13498      00
 13499              	.LASF130:
 13500 0789 72736C74 		.ascii	"rslt\000"
ARM GAS  C:\Users\CHRONI~1\AppData\Local\Temp\ccho61l0.s 			page 286


 13500      00
 13501              	.LASF147:
 13502 078e 64696666 		.ascii	"diff\000"
 13502      00
 13503              	.LASF74:
 13504 0793 66696C74 		.ascii	"filter\000"
 13504      657200
 13505              	.LASF165:
 13506 079a 67775F72 		.ascii	"gw_reg_addr\000"
 13506      65675F61 
 13506      64647200 
 13507              	.LASF24:
 13508 07a6 75696E74 		.ascii	"uint64_t\000"
 13508      36345F74 
 13508      00
 13509              	.LASF207:
 13510 07af 6669656C 		.ascii	"field_data\000"
 13510      645F6461 
 13510      746100
 13511              	.LASF125:
 13512 07ba 68656174 		.ascii	"heatr_res_x100\000"
 13512      725F7265 
 13512      735F7831 
 13512      303000
 13513              	.LASF32:
 13514 07c9 6761735F 		.ascii	"gas_index\000"
 13514      696E6465 
 13514      7800
 13515              	.LASF76:
 13516 07d3 656E6162 		.ascii	"enable\000"
 13516      6C6500
 13517              	.LASF141:
 13518 07da 73776170 		.ascii	"swap_fields\000"
 13518      5F666965 
 13518      6C647300 
 13519              	.LASF4:
 13520 07e6 5F5F7569 		.ascii	"__uint8_t\000"
 13520      6E74385F 
 13520      7400
 13521              	.LASF91:
 13522 07f0 72656164 		.ascii	"read\000"
 13522      00
 13523              	.LASF26:
 13524 07f5 626D6536 		.ascii	"bme68x_read_fptr_t\000"
 13524      38785F72 
 13524      6561645F 
 13524      66707472 
 13524      5F7400
 13525              	.LASF98:
 13526 0808 74656D70 		.ascii	"temp_adc\000"
 13526      5F616463 
 13526      00
 13527              	.LASF169:
 13528 0811 72656164 		.ascii	"read_variant_id\000"
 13528      5F766172 
 13528      69616E74 
 13528      5F696400 
ARM GAS  C:\Users\CHRONI~1\AppData\Local\Temp\ccho61l0.s 			page 287


 13529              	.LASF96:
 13530 0821 73697A65 		.ascii	"sizetype\000"
 13530      74797065 
 13530      00
 13531              	.LASF13:
 13532 082a 6C6F6E67 		.ascii	"long unsigned int\000"
 13532      20756E73 
 13532      69676E65 
 13532      6420696E 
 13532      7400
 13533              	.LASF164:
 13534 083c 72685F72 		.ascii	"rh_reg_data\000"
 13534      65675F64 
 13534      61746100 
 13535              	.LASF196:
 13536 0848 6F647233 		.ascii	"odr3\000"
 13536      00
 13537              	.LASF21:
 13538 084d 696E7433 		.ascii	"int32_t\000"
 13538      325F7400 
 13539              	.LASF156:
 13540 0855 7365745F 		.ascii	"set_conf\000"
 13540      636F6E66 
 13540      00
 13541              	.LASF211:
 13542 085e 6374726C 		.ascii	"ctrl_gas_data\000"
 13542      5F676173 
 13542      5F646174 
 13542      6100
 13543              	.LASF154:
 13544 086c 746D705F 		.ascii	"tmp_buff\000"
 13544      62756666 
 13544      00
 13545              	.LASF194:
 13546 0875 626D6536 		.ascii	"bme68x_set_conf\000"
 13546      38785F73 
 13546      65745F63 
 13546      6F6E6600 
 13547              	.LASF83:
 13548 0885 626D6536 		.ascii	"bme68x_dev\000"
 13548      38785F64 
 13548      657600
 13549              	.LASF43:
 13550 0890 7061725F 		.ascii	"par_h1\000"
 13550      683100
 13551              	.LASF5:
 13552 0897 756E7369 		.ascii	"unsigned char\000"
 13552      676E6564 
 13552      20636861 
 13552      7200
 13553              	.LASF45:
 13554 08a5 7061725F 		.ascii	"par_h3\000"
 13554      683300
 13555              	.LASF46:
 13556 08ac 7061725F 		.ascii	"par_h4\000"
 13556      683400
 13557              	.LASF47:
ARM GAS  C:\Users\CHRONI~1\AppData\Local\Temp\ccho61l0.s 			page 288


 13558 08b3 7061725F 		.ascii	"par_h5\000"
 13558      683500
 13559              	.LASF12:
 13560 08ba 5F5F7569 		.ascii	"__uint32_t\000"
 13560      6E743332 
 13560      5F7400
 13561              	.LASF49:
 13562 08c5 7061725F 		.ascii	"par_h7\000"
 13562      683700
 13563              	.LASF102:
 13564 08cc 63616C63 		.ascii	"calc_temperature\000"
 13564      5F74656D 
 13564      70657261 
 13564      74757265 
 13564      00
 13565              	.LASF55:
 13566 08dd 7061725F 		.ascii	"par_t3\000"
 13566      743300
 13567              	.LASF42:
 13568 08e4 626D6536 		.ascii	"bme68x_calib_data\000"
 13568      38785F63 
 13568      616C6962 
 13568      5F646174 
 13568      6100
 13569              	.LASF115:
 13570 08f6 63616C63 		.ascii	"calc_gas_resistance_low\000"
 13570      5F676173 
 13570      5F726573 
 13570      69737461 
 13570      6E63655F 
 13571              	.LASF177:
 13572 090e 6164635F 		.ascii	"adc_pres\000"
 13572      70726573 
 13572      00
 13573              	.LASF89:
 13574 0917 616D625F 		.ascii	"amb_temp\000"
 13574      74656D70 
 13574      00
 13575              	.LASF170:
 13576 0920 6765745F 		.ascii	"get_calib_data\000"
 13576      63616C69 
 13576      625F6461 
 13576      746100
 13577              	.LASF184:
 13578 092f 626D6536 		.ascii	"bme68x_soft_reset\000"
 13578      38785F73 
 13578      6F66745F 
 13578      72657365 
 13578      7400
 13579              	.LASF124:
 13580 0941 68656174 		.ascii	"heatr_res\000"
 13580      725F7265 
 13580      7300
 13581              	.LASF82:
 13582 094b 73686172 		.ascii	"shared_heatr_dur\000"
 13582      65645F68 
 13582      65617472 
ARM GAS  C:\Users\CHRONI~1\AppData\Local\Temp\ccho61l0.s 			page 289


 13582      5F647572 
 13582      00
 13583              	.LASF93:
 13584 095c 64656C61 		.ascii	"delay_us\000"
 13584      795F7573 
 13584      00
 13585              	.LASF190:
 13586 0965 746D705F 		.ascii	"tmp_pow_mode\000"
 13586      706F775F 
 13586      6D6F6465 
 13586      00
 13587              	.LASF204:
 13588 0972 6E5F6461 		.ascii	"n_data\000"
 13588      746100
 13589              	.LASF2:
 13590 0979 7369676E 		.ascii	"signed char\000"
 13590      65642063 
 13590      68617200 
 13591              	.LASF106:
 13592 0985 70726573 		.ascii	"pressure_comp\000"
 13592      73757265 
 13592      5F636F6D 
 13592      7000
 13593              	.LASF9:
 13594 0993 73686F72 		.ascii	"short unsigned int\000"
 13594      7420756E 
 13594      7369676E 
 13594      65642069 
 13594      6E7400
 13595              	.LASF86:
 13596 09a6 76617269 		.ascii	"variant_id\000"
 13596      616E745F 
 13596      696400
 13597              	.LASF197:
 13598 09b1 63757272 		.ascii	"current_op_mode\000"
 13598      656E745F 
 13598      6F705F6D 
 13598      6F646500 
 13599              	.LASF77:
 13600 09c1 68656174 		.ascii	"heatr_temp\000"
 13600      725F7465 
 13600      6D7000
 13601              	.LASF41:
 13602 09cc 626D6536 		.ascii	"bme68x_data\000"
 13602      38785F64 
 13602      61746100 
 13603              	.LASF103:
 13604 09d8 63616C63 		.ascii	"calc_pressure\000"
 13604      5F707265 
 13604      73737572 
 13604      6500
 13605              	.LASF101:
 13606 09e6 63616C63 		.ascii	"calc_temp\000"
 13606      5F74656D 
 13606      7000
 13607              	.LASF107:
 13608 09f0 70726573 		.ascii	"pres_ovf_check\000"
ARM GAS  C:\Users\CHRONI~1\AppData\Local\Temp\ccho61l0.s 			page 290


 13608      5F6F7666 
 13608      5F636865 
 13608      636B00
 13609              	.LASF127:
 13610 09ff 66616374 		.ascii	"factor\000"
 13610      6F7200
 13611              	.LASF39:
 13612 0a06 68756D69 		.ascii	"humidity\000"
 13612      64697479 
 13612      00
 13613              	.LASF67:
 13614 0a0f 7265735F 		.ascii	"res_heat_range\000"
 13614      68656174 
 13614      5F72616E 
 13614      676500
 13615              	.LASF221:
 13616 0a1e 626D6536 		.ascii	"bme68x_intf\000"
 13616      38785F69 
 13616      6E746600 
 13617              	.LASF182:
 13618 0a2a 72656164 		.ascii	"read_all_field_data\000"
 13618      5F616C6C 
 13618      5F666965 
 13618      6C645F64 
 13618      61746100 
 13619              	.LASF94:
 13620 0a3e 696E7466 		.ascii	"intf_rslt\000"
 13620      5F72736C 
 13620      7400
 13621              	.LASF180:
 13622 0a48 6164635F 		.ascii	"adc_gas_res_high\000"
 13622      6761735F 
 13622      7265735F 
 13622      68696768 
 13622      00
 13623              	.LASF114:
 13624 0a59 63616C63 		.ascii	"calc_hum\000"
 13624      5F68756D 
 13624      00
 13625              		.ident	"GCC: (GNU Tools for ARM Embedded Processors) 5.4.1 20160609 (release) [ARM/embedded-5-bran
