ARM GAS  C:\Users\CHRONI~1\AppData\Local\Temp\cc6qo0cY.s 			page 1


   1              		.syntax unified
   2              		.cpu cortex-m3
   3              		.fpu softvfp
   4              		.eabi_attribute 20, 1
   5              		.eabi_attribute 21, 1
   6              		.eabi_attribute 23, 3
   7              		.eabi_attribute 24, 1
   8              		.eabi_attribute 25, 1
   9              		.eabi_attribute 26, 1
  10              		.eabi_attribute 30, 1
  11              		.eabi_attribute 34, 1
  12              		.eabi_attribute 18, 4
  13              		.thumb
  14              		.syntax unified
  15              		.file	"bsp.c"
  16              		.text
  17              	.Ltext0:
  18              		.cfi_sections	.debug_frame
  19              		.section	.text.BSP_PreInit,"ax",%progbits
  20              		.align	2
  21              		.global	BSP_PreInit
  22              		.thumb
  23              		.thumb_func
  24              		.type	BSP_PreInit, %function
  25              	BSP_PreInit:
  26              	.LFB64:
  27              		.file 1 "BSP\\bsp.c"
   1:BSP/bsp.c     **** /*
   2:BSP/bsp.c     **** ***************************************************************************************************
   3:BSP/bsp.c     **** *                                     MICIRUM BOARD SUPPORT PACKAGE
   4:BSP/bsp.c     **** *
   5:BSP/bsp.c     **** *                             (c) Copyright 2012; Micrium, Inc.; Weston, FL
   6:BSP/bsp.c     **** *
   7:BSP/bsp.c     **** *               All rights reserved.  Protected by international copyright laws.
   8:BSP/bsp.c     **** *               Knowledge of the source code may NOT be used to develop a similar product.
   9:BSP/bsp.c     **** *               Please help us continue to provide the Embedded community with the finest
  10:BSP/bsp.c     **** *               software available.  Your honesty is greatly appreciated.
  11:BSP/bsp.c     **** ***************************************************************************************************
  12:BSP/bsp.c     **** */
  13:BSP/bsp.c     **** 
  14:BSP/bsp.c     **** /*
  15:BSP/bsp.c     **** ***************************************************************************************************
  16:BSP/bsp.c     **** *
  17:BSP/bsp.c     **** *                                        BOARD SUPPORT PACKAGE
  18:BSP/bsp.c     **** *
  19:BSP/bsp.c     **** *                                           CYPRESS PSoC5
  20:BSP/bsp.c     **** *                                              with the
  21:BSP/bsp.c     **** *                                     CY8CKIT-050 Development Kit
  22:BSP/bsp.c     **** *
  23:BSP/bsp.c     **** * Filename      : bsp.c
  24:BSP/bsp.c     **** * Version       : V1.00
  25:BSP/bsp.c     **** * Programmer(s) : DC
  26:BSP/bsp.c     **** ***************************************************************************************************
  27:BSP/bsp.c     **** */
  28:BSP/bsp.c     **** 
  29:BSP/bsp.c     **** /*
  30:BSP/bsp.c     **** ***************************************************************************************************
ARM GAS  C:\Users\CHRONI~1\AppData\Local\Temp\cc6qo0cY.s 			page 2


  31:BSP/bsp.c     **** *                                             INCLUDE FILES
  32:BSP/bsp.c     **** ***************************************************************************************************
  33:BSP/bsp.c     **** */
  34:BSP/bsp.c     **** 
  35:BSP/bsp.c     **** #define  BSP_MODULE
  36:BSP/bsp.c     **** #include <bsp.h>
  37:BSP/bsp.c     **** #include <bsp_psoc.h>
  38:BSP/bsp.c     **** 
  39:BSP/bsp.c     **** #include <bsp_uart.h>
  40:BSP/bsp.c     **** #include <bsp_gpio.h>
  41:BSP/bsp.c     **** 
  42:BSP/bsp.c     **** 
  43:BSP/bsp.c     **** /*
  44:BSP/bsp.c     **** ***************************************************************************************************
  45:BSP/bsp.c     **** *                                            LOCAL DEFINES
  46:BSP/bsp.c     **** ***************************************************************************************************
  47:BSP/bsp.c     **** */
  48:BSP/bsp.c     **** 
  49:BSP/bsp.c     **** 
  50:BSP/bsp.c     **** /*
  51:BSP/bsp.c     **** ***************************************************************************************************
  52:BSP/bsp.c     **** *                                           LOCAL CONSTANTS
  53:BSP/bsp.c     **** ***************************************************************************************************
  54:BSP/bsp.c     **** */
  55:BSP/bsp.c     ****                                                                   
  56:BSP/bsp.c     **** 
  57:BSP/bsp.c     **** /*
  58:BSP/bsp.c     **** ***************************************************************************************************
  59:BSP/bsp.c     **** *                                          LOCAL DATA TYPES
  60:BSP/bsp.c     **** ***************************************************************************************************
  61:BSP/bsp.c     **** */
  62:BSP/bsp.c     **** 
  63:BSP/bsp.c     **** 
  64:BSP/bsp.c     **** /*
  65:BSP/bsp.c     **** ***************************************************************************************************
  66:BSP/bsp.c     **** *                                            LOCAL TABLES
  67:BSP/bsp.c     **** ***************************************************************************************************
  68:BSP/bsp.c     **** */
  69:BSP/bsp.c     **** 
  70:BSP/bsp.c     **** 
  71:BSP/bsp.c     **** /*
  72:BSP/bsp.c     **** ***************************************************************************************************
  73:BSP/bsp.c     **** *                                       LOCAL GLOBAL VARIABLES
  74:BSP/bsp.c     **** ***************************************************************************************************
  75:BSP/bsp.c     **** */
  76:BSP/bsp.c     **** 
  77:BSP/bsp.c     **** 
  78:BSP/bsp.c     **** 
  79:BSP/bsp.c     **** /*
  80:BSP/bsp.c     **** ***************************************************************************************************
  81:BSP/bsp.c     **** *                                      LOCAL FUNCTION PROTOTYPES
  82:BSP/bsp.c     **** ***************************************************************************************************
  83:BSP/bsp.c     **** */
  84:BSP/bsp.c     **** 
  85:BSP/bsp.c     **** 
  86:BSP/bsp.c     **** /*
  87:BSP/bsp.c     **** ***************************************************************************************************
ARM GAS  C:\Users\CHRONI~1\AppData\Local\Temp\cc6qo0cY.s 			page 3


  88:BSP/bsp.c     **** *                                            REGISTER BITS
  89:BSP/bsp.c     **** ***************************************************************************************************
  90:BSP/bsp.c     **** */
  91:BSP/bsp.c     **** 
  92:BSP/bsp.c     **** 
  93:BSP/bsp.c     **** /*
  94:BSP/bsp.c     **** ***************************************************************************************************
  95:BSP/bsp.c     **** *                                     LOCAL CONFIGURATION ERRORS
  96:BSP/bsp.c     **** ***************************************************************************************************
  97:BSP/bsp.c     **** */
  98:BSP/bsp.c     **** 
  99:BSP/bsp.c     **** 
 100:BSP/bsp.c     **** /*
 101:BSP/bsp.c     **** ***************************************************************************************************
 102:BSP/bsp.c     **** *                                             BSP_PreInit()
 103:BSP/bsp.c     **** *
 104:BSP/bsp.c     **** * Description : Board support package pre-initialization funtion.
 105:BSP/bsp.c     **** *
 106:BSP/bsp.c     **** * Argument(s) : none.
 107:BSP/bsp.c     **** *
 108:BSP/bsp.c     **** * Return(s)   : none.
 109:BSP/bsp.c     **** *
 110:BSP/bsp.c     **** * Caller(s)   : Application.
 111:BSP/bsp.c     **** *
 112:BSP/bsp.c     **** * Note(s)     : (1) This funtion initializes peripherals required before the OS is initialized (e.g
 113:BSP/bsp.c     **** *                   external memory.
 114:BSP/bsp.c     **** ***************************************************************************************************
 115:BSP/bsp.c     **** */
 116:BSP/bsp.c     **** 
 117:BSP/bsp.c     **** 
 118:BSP/bsp.c     **** void BSP_PreInit (void)
 119:BSP/bsp.c     **** {
  28              		.loc 1 119 0
  29              		.cfi_startproc
  30              		@ args = 0, pretend = 0, frame = 0
  31              		@ frame_needed = 0, uses_anonymous_args = 0
  32              		@ link register save eliminated.
 120:BSP/bsp.c     ****     CPU_INT32U  reg_val;
 121:BSP/bsp.c     ****     CPU_INT32U *p_vect_tbl;
 122:BSP/bsp.c     ****     
 123:BSP/bsp.c     ****     
 124:BSP/bsp.c     ****     reg_val = CPU_REG_NVIC_VTOR;                                   /* Get the NVIC offset table    
  33              		.loc 1 124 0
  34 0000 044B     		ldr	r3, .L2
  35 0002 1B68     		ldr	r3, [r3]
  36              	.LVL0:
 125:BSP/bsp.c     ****     DEF_BIT_CLR(reg_val, DEF_BIT_29);                              /* Clear the TBLBASE bit        
  37              		.loc 1 125 0
  38 0004 23F00053 		bic	r3, r3, #536870912
  39              	.LVL1:
 126:BSP/bsp.c     ****     
 127:BSP/bsp.c     ****      
 128:BSP/bsp.c     ****     p_vect_tbl                  = (CPU_INT32U *)reg_val;           
 129:BSP/bsp.c     ****                                                                    /* Install the PendSV & Systick 
 130:BSP/bsp.c     ****     p_vect_tbl[CPU_INT_PENDSV]  = (CPU_INT32U  )OS_CPU_PendSVHandler;
  40              		.loc 1 130 0
  41 0008 034A     		ldr	r2, .L2+4
ARM GAS  C:\Users\CHRONI~1\AppData\Local\Temp\cc6qo0cY.s 			page 4


  42 000a 9A63     		str	r2, [r3, #56]
 131:BSP/bsp.c     ****     p_vect_tbl[CPU_INT_SYSTICK] = (CPU_INT32U  )OS_CPU_SysTickHandler;
  43              		.loc 1 131 0
  44 000c 034A     		ldr	r2, .L2+8
  45 000e DA63     		str	r2, [r3, #60]
  46 0010 7047     		bx	lr
  47              	.L3:
  48 0012 00BF     		.align	2
  49              	.L2:
  50 0014 08ED00E0 		.word	-536810232
  51 0018 00000000 		.word	OS_CPU_PendSVHandler
  52 001c 00000000 		.word	OS_CPU_SysTickHandler
  53              		.cfi_endproc
  54              	.LFE64:
  55              		.size	BSP_PreInit, .-BSP_PreInit
  56              		.section	.text.BSP_PostInit,"ax",%progbits
  57              		.align	2
  58              		.global	BSP_PostInit
  59              		.thumb
  60              		.thumb_func
  61              		.type	BSP_PostInit, %function
  62              	BSP_PostInit:
  63              	.LFB65:
 132:BSP/bsp.c     **** }
 133:BSP/bsp.c     **** 
 134:BSP/bsp.c     **** 
 135:BSP/bsp.c     **** /*
 136:BSP/bsp.c     **** ***************************************************************************************************
 137:BSP/bsp.c     **** *                                               BSP_PostInit()
 138:BSP/bsp.c     **** *
 139:BSP/bsp.c     **** * Description : Board Support Package Post initialization.
 140:BSP/bsp.c     **** *
 141:BSP/bsp.c     **** * Argument(s) : none.
 142:BSP/bsp.c     **** *
 143:BSP/bsp.c     **** * Return(s)   : none.
 144:BSP/bsp.c     **** *
 145:BSP/bsp.c     **** * Caller(s)   : Application.
 146:BSP/bsp.c     **** *
 147:BSP/bsp.c     **** * Note(s)     : (1) This funtion initilize peripherlas that requires the OS to be initialized.
 148:BSP/bsp.c     **** ***************************************************************************************************
 149:BSP/bsp.c     **** */
 150:BSP/bsp.c     **** 
 151:BSP/bsp.c     **** void  BSP_PostInit (void)
 152:BSP/bsp.c     **** {
  64              		.loc 1 152 0
  65              		.cfi_startproc
  66              		@ args = 0, pretend = 0, frame = 0
  67              		@ frame_needed = 0, uses_anonymous_args = 0
  68 0000 08B5     		push	{r3, lr}
  69              		.cfi_def_cfa_offset 8
  70              		.cfi_offset 3, -8
  71              		.cfi_offset 14, -4
 153:BSP/bsp.c     ****     init_uart();
  72              		.loc 1 153 0
  73 0002 FFF7FEFF 		bl	init_uart
  74              	.LVL2:
  75 0006 08BD     		pop	{r3, pc}
ARM GAS  C:\Users\CHRONI~1\AppData\Local\Temp\cc6qo0cY.s 			page 5


  76              		.cfi_endproc
  77              	.LFE65:
  78              		.size	BSP_PostInit, .-BSP_PostInit
  79              		.section	.text.BSP_CPU_ClkFreq,"ax",%progbits
  80              		.align	2
  81              		.global	BSP_CPU_ClkFreq
  82              		.thumb
  83              		.thumb_func
  84              		.type	BSP_CPU_ClkFreq, %function
  85              	BSP_CPU_ClkFreq:
  86              	.LFB67:
 154:BSP/bsp.c     **** }
 155:BSP/bsp.c     **** 
 156:BSP/bsp.c     **** 
 157:BSP/bsp.c     **** /*
 158:BSP/bsp.c     **** ***************************************************************************************************
 159:BSP/bsp.c     **** *                                       BSP_CPU_TickInit()
 160:BSP/bsp.c     **** *
 161:BSP/bsp.c     **** * Description : This function reads CPU registers to determine the CPU clock frequency of the chip 
 162:BSP/bsp.c     **** *
 163:BSP/bsp.c     **** * Argument(s) : none.
 164:BSP/bsp.c     **** *
 165:BSP/bsp.c     **** * Return(s)   : none.
 166:BSP/bsp.c     **** *
 167:BSP/bsp.c     **** * Caller(s)   : Application.
 168:BSP/bsp.c     **** *
 169:BSP/bsp.c     **** * Note(s)     : none.
 170:BSP/bsp.c     **** ***************************************************************************************************
 171:BSP/bsp.c     **** */
 172:BSP/bsp.c     **** void  BSP_CPU_TickInit  (void)
 173:BSP/bsp.c     **** {
 174:BSP/bsp.c     ****     CPU_INT32U   cpu_clk_freq;
 175:BSP/bsp.c     ****     CPU_INT32U   cnts;
 176:BSP/bsp.c     ****     
 177:BSP/bsp.c     ****     cpu_clk_freq = BSP_CPU_ClkFreq();                             /* Determine SysTick reference fr
 178:BSP/bsp.c     **** #if (OS_VERSION > 30000u)                                         /* Determine nbr SysTick incremen
 179:BSP/bsp.c     ****     cnts         = (cpu_clk_freq / OSCfg_TickRate_Hz);
 180:BSP/bsp.c     **** #else
 181:BSP/bsp.c     ****     cnts         = (cpu_clk_freq / OS_TICKS_PER_SEC);
 182:BSP/bsp.c     **** #endif
 183:BSP/bsp.c     ****     OS_CPU_SysTickInit(cnts);                                     /* Init uC/OS periodic time src (
 184:BSP/bsp.c     ****     
 185:BSP/bsp.c     **** }
 186:BSP/bsp.c     **** 
 187:BSP/bsp.c     **** /*
 188:BSP/bsp.c     **** ***************************************************************************************************
 189:BSP/bsp.c     **** *                                            BSP_CPU_ClkFreq()
 190:BSP/bsp.c     **** *
 191:BSP/bsp.c     **** * Description : Read CPU registers to determine the CPU clock frequency of the chip.
 192:BSP/bsp.c     **** *
 193:BSP/bsp.c     **** * Argument(s) : none.
 194:BSP/bsp.c     **** *
 195:BSP/bsp.c     **** * Return(s)   : The CPU clock frequency, in Hz.
 196:BSP/bsp.c     **** *
 197:BSP/bsp.c     **** * Caller(s)   : Application.
 198:BSP/bsp.c     **** *
 199:BSP/bsp.c     **** * Note(s)     : none.
ARM GAS  C:\Users\CHRONI~1\AppData\Local\Temp\cc6qo0cY.s 			page 6


 200:BSP/bsp.c     **** ***************************************************************************************************
 201:BSP/bsp.c     **** */
 202:BSP/bsp.c     **** 
 203:BSP/bsp.c     **** CPU_INT32U  BSP_CPU_ClkFreq (void)
 204:BSP/bsp.c     **** {
  87              		.loc 1 204 0
  88              		.cfi_startproc
  89              		@ args = 0, pretend = 0, frame = 0
  90              		@ frame_needed = 0, uses_anonymous_args = 0
  91              		@ link register save eliminated.
 205:BSP/bsp.c     ****     return ((CPU_INT32U)BSP_PSOC_CPU_FREQ);
 206:BSP/bsp.c     **** }
  92              		.loc 1 206 0
  93 0000 0048     		ldr	r0, .L7
  94 0002 7047     		bx	lr
  95              	.L8:
  96              		.align	2
  97              	.L7:
  98 0004 00366E01 		.word	24000000
  99              		.cfi_endproc
 100              	.LFE67:
 101              		.size	BSP_CPU_ClkFreq, .-BSP_CPU_ClkFreq
 102              		.section	.text.BSP_CPU_TickInit,"ax",%progbits
 103              		.align	2
 104              		.global	BSP_CPU_TickInit
 105              		.thumb
 106              		.thumb_func
 107              		.type	BSP_CPU_TickInit, %function
 108              	BSP_CPU_TickInit:
 109              	.LFB66:
 173:BSP/bsp.c     ****     CPU_INT32U   cpu_clk_freq;
 110              		.loc 1 173 0
 111              		.cfi_startproc
 112              		@ args = 0, pretend = 0, frame = 0
 113              		@ frame_needed = 0, uses_anonymous_args = 0
 114 0000 08B5     		push	{r3, lr}
 115              		.cfi_def_cfa_offset 8
 116              		.cfi_offset 3, -8
 117              		.cfi_offset 14, -4
 177:BSP/bsp.c     **** #if (OS_VERSION > 30000u)                                         /* Determine nbr SysTick incremen
 118              		.loc 1 177 0
 119 0002 FFF7FEFF 		bl	BSP_CPU_ClkFreq
 120              	.LVL3:
 179:BSP/bsp.c     **** #else
 121              		.loc 1 179 0
 122 0006 034B     		ldr	r3, .L11
 123 0008 1B68     		ldr	r3, [r3]
 124              	.LVL4:
 183:BSP/bsp.c     ****     
 125              		.loc 1 183 0
 126 000a B0FBF3F0 		udiv	r0, r0, r3
 127              	.LVL5:
 128 000e FFF7FEFF 		bl	OS_CPU_SysTickInit
 129              	.LVL6:
 130 0012 08BD     		pop	{r3, pc}
 131              	.L12:
 132              		.align	2
ARM GAS  C:\Users\CHRONI~1\AppData\Local\Temp\cc6qo0cY.s 			page 7


 133              	.L11:
 134 0014 00000000 		.word	OSCfg_TickRate_Hz
 135              		.cfi_endproc
 136              	.LFE66:
 137              		.size	BSP_CPU_TickInit, .-BSP_CPU_TickInit
 138              		.section	.text.BSP_LED_On,"ax",%progbits
 139              		.align	2
 140              		.global	BSP_LED_On
 141              		.thumb
 142              		.thumb_func
 143              		.type	BSP_LED_On, %function
 144              	BSP_LED_On:
 145              	.LFB68:
 207:BSP/bsp.c     **** 
 208:BSP/bsp.c     **** 
 209:BSP/bsp.c     **** /*
 210:BSP/bsp.c     **** ***************************************************************************************************
 211:BSP/bsp.c     **** ***************************************************************************************************
 212:BSP/bsp.c     **** *                                              LED FUNCTIONS
 213:BSP/bsp.c     **** ***************************************************************************************************
 214:BSP/bsp.c     **** ***************************************************************************************************
 215:BSP/bsp.c     **** */
 216:BSP/bsp.c     **** 
 217:BSP/bsp.c     **** 
 218:BSP/bsp.c     **** /*
 219:BSP/bsp.c     **** ***************************************************************************************************
 220:BSP/bsp.c     **** *                                             BSP_LED_On()
 221:BSP/bsp.c     **** *
 222:BSP/bsp.c     **** * Description : Turn ON any pin on the board.
 223:BSP/bsp.c     **** *
 224:BSP/bsp.c     **** * Argument(s) : led     The ID of the pin to control:
 225:BSP/bsp.c     **** *
 226:BSP/bsp.c     **** *                       P1_6    turns ON P1_6 on J1 Pin 23 on the board
 227:BSP/bsp.c     **** *                       P2_0    turns ON P2_0 on J1 Pin  1 on the board
 228:BSP/bsp.c     **** *                       P2_1    turns ON P2_1 on J1 Pin  2 on the board (Blue LED)
 229:BSP/bsp.c     **** *
 230:BSP/bsp.c     **** * Return(s)   : none.
 231:BSP/bsp.c     **** *
 232:BSP/bsp.c     **** * Caller(s)   : Application.
 233:BSP/bsp.c     **** *
 234:BSP/bsp.c     **** * Note(s)     : none.
 235:BSP/bsp.c     **** ***************************************************************************************************
 236:BSP/bsp.c     **** */
 237:BSP/bsp.c     **** 
 238:BSP/bsp.c     **** CPU_INT08U  BSP_LED_On (CPU_INT08U led)
 239:BSP/bsp.c     **** {
 146              		.loc 1 239 0
 147              		.cfi_startproc
 148              		@ args = 0, pretend = 0, frame = 0
 149              		@ frame_needed = 0, uses_anonymous_args = 0
 150              	.LVL7:
 151 0000 08B5     		push	{r3, lr}
 152              		.cfi_def_cfa_offset 8
 153              		.cfi_offset 3, -8
 154              		.cfi_offset 14, -4
 155              	.LVL8:
 240:BSP/bsp.c     ****   CPU_INT08U err = 0;
ARM GAS  C:\Users\CHRONI~1\AppData\Local\Temp\cc6qo0cY.s 			page 8


 241:BSP/bsp.c     ****   
 242:BSP/bsp.c     ****   if(led == P1_6){
 156              		.loc 1 242 0
 157 0002 4028     		cmp	r0, #64
 158 0004 04D1     		bne	.L14
 243:BSP/bsp.c     ****     err = gpio_high(PORT1,P1_6);
 159              		.loc 1 243 0
 160 0006 4021     		movs	r1, #64
 161 0008 0120     		movs	r0, #1
 162              	.LVL9:
 163 000a FFF7FEFF 		bl	gpio_high
 164              	.LVL10:
 165 000e 08BD     		pop	{r3, pc}
 166              	.LVL11:
 167              	.L14:
 244:BSP/bsp.c     ****   }
 245:BSP/bsp.c     ****   else if(led == P2_0){
 168              		.loc 1 245 0
 169 0010 0128     		cmp	r0, #1
 170 0012 04D1     		bne	.L16
 246:BSP/bsp.c     ****     err = gpio_high(PORT2,P2_0);
 171              		.loc 1 246 0
 172 0014 0121     		movs	r1, #1
 173 0016 0220     		movs	r0, #2
 174              	.LVL12:
 175 0018 FFF7FEFF 		bl	gpio_high
 176              	.LVL13:
 177 001c 08BD     		pop	{r3, pc}
 178              	.LVL14:
 179              	.L16:
 247:BSP/bsp.c     ****   }
 248:BSP/bsp.c     ****   else if(led == P2_1){
 180              		.loc 1 248 0
 181 001e 0228     		cmp	r0, #2
 182 0020 04D1     		bne	.L17
 249:BSP/bsp.c     ****     err = gpio_high(PORT2,P2_1);
 183              		.loc 1 249 0
 184 0022 0221     		movs	r1, #2
 185 0024 0846     		mov	r0, r1
 186              	.LVL15:
 187 0026 FFF7FEFF 		bl	gpio_high
 188              	.LVL16:
 189 002a 08BD     		pop	{r3, pc}
 190              	.LVL17:
 191              	.L17:
 250:BSP/bsp.c     ****   }
 251:BSP/bsp.c     ****   else{
 252:BSP/bsp.c     ****     err++;
 192              		.loc 1 252 0
 193 002c 0120     		movs	r0, #1
 194              	.LVL18:
 253:BSP/bsp.c     ****   }
 254:BSP/bsp.c     ****   return err;
 255:BSP/bsp.c     **** }
 195              		.loc 1 255 0
 196 002e 08BD     		pop	{r3, pc}
 197              		.cfi_endproc
ARM GAS  C:\Users\CHRONI~1\AppData\Local\Temp\cc6qo0cY.s 			page 9


 198              	.LFE68:
 199              		.size	BSP_LED_On, .-BSP_LED_On
 200              		.section	.text.BSP_LED_Off,"ax",%progbits
 201              		.align	2
 202              		.global	BSP_LED_Off
 203              		.thumb
 204              		.thumb_func
 205              		.type	BSP_LED_Off, %function
 206              	BSP_LED_Off:
 207              	.LFB69:
 256:BSP/bsp.c     **** 
 257:BSP/bsp.c     **** 
 258:BSP/bsp.c     **** /*
 259:BSP/bsp.c     **** ***************************************************************************************************
 260:BSP/bsp.c     **** *                                              BSP_LED_Off()
 261:BSP/bsp.c     **** *
 262:BSP/bsp.c     **** * Description : Turn OFF any pin on the board.
 263:BSP/bsp.c     **** *
 264:BSP/bsp.c     **** * Argument(s) : led     The ID of the pin to control:
 265:BSP/bsp.c     **** *
 266:BSP/bsp.c     **** *                       P1_6    turns OFF P1_6 on J1 Pin 23 on the board
 267:BSP/bsp.c     **** *                       P2_0    turns OFF P2_0 on J1 Pin  1 on the board
 268:BSP/bsp.c     **** *                       P2_1    turns OFF P2_1 on J1 Pin  2 on the board (Blue LED)
 269:BSP/bsp.c     **** *
 270:BSP/bsp.c     **** * Return(s)   : none.
 271:BSP/bsp.c     **** *
 272:BSP/bsp.c     **** * Caller(s)   : Application.
 273:BSP/bsp.c     **** *
 274:BSP/bsp.c     **** * Note(s)     : none.
 275:BSP/bsp.c     **** ***************************************************************************************************
 276:BSP/bsp.c     **** */
 277:BSP/bsp.c     **** 
 278:BSP/bsp.c     **** CPU_INT08U  BSP_LED_Off (CPU_INT08U led)
 279:BSP/bsp.c     **** {
 208              		.loc 1 279 0
 209              		.cfi_startproc
 210              		@ args = 0, pretend = 0, frame = 0
 211              		@ frame_needed = 0, uses_anonymous_args = 0
 212              	.LVL19:
 213 0000 08B5     		push	{r3, lr}
 214              		.cfi_def_cfa_offset 8
 215              		.cfi_offset 3, -8
 216              		.cfi_offset 14, -4
 217              	.LVL20:
 280:BSP/bsp.c     ****   CPU_INT08U err = 0;
 281:BSP/bsp.c     ****   
 282:BSP/bsp.c     ****   if(led == P1_6){
 218              		.loc 1 282 0
 219 0002 4028     		cmp	r0, #64
 220 0004 04D1     		bne	.L20
 283:BSP/bsp.c     ****     err = gpio_low(PORT1,P1_6);
 221              		.loc 1 283 0
 222 0006 4021     		movs	r1, #64
 223 0008 0120     		movs	r0, #1
 224              	.LVL21:
 225 000a FFF7FEFF 		bl	gpio_low
 226              	.LVL22:
ARM GAS  C:\Users\CHRONI~1\AppData\Local\Temp\cc6qo0cY.s 			page 10


 227 000e 08BD     		pop	{r3, pc}
 228              	.LVL23:
 229              	.L20:
 284:BSP/bsp.c     ****   }
 285:BSP/bsp.c     ****   else if(led == P2_0){
 230              		.loc 1 285 0
 231 0010 0128     		cmp	r0, #1
 232 0012 04D1     		bne	.L22
 286:BSP/bsp.c     ****     err = gpio_low(PORT2,P2_0);
 233              		.loc 1 286 0
 234 0014 0121     		movs	r1, #1
 235 0016 0220     		movs	r0, #2
 236              	.LVL24:
 237 0018 FFF7FEFF 		bl	gpio_low
 238              	.LVL25:
 239 001c 08BD     		pop	{r3, pc}
 240              	.LVL26:
 241              	.L22:
 287:BSP/bsp.c     ****   }
 288:BSP/bsp.c     ****   else if(led == P2_1){
 242              		.loc 1 288 0
 243 001e 0228     		cmp	r0, #2
 244 0020 04D1     		bne	.L23
 289:BSP/bsp.c     ****     err = gpio_low(PORT2,P2_1);
 245              		.loc 1 289 0
 246 0022 0221     		movs	r1, #2
 247 0024 0846     		mov	r0, r1
 248              	.LVL27:
 249 0026 FFF7FEFF 		bl	gpio_low
 250              	.LVL28:
 251 002a 08BD     		pop	{r3, pc}
 252              	.LVL29:
 253              	.L23:
 290:BSP/bsp.c     ****   }
 291:BSP/bsp.c     ****   else{
 292:BSP/bsp.c     ****     err++;
 254              		.loc 1 292 0
 255 002c 0120     		movs	r0, #1
 256              	.LVL30:
 293:BSP/bsp.c     ****   }
 294:BSP/bsp.c     ****   return err;
 295:BSP/bsp.c     **** }
 257              		.loc 1 295 0
 258 002e 08BD     		pop	{r3, pc}
 259              		.cfi_endproc
 260              	.LFE69:
 261              		.size	BSP_LED_Off, .-BSP_LED_Off
 262              		.section	.text.BSP_LED_Toggle,"ax",%progbits
 263              		.align	2
 264              		.global	BSP_LED_Toggle
 265              		.thumb
 266              		.thumb_func
 267              		.type	BSP_LED_Toggle, %function
 268              	BSP_LED_Toggle:
 269              	.LFB70:
 296:BSP/bsp.c     **** 
 297:BSP/bsp.c     **** 
ARM GAS  C:\Users\CHRONI~1\AppData\Local\Temp\cc6qo0cY.s 			page 11


 298:BSP/bsp.c     **** /*
 299:BSP/bsp.c     **** ***************************************************************************************************
 300:BSP/bsp.c     **** *                                            BSP_LED_Toggle()
 301:BSP/bsp.c     **** *
 302:BSP/bsp.c     **** * Description : Turn TOGGLE any pin on the board.
 303:BSP/bsp.c     **** *
 304:BSP/bsp.c     **** * Argument(s) : led     The ID of the pin to control:
 305:BSP/bsp.c     **** *
 306:BSP/bsp.c     **** *                       P1_6    turns TOGGLE P1_6 on J1 Pin 23 on the board
 307:BSP/bsp.c     **** *                       P2_0    turns TOGGLE P2_0 on J1 Pin  1 on the board
 308:BSP/bsp.c     **** *                       P2_1    turns TOGGLE P2_1 on J1 Pin  2 on the board (Blue LED)
 309:BSP/bsp.c     **** *
 310:BSP/bsp.c     **** * Return(s)   : none.
 311:BSP/bsp.c     **** *
 312:BSP/bsp.c     **** * Caller(s)   : Application.
 313:BSP/bsp.c     **** *
 314:BSP/bsp.c     **** * Note(s)     : Not re-entrant.
 315:BSP/bsp.c     **** ***************************************************************************************************
 316:BSP/bsp.c     **** */
 317:BSP/bsp.c     **** 
 318:BSP/bsp.c     **** CPU_INT08U  BSP_LED_Toggle (CPU_INT08U led)
 319:BSP/bsp.c     **** {
 270              		.loc 1 319 0
 271              		.cfi_startproc
 272              		@ args = 0, pretend = 0, frame = 0
 273              		@ frame_needed = 0, uses_anonymous_args = 0
 274              	.LVL31:
 275 0000 08B5     		push	{r3, lr}
 276              		.cfi_def_cfa_offset 8
 277              		.cfi_offset 3, -8
 278              		.cfi_offset 14, -4
 279              	.LVL32:
 320:BSP/bsp.c     ****   CPU_INT08U err = 0;
 321:BSP/bsp.c     ****   static CPU_BOOLEAN toggle_status = 0;
 322:BSP/bsp.c     ****   
 323:BSP/bsp.c     ****   if(!toggle_status){
 280              		.loc 1 323 0
 281 0002 094B     		ldr	r3, .L30
 282 0004 1B78     		ldrb	r3, [r3]	@ zero_extendqisi2
 283 0006 2BB9     		cbnz	r3, .L26
 324:BSP/bsp.c     ****     err = BSP_LED_On(led);
 284              		.loc 1 324 0
 285 0008 FFF7FEFF 		bl	BSP_LED_On
 286              	.LVL33:
 325:BSP/bsp.c     ****     toggle_status = 1;
 287              		.loc 1 325 0
 288 000c 0122     		movs	r2, #1
 289 000e 064B     		ldr	r3, .L30
 290 0010 1A70     		strb	r2, [r3]
 291 0012 08BD     		pop	{r3, pc}
 292              	.LVL34:
 293              	.L26:
 326:BSP/bsp.c     ****   }
 327:BSP/bsp.c     ****   else if(toggle_status){
 294              		.loc 1 327 0
 295 0014 2BB1     		cbz	r3, .L28
 328:BSP/bsp.c     ****     err = BSP_LED_Off(led);
ARM GAS  C:\Users\CHRONI~1\AppData\Local\Temp\cc6qo0cY.s 			page 12


 296              		.loc 1 328 0
 297 0016 FFF7FEFF 		bl	BSP_LED_Off
 298              	.LVL35:
 329:BSP/bsp.c     ****     toggle_status = 0;
 299              		.loc 1 329 0
 300 001a 0022     		movs	r2, #0
 301 001c 024B     		ldr	r3, .L30
 302 001e 1A70     		strb	r2, [r3]
 303 0020 08BD     		pop	{r3, pc}
 304              	.LVL36:
 305              	.L28:
 320:BSP/bsp.c     ****   static CPU_BOOLEAN toggle_status = 0;
 306              		.loc 1 320 0
 307 0022 0020     		movs	r0, #0
 308              	.LVL37:
 330:BSP/bsp.c     ****   }
 331:BSP/bsp.c     ****   return err;
 332:BSP/bsp.c     **** }
 309              		.loc 1 332 0
 310 0024 08BD     		pop	{r3, pc}
 311              	.L31:
 312 0026 00BF     		.align	2
 313              	.L30:
 314 0028 00000000 		.word	.LANCHOR0
 315              		.cfi_endproc
 316              	.LFE70:
 317              		.size	BSP_LED_Toggle, .-BSP_LED_Toggle
 318              		.section	.text.BSP_PB_StatusGet,"ax",%progbits
 319              		.align	2
 320              		.global	BSP_PB_StatusGet
 321              		.thumb
 322              		.thumb_func
 323              		.type	BSP_PB_StatusGet, %function
 324              	BSP_PB_StatusGet:
 325              	.LFB71:
 333:BSP/bsp.c     **** 
 334:BSP/bsp.c     **** 
 335:BSP/bsp.c     **** /*
 336:BSP/bsp.c     **** ***************************************************************************************************
 337:BSP/bsp.c     **** *                                            BSP_PB_StatusGet()
 338:BSP/bsp.c     **** *
 339:BSP/bsp.c     **** * Description : Get the current status of the push button.
 340:BSP/bsp.c     **** *
 341:BSP/bsp.c     **** * Argument(s) : pb    Push button identifier.
 342:BSP/bsp.c     **** *
 343:BSP/bsp.c     **** *                           P2_2 Board SW1 (on J1 Pin 3)
 344:BSP/bsp.c     **** *
 345:BSP/bsp.c     **** * Return(s)   : DEF_ON    If the push button is pressed.
 346:BSP/bsp.c     **** *               DEF_OFF   If the push button is not pressed
 347:BSP/bsp.c     **** *               -1        If error occured
 348:BSP/bsp.c     **** *
 349:BSP/bsp.c     **** * Caller(s)   : application
 350:BSP/bsp.c     **** *
 351:BSP/bsp.c     **** * Note(s)     : none.
 352:BSP/bsp.c     **** ***************************************************************************************************
 353:BSP/bsp.c     **** */
 354:BSP/bsp.c     **** 
ARM GAS  C:\Users\CHRONI~1\AppData\Local\Temp\cc6qo0cY.s 			page 13


 355:BSP/bsp.c     **** CPU_INT08S  BSP_PB_StatusGet (CPU_INT08U  pb)
 356:BSP/bsp.c     **** {
 326              		.loc 1 356 0
 327              		.cfi_startproc
 328              		@ args = 0, pretend = 0, frame = 0
 329              		@ frame_needed = 0, uses_anonymous_args = 0
 330              	.LVL38:
 357:BSP/bsp.c     ****   if(pb == P2_2){
 331              		.loc 1 357 0
 332 0000 0428     		cmp	r0, #4
 333 0002 05D1     		bne	.L34
 356:BSP/bsp.c     ****   if(pb == P2_2){
 334              		.loc 1 356 0
 335 0004 08B5     		push	{r3, lr}
 336              		.cfi_def_cfa_offset 8
 337              		.cfi_offset 3, -8
 338              		.cfi_offset 14, -4
 358:BSP/bsp.c     ****     return gpio_read(PORT2, P2_2);    
 339              		.loc 1 358 0
 340 0006 0421     		movs	r1, #4
 341 0008 0220     		movs	r0, #2
 342              	.LVL39:
 343 000a FFF7FEFF 		bl	gpio_read
 344              	.LVL40:
 345 000e 08BD     		pop	{r3, pc}
 346              	.LVL41:
 347              	.L34:
 348              		.cfi_def_cfa_offset 0
 349              		.cfi_restore 3
 350              		.cfi_restore 14
 359:BSP/bsp.c     ****   }
 360:BSP/bsp.c     ****   else{
 361:BSP/bsp.c     ****     return -1;
 351              		.loc 1 361 0
 352 0010 4FF0FF30 		mov	r0, #-1
 353              	.LVL42:
 354 0014 7047     		bx	lr
 355              		.cfi_endproc
 356              	.LFE71:
 357              		.size	BSP_PB_StatusGet, .-BSP_PB_StatusGet
 358              		.comm	LedG_TaskStk,256,4
 359              		.comm	LedG_Task_TCB,192,4
 360              		.comm	LedRB_TaskStk,256,4
 361              		.comm	LedRB_Task_TCB,192,4
 362              		.comm	BUT_TaskStk,256,4
 363              		.comm	BUT_Task_TCB,192,4
 364              		.comm	CommQProcessedEnvironmentData,48,4
 365              		.comm	CommQProcessedOximeterData,48,4
 366              		.comm	CommQSPIData,48,4
 367              		.comm	CommQI2CHeartRate,48,4
 368              		.comm	CommQI2CSPO2,48,4
 369 0016 00BF     		.bss
 370              		.set	.LANCHOR0,. + 0
 371              		.type	toggle_status.9895, %object
 372              		.size	toggle_status.9895, 1
 373              	toggle_status.9895:
 374 0000 00       		.space	1
ARM GAS  C:\Users\CHRONI~1\AppData\Local\Temp\cc6qo0cY.s 			page 14


 375              		.text
 376              	.Letext0:
 377              		.file 2 ".\\uC-CPU\\ARM-Cortex-M3\\GNU/cpu.h"
 378              		.file 3 "c:\\program files (x86)\\cypress\\psoc creator\\4.4\\psoc creator\\import\\gnu\\arm\\5.4.
 379              		.file 4 "c:\\program files (x86)\\cypress\\psoc creator\\4.4\\psoc creator\\import\\gnu\\arm\\5.4.
 380              		.file 5 ".\\uC-CPU/cpu_core.h"
 381              		.file 6 ".\\uCOS-III\\Source/os_type.h"
 382              		.file 7 ".\\uCOS-III\\Source/os.h"
 383              		.file 8 "./heartbeatSensor.h"
 384              		.file 9 "Generated_Source\\PSoC5/core_cm3.h"
 385              		.file 10 "./data_processing_task.h"
 386              		.file 11 "./gpio_tasks.h"
 387              		.file 12 "./bsp_uart.h"
 388              		.file 13 ".\\uCOS-III\\Ports\\ARM-Cortex-M3\\Generic\\GNU/os_cpu.h"
 389              		.file 14 "./bsp_gpio.h"