ARM GAS  C:\Users\bernh\AppData\Local\Temp\ccVOF5i0.s 			page 1


   1              		.syntax unified
   2              		.cpu cortex-m3
   3              		.fpu softvfp
   4              		.eabi_attribute 20, 1
   5              		.eabi_attribute 21, 1
   6              		.eabi_attribute 23, 3
   7              		.eabi_attribute 24, 1
   8              		.eabi_attribute 25, 1
   9              		.eabi_attribute 26, 1
  10              		.eabi_attribute 30, 1
  11              		.eabi_attribute 34, 1
  12              		.eabi_attribute 18, 4
  13              		.thumb
  14              		.syntax unified
  15              		.file	"bsp_uart.c"
  16              		.text
  17              	.Ltext0:
  18              		.cfi_sections	.debug_frame
  19              		.section	.text.init_uart,"ax",%progbits
  20              		.align	2
  21              		.global	init_uart
  22              		.thumb
  23              		.thumb_func
  24              		.type	init_uart, %function
  25              	init_uart:
  26              	.LFB0:
  27              		.file 1 "bsp_uart.c"
   1:bsp_uart.c    **** /* ========================================
   2:bsp_uart.c    ****  *
   3:bsp_uart.c    ****  * Copyright YOUR COMPANY, THE YEAR
   4:bsp_uart.c    ****  * All Rights Reserved
   5:bsp_uart.c    ****  * UNPUBLISHED, LICENSED SOFTWARE.
   6:bsp_uart.c    ****  *
   7:bsp_uart.c    ****  * CONFIDENTIAL AND PROPRIETARY INFORMATION
   8:bsp_uart.c    ****  * WHICH IS THE PROPERTY OF your company.
   9:bsp_uart.c    ****  *
  10:bsp_uart.c    ****  * ========================================
  11:bsp_uart.c    **** */
  12:bsp_uart.c    **** 
  13:bsp_uart.c    **** #include <bsp_uart.h>
  14:bsp_uart.c    **** 
  15:bsp_uart.c    **** /*
  16:bsp_uart.c    **** ***************************************************************************************************
  17:bsp_uart.c    **** *                                       init_uart()
  18:bsp_uart.c    **** *
  19:bsp_uart.c    **** * Description : This function initializes the UART_1 communication module. Configuration: 115200,8N
  20:bsp_uart.c    **** *
  21:bsp_uart.c    **** * Argument(s) : none.
  22:bsp_uart.c    **** *
  23:bsp_uart.c    **** * Return(s)   : none.
  24:bsp_uart.c    **** *
  25:bsp_uart.c    **** * Caller(s)   : Application.
  26:bsp_uart.c    **** *
  27:bsp_uart.c    **** * Note(s)     : Not re-entrant.
  28:bsp_uart.c    **** ***************************************************************************************************
  29:bsp_uart.c    **** */
  30:bsp_uart.c    **** 
ARM GAS  C:\Users\bernh\AppData\Local\Temp\ccVOF5i0.s 			page 2


  31:bsp_uart.c    **** CPU_VOID init_uart(CPU_VOID)
  32:bsp_uart.c    **** {
  28              		.loc 1 32 0
  29              		.cfi_startproc
  30              		@ args = 0, pretend = 0, frame = 0
  31              		@ frame_needed = 0, uses_anonymous_args = 0
  32 0000 08B5     		push	{r3, lr}
  33              		.cfi_def_cfa_offset 8
  34              		.cfi_offset 3, -8
  35              		.cfi_offset 14, -4
  33:bsp_uart.c    ****     UART_1_Start();
  36              		.loc 1 33 0
  37 0002 FFF7FEFF 		bl	UART_1_Start
  38              	.LVL0:
  39 0006 08BD     		pop	{r3, pc}
  40              		.cfi_endproc
  41              	.LFE0:
  42              		.size	init_uart, .-init_uart
  43              		.section	.text.uart_get_byte,"ax",%progbits
  44              		.align	2
  45              		.global	uart_get_byte
  46              		.thumb
  47              		.thumb_func
  48              		.type	uart_get_byte, %function
  49              	uart_get_byte:
  50              	.LFB1:
  34:bsp_uart.c    **** }
  35:bsp_uart.c    **** 
  36:bsp_uart.c    **** /*
  37:bsp_uart.c    **** ***************************************************************************************************
  38:bsp_uart.c    **** *                                       uart_get_byte()
  39:bsp_uart.c    **** *
  40:bsp_uart.c    **** * Description : Returns the last received byte of data. UART_1_GetChar() is
  41:bsp_uart.c    **** *               designed for ASCII characters and returns a uint8 where 1 to 255 are values
  42:bsp_uart.c    **** *               for valid characters and 0 indicates an error occurred or no data is present 
  43:bsp_uart.c    **** *
  44:bsp_uart.c    **** * Argument(s) : none.
  45:bsp_uart.c    **** *
  46:bsp_uart.c    **** * Return(s)   : Character read from UART RX buffer. ASCII characters from 1 to 255 are valid.
  47:bsp_uart.c    **** *               A returned zero signifies an error condition or no data available.
  48:bsp_uart.c    **** *
  49:bsp_uart.c    **** * Caller(s)   : Application.
  50:bsp_uart.c    **** *
  51:bsp_uart.c    **** * Note(s)     : Not re-entrant, non-blocking.
  52:bsp_uart.c    **** ***************************************************************************************************
  53:bsp_uart.c    **** */
  54:bsp_uart.c    **** 
  55:bsp_uart.c    **** CPU_INT08U uart_get_byte(CPU_VOID)
  56:bsp_uart.c    **** {
  51              		.loc 1 56 0
  52              		.cfi_startproc
  53              		@ args = 0, pretend = 0, frame = 0
  54              		@ frame_needed = 0, uses_anonymous_args = 0
  55 0000 08B5     		push	{r3, lr}
  56              		.cfi_def_cfa_offset 8
  57              		.cfi_offset 3, -8
  58              		.cfi_offset 14, -4
ARM GAS  C:\Users\bernh\AppData\Local\Temp\ccVOF5i0.s 			page 3


  57:bsp_uart.c    ****     return UART_1_GetChar();
  59              		.loc 1 57 0
  60 0002 FFF7FEFF 		bl	UART_1_GetChar
  61              	.LVL1:
  58:bsp_uart.c    **** }
  62              		.loc 1 58 0
  63 0006 08BD     		pop	{r3, pc}
  64              		.cfi_endproc
  65              	.LFE1:
  66              		.size	uart_get_byte, .-uart_get_byte
  67              		.section	.text.uart_send_byte,"ax",%progbits
  68              		.align	2
  69              		.global	uart_send_byte
  70              		.thumb
  71              		.thumb_func
  72              		.type	uart_send_byte, %function
  73              	uart_send_byte:
  74              	.LFB2:
  59:bsp_uart.c    **** 
  60:bsp_uart.c    **** /*
  61:bsp_uart.c    **** ***************************************************************************************************
  62:bsp_uart.c    **** *                                       uart_send_byte()
  63:bsp_uart.c    **** *
  64:bsp_uart.c    **** * Description : Puts a byte of data into the transmit buffer to be sent when the bus is
  65:bsp_uart.c    **** *               available. This is a blocking API that waits until the TX buffer has room to
  66:bsp_uart.c    **** *               hold the data. 
  67:bsp_uart.c    **** *
  68:bsp_uart.c    **** * Argument(s) : byte ... containing the data to transmit
  69:bsp_uart.c    **** *
  70:bsp_uart.c    **** * Return(s)   : None.
  71:bsp_uart.c    **** *
  72:bsp_uart.c    **** * Caller(s)   : Application.
  73:bsp_uart.c    **** *
  74:bsp_uart.c    **** * Note(s)     : Not re-entrant.
  75:bsp_uart.c    **** ***************************************************************************************************
  76:bsp_uart.c    **** */
  77:bsp_uart.c    **** 
  78:bsp_uart.c    **** CPU_VOID uart_send_byte(CPU_INT08U byte)
  79:bsp_uart.c    **** {
  75              		.loc 1 79 0
  76              		.cfi_startproc
  77              		@ args = 0, pretend = 0, frame = 0
  78              		@ frame_needed = 0, uses_anonymous_args = 0
  79              	.LVL2:
  80 0000 08B5     		push	{r3, lr}
  81              		.cfi_def_cfa_offset 8
  82              		.cfi_offset 3, -8
  83              		.cfi_offset 14, -4
  80:bsp_uart.c    ****     UART_1_PutChar(byte);
  84              		.loc 1 80 0
  85 0002 FFF7FEFF 		bl	UART_1_PutChar
  86              	.LVL3:
  87 0006 08BD     		pop	{r3, pc}
  88              		.cfi_endproc
  89              	.LFE2:
  90              		.size	uart_send_byte, .-uart_send_byte
  91              		.text
ARM GAS  C:\Users\bernh\AppData\Local\Temp\ccVOF5i0.s 			page 4


  92              	.Letext0:
  93              		.file 2 "Generated_Source\\PSoC5/UART_1.h"
  94              		.file 3 ".\\uC-CPU\\ARM-Cortex-M3\\GNU/cpu.h"