ARM GAS  C:\Users\batuh\AppData\Local\Temp\ccCZ2g6R.s 			page 1


   1              		.syntax unified
   2              		.cpu cortex-m3
   3              		.fpu softvfp
   4              		.eabi_attribute 20, 1
   5              		.eabi_attribute 21, 1
   6              		.eabi_attribute 23, 3
   7              		.eabi_attribute 24, 1
   8              		.eabi_attribute 25, 1
   9              		.eabi_attribute 26, 1
  10              		.eabi_attribute 30, 1
  11              		.eabi_attribute 34, 1
  12              		.eabi_attribute 18, 4
  13              		.thumb
  14              		.syntax unified
  15              		.file	"bsp_gpio.c"
  16              		.text
  17              	.Ltext0:
  18              		.cfi_sections	.debug_frame
  19              		.section	.text.gpio_high,"ax",%progbits
  20              		.align	2
  21              		.global	gpio_high
  22              		.thumb
  23              		.thumb_func
  24              		.type	gpio_high, %function
  25              	gpio_high:
  26              	.LFB64:
  27              		.file 1 "bsp_gpio.c"
   1:bsp_gpio.c    **** /* ========================================
   2:bsp_gpio.c    ****  *
   3:bsp_gpio.c    ****  * Copyright YOUR COMPANY, THE YEAR
   4:bsp_gpio.c    ****  * All Rights Reserved
   5:bsp_gpio.c    ****  * UNPUBLISHED, LICENSED SOFTWARE.
   6:bsp_gpio.c    ****  *
   7:bsp_gpio.c    ****  * CONFIDENTIAL AND PROPRIETARY INFORMATION
   8:bsp_gpio.c    ****  * WHICH IS THE PROPERTY OF your company.
   9:bsp_gpio.c    ****  *
  10:bsp_gpio.c    ****  * ========================================
  11:bsp_gpio.c    **** */
  12:bsp_gpio.c    **** 
  13:bsp_gpio.c    **** #include "bsp_gpio.h"
  14:bsp_gpio.c    **** 
  15:bsp_gpio.c    **** /*
  16:bsp_gpio.c    **** ***************************************************************************************************
  17:bsp_gpio.c    **** *                                       gpio_high()
  18:bsp_gpio.c    **** *
  19:bsp_gpio.c    **** * Description : This function set based on a chosen port (PORT1, PORT2) the digital level
  20:bsp_gpio.c    **** *               of a chosen pin (P1_6, P2_0, P2_1) on digital high (~ 5V).
  21:bsp_gpio.c    **** *
  22:bsp_gpio.c    **** * Argument(s) : port ... indicates which port should be addressed (PORT1, PORT2)
  23:bsp_gpio.c    **** *               pin  ... indicates which pin of the chosen port is addressed (P1_6, P2_0, P2_1)
  24:bsp_gpio.c    **** *
  25:bsp_gpio.c    **** * Return(s)   : 0 ... if no error occurred
  26:bsp_gpio.c    **** *               >1... if an error occurred
  27:bsp_gpio.c    **** *
  28:bsp_gpio.c    **** * Caller(s)   : Application.
  29:bsp_gpio.c    **** *
  30:bsp_gpio.c    **** * Note(s)     : Not re-entrant.
ARM GAS  C:\Users\batuh\AppData\Local\Temp\ccCZ2g6R.s 			page 2


  31:bsp_gpio.c    **** ***************************************************************************************************
  32:bsp_gpio.c    **** */
  33:bsp_gpio.c    **** 
  34:bsp_gpio.c    **** CPU_INT08U gpio_high(CPU_INT08U port, CPU_INT08U pin)
  35:bsp_gpio.c    **** {
  28              		.loc 1 35 0
  29              		.cfi_startproc
  30              		@ args = 0, pretend = 0, frame = 0
  31              		@ frame_needed = 0, uses_anonymous_args = 0
  32              	.LVL0:
  33 0000 08B5     		push	{r3, lr}
  34              		.cfi_def_cfa_offset 8
  35              		.cfi_offset 3, -8
  36              		.cfi_offset 14, -4
  37              	.LVL1:
  36:bsp_gpio.c    ****   CPU_INT08U err = 0;
  37:bsp_gpio.c    ****   
  38:bsp_gpio.c    ****   if(port == PORT1)
  38              		.loc 1 38 0
  39 0002 0128     		cmp	r0, #1
  40 0004 05D1     		bne	.L2
  39:bsp_gpio.c    ****   {
  40:bsp_gpio.c    ****     if (pin == PIN_GREEN_LED) Pin_Green_Led_Write(HIGH);
  41              		.loc 1 40 0
  42 0006 0429     		cmp	r1, #4
  43 0008 13D1     		bne	.L5
  44              		.loc 1 40 0 is_stmt 0 discriminator 1
  45 000a FFF7FEFF 		bl	Pin_Green_Led_Write
  46              	.LVL2:
  36:bsp_gpio.c    ****   CPU_INT08U err = 0;
  47              		.loc 1 36 0 is_stmt 1 discriminator 1
  48 000e 0020     		movs	r0, #0
  49 0010 08BD     		pop	{r3, pc}
  50              	.LVL3:
  51              	.L2:
  41:bsp_gpio.c    ****     else err++;
  42:bsp_gpio.c    ****   }
  43:bsp_gpio.c    ****   else if(port == PORT2)
  52              		.loc 1 43 0
  53 0012 0228     		cmp	r0, #2
  54 0014 0FD1     		bne	.L6
  44:bsp_gpio.c    ****   {
  45:bsp_gpio.c    ****     if (pin == PIN_BLUE_LED) Pin_Blue_Led_Write(HIGH);
  55              		.loc 1 45 0
  56 0016 0229     		cmp	r1, #2
  57 0018 04D1     		bne	.L4
  58              		.loc 1 45 0 is_stmt 0 discriminator 1
  59 001a 0120     		movs	r0, #1
  60              	.LVL4:
  61 001c FFF7FEFF 		bl	Pin_Blue_Led_Write
  62              	.LVL5:
  36:bsp_gpio.c    ****   
  63              		.loc 1 36 0 is_stmt 1 discriminator 1
  64 0020 0020     		movs	r0, #0
  65 0022 08BD     		pop	{r3, pc}
  66              	.LVL6:
  67              	.L4:
ARM GAS  C:\Users\batuh\AppData\Local\Temp\ccCZ2g6R.s 			page 3


  46:bsp_gpio.c    ****     else if (pin == PIN_RED_LED) Pin_Red_Led_Write(HIGH);
  68              		.loc 1 46 0
  69 0024 8029     		cmp	r1, #128
  70 0026 08D1     		bne	.L7
  71              		.loc 1 46 0 is_stmt 0 discriminator 1
  72 0028 0120     		movs	r0, #1
  73              	.LVL7:
  74 002a FFF7FEFF 		bl	Pin_Red_Led_Write
  75              	.LVL8:
  36:bsp_gpio.c    ****   
  76              		.loc 1 36 0 is_stmt 1 discriminator 1
  77 002e 0020     		movs	r0, #0
  78 0030 08BD     		pop	{r3, pc}
  79              	.LVL9:
  80              	.L5:
  41:bsp_gpio.c    ****   }
  81              		.loc 1 41 0
  82 0032 0120     		movs	r0, #1
  83              	.LVL10:
  84 0034 08BD     		pop	{r3, pc}
  85              	.LVL11:
  86              	.L6:
  47:bsp_gpio.c    ****     else err++;
  48:bsp_gpio.c    ****   }
  49:bsp_gpio.c    ****   else err++;
  87              		.loc 1 49 0
  88 0036 0120     		movs	r0, #1
  89              	.LVL12:
  90 0038 08BD     		pop	{r3, pc}
  91              	.LVL13:
  92              	.L7:
  47:bsp_gpio.c    ****     else err++;
  93              		.loc 1 47 0
  94 003a 0120     		movs	r0, #1
  95              	.LVL14:
  50:bsp_gpio.c    ****   return err;    
  51:bsp_gpio.c    **** }
  96              		.loc 1 51 0
  97 003c 08BD     		pop	{r3, pc}
  98              		.cfi_endproc
  99              	.LFE64:
 100              		.size	gpio_high, .-gpio_high
 101 003e 00BF     		.section	.text.gpio_low,"ax",%progbits
 102              		.align	2
 103              		.global	gpio_low
 104              		.thumb
 105              		.thumb_func
 106              		.type	gpio_low, %function
 107              	gpio_low:
 108              	.LFB65:
  52:bsp_gpio.c    **** 
  53:bsp_gpio.c    **** /*
  54:bsp_gpio.c    **** ***************************************************************************************************
  55:bsp_gpio.c    **** *                                       gpio_low()
  56:bsp_gpio.c    **** *
  57:bsp_gpio.c    **** * Description : This function resets based on a chosen port (PORT1, PORT2) the digital level
  58:bsp_gpio.c    **** *               of a chosen pin (P1_6, P2_0, P2_1) on digital low (0V).
ARM GAS  C:\Users\batuh\AppData\Local\Temp\ccCZ2g6R.s 			page 4


  59:bsp_gpio.c    **** *
  60:bsp_gpio.c    **** * Argument(s) : port ... indicates which port should be addressed (PORT1, PORT2)
  61:bsp_gpio.c    **** *               pin  ... indicates which pin of the chosen port is addressed (P1_6, P2_0, P2_1)
  62:bsp_gpio.c    **** *
  63:bsp_gpio.c    **** * Return(s)   : 0 ... if no error occurred
  64:bsp_gpio.c    **** *               >1... if an error occurred
  65:bsp_gpio.c    **** *
  66:bsp_gpio.c    **** * Caller(s)   : Application.
  67:bsp_gpio.c    **** *
  68:bsp_gpio.c    **** * Note(s)     : Not re-entrant.
  69:bsp_gpio.c    **** ***************************************************************************************************
  70:bsp_gpio.c    **** */
  71:bsp_gpio.c    **** 
  72:bsp_gpio.c    **** CPU_INT08U gpio_low(CPU_INT08U port, CPU_INT08U pin)
  73:bsp_gpio.c    **** {
 109              		.loc 1 73 0
 110              		.cfi_startproc
 111              		@ args = 0, pretend = 0, frame = 0
 112              		@ frame_needed = 0, uses_anonymous_args = 0
 113              	.LVL15:
 114 0000 08B5     		push	{r3, lr}
 115              		.cfi_def_cfa_offset 8
 116              		.cfi_offset 3, -8
 117              		.cfi_offset 14, -4
 118              	.LVL16:
  74:bsp_gpio.c    ****   CPU_INT08U err = 0;
  75:bsp_gpio.c    ****   
  76:bsp_gpio.c    ****   if(port == PORT1)
 119              		.loc 1 76 0
 120 0002 0128     		cmp	r0, #1
 121 0004 06D1     		bne	.L10
  77:bsp_gpio.c    ****   {
  78:bsp_gpio.c    ****     if (pin == PIN_GREEN_LED) Pin_Green_Led_Write(LOW);
 122              		.loc 1 78 0
 123 0006 0429     		cmp	r1, #4
 124 0008 14D1     		bne	.L13
 125              		.loc 1 78 0 is_stmt 0 discriminator 1
 126 000a 0020     		movs	r0, #0
 127              	.LVL17:
 128 000c FFF7FEFF 		bl	Pin_Green_Led_Write
 129              	.LVL18:
  74:bsp_gpio.c    ****   CPU_INT08U err = 0;
 130              		.loc 1 74 0 is_stmt 1 discriminator 1
 131 0010 0020     		movs	r0, #0
 132 0012 08BD     		pop	{r3, pc}
 133              	.LVL19:
 134              	.L10:
  79:bsp_gpio.c    ****     else err++;
  80:bsp_gpio.c    ****   }
  81:bsp_gpio.c    ****   else if(port == PORT2)
 135              		.loc 1 81 0
 136 0014 0228     		cmp	r0, #2
 137 0016 0FD1     		bne	.L14
  82:bsp_gpio.c    ****   {
  83:bsp_gpio.c    ****     if (pin == PIN_BLUE_LED) Pin_Blue_Led_Write(LOW);
 138              		.loc 1 83 0
 139 0018 0229     		cmp	r1, #2
ARM GAS  C:\Users\batuh\AppData\Local\Temp\ccCZ2g6R.s 			page 5


 140 001a 04D1     		bne	.L12
 141              		.loc 1 83 0 is_stmt 0 discriminator 1
 142 001c 0020     		movs	r0, #0
 143              	.LVL20:
 144 001e FFF7FEFF 		bl	Pin_Blue_Led_Write
 145              	.LVL21:
  74:bsp_gpio.c    ****   
 146              		.loc 1 74 0 is_stmt 1 discriminator 1
 147 0022 0020     		movs	r0, #0
 148 0024 08BD     		pop	{r3, pc}
 149              	.LVL22:
 150              	.L12:
  84:bsp_gpio.c    ****     else if (pin == PIN_RED_LED) Pin_Red_Led_Write(LOW);
 151              		.loc 1 84 0
 152 0026 8029     		cmp	r1, #128
 153 0028 08D1     		bne	.L15
 154              		.loc 1 84 0 is_stmt 0 discriminator 1
 155 002a 0020     		movs	r0, #0
 156              	.LVL23:
 157 002c FFF7FEFF 		bl	Pin_Red_Led_Write
 158              	.LVL24:
  74:bsp_gpio.c    ****   
 159              		.loc 1 74 0 is_stmt 1 discriminator 1
 160 0030 0020     		movs	r0, #0
 161 0032 08BD     		pop	{r3, pc}
 162              	.LVL25:
 163              	.L13:
  79:bsp_gpio.c    ****   }
 164              		.loc 1 79 0
 165 0034 0120     		movs	r0, #1
 166              	.LVL26:
 167 0036 08BD     		pop	{r3, pc}
 168              	.LVL27:
 169              	.L14:
  85:bsp_gpio.c    ****     else err++;
  86:bsp_gpio.c    ****   }
  87:bsp_gpio.c    ****   else err++;
 170              		.loc 1 87 0
 171 0038 0120     		movs	r0, #1
 172              	.LVL28:
 173 003a 08BD     		pop	{r3, pc}
 174              	.LVL29:
 175              	.L15:
  85:bsp_gpio.c    ****     else err++;
 176              		.loc 1 85 0
 177 003c 0120     		movs	r0, #1
 178              	.LVL30:
  88:bsp_gpio.c    ****   return err;     
  89:bsp_gpio.c    **** }
 179              		.loc 1 89 0
 180 003e 08BD     		pop	{r3, pc}
 181              		.cfi_endproc
 182              	.LFE65:
 183              		.size	gpio_low, .-gpio_low
 184              		.section	.text.gpio_read,"ax",%progbits
 185              		.align	2
 186              		.global	gpio_read
ARM GAS  C:\Users\batuh\AppData\Local\Temp\ccCZ2g6R.s 			page 6


 187              		.thumb
 188              		.thumb_func
 189              		.type	gpio_read, %function
 190              	gpio_read:
 191              	.LFB66:
  90:bsp_gpio.c    **** 
  91:bsp_gpio.c    **** /*
  92:bsp_gpio.c    **** ***************************************************************************************************
  93:bsp_gpio.c    **** *                                       gpio_read()
  94:bsp_gpio.c    **** *
  95:bsp_gpio.c    **** * Description : This function reads the digital level of a chosen port (PORT2) and pin (P2_2).
  96:bsp_gpio.c    **** *
  97:bsp_gpio.c    **** * Argument(s) : port ... indicates which port should be addressed (PORT2)
  98:bsp_gpio.c    **** *               pin  ... indicates which pin of the chosen port is addressed (P2_2)
  99:bsp_gpio.c    **** *
 100:bsp_gpio.c    **** * Return(s)   : 0 ... if no error occurred
 101:bsp_gpio.c    **** *               -1... if an error occurred
 102:bsp_gpio.c    **** *
 103:bsp_gpio.c    **** * Caller(s)   : Application.
 104:bsp_gpio.c    **** *
 105:bsp_gpio.c    **** * Note(s)     : Not re-entrant.
 106:bsp_gpio.c    **** ***************************************************************************************************
 107:bsp_gpio.c    **** */
 108:bsp_gpio.c    **** 
 109:bsp_gpio.c    **** CPU_INT08S gpio_read(CPU_INT08U port, CPU_INT08U pin)
 110:bsp_gpio.c    **** {
 192              		.loc 1 110 0
 193              		.cfi_startproc
 194              		@ args = 0, pretend = 0, frame = 0
 195              		@ frame_needed = 0, uses_anonymous_args = 0
 196              	.LVL31:
 111:bsp_gpio.c    ****   if(port == PORT2 && pin == P2_2) return push_button_Read(); 
 197              		.loc 1 111 0
 198 0000 0228     		cmp	r0, #2
 199 0002 06D1     		bne	.L19
 200              		.loc 1 111 0 is_stmt 0 discriminator 1
 201 0004 0429     		cmp	r1, #4
 202 0006 07D1     		bne	.L20
 110:bsp_gpio.c    ****   if(port == PORT2 && pin == P2_2) return push_button_Read(); 
 203              		.loc 1 110 0 is_stmt 1 discriminator 2
 204 0008 08B5     		push	{r3, lr}
 205              		.cfi_def_cfa_offset 8
 206              		.cfi_offset 3, -8
 207              		.cfi_offset 14, -4
 208              		.loc 1 111 0 discriminator 2
 209 000a FFF7FEFF 		bl	push_button_Read
 210              	.LVL32:
 211 000e 40B2     		sxtb	r0, r0
 212 0010 08BD     		pop	{r3, pc}
 213              	.LVL33:
 214              	.L19:
 215              		.cfi_def_cfa_offset 0
 216              		.cfi_restore 3
 217              		.cfi_restore 14
 112:bsp_gpio.c    ****   return -1;
 218              		.loc 1 112 0
 219 0012 4FF0FF30 		mov	r0, #-1
ARM GAS  C:\Users\batuh\AppData\Local\Temp\ccCZ2g6R.s 			page 7


 220              	.LVL34:
 221 0016 7047     		bx	lr
 222              	.LVL35:
 223              	.L20:
 224 0018 4FF0FF30 		mov	r0, #-1
 225              	.LVL36:
 226 001c 7047     		bx	lr
 227              		.cfi_endproc
 228              	.LFE66:
 229              		.size	gpio_read, .-gpio_read
 230              		.comm	LedG_TaskStk,256,4
 231              		.comm	LedG_Task_TCB,192,4
 232              		.comm	LedRB_TaskStk,256,4
 233              		.comm	LedRB_Task_TCB,192,4
 234              		.comm	BUT_TaskStk,256,4
 235              		.comm	BUT_Task_TCB,192,4
 236              		.comm	CommQProcessedEnvironmentData,48,4
 237              		.comm	CommQProcessedOximeterData,48,4
 238              		.comm	CommQSPIData,48,4
 239              		.comm	CommQI2CHeartRate,48,4
 240              		.comm	CommQI2CSPO2,48,4
 241 001e 00BF     		.text
 242              	.Letext0:
 243              		.file 2 ".\\uC-CPU\\ARM-Cortex-M3\\GNU/cpu.h"
 244              		.file 3 "c:\\program files (x86)\\cypress\\psoc creator\\4.4\\psoc creator\\import\\gnu\\arm\\5.4.
 245              		.file 4 "c:\\program files (x86)\\cypress\\psoc creator\\4.4\\psoc creator\\import\\gnu\\arm\\5.4.
 246              		.file 5 ".\\uC-CPU/cpu_core.h"
 247              		.file 6 ".\\uCOS-III\\Source/os_type.h"
 248              		.file 7 ".\\uCOS-III\\Source/os.h"
 249              		.file 8 "Generated_Source\\PSoC5/core_cm3.h"
 250              		.file 9 "./data_processing_task.h"
 251              		.file 10 "./gpio_tasks.h"
 252              		.file 11 "Generated_Source\\PSoC5/Pin_Green_Led.h"
 253              		.file 12 "Generated_Source\\PSoC5/Pin_Blue_Led.h"
 254              		.file 13 "Generated_Source\\PSoC5/Pin_Red_Led.h"
 255              		.file 14 "Generated_Source\\PSoC5/push_button.h"