ARM GAS  C:\Users\CHRONI~1\AppData\Local\Temp\ccRR1D6J.s 			page 1


   1              		.syntax unified
   2              		.cpu cortex-m3
   3              		.fpu softvfp
   4              		.eabi_attribute 20, 1
   5              		.eabi_attribute 21, 1
   6              		.eabi_attribute 23, 3
   7              		.eabi_attribute 24, 1
   8              		.eabi_attribute 25, 1
   9              		.eabi_attribute 26, 1
  10              		.eabi_attribute 30, 1
  11              		.eabi_attribute 34, 1
  12              		.eabi_attribute 18, 4
  13              		.thumb
  14              		.syntax unified
  15              		.file	"bsp_pwm.c"
  16              		.text
  17              	.Ltext0:
  18              		.cfi_sections	.debug_frame
  19              		.section	.text.BSP_PWM_set_Halfperiod,"ax",%progbits
  20              		.align	2
  21              		.global	BSP_PWM_set_Halfperiod
  22              		.thumb
  23              		.thumb_func
  24              		.type	BSP_PWM_set_Halfperiod, %function
  25              	BSP_PWM_set_Halfperiod:
  26              	.LFB0:
  27              		.file 1 "bsp_pwm.c"
   1:bsp_pwm.c     **** /* ========================================
   2:bsp_pwm.c     ****  *
   3:bsp_pwm.c     ****  * Copyright YOUR COMPANY, THE YEAR
   4:bsp_pwm.c     ****  * All Rights Reserved
   5:bsp_pwm.c     ****  * UNPUBLISHED, LICENSED SOFTWARE.
   6:bsp_pwm.c     ****  *
   7:bsp_pwm.c     ****  * CONFIDENTIAL AND PROPRIETARY INFORMATION
   8:bsp_pwm.c     ****  * WHICH IS THE PROPERTY OF your company.
   9:bsp_pwm.c     ****  *
  10:bsp_pwm.c     ****  * ========================================
  11:bsp_pwm.c     **** */
  12:bsp_pwm.c     **** 
  13:bsp_pwm.c     **** #include <bsp_pwm.h>
  14:bsp_pwm.c     **** 
  15:bsp_pwm.c     **** /*
  16:bsp_pwm.c     **** Beschreibung: Setzt die Wechselzeit des gewählten PWMs auf die gesendete
  17:bsp_pwm.c     ****               Halbperiode am gewählten Ausgang
  18:bsp_pwm.c     **** Argumente: PWM Ist der PWM
  19:bsp_pwm.c     ****            Ausgang ist der Ausgang des PWMs
  20:bsp_pwm.c     ****            halbperiode ist die Halbperiode die auf den Ausgang des PWMs
  21:bsp_pwm.c     ****                        geschrieben werden soll
  22:bsp_pwm.c     **** Rückgabe: Nichts
  23:bsp_pwm.c     **** Rufer: App_TaskPWM
  24:bsp_pwm.c     **** Notizen: Keine
  25:bsp_pwm.c     **** */
  26:bsp_pwm.c     **** void BSP_PWM_set_Halfperiod(CPU_INT08U pwm, CPU_INT08U halfperiod)
  27:bsp_pwm.c     **** {
  28              		.loc 1 27 0
  29              		.cfi_startproc
  30              		@ args = 0, pretend = 0, frame = 0
ARM GAS  C:\Users\CHRONI~1\AppData\Local\Temp\ccRR1D6J.s 			page 2


  31              		@ frame_needed = 0, uses_anonymous_args = 0
  32              	.LVL0:
  33 0000 08B5     		push	{r3, lr}
  34              		.cfi_def_cfa_offset 8
  35              		.cfi_offset 3, -8
  36              		.cfi_offset 14, -4
  28:bsp_pwm.c     ****   if (pwm == PWM_ac) PWM_ac_WriteCompare(halfperiod);
  37              		.loc 1 28 0
  38 0002 0228     		cmp	r0, #2
  39 0004 03D1     		bne	.L2
  40              		.loc 1 28 0 is_stmt 0 discriminator 1
  41 0006 0846     		mov	r0, r1
  42              	.LVL1:
  43 0008 FFF7FEFF 		bl	PWM_ac_WriteCompare
  44              	.LVL2:
  45 000c 08BD     		pop	{r3, pc}
  46              	.LVL3:
  47              	.L2:
  29:bsp_pwm.c     ****   else if (pwm == PWM_bo) PWM_bo_WriteCompare(halfperiod);
  48              		.loc 1 29 0 is_stmt 1
  49 000e 0328     		cmp	r0, #3
  50 0010 03D1     		bne	.L4
  51              		.loc 1 29 0 is_stmt 0 discriminator 1
  52 0012 0846     		mov	r0, r1
  53              	.LVL4:
  54 0014 FFF7FEFF 		bl	PWM_bo_WriteCompare
  55              	.LVL5:
  56 0018 08BD     		pop	{r3, pc}
  57              	.LVL6:
  58              	.L4:
  30:bsp_pwm.c     ****   else if (pwm == PWM_hb) PWM_hb_WriteCompare(halfperiod);
  59              		.loc 1 30 0 is_stmt 1
  60 001a 0128     		cmp	r0, #1
  61 001c 02D1     		bne	.L1
  62              		.loc 1 30 0 is_stmt 0 discriminator 1
  63 001e 0846     		mov	r0, r1
  64              	.LVL7:
  65 0020 FFF7FEFF 		bl	PWM_hb_WriteCompare
  66              	.LVL8:
  67              	.L1:
  68 0024 08BD     		pop	{r3, pc}
  69              		.cfi_endproc
  70              	.LFE0:
  71              		.size	BSP_PWM_set_Halfperiod, .-BSP_PWM_set_Halfperiod
  72 0026 00BF     		.section	.text.BSP_PWM_set_Period,"ax",%progbits
  73              		.align	2
  74              		.global	BSP_PWM_set_Period
  75              		.thumb
  76              		.thumb_func
  77              		.type	BSP_PWM_set_Period, %function
  78              	BSP_PWM_set_Period:
  79              	.LFB1:
  31:bsp_pwm.c     **** }
  32:bsp_pwm.c     **** 
  33:bsp_pwm.c     **** void BSP_PWM_set_Period(CPU_INT08U pwm, CPU_INT08U period)
  34:bsp_pwm.c     **** {
  80              		.loc 1 34 0 is_stmt 1
ARM GAS  C:\Users\CHRONI~1\AppData\Local\Temp\ccRR1D6J.s 			page 3


  81              		.cfi_startproc
  82              		@ args = 0, pretend = 0, frame = 0
  83              		@ frame_needed = 0, uses_anonymous_args = 0
  84              	.LVL9:
  85 0000 08B5     		push	{r3, lr}
  86              		.cfi_def_cfa_offset 8
  87              		.cfi_offset 3, -8
  88              		.cfi_offset 14, -4
  35:bsp_pwm.c     ****   if (pwm == PWM_ac) PWM_ac_WritePeriod(period);
  89              		.loc 1 35 0
  90 0002 0228     		cmp	r0, #2
  91 0004 03D1     		bne	.L7
  92              		.loc 1 35 0 is_stmt 0 discriminator 1
  93 0006 0846     		mov	r0, r1
  94              	.LVL10:
  95 0008 FFF7FEFF 		bl	PWM_ac_WritePeriod
  96              	.LVL11:
  97 000c 08BD     		pop	{r3, pc}
  98              	.LVL12:
  99              	.L7:
  36:bsp_pwm.c     ****   else if (pwm == PWM_bo) PWM_bo_WritePeriod(period);
 100              		.loc 1 36 0 is_stmt 1
 101 000e 0328     		cmp	r0, #3
 102 0010 03D1     		bne	.L9
 103              		.loc 1 36 0 is_stmt 0 discriminator 1
 104 0012 0846     		mov	r0, r1
 105              	.LVL13:
 106 0014 FFF7FEFF 		bl	PWM_bo_WritePeriod
 107              	.LVL14:
 108 0018 08BD     		pop	{r3, pc}
 109              	.LVL15:
 110              	.L9:
  37:bsp_pwm.c     ****   else if (pwm == PWM_hb) PWM_hb_WritePeriod(period);
 111              		.loc 1 37 0 is_stmt 1
 112 001a 0128     		cmp	r0, #1
 113 001c 02D1     		bne	.L6
 114              		.loc 1 37 0 is_stmt 0 discriminator 1
 115 001e 0846     		mov	r0, r1
 116              	.LVL16:
 117 0020 FFF7FEFF 		bl	PWM_hb_WritePeriod
 118              	.LVL17:
 119              	.L6:
 120 0024 08BD     		pop	{r3, pc}
 121              		.cfi_endproc
 122              	.LFE1:
 123              		.size	BSP_PWM_set_Period, .-BSP_PWM_set_Period
 124 0026 00BF     		.section	.text.BSP_PWM_Start,"ax",%progbits
 125              		.align	2
 126              		.global	BSP_PWM_Start
 127              		.thumb
 128              		.thumb_func
 129              		.type	BSP_PWM_Start, %function
 130              	BSP_PWM_Start:
 131              	.LFB2:
  38:bsp_pwm.c     **** }
  39:bsp_pwm.c     **** 
  40:bsp_pwm.c     **** /*
ARM GAS  C:\Users\CHRONI~1\AppData\Local\Temp\ccRR1D6J.s 			page 4


  41:bsp_pwm.c     **** Beschreibung: Startet einen PWM
  42:bsp_pwm.c     **** Argumente: Gewählter PWM
  43:bsp_pwm.c     **** Rückgabe: Nichts
  44:bsp_pwm.c     **** Rufer: App_ObjCreate()
  45:bsp_pwm.c     **** Notizen: Keine
  46:bsp_pwm.c     **** */
  47:bsp_pwm.c     **** void BSP_PWM_Start(CPU_INT08U pwm)
  48:bsp_pwm.c     **** {
 132              		.loc 1 48 0 is_stmt 1
 133              		.cfi_startproc
 134              		@ args = 0, pretend = 0, frame = 0
 135              		@ frame_needed = 0, uses_anonymous_args = 0
 136              	.LVL18:
 137 0000 08B5     		push	{r3, lr}
 138              		.cfi_def_cfa_offset 8
 139              		.cfi_offset 3, -8
 140              		.cfi_offset 14, -4
  49:bsp_pwm.c     ****   if (pwm == PWM_ac) PWM_ac_Start();
 141              		.loc 1 49 0
 142 0002 0228     		cmp	r0, #2
 143 0004 02D1     		bne	.L12
 144              		.loc 1 49 0 is_stmt 0 discriminator 1
 145 0006 FFF7FEFF 		bl	PWM_ac_Start
 146              	.LVL19:
 147 000a 08BD     		pop	{r3, pc}
 148              	.LVL20:
 149              	.L12:
  50:bsp_pwm.c     ****   else if (pwm == PWM_bo) PWM_bo_Start();
 150              		.loc 1 50 0 is_stmt 1
 151 000c 0328     		cmp	r0, #3
 152 000e 02D1     		bne	.L14
 153              		.loc 1 50 0 is_stmt 0 discriminator 1
 154 0010 FFF7FEFF 		bl	PWM_bo_Start
 155              	.LVL21:
 156 0014 08BD     		pop	{r3, pc}
 157              	.LVL22:
 158              	.L14:
  51:bsp_pwm.c     ****   else if (pwm == PWM_hb) PWM_hb_Start();
 159              		.loc 1 51 0 is_stmt 1
 160 0016 0128     		cmp	r0, #1
 161 0018 01D1     		bne	.L11
 162              		.loc 1 51 0 is_stmt 0 discriminator 1
 163 001a FFF7FEFF 		bl	PWM_hb_Start
 164              	.LVL23:
 165              	.L11:
 166 001e 08BD     		pop	{r3, pc}
 167              		.cfi_endproc
 168              	.LFE2:
 169              		.size	BSP_PWM_Start, .-BSP_PWM_Start
 170              		.section	.text.BSP_PWM_Stop,"ax",%progbits
 171              		.align	2
 172              		.global	BSP_PWM_Stop
 173              		.thumb
 174              		.thumb_func
 175              		.type	BSP_PWM_Stop, %function
 176              	BSP_PWM_Stop:
 177              	.LFB3:
ARM GAS  C:\Users\CHRONI~1\AppData\Local\Temp\ccRR1D6J.s 			page 5


  52:bsp_pwm.c     **** }
  53:bsp_pwm.c     **** 
  54:bsp_pwm.c     **** void BSP_PWM_Stop(CPU_INT08U pwm)
  55:bsp_pwm.c     **** {
 178              		.loc 1 55 0 is_stmt 1
 179              		.cfi_startproc
 180              		@ args = 0, pretend = 0, frame = 0
 181              		@ frame_needed = 0, uses_anonymous_args = 0
 182              	.LVL24:
 183 0000 08B5     		push	{r3, lr}
 184              		.cfi_def_cfa_offset 8
 185              		.cfi_offset 3, -8
 186              		.cfi_offset 14, -4
  56:bsp_pwm.c     ****   if (pwm == PWM_ac) PWM_ac_Stop();
 187              		.loc 1 56 0
 188 0002 0228     		cmp	r0, #2
 189 0004 02D1     		bne	.L17
 190              		.loc 1 56 0 is_stmt 0 discriminator 1
 191 0006 FFF7FEFF 		bl	PWM_ac_Stop
 192              	.LVL25:
 193 000a 08BD     		pop	{r3, pc}
 194              	.LVL26:
 195              	.L17:
  57:bsp_pwm.c     ****   else if (pwm == PWM_bo) PWM_bo_Stop();
 196              		.loc 1 57 0 is_stmt 1
 197 000c 0328     		cmp	r0, #3
 198 000e 02D1     		bne	.L19
 199              		.loc 1 57 0 is_stmt 0 discriminator 1
 200 0010 FFF7FEFF 		bl	PWM_bo_Stop
 201              	.LVL27:
 202 0014 08BD     		pop	{r3, pc}
 203              	.LVL28:
 204              	.L19:
  58:bsp_pwm.c     ****   else if (pwm == PWM_hb) PWM_hb_Stop();
 205              		.loc 1 58 0 is_stmt 1
 206 0016 0128     		cmp	r0, #1
 207 0018 01D1     		bne	.L16
 208              		.loc 1 58 0 is_stmt 0 discriminator 1
 209 001a FFF7FEFF 		bl	PWM_hb_Stop
 210              	.LVL29:
 211              	.L16:
 212 001e 08BD     		pop	{r3, pc}
 213              		.cfi_endproc
 214              	.LFE3:
 215              		.size	BSP_PWM_Stop, .-BSP_PWM_Stop
 216              		.text
 217              	.Letext0:
 218              		.file 2 "Generated_Source\\PSoC5/PWM_ac.h"
 219              		.file 3 "Generated_Source\\PSoC5/PWM_bo.h"
 220              		.file 4 "Generated_Source\\PSoC5/PWM_hb.h"
 221              		.file 5 ".\\uC-CPU\\ARM-Cortex-M3\\GNU/cpu.h"