ARM GAS  C:\Users\CHRONI~1\AppData\Local\Temp\ccZE9MMd.s 			page 1


   1              		.syntax unified
   2              		.cpu cortex-m3
   3              		.fpu softvfp
   4              		.eabi_attribute 20, 1
   5              		.eabi_attribute 21, 1
   6              		.eabi_attribute 23, 3
   7              		.eabi_attribute 24, 1
   8              		.eabi_attribute 25, 1
   9              		.eabi_attribute 26, 1
  10              		.eabi_attribute 30, 1
  11              		.eabi_attribute 34, 1
  12              		.eabi_attribute 18, 4
  13              		.thumb
  14              		.syntax unified
  15              		.file	"bsp_i2c.c"
  16              		.text
  17              	.Ltext0:
  18              		.cfi_sections	.debug_frame
  19              		.section	.text.Timer_ISR,"ax",%progbits
  20              		.align	2
  21              		.global	Timer_ISR
  22              		.thumb
  23              		.thumb_func
  24              		.type	Timer_ISR, %function
  25              	Timer_ISR:
  26              	.LFB64:
  27              		.file 1 "bsp_i2c.c"
   1:bsp_i2c.c     **** #include "bsp_i2c.h"
   2:bsp_i2c.c     **** /*
   3:bsp_i2c.c     **** ***************************************************************************************************
   4:bsp_i2c.c     **** *                                         Timer ISR
   5:bsp_i2c.c     **** ***************************************************************************************************
   6:bsp_i2c.c     **** */
   7:bsp_i2c.c     **** OS_SEM I2C_Sem;
   8:bsp_i2c.c     **** volatile CPU_INT32U current_timestamp = 0;
   9:bsp_i2c.c     **** // Timer ISR to increment timestamp
  10:bsp_i2c.c     **** CY_ISR(Timer_ISR) {
  28              		.loc 1 10 0
  29              		.cfi_startproc
  30              		@ args = 0, pretend = 0, frame = 0
  31              		@ frame_needed = 0, uses_anonymous_args = 0
  32              		@ link register save eliminated.
  11:bsp_i2c.c     ****     current_timestamp++;
  33              		.loc 1 11 0
  34 0000 024A     		ldr	r2, .L2
  35 0002 1368     		ldr	r3, [r2]
  36 0004 0133     		adds	r3, r3, #1
  37 0006 1360     		str	r3, [r2]
  38 0008 7047     		bx	lr
  39              	.L3:
  40 000a 00BF     		.align	2
  41              	.L2:
  42 000c 00000000 		.word	.LANCHOR0
  43              		.cfi_endproc
  44              	.LFE64:
  45              		.size	Timer_ISR, .-Timer_ISR
  46              		.section	.text.I2C_Init,"ax",%progbits
ARM GAS  C:\Users\CHRONI~1\AppData\Local\Temp\ccZE9MMd.s 			page 2


  47              		.align	2
  48              		.global	I2C_Init
  49              		.thumb
  50              		.thumb_func
  51              		.type	I2C_Init, %function
  52              	I2C_Init:
  53              	.LFB65:
  12:bsp_i2c.c     **** }
  13:bsp_i2c.c     **** 
  14:bsp_i2c.c     **** /*
  15:bsp_i2c.c     **** ***************************************************************************************************
  16:bsp_i2c.c     **** *                                         I2C Initialization (Task Creation)
  17:bsp_i2c.c     **** ***************************************************************************************************
  18:bsp_i2c.c     **** */
  19:bsp_i2c.c     **** void I2C_Init(void) {
  54              		.loc 1 19 0
  55              		.cfi_startproc
  56              		@ args = 0, pretend = 0, frame = 8
  57              		@ frame_needed = 0, uses_anonymous_args = 0
  58 0000 00B5     		push	{lr}
  59              		.cfi_def_cfa_offset 4
  60              		.cfi_offset 14, -4
  61 0002 83B0     		sub	sp, sp, #12
  62              		.cfi_def_cfa_offset 16
  20:bsp_i2c.c     ****     OS_ERR os_err;
  21:bsp_i2c.c     ****   
  22:bsp_i2c.c     ****     OSSemCreate(&I2C_Sem, "I2C Semaphore", 1, &os_err);
  63              		.loc 1 22 0
  64 0004 0DF10603 		add	r3, sp, #6
  65 0008 0122     		movs	r2, #1
  66 000a 0C49     		ldr	r1, .L6
  67 000c 0C48     		ldr	r0, .L6+4
  68 000e FFF7FEFF 		bl	OSSemCreate
  69              	.LVL0:
  23:bsp_i2c.c     ****     Log_Write(LOG_LEVEL_I2C, "Starting I2C hardware initialization", 0);
  70              		.loc 1 23 0
  71 0012 0022     		movs	r2, #0
  72 0014 0B49     		ldr	r1, .L6+8
  73 0016 2020     		movs	r0, #32
  74 0018 FFF7FEFF 		bl	Log_Write
  75              	.LVL1:
  24:bsp_i2c.c     ****     I2C_1_Start();
  76              		.loc 1 24 0
  77 001c FFF7FEFF 		bl	I2C_1_Start
  78              	.LVL2:
  25:bsp_i2c.c     ****     Log_Write(LOG_LEVEL_I2C, "I2C hardware started", 0);
  79              		.loc 1 25 0
  80 0020 0022     		movs	r2, #0
  81 0022 0949     		ldr	r1, .L6+12
  82 0024 2020     		movs	r0, #32
  83 0026 FFF7FEFF 		bl	Log_Write
  84              	.LVL3:
  26:bsp_i2c.c     **** 
  27:bsp_i2c.c     ****     
  28:bsp_i2c.c     ****     // Start the timer and enable its ISR to track time for I2C operations
  29:bsp_i2c.c     ****     Timer_1_Start();
  85              		.loc 1 29 0
ARM GAS  C:\Users\CHRONI~1\AppData\Local\Temp\ccZE9MMd.s 			page 3


  86 002a FFF7FEFF 		bl	Timer_1_Start
  87              	.LVL4:
  30:bsp_i2c.c     ****     Timer_ISR_StartEx(Timer_ISR);
  88              		.loc 1 30 0
  89 002e 0748     		ldr	r0, .L6+16
  90 0030 FFF7FEFF 		bl	Timer_ISR_StartEx
  91              	.LVL5:
  31:bsp_i2c.c     **** }
  92              		.loc 1 31 0
  93 0034 03B0     		add	sp, sp, #12
  94              		.cfi_def_cfa_offset 4
  95              		@ sp needed
  96 0036 5DF804FB 		ldr	pc, [sp], #4
  97              	.L7:
  98 003a 00BF     		.align	2
  99              	.L6:
 100 003c 00000000 		.word	.LC0
 101 0040 00000000 		.word	I2C_Sem
 102 0044 10000000 		.word	.LC1
 103 0048 38000000 		.word	.LC2
 104 004c 00000000 		.word	Timer_ISR
 105              		.cfi_endproc
 106              	.LFE65:
 107              		.size	I2C_Init, .-I2C_Init
 108              		.section	.text.bsp_i2c_read,"ax",%progbits
 109              		.align	2
 110              		.global	bsp_i2c_read
 111              		.thumb
 112              		.thumb_func
 113              		.type	bsp_i2c_read, %function
 114              	bsp_i2c_read:
 115              	.LFB66:
  32:bsp_i2c.c     **** 
  33:bsp_i2c.c     **** /*
  34:bsp_i2c.c     **** ***************************************************************************************************
  35:bsp_i2c.c     **** *                                         I2C Read Function
  36:bsp_i2c.c     **** ***************************************************************************************************
  37:bsp_i2c.c     **** */
  38:bsp_i2c.c     **** CPU_INT08U bsp_i2c_read(CPU_INT08U addr, CPU_INT08U reg, CPU_INT08U *buf, CPU_INT16U len) {
 116              		.loc 1 38 0
 117              		.cfi_startproc
 118              		@ args = 0, pretend = 0, frame = 8
 119              		@ frame_needed = 0, uses_anonymous_args = 0
 120              	.LVL6:
 121 0000 F0B5     		push	{r4, r5, r6, r7, lr}
 122              		.cfi_def_cfa_offset 20
 123              		.cfi_offset 4, -20
 124              		.cfi_offset 5, -16
 125              		.cfi_offset 6, -12
 126              		.cfi_offset 7, -8
 127              		.cfi_offset 14, -4
 128 0002 85B0     		sub	sp, sp, #20
 129              		.cfi_def_cfa_offset 40
 130 0004 0446     		mov	r4, r0
 131 0006 0F46     		mov	r7, r1
 132 0008 1646     		mov	r6, r2
 133 000a 1D46     		mov	r5, r3
ARM GAS  C:\Users\CHRONI~1\AppData\Local\Temp\ccZE9MMd.s 			page 4


  39:bsp_i2c.c     ****   CPU_INT08U status;
  40:bsp_i2c.c     ****   OS_ERR err;
  41:bsp_i2c.c     ****     
  42:bsp_i2c.c     ****   
  43:bsp_i2c.c     ****     OSSemPend(&I2C_Sem, 0, OS_OPT_PEND_BLOCKING, NULL, &err); 
 134              		.loc 1 43 0
 135 000c 0DF10E03 		add	r3, sp, #14
 136              	.LVL7:
 137 0010 0093     		str	r3, [sp]
 138 0012 0023     		movs	r3, #0
 139 0014 1A46     		mov	r2, r3
 140              	.LVL8:
 141 0016 1946     		mov	r1, r3
 142              	.LVL9:
 143 0018 2848     		ldr	r0, .L17
 144              	.LVL10:
 145 001a FFF7FEFF 		bl	OSSemPend
 146              	.LVL11:
  44:bsp_i2c.c     ****     
  45:bsp_i2c.c     ****     if(err != 0){
 147              		.loc 1 45 0
 148 001e BDF80E20 		ldrh	r2, [sp, #14]
 149 0022 1AB1     		cbz	r2, .L9
  46:bsp_i2c.c     ****       Log_Write(LOG_LEVEL_ERROR, "I2C read Sem Pend failed :%d", err); // Log error if restart fail
 150              		.loc 1 46 0
 151 0024 2649     		ldr	r1, .L17+4
 152 0026 0420     		movs	r0, #4
 153 0028 FFF7FEFF 		bl	Log_Write
 154              	.LVL12:
 155              	.L9:
  47:bsp_i2c.c     ****     }
  48:bsp_i2c.c     ****     
  49:bsp_i2c.c     ****     // Start I2C communication in write mode to send the register address
  50:bsp_i2c.c     ****     status = I2C_1_MasterSendStart(addr, I2C_1_WRITE_XFER_MODE);
 156              		.loc 1 50 0
 157 002c 0021     		movs	r1, #0
 158 002e 2046     		mov	r0, r4
 159 0030 FFF7FEFF 		bl	I2C_1_MasterSendStart
 160              	.LVL13:
  51:bsp_i2c.c     ****     if (status != I2C_1_MSTR_NO_ERROR) {
 161              		.loc 1 51 0
 162 0034 0246     		mov	r2, r0
 163 0036 58B1     		cbz	r0, .L10
  52:bsp_i2c.c     ****         Log_Write(LOG_LEVEL_ERROR, "I2C Read Start Error", status); // Log error if start fails
 164              		.loc 1 52 0
 165 0038 2249     		ldr	r1, .L17+8
 166 003a 0420     		movs	r0, #4
 167              	.LVL14:
 168 003c FFF7FEFF 		bl	Log_Write
 169              	.LVL15:
  53:bsp_i2c.c     ****         OSSemPost(&I2C_Sem, OS_OPT_POST_1, &err);
 170              		.loc 1 53 0
 171 0040 0DF10E02 		add	r2, sp, #14
 172 0044 0021     		movs	r1, #0
 173 0046 1D48     		ldr	r0, .L17
 174 0048 FFF7FEFF 		bl	OSSemPost
 175              	.LVL16:
ARM GAS  C:\Users\CHRONI~1\AppData\Local\Temp\ccZE9MMd.s 			page 5


  54:bsp_i2c.c     ****         return 1; // Exit with error
 176              		.loc 1 54 0
 177 004c 0120     		movs	r0, #1
 178 004e 33E0     		b	.L11
 179              	.LVL17:
 180              	.L10:
  55:bsp_i2c.c     ****     }
  56:bsp_i2c.c     **** 
  57:bsp_i2c.c     ****     // Send the register address to the device
  58:bsp_i2c.c     ****     I2C_1_MasterWriteByte(reg);
 181              		.loc 1 58 0
 182 0050 3846     		mov	r0, r7
 183              	.LVL18:
 184 0052 FFF7FEFF 		bl	I2C_1_MasterWriteByte
 185              	.LVL19:
  59:bsp_i2c.c     **** 
  60:bsp_i2c.c     ****     // Restart I2C in read mode to read data from the device
  61:bsp_i2c.c     ****     status = I2C_1_MasterSendRestart(addr, I2C_1_READ_XFER_MODE);
 186              		.loc 1 61 0
 187 0056 0121     		movs	r1, #1
 188 0058 2046     		mov	r0, r4
 189 005a FFF7FEFF 		bl	I2C_1_MasterSendRestart
 190              	.LVL20:
  62:bsp_i2c.c     ****     if (status != I2C_1_MSTR_NO_ERROR) {
 191              		.loc 1 62 0
 192 005e 0246     		mov	r2, r0
 193 0060 A8B1     		cbz	r0, .L14
  63:bsp_i2c.c     ****         Log_Write(LOG_LEVEL_ERROR, "I2C Read Restart Error", status); // Log error if restart fails
 194              		.loc 1 63 0
 195 0062 1949     		ldr	r1, .L17+12
 196 0064 0420     		movs	r0, #4
 197              	.LVL21:
 198 0066 FFF7FEFF 		bl	Log_Write
 199              	.LVL22:
  64:bsp_i2c.c     ****         OSSemPost(&I2C_Sem, OS_OPT_POST_1, &err);
 200              		.loc 1 64 0
 201 006a 0DF10E02 		add	r2, sp, #14
 202 006e 0021     		movs	r1, #0
 203 0070 1248     		ldr	r0, .L17
 204 0072 FFF7FEFF 		bl	OSSemPost
 205              	.LVL23:
  65:bsp_i2c.c     ****         return 1; // Exit with error
 206              		.loc 1 65 0
 207 0076 0120     		movs	r0, #1
 208 0078 1EE0     		b	.L11
 209              	.LVL24:
 210              	.L13:
 211              	.LBB2:
  66:bsp_i2c.c     ****     }
  67:bsp_i2c.c     **** 
  68:bsp_i2c.c     ****     // Read the specified number of bytes from the device
  69:bsp_i2c.c     ****     for (CPU_INT16U i = 0; i < len; i++) {
  70:bsp_i2c.c     ****         // Read a byte with ACK for all but the last byte, which uses NAK
  71:bsp_i2c.c     ****         buf[i] = I2C_1_MasterReadByte((i == (len - 1)) ? I2C_1_NAK_DATA : I2C_1_ACK_DATA);
 212              		.loc 1 71 0 discriminator 3
 213 007a 681E     		subs	r0, r5, #1
 214 007c 201A     		subs	r0, r4, r0
ARM GAS  C:\Users\CHRONI~1\AppData\Local\Temp\ccZE9MMd.s 			page 6


 215 007e 18BF     		it	ne
 216 0080 0120     		movne	r0, #1
 217 0082 FFF7FEFF 		bl	I2C_1_MasterReadByte
 218              	.LVL25:
 219 0086 3055     		strb	r0, [r6, r4]
  69:bsp_i2c.c     ****         // Read a byte with ACK for all but the last byte, which uses NAK
 220              		.loc 1 69 0 discriminator 3
 221 0088 0134     		adds	r4, r4, #1
 222              	.LVL26:
 223 008a A4B2     		uxth	r4, r4
 224              	.LVL27:
 225 008c 00E0     		b	.L12
 226              	.LVL28:
 227              	.L14:
 228              	.LBE2:
 229 008e 0024     		movs	r4, #0
 230              	.LVL29:
 231              	.L12:
 232              	.LBB3:
  69:bsp_i2c.c     ****         // Read a byte with ACK for all but the last byte, which uses NAK
 233              		.loc 1 69 0 is_stmt 0 discriminator 1
 234 0090 AC42     		cmp	r4, r5
 235 0092 F2D3     		bcc	.L13
 236              	.LBE3:
  72:bsp_i2c.c     ****     }
  73:bsp_i2c.c     **** 
  74:bsp_i2c.c     ****     // End the I2C transaction
  75:bsp_i2c.c     ****     I2C_1_MasterSendStop();
 237              		.loc 1 75 0 is_stmt 1
 238 0094 FFF7FEFF 		bl	I2C_1_MasterSendStop
 239              	.LVL30:
  76:bsp_i2c.c     ****     
  77:bsp_i2c.c     ****     OSSemPost(&I2C_Sem, OS_OPT_POST_1, &err);
 240              		.loc 1 77 0
 241 0098 0DF10E02 		add	r2, sp, #14
 242 009c 0021     		movs	r1, #0
 243 009e 0748     		ldr	r0, .L17
 244 00a0 FFF7FEFF 		bl	OSSemPost
 245              	.LVL31:
  78:bsp_i2c.c     ****     
  79:bsp_i2c.c     ****     if(err != 0){
 246              		.loc 1 79 0
 247 00a4 BDF80E20 		ldrh	r2, [sp, #14]
 248 00a8 2AB1     		cbz	r2, .L15
  80:bsp_i2c.c     ****       Log_Write(LOG_LEVEL_ERROR, "I2C read Sem Post failed :%d", err); // Log error if restart fail
 249              		.loc 1 80 0
 250 00aa 0849     		ldr	r1, .L17+16
 251 00ac 0420     		movs	r0, #4
 252 00ae FFF7FEFF 		bl	Log_Write
 253              	.LVL32:
  81:bsp_i2c.c     ****     }
  82:bsp_i2c.c     ****     return 0; // Success
 254              		.loc 1 82 0
 255 00b2 0020     		movs	r0, #0
 256 00b4 00E0     		b	.L11
 257              	.L15:
 258 00b6 0020     		movs	r0, #0
ARM GAS  C:\Users\CHRONI~1\AppData\Local\Temp\ccZE9MMd.s 			page 7


 259              	.LVL33:
 260              	.L11:
  83:bsp_i2c.c     **** }
 261              		.loc 1 83 0
 262 00b8 05B0     		add	sp, sp, #20
 263              		.cfi_def_cfa_offset 20
 264              		@ sp needed
 265 00ba F0BD     		pop	{r4, r5, r6, r7, pc}
 266              	.LVL34:
 267              	.L18:
 268              		.align	2
 269              	.L17:
 270 00bc 00000000 		.word	I2C_Sem
 271 00c0 50000000 		.word	.LC3
 272 00c4 70000000 		.word	.LC4
 273 00c8 88000000 		.word	.LC5
 274 00cc A0000000 		.word	.LC6
 275              		.cfi_endproc
 276              	.LFE66:
 277              		.size	bsp_i2c_read, .-bsp_i2c_read
 278              		.section	.text.bsp_i2c_write,"ax",%progbits
 279              		.align	2
 280              		.global	bsp_i2c_write
 281              		.thumb
 282              		.thumb_func
 283              		.type	bsp_i2c_write, %function
 284              	bsp_i2c_write:
 285              	.LFB67:
  84:bsp_i2c.c     **** 
  85:bsp_i2c.c     **** /*
  86:bsp_i2c.c     **** ***************************************************************************************************
  87:bsp_i2c.c     **** *                                         I2C Write Function
  88:bsp_i2c.c     **** ***************************************************************************************************
  89:bsp_i2c.c     **** */
  90:bsp_i2c.c     **** CPU_INT08U bsp_i2c_write(CPU_INT08U addr, CPU_INT08U reg, CPU_INT08U *data, CPU_INT16U len) {
 286              		.loc 1 90 0
 287              		.cfi_startproc
 288              		@ args = 0, pretend = 0, frame = 8
 289              		@ frame_needed = 0, uses_anonymous_args = 0
 290              	.LVL35:
 291 0000 F0B5     		push	{r4, r5, r6, r7, lr}
 292              		.cfi_def_cfa_offset 20
 293              		.cfi_offset 4, -20
 294              		.cfi_offset 5, -16
 295              		.cfi_offset 6, -12
 296              		.cfi_offset 7, -8
 297              		.cfi_offset 14, -4
 298 0002 85B0     		sub	sp, sp, #20
 299              		.cfi_def_cfa_offset 40
 300 0004 0446     		mov	r4, r0
 301 0006 0F46     		mov	r7, r1
 302 0008 1646     		mov	r6, r2
 303 000a 1D46     		mov	r5, r3
  91:bsp_i2c.c     ****     CPU_INT08U status;
  92:bsp_i2c.c     ****     OS_ERR err;
  93:bsp_i2c.c     **** 
  94:bsp_i2c.c     ****     OSSemPend(&I2C_Sem, 0, OS_OPT_PEND_BLOCKING, NULL, &err); 
ARM GAS  C:\Users\CHRONI~1\AppData\Local\Temp\ccZE9MMd.s 			page 8


 304              		.loc 1 94 0
 305 000c 0DF10E03 		add	r3, sp, #14
 306              	.LVL36:
 307 0010 0093     		str	r3, [sp]
 308 0012 0023     		movs	r3, #0
 309 0014 1A46     		mov	r2, r3
 310              	.LVL37:
 311 0016 1946     		mov	r1, r3
 312              	.LVL38:
 313 0018 1D48     		ldr	r0, .L27
 314              	.LVL39:
 315 001a FFF7FEFF 		bl	OSSemPend
 316              	.LVL40:
  95:bsp_i2c.c     ****     if(err != 0){
 317              		.loc 1 95 0
 318 001e BDF80E20 		ldrh	r2, [sp, #14]
 319 0022 1AB1     		cbz	r2, .L20
  96:bsp_i2c.c     ****       Log_Write(LOG_LEVEL_ERROR, "I2C write Sem Pend failed :%d", err); // Log error if restart fai
 320              		.loc 1 96 0
 321 0024 1B49     		ldr	r1, .L27+4
 322 0026 0420     		movs	r0, #4
 323 0028 FFF7FEFF 		bl	Log_Write
 324              	.LVL41:
 325              	.L20:
  97:bsp_i2c.c     ****     }
  98:bsp_i2c.c     ****     // Start I2C communication in write mode to send data to the device
  99:bsp_i2c.c     ****     status = I2C_1_MasterSendStart(addr, I2C_1_WRITE_XFER_MODE);
 326              		.loc 1 99 0
 327 002c 0021     		movs	r1, #0
 328 002e 2046     		mov	r0, r4
 329 0030 FFF7FEFF 		bl	I2C_1_MasterSendStart
 330              	.LVL42:
 100:bsp_i2c.c     ****     if (status != I2C_1_MSTR_NO_ERROR) {
 331              		.loc 1 100 0
 332 0034 0246     		mov	r2, r0
 333 0036 58B1     		cbz	r0, .L21
 101:bsp_i2c.c     ****         Log_Write(LOG_LEVEL_ERROR, "I2C Write Start Error", status); // Log error if start fails
 334              		.loc 1 101 0
 335 0038 1749     		ldr	r1, .L27+8
 336 003a 0420     		movs	r0, #4
 337              	.LVL43:
 338 003c FFF7FEFF 		bl	Log_Write
 339              	.LVL44:
 102:bsp_i2c.c     ****         OSSemPost(&I2C_Sem, OS_OPT_POST_1, &err);
 340              		.loc 1 102 0
 341 0040 0DF10E02 		add	r2, sp, #14
 342 0044 0021     		movs	r1, #0
 343 0046 1248     		ldr	r0, .L27
 344 0048 FFF7FEFF 		bl	OSSemPost
 345              	.LVL45:
 103:bsp_i2c.c     ****         return 1; // Exit with error
 346              		.loc 1 103 0
 347 004c 0120     		movs	r0, #1
 348 004e 1DE0     		b	.L22
 349              	.LVL46:
 350              	.L21:
 104:bsp_i2c.c     ****     }
ARM GAS  C:\Users\CHRONI~1\AppData\Local\Temp\ccZE9MMd.s 			page 9


 105:bsp_i2c.c     **** 
 106:bsp_i2c.c     ****     // Send the register address to the device
 107:bsp_i2c.c     ****     I2C_1_MasterWriteByte(reg);
 351              		.loc 1 107 0
 352 0050 3846     		mov	r0, r7
 353              	.LVL47:
 354 0052 FFF7FEFF 		bl	I2C_1_MasterWriteByte
 355              	.LVL48:
 356              	.LBB4:
 108:bsp_i2c.c     **** 
 109:bsp_i2c.c     ****     // Write the specified number of bytes to the device
 110:bsp_i2c.c     ****     for (CPU_INT16U i = 0; i < len; i++) {
 357              		.loc 1 110 0
 358 0056 0024     		movs	r4, #0
 359 0058 04E0     		b	.L23
 360              	.LVL49:
 361              	.L24:
 111:bsp_i2c.c     ****         I2C_1_MasterWriteByte(data[i]); // Write each byte in the data array
 362              		.loc 1 111 0 discriminator 3
 363 005a 305D     		ldrb	r0, [r6, r4]	@ zero_extendqisi2
 364 005c FFF7FEFF 		bl	I2C_1_MasterWriteByte
 365              	.LVL50:
 110:bsp_i2c.c     ****         I2C_1_MasterWriteByte(data[i]); // Write each byte in the data array
 366              		.loc 1 110 0 discriminator 3
 367 0060 0134     		adds	r4, r4, #1
 368              	.LVL51:
 369 0062 A4B2     		uxth	r4, r4
 370              	.LVL52:
 371              	.L23:
 110:bsp_i2c.c     ****         I2C_1_MasterWriteByte(data[i]); // Write each byte in the data array
 372              		.loc 1 110 0 is_stmt 0 discriminator 1
 373 0064 AC42     		cmp	r4, r5
 374 0066 F8D3     		bcc	.L24
 375              	.LBE4:
 112:bsp_i2c.c     ****     }
 113:bsp_i2c.c     **** 
 114:bsp_i2c.c     ****     // End the I2C transaction
 115:bsp_i2c.c     ****     I2C_1_MasterSendStop();
 376              		.loc 1 115 0 is_stmt 1
 377 0068 FFF7FEFF 		bl	I2C_1_MasterSendStop
 378              	.LVL53:
 116:bsp_i2c.c     ****     
 117:bsp_i2c.c     ****     OSSemPost(&I2C_Sem, OS_OPT_POST_1, &err);
 379              		.loc 1 117 0
 380 006c 0DF10E02 		add	r2, sp, #14
 381 0070 0021     		movs	r1, #0
 382 0072 0748     		ldr	r0, .L27
 383 0074 FFF7FEFF 		bl	OSSemPost
 384              	.LVL54:
 118:bsp_i2c.c     ****     if(err != 0){
 385              		.loc 1 118 0
 386 0078 BDF80E20 		ldrh	r2, [sp, #14]
 387 007c 2AB1     		cbz	r2, .L25
 119:bsp_i2c.c     ****       Log_Write(LOG_LEVEL_ERROR, "I2C write Sem Post failed :%d", err); // Log error if restart fai
 388              		.loc 1 119 0
 389 007e 0749     		ldr	r1, .L27+12
 390 0080 0420     		movs	r0, #4
ARM GAS  C:\Users\CHRONI~1\AppData\Local\Temp\ccZE9MMd.s 			page 10


 391 0082 FFF7FEFF 		bl	Log_Write
 392              	.LVL55:
 120:bsp_i2c.c     ****     }
 121:bsp_i2c.c     ****     return 0; // Success
 393              		.loc 1 121 0
 394 0086 0020     		movs	r0, #0
 395 0088 00E0     		b	.L22
 396              	.L25:
 397 008a 0020     		movs	r0, #0
 398              	.LVL56:
 399              	.L22:
 122:bsp_i2c.c     **** }
 400              		.loc 1 122 0
 401 008c 05B0     		add	sp, sp, #20
 402              		.cfi_def_cfa_offset 20
 403              		@ sp needed
 404 008e F0BD     		pop	{r4, r5, r6, r7, pc}
 405              	.LVL57:
 406              	.L28:
 407              		.align	2
 408              	.L27:
 409 0090 00000000 		.word	I2C_Sem
 410 0094 C0000000 		.word	.LC7
 411 0098 E0000000 		.word	.LC8
 412 009c F8000000 		.word	.LC9
 413              		.cfi_endproc
 414              	.LFE67:
 415              		.size	bsp_i2c_write, .-bsp_i2c_write
 416              		.global	current_timestamp
 417              		.comm	I2C_Sem,40,4
 418              		.comm	LedG_TaskStk,256,4
 419              		.comm	LedG_Task_TCB,192,4
 420              		.comm	LedRB_TaskStk,256,4
 421              		.comm	LedRB_Task_TCB,192,4
 422              		.comm	BUT_TaskStk,256,4
 423              		.comm	BUT_Task_TCB,192,4
 424              		.comm	CommQProcessedEnvironmentData,48,4
 425              		.comm	CommQProcessedOximeterData,48,4
 426              		.comm	CommQSPIData,48,4
 427              		.comm	CommQI2CHeartRate,48,4
 428              		.comm	CommQI2CSPO2,48,4
 429              		.section	.rodata.str1.4,"aMS",%progbits,1
 430              		.align	2
 431              	.LC0:
 432 0000 49324320 		.ascii	"I2C Semaphore\000"
 432      53656D61 
 432      70686F72 
 432      6500
 433 000e 0000     		.space	2
 434              	.LC1:
 435 0010 53746172 		.ascii	"Starting I2C hardware initialization\000"
 435      74696E67 
 435      20493243 
 435      20686172 
 435      64776172 
 436 0035 000000   		.space	3
 437              	.LC2:
ARM GAS  C:\Users\CHRONI~1\AppData\Local\Temp\ccZE9MMd.s 			page 11


 438 0038 49324320 		.ascii	"I2C hardware started\000"
 438      68617264 
 438      77617265 
 438      20737461 
 438      72746564 
 439 004d 000000   		.space	3
 440              	.LC3:
 441 0050 49324320 		.ascii	"I2C read Sem Pend failed :%d\000"
 441      72656164 
 441      2053656D 
 441      2050656E 
 441      64206661 
 442 006d 000000   		.space	3
 443              	.LC4:
 444 0070 49324320 		.ascii	"I2C Read Start Error\000"
 444      52656164 
 444      20537461 
 444      72742045 
 444      72726F72 
 445 0085 000000   		.space	3
 446              	.LC5:
 447 0088 49324320 		.ascii	"I2C Read Restart Error\000"
 447      52656164 
 447      20526573 
 447      74617274 
 447      20457272 
 448 009f 00       		.space	1
 449              	.LC6:
 450 00a0 49324320 		.ascii	"I2C read Sem Post failed :%d\000"
 450      72656164 
 450      2053656D 
 450      20506F73 
 450      74206661 
 451 00bd 000000   		.space	3
 452              	.LC7:
 453 00c0 49324320 		.ascii	"I2C write Sem Pend failed :%d\000"
 453      77726974 
 453      65205365 
 453      6D205065 
 453      6E642066 
 454 00de 0000     		.space	2
 455              	.LC8:
 456 00e0 49324320 		.ascii	"I2C Write Start Error\000"
 456      57726974 
 456      65205374 
 456      61727420 
 456      4572726F 
 457 00f6 0000     		.space	2
 458              	.LC9:
 459 00f8 49324320 		.ascii	"I2C write Sem Post failed :%d\000"
 459      77726974 
 459      65205365 
 459      6D20506F 
 459      73742066 
 460              		.bss
 461              		.align	2
 462              		.set	.LANCHOR0,. + 0
ARM GAS  C:\Users\CHRONI~1\AppData\Local\Temp\ccZE9MMd.s 			page 12


 463              		.type	current_timestamp, %object
 464              		.size	current_timestamp, 4
 465              	current_timestamp:
 466 0000 00000000 		.space	4
 467              		.text
 468              	.Letext0:
 469              		.file 2 ".\\uC-CPU\\ARM-Cortex-M3\\GNU/cpu.h"
 470              		.file 3 "c:\\program files (x86)\\cypress\\psoc creator\\4.4\\psoc creator\\import\\gnu\\arm\\5.4.
 471              		.file 4 "c:\\program files (x86)\\cypress\\psoc creator\\4.4\\psoc creator\\import\\gnu\\arm\\5.4.
 472              		.file 5 ".\\uC-CPU/cpu_core.h"
 473              		.file 6 ".\\uCOS-III\\Source/os_type.h"
 474              		.file 7 ".\\uCOS-III\\Source/os.h"
 475              		.file 8 "./heartbeatSensor.h"
 476              		.file 9 "Generated_Source\\PSoC5/core_cm3.h"
 477              		.file 10 "./data_processing_task.h"
 478              		.file 11 "./gpio_tasks.h"
 479              		.file 12 "./log_task.h"
 480              		.file 13 "Generated_Source\\PSoC5/I2C_1.h"
 481              		.file 14 "Generated_Source\\PSoC5/Timer_1.h"
 482              		.file 15 "Generated_Source\\PSoC5/Timer_ISR.h"