ARM GAS  C:\Users\batuh\AppData\Local\Temp\ccESjjHg.s 			page 1


   1              		.syntax unified
   2              		.cpu cortex-m3
   3              		.fpu softvfp
   4              		.eabi_attribute 20, 1
   5              		.eabi_attribute 21, 1
   6              		.eabi_attribute 23, 3
   7              		.eabi_attribute 24, 1
   8              		.eabi_attribute 25, 1
   9              		.eabi_attribute 26, 1
  10              		.eabi_attribute 30, 1
  11              		.eabi_attribute 34, 1
  12              		.eabi_attribute 18, 4
  13              		.thumb
  14              		.syntax unified
  15              		.file	"data_processing_task.c"
  16              		.text
  17              	.Ltext0:
  18              		.cfi_sections	.debug_frame
  19              		.section	.text.initMessageQueues,"ax",%progbits
  20              		.align	2
  21              		.global	initMessageQueues
  22              		.thumb
  23              		.thumb_func
  24              		.type	initMessageQueues, %function
  25              	initMessageQueues:
  26              	.LFB64:
  27              		.file 1 "data_processing_task.c"
   1:data_processing_task.c **** #include "data_processing_task.h"
   2:data_processing_task.c **** #include <app_cfg.h>
   3:data_processing_task.c **** #include "log_task.h"
   4:data_processing_task.c **** #include "os.h"
   5:data_processing_task.c **** 
   6:data_processing_task.c **** /* Task Control Block and Stack */
   7:data_processing_task.c **** OS_TCB Data_Processing_TCB;
   8:data_processing_task.c **** CPU_STK Data_Processing_TaskStk[APP_CFG_TASK_DATA_PROCESSING_STK_SIZE];
   9:data_processing_task.c **** 
  10:data_processing_task.c **** /* Function prototype */
  11:data_processing_task.c **** static void Data_Processing_Task(void *p_arg);
  12:data_processing_task.c **** 
  13:data_processing_task.c **** /**
  14:data_processing_task.c ****  @brief This function initializes two message queues to send processed sensor values.
  15:data_processing_task.c **** 
  16:data_processing_task.c ****  @param none
  17:data_processing_task.c **** **/
  18:data_processing_task.c **** void initMessageQueues(){
  28              		.loc 1 18 0
  29              		.cfi_startproc
  30              		@ args = 0, pretend = 0, frame = 8
  31              		@ frame_needed = 0, uses_anonymous_args = 0
  32 0000 00B5     		push	{lr}
  33              		.cfi_def_cfa_offset 4
  34              		.cfi_offset 14, -4
  35 0002 83B0     		sub	sp, sp, #12
  36              		.cfi_def_cfa_offset 16
  19:data_processing_task.c **** 
  20:data_processing_task.c ****   OS_ERR   os_err;
  21:data_processing_task.c ****   OSQCreate(&CommQProcessedOximeterData, "Creating message queue to send processed oximeter values"
ARM GAS  C:\Users\batuh\AppData\Local\Temp\ccESjjHg.s 			page 2


  37              		.loc 1 21 0
  38 0004 0DF10603 		add	r3, sp, #6
  39 0008 6422     		movs	r2, #100
  40 000a 1349     		ldr	r1, .L7
  41 000c 1348     		ldr	r0, .L7+4
  42 000e FFF7FEFF 		bl	OSQCreate
  43              	.LVL0:
  22:data_processing_task.c ****   if (os_err == OS_ERR_NONE) {
  44              		.loc 1 22 0
  45 0012 BDF80620 		ldrh	r2, [sp, #6]
  46 0016 22B9     		cbnz	r2, .L2
  23:data_processing_task.c ****     Log_Write(LOG_LEVEL_DATA_PROCESSING, "Queue created for oximeter data successfully", 0);
  47              		.loc 1 23 0
  48 0018 1149     		ldr	r1, .L7+8
  49 001a 3020     		movs	r0, #48
  50 001c FFF7FEFF 		bl	Log_Write
  51              	.LVL1:
  52 0020 03E0     		b	.L3
  53              	.L2:
  24:data_processing_task.c ****   } else {
  25:data_processing_task.c ****     Log_Write(LOG_LEVEL_ERROR, "Error: Queue creation failed", os_err);
  54              		.loc 1 25 0
  55 0022 1049     		ldr	r1, .L7+12
  56 0024 0420     		movs	r0, #4
  57 0026 FFF7FEFF 		bl	Log_Write
  58              	.LVL2:
  59              	.L3:
  26:data_processing_task.c ****   }
  27:data_processing_task.c ****   
  28:data_processing_task.c ****   OSQCreate(&CommQProcessedEnvironmentData, "Creating message queue to send processed environment v
  60              		.loc 1 28 0
  61 002a 0DF10603 		add	r3, sp, #6
  62 002e 6422     		movs	r2, #100
  63 0030 0D49     		ldr	r1, .L7+16
  64 0032 0E48     		ldr	r0, .L7+20
  65 0034 FFF7FEFF 		bl	OSQCreate
  66              	.LVL3:
  29:data_processing_task.c ****   if (os_err == OS_ERR_NONE) {
  67              		.loc 1 29 0
  68 0038 BDF80620 		ldrh	r2, [sp, #6]
  69 003c 22B9     		cbnz	r2, .L4
  30:data_processing_task.c ****     Log_Write(LOG_LEVEL_DATA_PROCESSING, "Queue created for environment data successfully", 0);
  70              		.loc 1 30 0
  71 003e 0C49     		ldr	r1, .L7+24
  72 0040 3020     		movs	r0, #48
  73 0042 FFF7FEFF 		bl	Log_Write
  74              	.LVL4:
  75 0046 03E0     		b	.L1
  76              	.L4:
  31:data_processing_task.c ****   } else {
  32:data_processing_task.c ****     Log_Write(LOG_LEVEL_ERROR, "Error: Queue creation failed", os_err);
  77              		.loc 1 32 0
  78 0048 0649     		ldr	r1, .L7+12
  79 004a 0420     		movs	r0, #4
  80 004c FFF7FEFF 		bl	Log_Write
  81              	.LVL5:
  82              	.L1:
ARM GAS  C:\Users\batuh\AppData\Local\Temp\ccESjjHg.s 			page 3


  33:data_processing_task.c ****   }
  34:data_processing_task.c **** }
  83              		.loc 1 34 0
  84 0050 03B0     		add	sp, sp, #12
  85              		.cfi_def_cfa_offset 4
  86              		@ sp needed
  87 0052 5DF804FB 		ldr	pc, [sp], #4
  88              	.L8:
  89 0056 00BF     		.align	2
  90              	.L7:
  91 0058 00000000 		.word	.LC0
  92 005c 00000000 		.word	CommQProcessedOximeterData
  93 0060 3C000000 		.word	.LC1
  94 0064 6C000000 		.word	.LC2
  95 0068 8C000000 		.word	.LC3
  96 006c 00000000 		.word	CommQProcessedEnvironmentData
  97 0070 C8000000 		.word	.LC4
  98              		.cfi_endproc
  99              	.LFE64:
 100              		.size	initMessageQueues, .-initMessageQueues
 101              		.section	.text.Data_Processing_Init,"ax",%progbits
 102              		.align	2
 103              		.global	Data_Processing_Init
 104              		.thumb
 105              		.thumb_func
 106              		.type	Data_Processing_Init, %function
 107              	Data_Processing_Init:
 108              	.LFB65:
  35:data_processing_task.c **** 
  36:data_processing_task.c **** /**
  37:data_processing_task.c ****  @brief This is the initialization function for the task itself which is called from main().
  38:data_processing_task.c **** 
  39:data_processing_task.c ****  @param void
  40:data_processing_task.c **** **/
  41:data_processing_task.c **** void Data_Processing_Init(void) {
 109              		.loc 1 41 0
 110              		.cfi_startproc
 111              		@ args = 0, pretend = 0, frame = 8
 112              		@ frame_needed = 0, uses_anonymous_args = 0
 113 0000 00B5     		push	{lr}
 114              		.cfi_def_cfa_offset 4
 115              		.cfi_offset 14, -4
 116 0002 8DB0     		sub	sp, sp, #52
 117              		.cfi_def_cfa_offset 56
  42:data_processing_task.c ****     OS_ERR os_err;
  43:data_processing_task.c **** 
  44:data_processing_task.c ****     /* Create the log task, but leave the initialization to the task itself */
  45:data_processing_task.c ****     OSTaskCreate((OS_TCB     *)&Data_Processing_TCB,
 118              		.loc 1 45 0
 119 0004 0DF12E03 		add	r3, sp, #46
 120 0008 0893     		str	r3, [sp, #32]
 121 000a 0323     		movs	r3, #3
 122 000c 0793     		str	r3, [sp, #28]
 123 000e 0023     		movs	r3, #0
 124 0010 0693     		str	r3, [sp, #24]
 125 0012 0593     		str	r3, [sp, #20]
 126 0014 0493     		str	r3, [sp, #16]
ARM GAS  C:\Users\batuh\AppData\Local\Temp\ccESjjHg.s 			page 4


 127 0016 4FF40072 		mov	r2, #512
 128 001a 0392     		str	r2, [sp, #12]
 129 001c 3322     		movs	r2, #51
 130 001e 0292     		str	r2, [sp, #8]
 131 0020 0B4A     		ldr	r2, .L13
 132 0022 0192     		str	r2, [sp, #4]
 133 0024 0722     		movs	r2, #7
 134 0026 0092     		str	r2, [sp]
 135 0028 0A4A     		ldr	r2, .L13+4
 136 002a 0B49     		ldr	r1, .L13+8
 137 002c 0B48     		ldr	r0, .L13+12
 138 002e FFF7FEFF 		bl	OSTaskCreate
 139              	.LVL6:
  46:data_processing_task.c ****                  (CPU_CHAR   *)"Data Processing Task",
  47:data_processing_task.c ****                  (OS_TASK_PTR )Data_Processing_Task,  
  48:data_processing_task.c ****                  (void       *)0,
  49:data_processing_task.c ****                  (OS_PRIO     )APP_CFG_TASK_DATA_PROCESSING_PRIO,
  50:data_processing_task.c ****                  (CPU_STK    *)&Data_Processing_TaskStk[0],
  51:data_processing_task.c ****                  (CPU_STK_SIZE)APP_CFG_TASK_DATA_PROCESSING_STK_SIZE_LIMIT,
  52:data_processing_task.c ****                  (CPU_STK_SIZE)APP_CFG_TASK_DATA_PROCESSING_STK_SIZE,
  53:data_processing_task.c ****                  (OS_MSG_QTY  )0u,
  54:data_processing_task.c ****                  (OS_TICK     )0u,
  55:data_processing_task.c ****                  (void       *)0,
  56:data_processing_task.c ****                  (OS_OPT      )(OS_OPT_TASK_STK_CHK | OS_OPT_TASK_STK_CLR),
  57:data_processing_task.c ****                  (OS_ERR     *)&os_err);
  58:data_processing_task.c **** 
  59:data_processing_task.c **** 
  60:data_processing_task.c ****     if (os_err == OS_ERR_NONE) {
 140              		.loc 1 60 0
 141 0032 BDF82E20 		ldrh	r2, [sp, #46]
 142 0036 22B9     		cbnz	r2, .L10
  61:data_processing_task.c ****         Log_Write(LOG_LEVEL_DATA_PROCESSING, "Data Processing Task created successfully", 0);
 143              		.loc 1 61 0
 144 0038 0949     		ldr	r1, .L13+16
 145 003a 3020     		movs	r0, #48
 146 003c FFF7FEFF 		bl	Log_Write
 147              	.LVL7:
 148 0040 03E0     		b	.L9
 149              	.L10:
  62:data_processing_task.c ****     } else {
  63:data_processing_task.c ****         Log_Write(LOG_LEVEL_ERROR, "Error: Data Processing Task creation failed", os_err);
 150              		.loc 1 63 0
 151 0042 0849     		ldr	r1, .L13+20
 152 0044 0420     		movs	r0, #4
 153 0046 FFF7FEFF 		bl	Log_Write
 154              	.LVL8:
 155              	.L9:
  64:data_processing_task.c ****     }
  65:data_processing_task.c **** }
 156              		.loc 1 65 0
 157 004a 0DB0     		add	sp, sp, #52
 158              		.cfi_def_cfa_offset 4
 159              		@ sp needed
 160 004c 5DF804FB 		ldr	pc, [sp], #4
 161              	.L14:
 162              		.align	2
 163              	.L13:
ARM GAS  C:\Users\batuh\AppData\Local\Temp\ccESjjHg.s 			page 5


 164 0050 00000000 		.word	Data_Processing_TaskStk
 165 0054 00000000 		.word	Data_Processing_Task
 166 0058 F8000000 		.word	.LC5
 167 005c 00000000 		.word	Data_Processing_TCB
 168 0060 10010000 		.word	.LC6
 169 0064 3C010000 		.word	.LC7
 170              		.cfi_endproc
 171              	.LFE65:
 172              		.size	Data_Processing_Init, .-Data_Processing_Init
 173              		.section	.text.retrieveSensorData,"ax",%progbits
 174              		.align	2
 175              		.global	retrieveSensorData
 176              		.thumb
 177              		.thumb_func
 178              		.type	retrieveSensorData, %function
 179              	retrieveSensorData:
 180              	.LFB67:
  66:data_processing_task.c **** 
  67:data_processing_task.c **** /**
  68:data_processing_task.c ****  @brief Main task for the data processing part of the project. This task is responsible
  69:data_processing_task.c ****         to gather values from both sensors -> oximeter and environment and control them against pre
  70:data_processing_task.c ****         acceptance ranges. After checking the processed values are sent to a message queue to furth
  71:data_processing_task.c ****         in led task, logging etc ...
  72:data_processing_task.c **** 
  73:data_processing_task.c ****  @param void *p_arg
  74:data_processing_task.c **** **/
  75:data_processing_task.c **** static void Data_Processing_Task(void *p_arg) {
  76:data_processing_task.c ****     
  77:data_processing_task.c ****   OS_ERR os_err;
  78:data_processing_task.c ****   OS_MSG_QTY entries;
  79:data_processing_task.c ****   DATA_SET_PACKAGE_OXIMETER processed_data_oximeter;
  80:data_processing_task.c ****   DATA_SET_PACKAGE_ENVIRONMENT processed_data_environment;
  81:data_processing_task.c ****   LED_CONTROL_MESSAGE led_control_message;
  82:data_processing_task.c ****   (void)p_arg;
  83:data_processing_task.c **** 
  84:data_processing_task.c ****   Log_Write(LOG_LEVEL_DATA_PROCESSING, "Data Processing Task: Initializing message queues ...", 0);
  85:data_processing_task.c ****   initMessageQueues();
  86:data_processing_task.c ****   
  87:data_processing_task.c ****   while(DEF_ON) {
  88:data_processing_task.c ****     
  89:data_processing_task.c ****     //Process data only if new data is received from queues ...
  90:data_processing_task.c ****     if(processRawOximeterData(&processed_data_oximeter)){
  91:data_processing_task.c **** 
  92:data_processing_task.c ****       // Post to queue for further processing
  93:data_processing_task.c ****       OSQPost(&CommQProcessedOximeterData, &processed_data_oximeter, sizeof(processed_data_oximeter
  94:data_processing_task.c ****       if (os_err == OS_ERR_Q_MAX) {
  95:data_processing_task.c ****           Log_Write(LOG_LEVEL_ERROR, "Data Processing Task: Queue is full, can't send the value to 
  96:data_processing_task.c ****           entries = OSQFlush(&CommQProcessedOximeterData, &os_err);  // Flush queue if full
  97:data_processing_task.c ****           if(os_err == OS_ERR_NONE){
  98:data_processing_task.c ****             Log_Write(LOG_LEVEL_DATA_PROCESSING, "Queue is flushed .. ");
  99:data_processing_task.c ****           }
 100:data_processing_task.c ****       } else if (os_err != OS_ERR_NONE) {
 101:data_processing_task.c ****           Log_Write(LOG_LEVEL_ERROR, "Error occurred at Data Processing Task...", 0);
 102:data_processing_task.c ****       } else {
 103:data_processing_task.c ****           Log_Write(LOG_LEVEL_DATA_PROCESSING, "Sent value to LED control task...", 0);
 104:data_processing_task.c ****       }
 105:data_processing_task.c **** 
ARM GAS  C:\Users\batuh\AppData\Local\Temp\ccESjjHg.s 			page 6


 106:data_processing_task.c ****       // Delay to allow for periodic processing
 107:data_processing_task.c ****       OSTimeDlyHMSM(0, 0, 0, 100, OS_OPT_TIME_HMSM_STRICT, &os_err);
 108:data_processing_task.c ****     } else if(processRawEnvironmentData(&processed_data_environment)){
 109:data_processing_task.c ****       Log_Write(LOG_LEVEL_DATA_PROCESSING, "Processing environment data for LED control...", 0);
 110:data_processing_task.c ****             
 111:data_processing_task.c ****         // Set the command for the green LED based on environmental data range
 112:data_processing_task.c ****         led_control_message.cmd = CMD_GREEN_LED;
 113:data_processing_task.c ****         if (isEnvironmentDataInRange(&processed_data_environment)) {
 114:data_processing_task.c ****             led_control_message.data = GREEN_LED_FULL_BRIGHTNESS;  // Full brightness when data is 
 115:data_processing_task.c ****             Log_Write(LOG_LEVEL_DATA_PROCESSING, "Environment data in range - setting LED to full b
 116:data_processing_task.c ****         } else {
 117:data_processing_task.c ****             led_control_message.data = GREEN_LED_BLINK;  // Blink when data is out of range
 118:data_processing_task.c ****             Log_Write(LOG_LEVEL_DATA_PROCESSING, "Environment data out of range - setting LED to bl
 119:data_processing_task.c ****         }
 120:data_processing_task.c **** 
 121:data_processing_task.c ****         // Send the green LED command to the LED control task
 122:data_processing_task.c ****         OSQPost(&CommQProcessedEnvironmentData, &led_control_message, sizeof(led_control_message), 
 123:data_processing_task.c ****         if (os_err != OS_ERR_NONE) {
 124:data_processing_task.c ****             Log_Write(LOG_LEVEL_ERROR, "Data Processing Task: Failed to send environment LED comman
 125:data_processing_task.c ****         } else {
 126:data_processing_task.c ****             Log_Write(LOG_LEVEL_DATA_PROCESSING, "Environment LED command sent to LED control task.
 127:data_processing_task.c ****         }
 128:data_processing_task.c **** 
 129:data_processing_task.c ****         // Delay to allow for periodic processing
 130:data_processing_task.c ****         OSTimeDlyHMSM(0, 0, 0, 100, OS_OPT_TIME_HMSM_STRICT, &os_err);
 131:data_processing_task.c ****       }
 132:data_processing_task.c ****     }
 133:data_processing_task.c ****   OSTimeDlyHMSM(0, 0, 0, 100, OS_OPT_TIME_HMSM_STRICT, &os_err);
 134:data_processing_task.c **** }
 135:data_processing_task.c **** 
 136:data_processing_task.c **** CPU_BOOLEAN retrieveSensorData(OS_Q *queue, CPU_INT08U *data_field, const char *sensor_name) {
 181              		.loc 1 136 0
 182              		.cfi_startproc
 183              		@ args = 0, pretend = 0, frame = 8
 184              		@ frame_needed = 0, uses_anonymous_args = 0
 185              	.LVL9:
 186 0000 70B5     		push	{r4, r5, r6, lr}
 187              		.cfi_def_cfa_offset 16
 188              		.cfi_offset 4, -16
 189              		.cfi_offset 5, -12
 190              		.cfi_offset 6, -8
 191              		.cfi_offset 14, -4
 192 0002 84B0     		sub	sp, sp, #16
 193              		.cfi_def_cfa_offset 32
 194 0004 0446     		mov	r4, r0
 195 0006 0E46     		mov	r6, r1
 196 0008 1546     		mov	r5, r2
 137:data_processing_task.c ****     OS_ERR os_err;
 138:data_processing_task.c ****     OS_MSG_SIZE msg_size;
 139:data_processing_task.c ****     CPU_TS raw_timestamp = OS_TS_GET();
 197              		.loc 1 139 0
 198 000a FFF7FEFF 		bl	CPU_TS_TmrRd
 199              	.LVL10:
 200 000e 0290     		str	r0, [sp, #8]
 140:data_processing_task.c ****     CPU_INT32S *p_msg_I2C;
 141:data_processing_task.c **** 
 142:data_processing_task.c ****     // Wait for data from the specified queue
ARM GAS  C:\Users\batuh\AppData\Local\Temp\ccESjjHg.s 			page 7


 143:data_processing_task.c ****     p_msg_I2C = OSQPend(queue, 100, OS_OPT_PEND_BLOCKING, &msg_size, &raw_timestamp, &os_err);
 201              		.loc 1 143 0
 202 0010 0DF10E03 		add	r3, sp, #14
 203 0014 0193     		str	r3, [sp, #4]
 204 0016 02AB     		add	r3, sp, #8
 205 0018 0093     		str	r3, [sp]
 206 001a 03AB     		add	r3, sp, #12
 207 001c 0022     		movs	r2, #0
 208 001e 6421     		movs	r1, #100
 209 0020 2046     		mov	r0, r4
 210 0022 FFF7FEFF 		bl	OSQPend
 211              	.LVL11:
 144:data_processing_task.c **** 
 145:data_processing_task.c ****     // Handle potential errors or timeouts
 146:data_processing_task.c ****     if (os_err == OS_ERR_TIMEOUT) {
 212              		.loc 1 146 0
 213 0026 BDF80E30 		ldrh	r3, [sp, #14]
 214 002a 47F2D922 		movw	r2, #29401
 215 002e 9342     		cmp	r3, r2
 216 0030 10D0     		beq	.L18
 147:data_processing_task.c ****         // No errors, queue was just empty; no further action needed
 148:data_processing_task.c ****         return DEF_FALSE;
 149:data_processing_task.c ****     } else if (os_err != OS_ERR_NONE) {
 217              		.loc 1 149 0
 218 0032 33B1     		cbz	r3, .L17
 150:data_processing_task.c ****         Log_Write(LOG_LEVEL_ERROR, "Data Processing Task: OSQPend() failed for %s with error code %
 219              		.loc 1 150 0
 220 0034 2A46     		mov	r2, r5
 221 0036 0949     		ldr	r1, .L20
 222 0038 0420     		movs	r0, #4
 223              	.LVL12:
 224 003a FFF7FEFF 		bl	Log_Write
 225              	.LVL13:
 151:data_processing_task.c ****         return DEF_FALSE;
 226              		.loc 1 151 0
 227 003e 0020     		movs	r0, #0
 228 0040 09E0     		b	.L16
 229              	.LVL14:
 230              	.L17:
 152:data_processing_task.c ****     }
 153:data_processing_task.c **** 
 154:data_processing_task.c ****     // Successfully received data, process and store the least significant 8 bits
 155:data_processing_task.c ****     *data_field = (CPU_INT08S)(*p_msg_I2C & 0xFF);
 231              		.loc 1 155 0
 232 0042 0378     		ldrb	r3, [r0]	@ zero_extendqisi2
 233 0044 3370     		strb	r3, [r6]
 156:data_processing_task.c **** 
 157:data_processing_task.c ****     // Log the received data
 158:data_processing_task.c ****     Log_Write(LOG_LEVEL_DATA_PROCESSING, "Data Processing Task: Received %s -> %d", sensor_name, *d
 234              		.loc 1 158 0
 235 0046 2A46     		mov	r2, r5
 236 0048 0549     		ldr	r1, .L20+4
 237 004a 3020     		movs	r0, #48
 238              	.LVL15:
 239 004c FFF7FEFF 		bl	Log_Write
 240              	.LVL16:
 159:data_processing_task.c ****     return DEF_TRUE;
ARM GAS  C:\Users\batuh\AppData\Local\Temp\ccESjjHg.s 			page 8


 241              		.loc 1 159 0
 242 0050 0120     		movs	r0, #1
 243 0052 00E0     		b	.L16
 244              	.LVL17:
 245              	.L18:
 148:data_processing_task.c ****     } else if (os_err != OS_ERR_NONE) {
 246              		.loc 1 148 0
 247 0054 0020     		movs	r0, #0
 248              	.LVL18:
 249              	.L16:
 160:data_processing_task.c **** }
 250              		.loc 1 160 0
 251 0056 04B0     		add	sp, sp, #16
 252              		.cfi_def_cfa_offset 16
 253              		@ sp needed
 254 0058 70BD     		pop	{r4, r5, r6, pc}
 255              	.LVL19:
 256              	.L21:
 257 005a 00BF     		.align	2
 258              	.L20:
 259 005c 68010000 		.word	.LC8
 260 0060 AC010000 		.word	.LC9
 261              		.cfi_endproc
 262              	.LFE67:
 263              		.size	retrieveSensorData, .-retrieveSensorData
 264              		.section	.text.processRawOximeterData,"ax",%progbits
 265              		.align	2
 266              		.global	processRawOximeterData
 267              		.thumb
 268              		.thumb_func
 269              		.type	processRawOximeterData, %function
 270              	processRawOximeterData:
 271              	.LFB68:
 161:data_processing_task.c **** 
 162:data_processing_task.c **** CPU_BOOLEAN processRawOximeterData(DATA_SET_PACKAGE_OXIMETER *data_oximeter_package) {
 272              		.loc 1 162 0
 273              		.cfi_startproc
 274              		@ args = 0, pretend = 0, frame = 0
 275              		@ frame_needed = 0, uses_anonymous_args = 0
 276              	.LVL20:
 277 0000 38B5     		push	{r3, r4, r5, lr}
 278              		.cfi_def_cfa_offset 16
 279              		.cfi_offset 3, -16
 280              		.cfi_offset 4, -12
 281              		.cfi_offset 5, -8
 282              		.cfi_offset 14, -4
 283 0002 0446     		mov	r4, r0
 284              	.LVL21:
 163:data_processing_task.c ****     CPU_BOOLEAN heart_rate_received = DEF_FALSE;
 164:data_processing_task.c ****     CPU_BOOLEAN spo2_received = DEF_FALSE;
 165:data_processing_task.c **** 
 166:data_processing_task.c ****     // Initialize data structure fields
 167:data_processing_task.c ****     *data_oximeter_package = (DATA_SET_PACKAGE_OXIMETER) {0, 0};
 285              		.loc 1 167 0
 286 0004 0023     		movs	r3, #0
 287 0006 0370     		strb	r3, [r0]
 288 0008 4370     		strb	r3, [r0, #1]
ARM GAS  C:\Users\batuh\AppData\Local\Temp\ccESjjHg.s 			page 9


 168:data_processing_task.c **** 
 169:data_processing_task.c ****     // Retrieve heart rate data
 170:data_processing_task.c ****     heart_rate_received = retrieveSensorData(&CommQI2CHeartRate, &data_oximeter_package->average_he
 289              		.loc 1 170 0
 290 000a 094A     		ldr	r2, .L27
 291 000c 0146     		mov	r1, r0
 292 000e 0948     		ldr	r0, .L27+4
 293              	.LVL22:
 294 0010 FFF7FEFF 		bl	retrieveSensorData
 295              	.LVL23:
 296 0014 0546     		mov	r5, r0
 297              	.LVL24:
 171:data_processing_task.c **** 
 172:data_processing_task.c ****     // Retrieve SpO2 data
 173:data_processing_task.c ****     spo2_received = retrieveSensorData(&CommQI2CSPO2, &data_oximeter_package->blood_oxygen_level_in
 298              		.loc 1 173 0
 299 0016 084A     		ldr	r2, .L27+8
 300 0018 611C     		adds	r1, r4, #1
 301 001a 0848     		ldr	r0, .L27+12
 302 001c FFF7FEFF 		bl	retrieveSensorData
 303              	.LVL25:
 174:data_processing_task.c **** 
 175:data_processing_task.c ****     // Return TRUE only if both data values were successfully received
 176:data_processing_task.c ****     return heart_rate_received && spo2_received;
 304              		.loc 1 176 0
 305 0020 0DB1     		cbz	r5, .L24
 306              		.loc 1 176 0 is_stmt 0 discriminator 1
 307 0022 10B9     		cbnz	r0, .L25
 308 0024 38BD     		pop	{r3, r4, r5, pc}
 309              	.LVL26:
 310              	.L24:
 311              		.loc 1 176 0
 312 0026 0020     		movs	r0, #0
 313              	.LVL27:
 314 0028 38BD     		pop	{r3, r4, r5, pc}
 315              	.LVL28:
 316              	.L25:
 317 002a 0120     		movs	r0, #1
 318              	.LVL29:
 177:data_processing_task.c **** }
 319              		.loc 1 177 0 is_stmt 1
 320 002c 38BD     		pop	{r3, r4, r5, pc}
 321              	.LVL30:
 322              	.L28:
 323 002e 00BF     		.align	2
 324              	.L27:
 325 0030 D4010000 		.word	.LC10
 326 0034 00000000 		.word	CommQI2CHeartRate
 327 0038 E8010000 		.word	.LC11
 328 003c 00000000 		.word	CommQI2CSPO2
 329              		.cfi_endproc
 330              	.LFE68:
 331              		.size	processRawOximeterData, .-processRawOximeterData
 332              		.section	.text.processRawEnvironmentData,"ax",%progbits
 333              		.align	2
 334              		.global	processRawEnvironmentData
 335              		.thumb
ARM GAS  C:\Users\batuh\AppData\Local\Temp\ccESjjHg.s 			page 10


 336              		.thumb_func
 337              		.type	processRawEnvironmentData, %function
 338              	processRawEnvironmentData:
 339              	.LFB69:
 178:data_processing_task.c **** 
 179:data_processing_task.c **** CPU_BOOLEAN processRawEnvironmentData(DATA_SET_PACKAGE_ENVIRONMENT *data_environment_package) {
 340              		.loc 1 179 0
 341              		.cfi_startproc
 342              		@ args = 0, pretend = 0, frame = 8
 343              		@ frame_needed = 0, uses_anonymous_args = 0
 344              	.LVL31:
 345 0000 70B5     		push	{r4, r5, r6, lr}
 346              		.cfi_def_cfa_offset 16
 347              		.cfi_offset 4, -16
 348              		.cfi_offset 5, -12
 349              		.cfi_offset 6, -8
 350              		.cfi_offset 14, -4
 351 0002 84B0     		sub	sp, sp, #16
 352              		.cfi_def_cfa_offset 32
 353 0004 0446     		mov	r4, r0
 180:data_processing_task.c ****     
 181:data_processing_task.c ****     OS_ERR os_err;
 182:data_processing_task.c ****     OS_MSG_SIZE msg_size;
 183:data_processing_task.c ****     CPU_TS raw_timestamp = OS_TS_GET();
 354              		.loc 1 183 0
 355 0006 FFF7FEFF 		bl	CPU_TS_TmrRd
 356              	.LVL32:
 357 000a 0290     		str	r0, [sp, #8]
 184:data_processing_task.c ****     
 185:data_processing_task.c ****     // Initialize package set to store information to transmit
 186:data_processing_task.c ****     *data_environment_package = (DATA_SET_PACKAGE_ENVIRONMENT){0, 0, 0, 0};
 358              		.loc 1 186 0
 359 000c 0022     		movs	r2, #0
 360 000e 2260     		str	r2, [r4]
 361 0010 6260     		str	r2, [r4, #4]
 362 0012 A260     		str	r2, [r4, #8]
 363 0014 E260     		str	r2, [r4, #12]
 187:data_processing_task.c ****     
 188:data_processing_task.c ****     // Define a variable to hold the received data
 189:data_processing_task.c ****     RAW_ENVIRONMENT_DATA *p_msg_SPI_data;
 190:data_processing_task.c **** 
 191:data_processing_task.c ****     // Wait for environmental data from the queue
 192:data_processing_task.c ****     p_msg_SPI_data = (RAW_ENVIRONMENT_DATA *)OSQPend(&CommQSPIData, 100, OS_OPT_PEND_BLOCKING, &msg
 364              		.loc 1 192 0
 365 0016 0DF10E03 		add	r3, sp, #14
 366 001a 0193     		str	r3, [sp, #4]
 367 001c 02AB     		add	r3, sp, #8
 368 001e 0093     		str	r3, [sp]
 369 0020 03AB     		add	r3, sp, #12
 370 0022 6421     		movs	r1, #100
 371 0024 3D48     		ldr	r0, .L34
 372 0026 FFF7FEFF 		bl	OSQPend
 373              	.LVL33:
 193:data_processing_task.c **** 
 194:data_processing_task.c ****     if (os_err == OS_ERR_TIMEOUT) {
 374              		.loc 1 194 0
 375 002a BDF80E20 		ldrh	r2, [sp, #14]
ARM GAS  C:\Users\batuh\AppData\Local\Temp\ccESjjHg.s 			page 11


 376 002e 47F2D923 		movw	r3, #29401
 377 0032 9A42     		cmp	r2, r3
 378 0034 6ED0     		beq	.L32
 195:data_processing_task.c ****         // Queue was empty, no hints necessary
 196:data_processing_task.c ****         return DEF_FALSE;
 197:data_processing_task.c ****     } else if (os_err != OS_ERR_NONE) {
 379              		.loc 1 197 0
 380 0036 2AB1     		cbz	r2, .L31
 198:data_processing_task.c ****         Log_Write(LOG_LEVEL_ERROR, "Data Processing Task: OSQPend() operation failed for environmen
 381              		.loc 1 198 0
 382 0038 3949     		ldr	r1, .L34+4
 383 003a 0420     		movs	r0, #4
 384              	.LVL34:
 385 003c FFF7FEFF 		bl	Log_Write
 386              	.LVL35:
 199:data_processing_task.c ****         return DEF_FALSE;
 387              		.loc 1 199 0
 388 0040 0020     		movs	r0, #0
 389 0042 68E0     		b	.L30
 390              	.LVL36:
 391              	.L31:
 200:data_processing_task.c ****     } else {
 201:data_processing_task.c ****       // Convert and scale each environmental parameter
 202:data_processing_task.c ****       
 203:data_processing_task.c ****       // Convert and scale temperature
 204:data_processing_task.c ****       data_environment_package->temperature_in_celsius = ((p_msg_SPI_data->temperature_raw * 12500)
 392              		.loc 1 204 0
 393 0044 0268     		ldr	r2, [r0]
 394 0046 43F2D403 		movw	r3, #12500
 395 004a 03FB02F2 		mul	r2, r3, r2
 396 004e 354B     		ldr	r3, .L34+8
 397 0050 83FB0213 		smull	r1, r3, r3, r2
 398 0054 1344     		add	r3, r3, r2
 399 0056 D217     		asrs	r2, r2, #31
 400 0058 C2EBE323 		rsb	r3, r2, r3, asr #11
 401 005c A3F57A63 		sub	r3, r3, #4000
 402 0060 1BB2     		sxth	r3, r3
 403 0062 2380     		strh	r3, [r4]	@ movhi
 205:data_processing_task.c ****       
 206:data_processing_task.c ****       // Convert and scale humidity
 207:data_processing_task.c ****       data_environment_package->humidity_in_percentage = (p_msg_SPI_data->humidity_raw * 10000) / 6
 404              		.loc 1 207 0
 405 0064 4168     		ldr	r1, [r0, #4]
 406 0066 42F21072 		movw	r2, #10000
 407 006a 02FB01F1 		mul	r1, r2, r1
 408 006e 2E4D     		ldr	r5, .L34+12
 409 0070 85FB0162 		smull	r6, r2, r5, r1
 410 0074 0A44     		add	r2, r2, r1
 411 0076 C917     		asrs	r1, r1, #31
 412 0078 C1EBE231 		rsb	r1, r1, r2, asr #15
 413 007c 6160     		str	r1, [r4, #4]
 208:data_processing_task.c ****       
 209:data_processing_task.c ****       // Convert and scale pressure
 210:data_processing_task.c ****       data_environment_package->pressure_in_bar = ((p_msg_SPI_data->pressure_raw * 8000) / 65535) +
 414              		.loc 1 210 0
 415 007e 8168     		ldr	r1, [r0, #8]
 416 0080 4FF4FA52 		mov	r2, #8000
ARM GAS  C:\Users\batuh\AppData\Local\Temp\ccESjjHg.s 			page 12


 417 0084 02FB01F2 		mul	r2, r2, r1
 418 0088 85FB0261 		smull	r6, r1, r5, r2
 419 008c 1144     		add	r1, r1, r2
 420 008e D217     		asrs	r2, r2, #31
 421 0090 C2EBE132 		rsb	r2, r2, r1, asr #15
 422 0094 02F6B832 		addw	r2, r2, #3000
 423 0098 A260     		str	r2, [r4, #8]
 211:data_processing_task.c ****       
 212:data_processing_task.c ****       // Convert gas concentration
 213:data_processing_task.c ****       data_environment_package->gas_in_ohm = (p_msg_SPI_data->gas_raw * 1000) / 65535;
 424              		.loc 1 213 0
 425 009a C268     		ldr	r2, [r0, #12]
 426 009c 4FF47A71 		mov	r1, #1000
 427 00a0 01FB02F2 		mul	r2, r1, r2
 428 00a4 85FB0215 		smull	r1, r5, r5, r2
 429 00a8 1544     		add	r5, r5, r2
 430 00aa D217     		asrs	r2, r2, #31
 431 00ac C2EBE532 		rsb	r2, r2, r5, asr #15
 432 00b0 E260     		str	r2, [r4, #12]
 214:data_processing_task.c ****       
 215:data_processing_task.c ****       // Log each converted environmental value
 216:data_processing_task.c ****       Log_Write(LOG_LEVEL_DATA_PROCESSING, "Data Processing Task: Received Temperature -> %d.%02d d
 433              		.loc 1 216 0
 434 00b2 1E4D     		ldr	r5, .L34+16
 435 00b4 85FB0321 		smull	r2, r1, r5, r3
 436 00b8 DA17     		asrs	r2, r3, #31
 437 00ba C2EB6112 		rsb	r2, r2, r1, asr #5
 438 00be 6426     		movs	r6, #100
 439 00c0 06FB1233 		mls	r3, r6, r2, r3
 440 00c4 1BB2     		sxth	r3, r3
 441 00c6 12B2     		sxth	r2, r2
 442 00c8 1949     		ldr	r1, .L34+20
 443 00ca 3020     		movs	r0, #48
 444              	.LVL37:
 445 00cc FFF7FEFF 		bl	Log_Write
 446              	.LVL38:
 217:data_processing_task.c ****       Log_Write(LOG_LEVEL_DATA_PROCESSING, "Data Processing Task: Received Humidity -> %d.%02d %%",
 447              		.loc 1 217 0
 448 00d0 6368     		ldr	r3, [r4, #4]
 449 00d2 85FB0325 		smull	r2, r5, r5, r3
 450 00d6 DA17     		asrs	r2, r3, #31
 451 00d8 C2EB6512 		rsb	r2, r2, r5, asr #5
 452 00dc 06FB1233 		mls	r3, r6, r2, r3
 453 00e0 1449     		ldr	r1, .L34+24
 454 00e2 3020     		movs	r0, #48
 455 00e4 FFF7FEFF 		bl	Log_Write
 456              	.LVL39:
 218:data_processing_task.c ****       Log_Write(LOG_LEVEL_DATA_PROCESSING, "Data Processing Task: Received Pressure -> %d.%1d hPa",
 457              		.loc 1 218 0
 458 00e8 A368     		ldr	r3, [r4, #8]
 459 00ea 134A     		ldr	r2, .L34+28
 460 00ec 82FB0321 		smull	r2, r1, r2, r3
 461 00f0 DA17     		asrs	r2, r3, #31
 462 00f2 C2EBA102 		rsb	r2, r2, r1, asr #2
 463 00f6 02EB8200 		add	r0, r2, r2, lsl #2
 464 00fa 4100     		lsls	r1, r0, #1
 465 00fc 5B1A     		subs	r3, r3, r1
ARM GAS  C:\Users\batuh\AppData\Local\Temp\ccESjjHg.s 			page 13


 466 00fe 0F49     		ldr	r1, .L34+32
 467 0100 3020     		movs	r0, #48
 468 0102 FFF7FEFF 		bl	Log_Write
 469              	.LVL40:
 219:data_processing_task.c ****       Log_Write(LOG_LEVEL_DATA_PROCESSING, "Data Processing Task: Received Gas Concentration -> %d 
 470              		.loc 1 219 0
 471 0106 E268     		ldr	r2, [r4, #12]
 472 0108 0D49     		ldr	r1, .L34+36
 473 010a 3020     		movs	r0, #48
 474 010c FFF7FEFF 		bl	Log_Write
 475              	.LVL41:
 220:data_processing_task.c **** 
 221:data_processing_task.c ****       return DEF_TRUE;
 476              		.loc 1 221 0
 477 0110 0120     		movs	r0, #1
 478 0112 00E0     		b	.L30
 479              	.LVL42:
 480              	.L32:
 196:data_processing_task.c ****     } else if (os_err != OS_ERR_NONE) {
 481              		.loc 1 196 0
 482 0114 0020     		movs	r0, #0
 483              	.LVL43:
 484              	.L30:
 222:data_processing_task.c ****     }
 223:data_processing_task.c **** }
 485              		.loc 1 223 0
 486 0116 04B0     		add	sp, sp, #16
 487              		.cfi_def_cfa_offset 16
 488              		@ sp needed
 489 0118 70BD     		pop	{r4, r5, r6, pc}
 490              	.LVL44:
 491              	.L35:
 492 011a 00BF     		.align	2
 493              	.L34:
 494 011c 00000000 		.word	CommQSPIData
 495 0120 F0010000 		.word	.LC12
 496 0124 81000880 		.word	-2146959231
 497 0128 01800080 		.word	-2147450879
 498 012c 1F85EB51 		.word	1374389535
 499 0130 48020000 		.word	.LC13
 500 0134 84020000 		.word	.LC14
 501 0138 67666666 		.word	1717986919
 502 013c BC020000 		.word	.LC15
 503 0140 F4020000 		.word	.LC16
 504              		.cfi_endproc
 505              	.LFE69:
 506              		.size	processRawEnvironmentData, .-processRawEnvironmentData
 507              		.section	.text.isEnvironmentDataInRange,"ax",%progbits
 508              		.align	2
 509              		.global	isEnvironmentDataInRange
 510              		.thumb
 511              		.thumb_func
 512              		.type	isEnvironmentDataInRange, %function
 513              	isEnvironmentDataInRange:
 514              	.LFB70:
 224:data_processing_task.c **** 
 225:data_processing_task.c **** // Helper function to check if environmental data is within acceptable indoor ranges
ARM GAS  C:\Users\batuh\AppData\Local\Temp\ccESjjHg.s 			page 14


 226:data_processing_task.c **** CPU_BOOLEAN isEnvironmentDataInRange(DATA_SET_PACKAGE_ENVIRONMENT *data) {
 515              		.loc 1 226 0
 516              		.cfi_startproc
 517              		@ args = 0, pretend = 0, frame = 0
 518              		@ frame_needed = 0, uses_anonymous_args = 0
 519              		@ link register save eliminated.
 520              	.LVL45:
 227:data_processing_task.c ****     return (data->temperature_in_celsius >= TEMPERATURE_LEVEL_INDOOR_MIN && data->temperature_in_ce
 521              		.loc 1 227 0
 522 0000 B0F90030 		ldrsh	r3, [r0]
 523 0004 143B     		subs	r3, r3, #20
 524 0006 9BB2     		uxth	r3, r3
 228:data_processing_task.c ****            (data->humidity_in_percentage >= HUMIDITY_LEVEL_INDOOR_MIN && data->humidity_in_percenta
 229:data_processing_task.c ****            (data->pressure_in_bar >= PRESSURE_LEVEL_INDOOR_MIN && data->pressure_in_bar <= PRESSURE
 525              		.loc 1 229 0
 526 0008 052B     		cmp	r3, #5
 527 000a 12D8     		bhi	.L38
 228:data_processing_task.c ****            (data->humidity_in_percentage >= HUMIDITY_LEVEL_INDOOR_MIN && data->humidity_in_percenta
 528              		.loc 1 228 0
 529 000c 4368     		ldr	r3, [r0, #4]
 530 000e 1E3B     		subs	r3, r3, #30
 227:data_processing_task.c ****     return (data->temperature_in_celsius >= TEMPERATURE_LEVEL_INDOOR_MIN && data->temperature_in_ce
 531              		.loc 1 227 0
 532 0010 142B     		cmp	r3, #20
 533 0012 10D8     		bhi	.L39
 534              		.loc 1 229 0
 535 0014 8368     		ldr	r3, [r0, #8]
 536 0016 A3F57A73 		sub	r3, r3, #1000
 228:data_processing_task.c ****            (data->humidity_in_percentage >= HUMIDITY_LEVEL_INDOOR_MIN && data->humidity_in_percenta
 537              		.loc 1 228 0
 538 001a 0D2B     		cmp	r3, #13
 539 001c 0DD8     		bhi	.L40
 230:data_processing_task.c ****            (data->gas_in_ohm >= GAS_LEVEL_INDOOR_MIN && data->gas_in_ohm <= GAS_LEVEL_INDOOR_MAX);
 540              		.loc 1 230 0 discriminator 3
 541 001e C368     		ldr	r3, [r0, #12]
 542 0020 A3F51233 		sub	r3, r3, #149504
 543 0024 A3F5F873 		sub	r3, r3, #496
 229:data_processing_task.c ****            (data->gas_in_ohm >= GAS_LEVEL_INDOOR_MIN && data->gas_in_ohm <= GAS_LEVEL_INDOOR_MAX);
 544              		.loc 1 229 0 discriminator 3
 545 0028 064A     		ldr	r2, .L42
 546 002a 9342     		cmp	r3, r2
 547 002c 07D9     		bls	.L41
 229:data_processing_task.c ****            (data->gas_in_ohm >= GAS_LEVEL_INDOOR_MIN && data->gas_in_ohm <= GAS_LEVEL_INDOOR_MAX);
 548              		.loc 1 229 0 is_stmt 0
 549 002e 0020     		movs	r0, #0
 550              	.LVL46:
 551 0030 7047     		bx	lr
 552              	.LVL47:
 553              	.L38:
 554 0032 0020     		movs	r0, #0
 555              	.LVL48:
 556 0034 7047     		bx	lr
 557              	.LVL49:
 558              	.L39:
 559 0036 0020     		movs	r0, #0
 560              	.LVL50:
 561 0038 7047     		bx	lr
ARM GAS  C:\Users\batuh\AppData\Local\Temp\ccESjjHg.s 			page 15


 562              	.LVL51:
 563              	.L40:
 564 003a 0020     		movs	r0, #0
 565              	.LVL52:
 566 003c 7047     		bx	lr
 567              	.LVL53:
 568              	.L41:
 569 003e 0120     		movs	r0, #1
 570              	.LVL54:
 231:data_processing_task.c **** }
 571              		.loc 1 231 0 is_stmt 1
 572 0040 7047     		bx	lr
 573              	.L43:
 574 0042 00BF     		.align	2
 575              	.L42:
 576 0044 38A90500 		.word	371000
 577              		.cfi_endproc
 578              	.LFE70:
 579              		.size	isEnvironmentDataInRange, .-isEnvironmentDataInRange
 580              		.section	.text.Data_Processing_Task,"ax",%progbits
 581              		.align	2
 582              		.thumb
 583              		.thumb_func
 584              		.type	Data_Processing_Task, %function
 585              	Data_Processing_Task:
 586              	.LFB66:
  75:data_processing_task.c ****     
 587              		.loc 1 75 0
 588              		.cfi_startproc
 589              		@ args = 0, pretend = 0, frame = 24
 590              		@ frame_needed = 0, uses_anonymous_args = 0
 591              	.LVL55:
 592 0000 00B5     		push	{lr}
 593              		.cfi_def_cfa_offset 4
 594              		.cfi_offset 14, -4
 595 0002 89B0     		sub	sp, sp, #36
 596              		.cfi_def_cfa_offset 40
  84:data_processing_task.c ****   initMessageQueues();
 597              		.loc 1 84 0
 598 0004 0022     		movs	r2, #0
 599 0006 4349     		ldr	r1, .L56
 600 0008 3020     		movs	r0, #48
 601              	.LVL56:
 602 000a FFF7FEFF 		bl	Log_Write
 603              	.LVL57:
  85:data_processing_task.c ****   
 604              		.loc 1 85 0
 605 000e FFF7FEFF 		bl	initMessageQueues
 606              	.LVL58:
 607              	.L45:
  90:data_processing_task.c **** 
 608              		.loc 1 90 0
 609 0012 07A8     		add	r0, sp, #28
 610 0014 FFF7FEFF 		bl	processRawOximeterData
 611              	.LVL59:
 612 0018 0028     		cmp	r0, #0
 613 001a 37D0     		beq	.L46
ARM GAS  C:\Users\batuh\AppData\Local\Temp\ccESjjHg.s 			page 16


  93:data_processing_task.c ****       if (os_err == OS_ERR_Q_MAX) {
 614              		.loc 1 93 0
 615 001c 0DF11E03 		add	r3, sp, #30
 616 0020 0093     		str	r3, [sp]
 617 0022 0023     		movs	r3, #0
 618 0024 0222     		movs	r2, #2
 619 0026 07A9     		add	r1, sp, #28
 620 0028 3B48     		ldr	r0, .L56+4
 621 002a FFF7FEFF 		bl	OSQPost
 622              	.LVL60:
  94:data_processing_task.c ****           Log_Write(LOG_LEVEL_ERROR, "Data Processing Task: Queue is full, can't send the value to 
 623              		.loc 1 94 0
 624 002e BDF81E30 		ldrh	r3, [sp, #30]
 625 0032 46F29352 		movw	r2, #26003
 626 0036 9342     		cmp	r3, r2
 627 0038 11D1     		bne	.L47
  95:data_processing_task.c ****           entries = OSQFlush(&CommQProcessedOximeterData, &os_err);  // Flush queue if full
 628              		.loc 1 95 0
 629 003a 0022     		movs	r2, #0
 630 003c 3749     		ldr	r1, .L56+8
 631 003e 0420     		movs	r0, #4
 632 0040 FFF7FEFF 		bl	Log_Write
 633              	.LVL61:
  96:data_processing_task.c ****           if(os_err == OS_ERR_NONE){
 634              		.loc 1 96 0
 635 0044 0DF11E01 		add	r1, sp, #30
 636 0048 3348     		ldr	r0, .L56+4
 637 004a FFF7FEFF 		bl	OSQFlush
 638              	.LVL62:
  97:data_processing_task.c ****             Log_Write(LOG_LEVEL_DATA_PROCESSING, "Queue is flushed .. ");
 639              		.loc 1 97 0
 640 004e BDF81E30 		ldrh	r3, [sp, #30]
 641 0052 83B9     		cbnz	r3, .L48
  98:data_processing_task.c ****           }
 642              		.loc 1 98 0
 643 0054 3249     		ldr	r1, .L56+12
 644 0056 3020     		movs	r0, #48
 645 0058 FFF7FEFF 		bl	Log_Write
 646              	.LVL63:
 647 005c 0BE0     		b	.L48
 648              	.L47:
 100:data_processing_task.c ****           Log_Write(LOG_LEVEL_ERROR, "Error occurred at Data Processing Task...", 0);
 649              		.loc 1 100 0
 650 005e 2BB1     		cbz	r3, .L49
 101:data_processing_task.c ****       } else {
 651              		.loc 1 101 0
 652 0060 0022     		movs	r2, #0
 653 0062 3049     		ldr	r1, .L56+16
 654 0064 0420     		movs	r0, #4
 655 0066 FFF7FEFF 		bl	Log_Write
 656              	.LVL64:
 657 006a 04E0     		b	.L48
 658              	.L49:
 103:data_processing_task.c ****       }
 659              		.loc 1 103 0
 660 006c 0022     		movs	r2, #0
 661 006e 2E49     		ldr	r1, .L56+20
ARM GAS  C:\Users\batuh\AppData\Local\Temp\ccESjjHg.s 			page 17


 662 0070 3020     		movs	r0, #48
 663 0072 FFF7FEFF 		bl	Log_Write
 664              	.LVL65:
 665              	.L48:
 107:data_processing_task.c ****     } else if(processRawEnvironmentData(&processed_data_environment)){
 666              		.loc 1 107 0
 667 0076 0DF11E03 		add	r3, sp, #30
 668 007a 0193     		str	r3, [sp, #4]
 669 007c 0020     		movs	r0, #0
 670 007e 0090     		str	r0, [sp]
 671 0080 6423     		movs	r3, #100
 672 0082 0246     		mov	r2, r0
 673 0084 0146     		mov	r1, r0
 674 0086 FFF7FEFF 		bl	OSTimeDlyHMSM
 675              	.LVL66:
 676 008a C2E7     		b	.L45
 677              	.L46:
 108:data_processing_task.c ****       Log_Write(LOG_LEVEL_DATA_PROCESSING, "Processing environment data for LED control...", 0);
 678              		.loc 1 108 0
 679 008c 03A8     		add	r0, sp, #12
 680 008e FFF7FEFF 		bl	processRawEnvironmentData
 681              	.LVL67:
 682 0092 0028     		cmp	r0, #0
 683 0094 BDD0     		beq	.L45
 109:data_processing_task.c ****             
 684              		.loc 1 109 0
 685 0096 0022     		movs	r2, #0
 686 0098 2449     		ldr	r1, .L56+24
 687 009a 3020     		movs	r0, #48
 688 009c FFF7FEFF 		bl	Log_Write
 689              	.LVL68:
 112:data_processing_task.c ****         if (isEnvironmentDataInRange(&processed_data_environment)) {
 690              		.loc 1 112 0
 691 00a0 0323     		movs	r3, #3
 692 00a2 8DF80830 		strb	r3, [sp, #8]
 113:data_processing_task.c ****             led_control_message.data = GREEN_LED_FULL_BRIGHTNESS;  // Full brightness when data is 
 693              		.loc 1 113 0
 694 00a6 03A8     		add	r0, sp, #12
 695 00a8 FFF7FEFF 		bl	isEnvironmentDataInRange
 696              	.LVL69:
 697 00ac 40B1     		cbz	r0, .L51
 114:data_processing_task.c ****             Log_Write(LOG_LEVEL_DATA_PROCESSING, "Environment data in range - setting LED to full b
 698              		.loc 1 114 0
 699 00ae 0123     		movs	r3, #1
 700 00b0 8DF80930 		strb	r3, [sp, #9]
 115:data_processing_task.c ****         } else {
 701              		.loc 1 115 0
 702 00b4 0022     		movs	r2, #0
 703 00b6 1E49     		ldr	r1, .L56+28
 704 00b8 3020     		movs	r0, #48
 705 00ba FFF7FEFF 		bl	Log_Write
 706              	.LVL70:
 707 00be 07E0     		b	.L52
 708              	.L51:
 117:data_processing_task.c ****             Log_Write(LOG_LEVEL_DATA_PROCESSING, "Environment data out of range - setting LED to bl
 709              		.loc 1 117 0
 710 00c0 0223     		movs	r3, #2
ARM GAS  C:\Users\batuh\AppData\Local\Temp\ccESjjHg.s 			page 18


 711 00c2 8DF80930 		strb	r3, [sp, #9]
 118:data_processing_task.c ****         }
 712              		.loc 1 118 0
 713 00c6 0022     		movs	r2, #0
 714 00c8 1A49     		ldr	r1, .L56+32
 715 00ca 3020     		movs	r0, #48
 716 00cc FFF7FEFF 		bl	Log_Write
 717              	.LVL71:
 718              	.L52:
 122:data_processing_task.c ****         if (os_err != OS_ERR_NONE) {
 719              		.loc 1 122 0
 720 00d0 0DF11E03 		add	r3, sp, #30
 721 00d4 0093     		str	r3, [sp]
 722 00d6 0023     		movs	r3, #0
 723 00d8 0222     		movs	r2, #2
 724 00da 02A9     		add	r1, sp, #8
 725 00dc 1648     		ldr	r0, .L56+36
 726 00de FFF7FEFF 		bl	OSQPost
 727              	.LVL72:
 123:data_processing_task.c ****             Log_Write(LOG_LEVEL_ERROR, "Data Processing Task: Failed to send environment LED comman
 728              		.loc 1 123 0
 729 00e2 BDF81E20 		ldrh	r2, [sp, #30]
 730 00e6 22B1     		cbz	r2, .L53
 124:data_processing_task.c ****         } else {
 731              		.loc 1 124 0
 732 00e8 1449     		ldr	r1, .L56+40
 733 00ea 0420     		movs	r0, #4
 734 00ec FFF7FEFF 		bl	Log_Write
 735              	.LVL73:
 736 00f0 04E0     		b	.L54
 737              	.L53:
 126:data_processing_task.c ****         }
 738              		.loc 1 126 0
 739 00f2 0022     		movs	r2, #0
 740 00f4 1249     		ldr	r1, .L56+44
 741 00f6 3020     		movs	r0, #48
 742 00f8 FFF7FEFF 		bl	Log_Write
 743              	.LVL74:
 744              	.L54:
 130:data_processing_task.c ****       }
 745              		.loc 1 130 0
 746 00fc 0DF11E03 		add	r3, sp, #30
 747 0100 0193     		str	r3, [sp, #4]
 748 0102 0020     		movs	r0, #0
 749 0104 0090     		str	r0, [sp]
 750 0106 6423     		movs	r3, #100
 751 0108 0246     		mov	r2, r0
 752 010a 0146     		mov	r1, r0
 753 010c FFF7FEFF 		bl	OSTimeDlyHMSM
 754              	.LVL75:
 755 0110 7FE7     		b	.L45
 756              	.L57:
 757 0112 00BF     		.align	2
 758              	.L56:
 759 0114 30030000 		.word	.LC17
 760 0118 00000000 		.word	CommQProcessedOximeterData
 761 011c 68030000 		.word	.LC18
ARM GAS  C:\Users\batuh\AppData\Local\Temp\ccESjjHg.s 			page 19


 762 0120 B8030000 		.word	.LC19
 763 0124 D0030000 		.word	.LC20
 764 0128 FC030000 		.word	.LC21
 765 012c 20040000 		.word	.LC22
 766 0130 50040000 		.word	.LC23
 767 0134 8C040000 		.word	.LC24
 768 0138 00000000 		.word	CommQProcessedEnvironmentData
 769 013c C4040000 		.word	.LC25
 770 0140 0C050000 		.word	.LC26
 771              		.cfi_endproc
 772              	.LFE66:
 773              		.size	Data_Processing_Task, .-Data_Processing_Task
 774              		.comm	Data_Processing_TaskStk,2048,4
 775              		.comm	Data_Processing_TCB,192,4
 776              		.comm	CommQProcessedEnvironmentData,48,4
 777              		.comm	CommQProcessedOximeterData,48,4
 778              		.comm	CommQSPIData,48,4
 779              		.comm	CommQI2CHeartRate,48,4
 780              		.comm	CommQI2CSPO2,48,4
 781              		.section	.rodata.str1.4,"aMS",%progbits,1
 782              		.align	2
 783              	.LC0:
 784 0000 43726561 		.ascii	"Creating message queue to send processed oximeter v"
 784      74696E67 
 784      206D6573 
 784      73616765 
 784      20717565 
 785 0033 616C7565 		.ascii	"alues\000"
 785      7300
 786 0039 000000   		.space	3
 787              	.LC1:
 788 003c 51756575 		.ascii	"Queue created for oximeter data successfully\000"
 788      65206372 
 788      65617465 
 788      6420666F 
 788      72206F78 
 789 0069 000000   		.space	3
 790              	.LC2:
 791 006c 4572726F 		.ascii	"Error: Queue creation failed\000"
 791      723A2051 
 791      75657565 
 791      20637265 
 791      6174696F 
 792 0089 000000   		.space	3
 793              	.LC3:
 794 008c 43726561 		.ascii	"Creating message queue to send processed environmen"
 794      74696E67 
 794      206D6573 
 794      73616765 
 794      20717565 
 795 00bf 74207661 		.ascii	"t values\000"
 795      6C756573 
 795      00
 796              	.LC4:
 797 00c8 51756575 		.ascii	"Queue created for environment data successfully\000"
 797      65206372 
 797      65617465 
ARM GAS  C:\Users\batuh\AppData\Local\Temp\ccESjjHg.s 			page 20


 797      6420666F 
 797      7220656E 
 798              	.LC5:
 799 00f8 44617461 		.ascii	"Data Processing Task\000"
 799      2050726F 
 799      63657373 
 799      696E6720 
 799      5461736B 
 800 010d 000000   		.space	3
 801              	.LC6:
 802 0110 44617461 		.ascii	"Data Processing Task created successfully\000"
 802      2050726F 
 802      63657373 
 802      696E6720 
 802      5461736B 
 803 013a 0000     		.space	2
 804              	.LC7:
 805 013c 4572726F 		.ascii	"Error: Data Processing Task creation failed\000"
 805      723A2044 
 805      61746120 
 805      50726F63 
 805      65737369 
 806              	.LC8:
 807 0168 44617461 		.ascii	"Data Processing Task: OSQPend() failed for %s with "
 807      2050726F 
 807      63657373 
 807      696E6720 
 807      5461736B 
 808 019b 6572726F 		.ascii	"error code %d\000"
 808      7220636F 
 808      64652025 
 808      6400
 809 01a9 000000   		.space	3
 810              	.LC9:
 811 01ac 44617461 		.ascii	"Data Processing Task: Received %s -> %d\000"
 811      2050726F 
 811      63657373 
 811      696E6720 
 811      5461736B 
 812              	.LC10:
 813 01d4 41766572 		.ascii	"Average Heart Rate\000"
 813      61676520 
 813      48656172 
 813      74205261 
 813      746500
 814 01e7 00       		.space	1
 815              	.LC11:
 816 01e8 53704F32 		.ascii	"SpO2\000"
 816      00
 817 01ed 000000   		.space	3
 818              	.LC12:
 819 01f0 44617461 		.ascii	"Data Processing Task: OSQPend() operation failed fo"
 819      2050726F 
 819      63657373 
 819      696E6720 
 819      5461736B 
 820 0223 7220656E 		.ascii	"r environmental data with error code\000"
ARM GAS  C:\Users\batuh\AppData\Local\Temp\ccESjjHg.s 			page 21


 820      7669726F 
 820      6E6D656E 
 820      74616C20 
 820      64617461 
 821              	.LC13:
 822 0248 44617461 		.ascii	"Data Processing Task: Received Temperature -> %d.%0"
 822      2050726F 
 822      63657373 
 822      696E6720 
 822      5461736B 
 823 027b 32642064 		.ascii	"2d deg C\000"
 823      65672043 
 823      00
 824              	.LC14:
 825 0284 44617461 		.ascii	"Data Processing Task: Received Humidity -> %d.%02d "
 825      2050726F 
 825      63657373 
 825      696E6720 
 825      5461736B 
 826 02b7 252500   		.ascii	"%%\000"
 827 02ba 0000     		.space	2
 828              	.LC15:
 829 02bc 44617461 		.ascii	"Data Processing Task: Received Pressure -> %d.%1d h"
 829      2050726F 
 829      63657373 
 829      696E6720 
 829      5461736B 
 830 02ef 506100   		.ascii	"Pa\000"
 831 02f2 0000     		.space	2
 832              	.LC16:
 833 02f4 44617461 		.ascii	"Data Processing Task: Received Gas Concentration ->"
 833      2050726F 
 833      63657373 
 833      696E6720 
 833      5461736B 
 834 0327 20256420 		.ascii	" %d ppm\000"
 834      70706D00 
 835 032f 00       		.space	1
 836              	.LC17:
 837 0330 44617461 		.ascii	"Data Processing Task: Initializing message queues ."
 837      2050726F 
 837      63657373 
 837      696E6720 
 837      5461736B 
 838 0363 2E2E00   		.ascii	"..\000"
 839 0366 0000     		.space	2
 840              	.LC18:
 841 0368 44617461 		.ascii	"Data Processing Task: Queue is full, can't send the"
 841      2050726F 
 841      63657373 
 841      696E6720 
 841      5461736B 
 842 039b 2076616C 		.ascii	" value to further task...\000"
 842      75652074 
 842      6F206675 
 842      72746865 
 842      72207461 
ARM GAS  C:\Users\batuh\AppData\Local\Temp\ccESjjHg.s 			page 22


 843 03b5 000000   		.space	3
 844              	.LC19:
 845 03b8 51756575 		.ascii	"Queue is flushed .. \000"
 845      65206973 
 845      20666C75 
 845      73686564 
 845      202E2E20 
 846 03cd 000000   		.space	3
 847              	.LC20:
 848 03d0 4572726F 		.ascii	"Error occurred at Data Processing Task...\000"
 848      72206F63 
 848      63757272 
 848      65642061 
 848      74204461 
 849 03fa 0000     		.space	2
 850              	.LC21:
 851 03fc 53656E74 		.ascii	"Sent value to LED control task...\000"
 851      2076616C 
 851      75652074 
 851      6F204C45 
 851      4420636F 
 852 041e 0000     		.space	2
 853              	.LC22:
 854 0420 50726F63 		.ascii	"Processing environment data for LED control...\000"
 854      65737369 
 854      6E672065 
 854      6E766972 
 854      6F6E6D65 
 855 044f 00       		.space	1
 856              	.LC23:
 857 0450 456E7669 		.ascii	"Environment data in range - setting LED to full bri"
 857      726F6E6D 
 857      656E7420 
 857      64617461 
 857      20696E20 
 858 0483 6768746E 		.ascii	"ghtness.\000"
 858      6573732E 
 858      00
 859              	.LC24:
 860 048c 456E7669 		.ascii	"Environment data out of range - setting LED to blin"
 860      726F6E6D 
 860      656E7420 
 860      64617461 
 860      206F7574 
 861 04bf 6B2E00   		.ascii	"k.\000"
 862 04c2 0000     		.space	2
 863              	.LC25:
 864 04c4 44617461 		.ascii	"Data Processing Task: Failed to send environment LE"
 864      2050726F 
 864      63657373 
 864      696E6720 
 864      5461736B 
 865 04f7 4420636F 		.ascii	"D command with error\000"
 865      6D6D616E 
 865      64207769 
 865      74682065 
 865      72726F72 
ARM GAS  C:\Users\batuh\AppData\Local\Temp\ccESjjHg.s 			page 23


 866              	.LC26:
 867 050c 456E7669 		.ascii	"Environment LED command sent to LED control task.\000"
 867      726F6E6D 
 867      656E7420 
 867      4C454420 
 867      636F6D6D 
 868              		.text
 869              	.Letext0:
 870              		.file 2 "c:\\program files (x86)\\cypress\\psoc creator\\4.4\\psoc creator\\import\\gnu\\arm\\5.4.
 871              		.file 3 "c:\\program files (x86)\\cypress\\psoc creator\\4.4\\psoc creator\\import\\gnu\\arm\\5.4.
 872              		.file 4 ".\\uC-CPU\\ARM-Cortex-M3\\GNU/cpu.h"
 873              		.file 5 ".\\uC-CPU/cpu_core.h"
 874              		.file 6 ".\\uCOS-III\\Source/os_type.h"
 875              		.file 7 ".\\uCOS-III\\Source/os.h"
 876              		.file 8 "data_processing_task.h"
 877              		.file 9 "Generated_Source\\PSoC5/core_cm3.h"
 878              		.file 10 "./log_task.h"