ARM GAS  C:\Users\CHRONI~1\AppData\Local\Temp\cckdjdVO.s 			page 1


   1              		.syntax unified
   2              		.cpu cortex-m3
   3              		.fpu softvfp
   4              		.eabi_attribute 20, 1
   5              		.eabi_attribute 21, 1
   6              		.eabi_attribute 23, 3
   7              		.eabi_attribute 24, 1
   8              		.eabi_attribute 25, 1
   9              		.eabi_attribute 26, 1
  10              		.eabi_attribute 30, 1
  11              		.eabi_attribute 34, 1
  12              		.eabi_attribute 18, 4
  13              		.thumb
  14              		.syntax unified
  15              		.file	"environmentSensor.c"
  16              		.text
  17              	.Ltext0:
  18              		.cfi_sections	.debug_frame
  19              		.section	.text.bme688_Task,"ax",%progbits
  20              		.align	2
  21              		.thumb
  22              		.thumb_func
  23              		.type	bme688_Task, %function
  24              	bme688_Task:
  25              	.LFB68:
  26              		.file 1 "environmentSensor.c"
   1:environmentSensor.c **** /* ========================================
   2:environmentSensor.c ****  *
   3:environmentSensor.c ****  * Copyright YOUR COMPANY, THE YEAR
   4:environmentSensor.c ****  * All Rights Reserved
   5:environmentSensor.c ****  * UNPUBLISHED, LICENSED SOFTWARE.
   6:environmentSensor.c ****  *
   7:environmentSensor.c ****  * CONFIDENTIAL AND PROPRIETARY INFORMATION
   8:environmentSensor.c ****  * WHICH IS THE PROPERTY OF your company.
   9:environmentSensor.c ****  *
  10:environmentSensor.c ****  * ========================================
  11:environmentSensor.c **** */
  12:environmentSensor.c **** 
  13:environmentSensor.c **** #include <environmentSensor.h>
  14:environmentSensor.c **** 
  15:environmentSensor.c **** OS_TCB BME688_Task_TCB;                              // Task Control Block for BME688 task
  16:environmentSensor.c **** CPU_STK BME688_TaskStk[APP_CFG_TASK_BME688_STK_SIZE]; // Stack for BME688 task
  17:environmentSensor.c **** 
  18:environmentSensor.c **** void BME688_Init(void) {
  19:environmentSensor.c ****     OS_ERR os_err;
  20:environmentSensor.c **** 
  21:environmentSensor.c ****     Log_Write(LOG_LEVEL_BME688, "BME688 Init: Creating BME688 task", 0);
  22:environmentSensor.c **** 
  23:environmentSensor.c ****     /* Create the MAX30102 task */
  24:environmentSensor.c ****     OSTaskCreate((OS_TCB *)&BME688_Task_TCB,           // Task Control Block
  25:environmentSensor.c ****                  (CPU_CHAR *)"BME688 Task",            // Task name for debugging
  26:environmentSensor.c ****                  (OS_TASK_PTR)bme688_Task,             // Pointer to task function
  27:environmentSensor.c ****                  (void *)0,                              // Task arguments (none)
  28:environmentSensor.c ****                  (OS_PRIO)APP_CFG_TASK_BME688_PRIO,         // Task priority
  29:environmentSensor.c ****                  (CPU_STK *)&BME688_TaskStk[0],        // Stack base
  30:environmentSensor.c ****                  (CPU_STK_SIZE)APP_CFG_TASK_BME688_STK_SIZE_LIMIT, // Minimum stack size
  31:environmentSensor.c ****                  (CPU_STK_SIZE)APP_CFG_TASK_BME688_STK_SIZE,        // Stack size
ARM GAS  C:\Users\CHRONI~1\AppData\Local\Temp\cckdjdVO.s 			page 2


  32:environmentSensor.c ****                  (OS_MSG_QTY)0u,                         // No message queue required
  33:environmentSensor.c ****                  (OS_TICK)0u,                            // No time slice
  34:environmentSensor.c ****                  (void *)0,                              // No extra storage
  35:environmentSensor.c ****                  (OS_OPT)(OS_OPT_TASK_STK_CHK | OS_OPT_TASK_STK_CLR), // Stack options
  36:environmentSensor.c ****                  (OS_ERR *)&os_err);                     // Error code
  37:environmentSensor.c **** 
  38:environmentSensor.c ****     // Log task creation success or failure
  39:environmentSensor.c ****     if (os_err == OS_ERR_NONE) {
  40:environmentSensor.c ****         Log_Write(LOG_LEVEL_BME688, "BME688 Task created successfully", 0);
  41:environmentSensor.c ****     } else {
  42:environmentSensor.c ****         Log_Write(LOG_LEVEL_ERROR, "Error: BME688 Task creation failed", os_err);
  43:environmentSensor.c ****     }
  44:environmentSensor.c **** }
  45:environmentSensor.c **** 
  46:environmentSensor.c **** bme68x_read_fptr_t bsp_i2c_read_bme(uint8_t reg_addr, uint8_t* reg_data, uint32_t len, void* intf_p
  47:environmentSensor.c ****     CPU_INT08U status;
  48:environmentSensor.c ****     if(bsp_i2c_read(0x76, reg_addr, reg_data, len) != 0){
  49:environmentSensor.c ****       Log_Write(LOG_LEVEL_ERROR, "Error Reading I2C BME", 0);
  50:environmentSensor.c ****     }
  51:environmentSensor.c **** }
  52:environmentSensor.c **** 
  53:environmentSensor.c **** bme68x_write_fptr_t bsp_i2c_write_bme(uint8_t reg_addr, const uint8_t* reg_data, uint32_t len, void
  54:environmentSensor.c ****     CPU_INT08U status;
  55:environmentSensor.c ****     if(bsp_i2c_write(0x76, reg_addr, reg_data, len) != 0){
  56:environmentSensor.c ****       Log_Write(LOG_LEVEL_ERROR, "Error Writing I2C BME", 0);
  57:environmentSensor.c ****     }
  58:environmentSensor.c **** }
  59:environmentSensor.c **** 
  60:environmentSensor.c **** void us_Delay(uint32_t period, void *intf_ptr){
  61:environmentSensor.c ****   CyDelayUs(period);
  62:environmentSensor.c **** }
  63:environmentSensor.c **** 
  64:environmentSensor.c **** static void bme688_Task(void *p_arg){
  27              		.loc 1 64 0
  28              		.cfi_startproc
  29              		@ args = 0, pretend = 0, frame = 168
  30              		@ frame_needed = 0, uses_anonymous_args = 0
  31              	.LVL0:
  32 0000 30B5     		push	{r4, r5, lr}
  33              		.cfi_def_cfa_offset 12
  34              		.cfi_offset 4, -12
  35              		.cfi_offset 5, -8
  36              		.cfi_offset 14, -4
  37 0002 ADB0     		sub	sp, sp, #180
  38              		.cfi_def_cfa_offset 192
  65:environmentSensor.c ****   OS_ERR os_err;
  66:environmentSensor.c ****   (void)p_arg; // Suppress unused parameter warning
  67:environmentSensor.c ****   
  68:environmentSensor.c ****   Log_Write(LOG_LEVEL_BME688, "Initializing Bme688", 0);
  39              		.loc 1 68 0
  40 0004 0022     		movs	r2, #0
  41 0006 6949     		ldr	r1, .L14
  42 0008 8020     		movs	r0, #128
  43              	.LVL1:
  44 000a FFF7FEFF 		bl	Log_Write
  45              	.LVL2:
  69:environmentSensor.c ****   Clock_1_Start();
ARM GAS  C:\Users\CHRONI~1\AppData\Local\Temp\cckdjdVO.s 			page 3


  46              		.loc 1 69 0
  47 000e FFF7FEFF 		bl	Clock_1_Start
  48              	.LVL3:
  70:environmentSensor.c ****   struct bme68x_dev bme688_handle;
  71:environmentSensor.c ****   int8_t rslt;
  72:environmentSensor.c ****   struct bme68x_conf conf, check_conf;
  73:environmentSensor.c ****   struct bme68x_heatr_conf heatr_conf, check_heatr_conf;
  74:environmentSensor.c ****   struct bme68x_data data;
  75:environmentSensor.c ****   uint8_t n_fields;
  76:environmentSensor.c ****   bme688_handle.delay_us = us_Delay;
  49              		.loc 1 76 0
  50 0012 674B     		ldr	r3, .L14+4
  51 0014 2993     		str	r3, [sp, #164]
  77:environmentSensor.c ****   bme688_handle.read = bsp_i2c_read_bme;
  52              		.loc 1 77 0
  53 0016 674B     		ldr	r3, .L14+8
  54 0018 2793     		str	r3, [sp, #156]
  78:environmentSensor.c ****   bme688_handle.write = bsp_i2c_write_bme;
  55              		.loc 1 78 0
  56 001a 674B     		ldr	r3, .L14+12
  57 001c 2893     		str	r3, [sp, #160]
  79:environmentSensor.c ****   bme688_handle.intf = BME68X_I2C_INTF;
  58              		.loc 1 79 0
  59 001e 0123     		movs	r3, #1
  60 0020 8DF86830 		strb	r3, [sp, #104]
  80:environmentSensor.c ****   bme688_handle.amb_temp = 22;
  61              		.loc 1 80 0
  62 0024 1623     		movs	r3, #22
  63 0026 8DF86A30 		strb	r3, [sp, #106]
  64              	.LVL4:
  81:environmentSensor.c ****   
  82:environmentSensor.c ****   uint8_t chip_Id = 0;
  83:environmentSensor.c ****   
  84:environmentSensor.c ****   if (bme68x_init(&bme688_handle) != 0){
  65              		.loc 1 84 0
  66 002a 17A8     		add	r0, sp, #92
  67 002c FFF7FEFF 		bl	bme68x_init
  68              	.LVL5:
  69 0030 28B1     		cbz	r0, .L2
  85:environmentSensor.c ****     Log_Write(LOG_LEVEL_ERROR, "Failed to initialize BME688 sensor", 0);
  70              		.loc 1 85 0
  71 0032 0022     		movs	r2, #0
  72 0034 6149     		ldr	r1, .L14+16
  73 0036 0420     		movs	r0, #4
  74 0038 FFF7FEFF 		bl	Log_Write
  75              	.LVL6:
  86:environmentSensor.c ****     return;  // Exit if sensor initialization fails
  76              		.loc 1 86 0
  77 003c B4E0     		b	.L12
  78              	.L2:
  87:environmentSensor.c ****   }
  88:environmentSensor.c ****   
  89:environmentSensor.c ****   rslt = bme68x_selftest_check(&bme688_handle);
  79              		.loc 1 89 0
  80 003e 17A8     		add	r0, sp, #92
  81 0040 FFF7FEFF 		bl	bme68x_selftest_check
  82              	.LVL7:
ARM GAS  C:\Users\CHRONI~1\AppData\Local\Temp\cckdjdVO.s 			page 4


  90:environmentSensor.c ****   if(rslt != 0){
  83              		.loc 1 90 0
  84 0044 0246     		mov	r2, r0
  85 0046 18B1     		cbz	r0, .L3
  91:environmentSensor.c ****     Log_Write(LOG_LEVEL_BME688,"Error setting BME688 selftest: %d", rslt);
  86              		.loc 1 91 0
  87 0048 5D49     		ldr	r1, .L14+20
  88 004a 8020     		movs	r0, #128
  89              	.LVL8:
  90 004c FFF7FEFF 		bl	Log_Write
  91              	.LVL9:
  92              	.L3:
  92:environmentSensor.c ****   }
  93:environmentSensor.c ****   
  94:environmentSensor.c ****   Log_Write(LOG_LEVEL_BME688, "Bme688 found", 0);
  93              		.loc 1 94 0
  94 0050 0022     		movs	r2, #0
  95 0052 5C49     		ldr	r1, .L14+24
  96 0054 8020     		movs	r0, #128
  97 0056 FFF7FEFF 		bl	Log_Write
  98              	.LVL10:
  95:environmentSensor.c ****   
  96:environmentSensor.c ****   conf.filter = BME68X_FILTER_OFF;
  99              		.loc 1 96 0
 100 005a 0023     		movs	r3, #0
 101 005c 8DF85730 		strb	r3, [sp, #87]
  97:environmentSensor.c ****   conf.odr = BME68X_ODR_NONE;
 102              		.loc 1 97 0
 103 0060 0823     		movs	r3, #8
 104 0062 8DF85830 		strb	r3, [sp, #88]
  98:environmentSensor.c ****   conf.os_hum = BME68X_OS_16X;
 105              		.loc 1 98 0
 106 0066 0523     		movs	r3, #5
 107 0068 8DF85430 		strb	r3, [sp, #84]
  99:environmentSensor.c ****   conf.os_pres = BME68X_OS_1X;
 108              		.loc 1 99 0
 109 006c 0123     		movs	r3, #1
 110 006e 8DF85630 		strb	r3, [sp, #86]
 100:environmentSensor.c ****   conf.os_temp = BME68X_OS_2X;
 111              		.loc 1 100 0
 112 0072 0223     		movs	r3, #2
 113 0074 8DF85530 		strb	r3, [sp, #85]
 101:environmentSensor.c ****   rslt = bme68x_set_conf(&conf, &bme688_handle);
 114              		.loc 1 101 0
 115 0078 17A9     		add	r1, sp, #92
 116 007a 15A8     		add	r0, sp, #84
 117 007c FFF7FEFF 		bl	bme68x_set_conf
 118              	.LVL11:
 102:environmentSensor.c ****   if(rslt != 0){
 119              		.loc 1 102 0
 120 0080 20B1     		cbz	r0, .L4
 103:environmentSensor.c ****     Log_Write(LOG_LEVEL_ERROR,"Error setting BME688 meas config", 0);
 121              		.loc 1 103 0
 122 0082 0022     		movs	r2, #0
 123 0084 5049     		ldr	r1, .L14+28
 124 0086 0420     		movs	r0, #4
 125              	.LVL12:
ARM GAS  C:\Users\CHRONI~1\AppData\Local\Temp\cckdjdVO.s 			page 5


 126 0088 FFF7FEFF 		bl	Log_Write
 127              	.LVL13:
 128              	.L4:
 104:environmentSensor.c ****   }
 105:environmentSensor.c ****   
 106:environmentSensor.c ****   rslt = bme68x_get_conf(&check_conf, &bme688_handle);
 129              		.loc 1 106 0
 130 008c 17A9     		add	r1, sp, #92
 131 008e 13A8     		add	r0, sp, #76
 132 0090 FFF7FEFF 		bl	bme68x_get_conf
 133              	.LVL14:
 107:environmentSensor.c ****   if(rslt == 0 && !memcmp(&check_conf, &conf, (size_t)sizeof(conf))){
 134              		.loc 1 107 0
 135 0094 50B9     		cbnz	r0, .L5
 136              		.loc 1 107 0 is_stmt 0 discriminator 1
 137 0096 0522     		movs	r2, #5
 138 0098 15A9     		add	r1, sp, #84
 139 009a 13A8     		add	r0, sp, #76
 140              	.LVL15:
 141 009c FFF7FEFF 		bl	memcmp
 142              	.LVL16:
 143 00a0 20B9     		cbnz	r0, .L5
 108:environmentSensor.c ****     Log_Write(LOG_LEVEL_BME688,"config compare failed bme688", 0);
 144              		.loc 1 108 0 is_stmt 1
 145 00a2 0022     		movs	r2, #0
 146 00a4 4949     		ldr	r1, .L14+32
 147 00a6 8020     		movs	r0, #128
 148 00a8 FFF7FEFF 		bl	Log_Write
 149              	.LVL17:
 150              	.L5:
 109:environmentSensor.c ****   }
 110:environmentSensor.c ****   
 111:environmentSensor.c ****   heatr_conf.enable = BME68X_ENABLE   ;
 151              		.loc 1 111 0
 152 00ac 0120     		movs	r0, #1
 153 00ae 8DF83800 		strb	r0, [sp, #56]
 112:environmentSensor.c ****   heatr_conf.heatr_temp = 300;
 154              		.loc 1 112 0
 155 00b2 4FF49673 		mov	r3, #300
 156 00b6 ADF83A30 		strh	r3, [sp, #58]	@ movhi
 113:environmentSensor.c ****   heatr_conf.heatr_dur = 100;
 157              		.loc 1 113 0
 158 00ba 6423     		movs	r3, #100
 159 00bc ADF83C30 		strh	r3, [sp, #60]	@ movhi
 114:environmentSensor.c ****   rslt = bme68x_set_heatr_conf(BME68X_FORCED_MODE, &heatr_conf, &bme688_handle);
 160              		.loc 1 114 0
 161 00c0 17AA     		add	r2, sp, #92
 162 00c2 0EA9     		add	r1, sp, #56
 163 00c4 FFF7FEFF 		bl	bme68x_set_heatr_conf
 164              	.LVL18:
 115:environmentSensor.c ****   if(rslt != 0){
 165              		.loc 1 115 0
 166 00c8 28B1     		cbz	r0, .L6
 116:environmentSensor.c ****     Log_Write(LOG_LEVEL_ERROR,"Error setting BME688 meas config", 0);
 167              		.loc 1 116 0
 168 00ca 0022     		movs	r2, #0
 169 00cc 3E49     		ldr	r1, .L14+28
ARM GAS  C:\Users\CHRONI~1\AppData\Local\Temp\cckdjdVO.s 			page 6


 170 00ce 0420     		movs	r0, #4
 171              	.LVL19:
 172 00d0 FFF7FEFF 		bl	Log_Write
 173              	.LVL20:
 174 00d4 04E0     		b	.L7
 175              	.LVL21:
 176              	.L6:
 117:environmentSensor.c ****   }else{
 118:environmentSensor.c ****     Log_Write(LOG_LEVEL_BME688,"Setting BME688 meas config successful", 0);
 177              		.loc 1 118 0
 178 00d6 0022     		movs	r2, #0
 179 00d8 3D49     		ldr	r1, .L14+36
 180 00da 8020     		movs	r0, #128
 181              	.LVL22:
 182 00dc FFF7FEFF 		bl	Log_Write
 183              	.LVL23:
 184              	.L7:
 119:environmentSensor.c ****   }
 120:environmentSensor.c ****   
 121:environmentSensor.c ****   memcpy(&check_heatr_conf, &heatr_conf, sizeof(heatr_conf));
 185              		.loc 1 121 0
 186 00e0 09AC     		add	r4, sp, #36
 187 00e2 0EAD     		add	r5, sp, #56
 188 00e4 0FCD     		ldmia	r5!, {r0, r1, r2, r3}
 189 00e6 0FC4     		stmia	r4!, {r0, r1, r2, r3}
 190 00e8 2B68     		ldr	r3, [r5]
 191 00ea 2360     		str	r3, [r4]
 122:environmentSensor.c ****   
 123:environmentSensor.c ****   rslt = bme68x_get_heatr_conf(&check_heatr_conf, &bme688_handle);
 192              		.loc 1 123 0
 193 00ec 17A9     		add	r1, sp, #92
 194 00ee 09A8     		add	r0, sp, #36
 195 00f0 FFF7FEFF 		bl	bme68x_get_heatr_conf
 196              	.LVL24:
 124:environmentSensor.c ****   if(rslt == 0 && !memcmp(&check_heatr_conf, &heatr_conf, (size_t)sizeof(heatr_conf))){
 197              		.loc 1 124 0
 198 00f4 50B9     		cbnz	r0, .L8
 199              		.loc 1 124 0 is_stmt 0 discriminator 1
 200 00f6 1422     		movs	r2, #20
 201 00f8 0EA9     		add	r1, sp, #56
 202 00fa 09A8     		add	r0, sp, #36
 203              	.LVL25:
 204 00fc FFF7FEFF 		bl	memcmp
 205              	.LVL26:
 206 0100 20B9     		cbnz	r0, .L8
 125:environmentSensor.c ****     Log_Write(LOG_LEVEL_BME688,"Setting BME688 meas config successful", 0);
 207              		.loc 1 125 0 is_stmt 1
 208 0102 0022     		movs	r2, #0
 209 0104 3249     		ldr	r1, .L14+36
 210 0106 8020     		movs	r0, #128
 211 0108 FFF7FEFF 		bl	Log_Write
 212              	.LVL27:
 213              	.L8:
 126:environmentSensor.c ****   }
 127:environmentSensor.c ****   
 128:environmentSensor.c ****   Log_Write(LOG_LEVEL_BME688,"Initializing BME688 sensor successful", 0);
 214              		.loc 1 128 0
ARM GAS  C:\Users\CHRONI~1\AppData\Local\Temp\cckdjdVO.s 			page 7


 215 010c 0022     		movs	r2, #0
 216 010e 3149     		ldr	r1, .L14+40
 217 0110 8020     		movs	r0, #128
 218 0112 FFF7FEFF 		bl	Log_Write
 219              	.LVL28:
 220              	.L11:
 221              	.LBB2:
 129:environmentSensor.c ****   
 130:environmentSensor.c ****   for(;;){
 131:environmentSensor.c ****     rslt = bme68x_set_op_mode(BME68X_FORCED_MODE, &bme688_handle);
 222              		.loc 1 131 0
 223 0116 17A9     		add	r1, sp, #92
 224 0118 0120     		movs	r0, #1
 225 011a FFF7FEFF 		bl	bme68x_set_op_mode
 226              	.LVL29:
 132:environmentSensor.c ****     if(rslt != 0){
 227              		.loc 1 132 0
 228 011e 0246     		mov	r2, r0
 229 0120 18B1     		cbz	r0, .L9
 133:environmentSensor.c ****       Log_Write(LOG_LEVEL_ERROR,"changing BME opmode error: %d", rslt);
 230              		.loc 1 133 0
 231 0122 2D49     		ldr	r1, .L14+44
 232 0124 0420     		movs	r0, #4
 233              	.LVL30:
 234 0126 FFF7FEFF 		bl	Log_Write
 235              	.LVL31:
 236              	.L9:
 134:environmentSensor.c ****     }
 135:environmentSensor.c ****     uint16_t del_period = bme68x_get_meas_dur(BME68X_FORCED_MODE, &conf, &bme688_handle) + (heatr_c
 237              		.loc 1 135 0
 238 012a 17AA     		add	r2, sp, #92
 239 012c 15A9     		add	r1, sp, #84
 240 012e 0120     		movs	r0, #1
 241 0130 FFF7FEFF 		bl	bme68x_get_meas_dur
 242              	.LVL32:
 243 0134 BDF83C30 		ldrh	r3, [sp, #60]
 244 0138 C3EB4312 		rsb	r2, r3, r3, lsl #5
 245 013c 03EB8203 		add	r3, r3, r2, lsl #2
 246 0140 DA00     		lsls	r2, r3, #3
 247 0142 1044     		add	r0, r0, r2
 248              	.LVL33:
 136:environmentSensor.c ****     bme688_handle.delay_us(del_period, bme688_handle.intf_ptr);
 249              		.loc 1 136 0
 250 0144 1899     		ldr	r1, [sp, #96]
 251 0146 80B2     		uxth	r0, r0
 252 0148 299B     		ldr	r3, [sp, #164]
 253 014a 9847     		blx	r3
 254              	.LVL34:
 137:environmentSensor.c ****     
 138:environmentSensor.c ****     rslt = bme68x_get_data(BME68X_FORCED_MODE, &data, &n_fields, &bme688_handle);
 255              		.loc 1 138 0
 256 014c 17AB     		add	r3, sp, #92
 257 014e 0DF10F02 		add	r2, sp, #15
 258 0152 04A9     		add	r1, sp, #16
 259 0154 0120     		movs	r0, #1
 260 0156 FFF7FEFF 		bl	bme68x_get_data
 261              	.LVL35:
ARM GAS  C:\Users\CHRONI~1\AppData\Local\Temp\cckdjdVO.s 			page 8


 139:environmentSensor.c ****     if(rslt != 0){
 262              		.loc 1 139 0
 263 015a 0246     		mov	r2, r0
 264 015c 18B1     		cbz	r0, .L10
 140:environmentSensor.c ****       Log_Write(LOG_LEVEL_ERROR,"Reading BME values error: %d", rslt);
 265              		.loc 1 140 0
 266 015e 1F49     		ldr	r1, .L14+48
 267 0160 0420     		movs	r0, #4
 268              	.LVL36:
 269 0162 FFF7FEFF 		bl	Log_Write
 270              	.LVL37:
 271              	.L10:
 141:environmentSensor.c ****     }
 142:environmentSensor.c ****     
 143:environmentSensor.c ****     Log_Write(LOG_LEVEL_BME688,"temp: %d", data.temperature);
 272              		.loc 1 143 0
 273 0166 BDF91620 		ldrsh	r2, [sp, #22]
 274 016a 1D49     		ldr	r1, .L14+52
 275 016c 8020     		movs	r0, #128
 276 016e FFF7FEFF 		bl	Log_Write
 277              	.LVL38:
 144:environmentSensor.c ****     Log_Write(LOG_LEVEL_BME688,"humidity: %d", data.humidity);
 278              		.loc 1 144 0
 279 0172 079A     		ldr	r2, [sp, #28]
 280 0174 1B49     		ldr	r1, .L14+56
 281 0176 8020     		movs	r0, #128
 282 0178 FFF7FEFF 		bl	Log_Write
 283              	.LVL39:
 145:environmentSensor.c ****     Log_Write(LOG_LEVEL_BME688,"pressure: %d", data.pressure);
 284              		.loc 1 145 0
 285 017c 069A     		ldr	r2, [sp, #24]
 286 017e 1A49     		ldr	r1, .L14+60
 287 0180 8020     		movs	r0, #128
 288 0182 FFF7FEFF 		bl	Log_Write
 289              	.LVL40:
 146:environmentSensor.c ****     Log_Write(LOG_LEVEL_BME688,"gas: %d", data.gas_resistance);
 290              		.loc 1 146 0
 291 0186 089A     		ldr	r2, [sp, #32]
 292 0188 1849     		ldr	r1, .L14+64
 293 018a 8020     		movs	r0, #128
 294 018c FFF7FEFF 		bl	Log_Write
 295              	.LVL41:
 147:environmentSensor.c ****     
 148:environmentSensor.c ****     OSTimeDlyHMSM(0,0,4,0,OS_OPT_TIME_HMSM_NON_STRICT, &os_err); 
 296              		.loc 1 148 0
 297 0190 0DF1AE03 		add	r3, sp, #174
 298 0194 0193     		str	r3, [sp, #4]
 299 0196 1023     		movs	r3, #16
 300 0198 0093     		str	r3, [sp]
 301 019a 0023     		movs	r3, #0
 302 019c 0422     		movs	r2, #4
 303 019e 1946     		mov	r1, r3
 304 01a0 1846     		mov	r0, r3
 305 01a2 FFF7FEFF 		bl	OSTimeDlyHMSM
 306              	.LVL42:
 307              	.LBE2:
 149:environmentSensor.c ****     
ARM GAS  C:\Users\CHRONI~1\AppData\Local\Temp\cckdjdVO.s 			page 9


 150:environmentSensor.c ****   }
 308              		.loc 1 150 0
 309 01a6 B6E7     		b	.L11
 310              	.L12:
 151:environmentSensor.c ****   
 152:environmentSensor.c **** }
 311              		.loc 1 152 0
 312 01a8 2DB0     		add	sp, sp, #180
 313              		.cfi_def_cfa_offset 12
 314              		@ sp needed
 315 01aa 30BD     		pop	{r4, r5, pc}
 316              	.L15:
 317              		.align	2
 318              	.L14:
 319 01ac 00000000 		.word	.LC0
 320 01b0 00000000 		.word	us_Delay
 321 01b4 00000000 		.word	bsp_i2c_read_bme
 322 01b8 00000000 		.word	bsp_i2c_write_bme
 323 01bc 14000000 		.word	.LC1
 324 01c0 38000000 		.word	.LC2
 325 01c4 5C000000 		.word	.LC3
 326 01c8 6C000000 		.word	.LC4
 327 01cc 90000000 		.word	.LC5
 328 01d0 B0000000 		.word	.LC6
 329 01d4 D8000000 		.word	.LC7
 330 01d8 00010000 		.word	.LC8
 331 01dc 20010000 		.word	.LC9
 332 01e0 40010000 		.word	.LC10
 333 01e4 4C010000 		.word	.LC11
 334 01e8 5C010000 		.word	.LC12
 335 01ec 6C010000 		.word	.LC13
 336              		.cfi_endproc
 337              	.LFE68:
 338              		.size	bme688_Task, .-bme688_Task
 339              		.section	.text.bsp_i2c_read_bme,"ax",%progbits
 340              		.align	2
 341              		.global	bsp_i2c_read_bme
 342              		.thumb
 343              		.thumb_func
 344              		.type	bsp_i2c_read_bme, %function
 345              	bsp_i2c_read_bme:
 346              	.LFB65:
  46:environmentSensor.c ****     CPU_INT08U status;
 347              		.loc 1 46 0
 348              		.cfi_startproc
 349              		@ args = 0, pretend = 0, frame = 0
 350              		@ frame_needed = 0, uses_anonymous_args = 0
 351              	.LVL43:
 352 0000 08B5     		push	{r3, lr}
 353              		.cfi_def_cfa_offset 8
 354              		.cfi_offset 3, -8
 355              		.cfi_offset 14, -4
  48:environmentSensor.c ****       Log_Write(LOG_LEVEL_ERROR, "Error Reading I2C BME", 0);
 356              		.loc 1 48 0
 357 0002 93B2     		uxth	r3, r2
 358              	.LVL44:
 359 0004 0A46     		mov	r2, r1
ARM GAS  C:\Users\CHRONI~1\AppData\Local\Temp\cckdjdVO.s 			page 10


 360              	.LVL45:
 361 0006 0146     		mov	r1, r0
 362              	.LVL46:
 363 0008 7620     		movs	r0, #118
 364              	.LVL47:
 365 000a FFF7FEFF 		bl	bsp_i2c_read
 366              	.LVL48:
 367 000e 20B1     		cbz	r0, .L17
  49:environmentSensor.c ****     }
 368              		.loc 1 49 0
 369 0010 0022     		movs	r2, #0
 370 0012 0249     		ldr	r1, .L19
 371 0014 0420     		movs	r0, #4
 372 0016 FFF7FEFF 		bl	Log_Write
 373              	.LVL49:
 374              	.L17:
  51:environmentSensor.c **** 
 375              		.loc 1 51 0
 376 001a 08BD     		pop	{r3, pc}
 377              	.L20:
 378              		.align	2
 379              	.L19:
 380 001c 74010000 		.word	.LC14
 381              		.cfi_endproc
 382              	.LFE65:
 383              		.size	bsp_i2c_read_bme, .-bsp_i2c_read_bme
 384              		.section	.text.bsp_i2c_write_bme,"ax",%progbits
 385              		.align	2
 386              		.global	bsp_i2c_write_bme
 387              		.thumb
 388              		.thumb_func
 389              		.type	bsp_i2c_write_bme, %function
 390              	bsp_i2c_write_bme:
 391              	.LFB66:
  53:environmentSensor.c ****     CPU_INT08U status;
 392              		.loc 1 53 0
 393              		.cfi_startproc
 394              		@ args = 0, pretend = 0, frame = 0
 395              		@ frame_needed = 0, uses_anonymous_args = 0
 396              	.LVL50:
 397 0000 08B5     		push	{r3, lr}
 398              		.cfi_def_cfa_offset 8
 399              		.cfi_offset 3, -8
 400              		.cfi_offset 14, -4
  55:environmentSensor.c ****       Log_Write(LOG_LEVEL_ERROR, "Error Writing I2C BME", 0);
 401              		.loc 1 55 0
 402 0002 93B2     		uxth	r3, r2
 403              	.LVL51:
 404 0004 0A46     		mov	r2, r1
 405              	.LVL52:
 406 0006 0146     		mov	r1, r0
 407              	.LVL53:
 408 0008 7620     		movs	r0, #118
 409              	.LVL54:
 410 000a FFF7FEFF 		bl	bsp_i2c_write
 411              	.LVL55:
 412 000e 20B1     		cbz	r0, .L22
ARM GAS  C:\Users\CHRONI~1\AppData\Local\Temp\cckdjdVO.s 			page 11


  56:environmentSensor.c ****     }
 413              		.loc 1 56 0
 414 0010 0022     		movs	r2, #0
 415 0012 0249     		ldr	r1, .L24
 416 0014 0420     		movs	r0, #4
 417 0016 FFF7FEFF 		bl	Log_Write
 418              	.LVL56:
 419              	.L22:
  58:environmentSensor.c **** 
 420              		.loc 1 58 0
 421 001a 08BD     		pop	{r3, pc}
 422              	.L25:
 423              		.align	2
 424              	.L24:
 425 001c 8C010000 		.word	.LC15
 426              		.cfi_endproc
 427              	.LFE66:
 428              		.size	bsp_i2c_write_bme, .-bsp_i2c_write_bme
 429              		.section	.text.us_Delay,"ax",%progbits
 430              		.align	2
 431              		.global	us_Delay
 432              		.thumb
 433              		.thumb_func
 434              		.type	us_Delay, %function
 435              	us_Delay:
 436              	.LFB67:
  60:environmentSensor.c ****   CyDelayUs(period);
 437              		.loc 1 60 0
 438              		.cfi_startproc
 439              		@ args = 0, pretend = 0, frame = 0
 440              		@ frame_needed = 0, uses_anonymous_args = 0
 441              	.LVL57:
 442 0000 08B5     		push	{r3, lr}
 443              		.cfi_def_cfa_offset 8
 444              		.cfi_offset 3, -8
 445              		.cfi_offset 14, -4
  61:environmentSensor.c **** }
 446              		.loc 1 61 0
 447 0002 80B2     		uxth	r0, r0
 448              	.LVL58:
 449 0004 FFF7FEFF 		bl	CyDelayUs
 450              	.LVL59:
 451 0008 08BD     		pop	{r3, pc}
 452              		.cfi_endproc
 453              	.LFE67:
 454              		.size	us_Delay, .-us_Delay
 455              		.section	.text.BME688_Init,"ax",%progbits
 456              		.align	2
 457              		.global	BME688_Init
 458              		.thumb
 459              		.thumb_func
 460              		.type	BME688_Init, %function
 461              	BME688_Init:
 462              	.LFB64:
  18:environmentSensor.c ****     OS_ERR os_err;
 463              		.loc 1 18 0
 464              		.cfi_startproc
ARM GAS  C:\Users\CHRONI~1\AppData\Local\Temp\cckdjdVO.s 			page 12


 465              		@ args = 0, pretend = 0, frame = 8
 466              		@ frame_needed = 0, uses_anonymous_args = 0
 467 0000 00B5     		push	{lr}
 468              		.cfi_def_cfa_offset 4
 469              		.cfi_offset 14, -4
 470 0002 8DB0     		sub	sp, sp, #52
 471              		.cfi_def_cfa_offset 56
  21:environmentSensor.c **** 
 472              		.loc 1 21 0
 473 0004 0022     		movs	r2, #0
 474 0006 1549     		ldr	r1, .L32
 475 0008 8020     		movs	r0, #128
 476 000a FFF7FEFF 		bl	Log_Write
 477              	.LVL60:
  24:environmentSensor.c ****                  (CPU_CHAR *)"BME688 Task",            // Task name for debugging
 478              		.loc 1 24 0
 479 000e 0DF12E03 		add	r3, sp, #46
 480 0012 0893     		str	r3, [sp, #32]
 481 0014 0323     		movs	r3, #3
 482 0016 0793     		str	r3, [sp, #28]
 483 0018 0023     		movs	r3, #0
 484 001a 0693     		str	r3, [sp, #24]
 485 001c 0593     		str	r3, [sp, #20]
 486 001e 0493     		str	r3, [sp, #16]
 487 0020 4FF40072 		mov	r2, #512
 488 0024 0392     		str	r2, [sp, #12]
 489 0026 3322     		movs	r2, #51
 490 0028 0292     		str	r2, [sp, #8]
 491 002a 0D4A     		ldr	r2, .L32+4
 492 002c 0192     		str	r2, [sp, #4]
 493 002e 0622     		movs	r2, #6
 494 0030 0092     		str	r2, [sp]
 495 0032 0C4A     		ldr	r2, .L32+8
 496 0034 0C49     		ldr	r1, .L32+12
 497 0036 0D48     		ldr	r0, .L32+16
 498 0038 FFF7FEFF 		bl	OSTaskCreate
 499              	.LVL61:
  39:environmentSensor.c ****         Log_Write(LOG_LEVEL_BME688, "BME688 Task created successfully", 0);
 500              		.loc 1 39 0
 501 003c BDF82E20 		ldrh	r2, [sp, #46]
 502 0040 22B9     		cbnz	r2, .L29
  40:environmentSensor.c ****     } else {
 503              		.loc 1 40 0
 504 0042 0B49     		ldr	r1, .L32+20
 505 0044 8020     		movs	r0, #128
 506 0046 FFF7FEFF 		bl	Log_Write
 507              	.LVL62:
 508 004a 03E0     		b	.L28
 509              	.L29:
  42:environmentSensor.c ****     }
 510              		.loc 1 42 0
 511 004c 0949     		ldr	r1, .L32+24
 512 004e 0420     		movs	r0, #4
 513 0050 FFF7FEFF 		bl	Log_Write
 514              	.LVL63:
 515              	.L28:
  44:environmentSensor.c **** 
ARM GAS  C:\Users\CHRONI~1\AppData\Local\Temp\cckdjdVO.s 			page 13


 516              		.loc 1 44 0
 517 0054 0DB0     		add	sp, sp, #52
 518              		.cfi_def_cfa_offset 4
 519              		@ sp needed
 520 0056 5DF804FB 		ldr	pc, [sp], #4
 521              	.L33:
 522 005a 00BF     		.align	2
 523              	.L32:
 524 005c A4010000 		.word	.LC16
 525 0060 00000000 		.word	BME688_TaskStk
 526 0064 00000000 		.word	bme688_Task
 527 0068 C8010000 		.word	.LC17
 528 006c 00000000 		.word	BME688_Task_TCB
 529 0070 D4010000 		.word	.LC18
 530 0074 F8010000 		.word	.LC19
 531              		.cfi_endproc
 532              	.LFE64:
 533              		.size	BME688_Init, .-BME688_Init
 534              		.comm	BME688_TaskStk,2048,4
 535              		.comm	BME688_Task_TCB,192,4
 536              		.section	.rodata.str1.4,"aMS",%progbits,1
 537              		.align	2
 538              	.LC0:
 539 0000 496E6974 		.ascii	"Initializing Bme688\000"
 539      69616C69 
 539      7A696E67 
 539      20426D65 
 539      36383800 
 540              	.LC1:
 541 0014 4661696C 		.ascii	"Failed to initialize BME688 sensor\000"
 541      65642074 
 541      6F20696E 
 541      69746961 
 541      6C697A65 
 542 0037 00       		.space	1
 543              	.LC2:
 544 0038 4572726F 		.ascii	"Error setting BME688 selftest: %d\000"
 544      72207365 
 544      7474696E 
 544      6720424D 
 544      45363838 
 545 005a 0000     		.space	2
 546              	.LC3:
 547 005c 426D6536 		.ascii	"Bme688 found\000"
 547      38382066 
 547      6F756E64 
 547      00
 548 0069 000000   		.space	3
 549              	.LC4:
 550 006c 4572726F 		.ascii	"Error setting BME688 meas config\000"
 550      72207365 
 550      7474696E 
 550      6720424D 
 550      45363838 
 551 008d 000000   		.space	3
 552              	.LC5:
 553 0090 636F6E66 		.ascii	"config compare failed bme688\000"
ARM GAS  C:\Users\CHRONI~1\AppData\Local\Temp\cckdjdVO.s 			page 14


 553      69672063 
 553      6F6D7061 
 553      72652066 
 553      61696C65 
 554 00ad 000000   		.space	3
 555              	.LC6:
 556 00b0 53657474 		.ascii	"Setting BME688 meas config successful\000"
 556      696E6720 
 556      424D4536 
 556      3838206D 
 556      65617320 
 557 00d6 0000     		.space	2
 558              	.LC7:
 559 00d8 496E6974 		.ascii	"Initializing BME688 sensor successful\000"
 559      69616C69 
 559      7A696E67 
 559      20424D45 
 559      36383820 
 560 00fe 0000     		.space	2
 561              	.LC8:
 562 0100 6368616E 		.ascii	"changing BME opmode error: %d\000"
 562      67696E67 
 562      20424D45 
 562      206F706D 
 562      6F646520 
 563 011e 0000     		.space	2
 564              	.LC9:
 565 0120 52656164 		.ascii	"Reading BME values error: %d\000"
 565      696E6720 
 565      424D4520 
 565      76616C75 
 565      65732065 
 566 013d 000000   		.space	3
 567              	.LC10:
 568 0140 74656D70 		.ascii	"temp: %d\000"
 568      3A202564 
 568      00
 569 0149 000000   		.space	3
 570              	.LC11:
 571 014c 68756D69 		.ascii	"humidity: %d\000"
 571      64697479 
 571      3A202564 
 571      00
 572 0159 000000   		.space	3
 573              	.LC12:
 574 015c 70726573 		.ascii	"pressure: %d\000"
 574      73757265 
 574      3A202564 
 574      00
 575 0169 000000   		.space	3
 576              	.LC13:
 577 016c 6761733A 		.ascii	"gas: %d\000"
 577      20256400 
 578              	.LC14:
 579 0174 4572726F 		.ascii	"Error Reading I2C BME\000"
 579      72205265 
 579      6164696E 
ARM GAS  C:\Users\CHRONI~1\AppData\Local\Temp\cckdjdVO.s 			page 15


 579      67204932 
 579      4320424D 
 580 018a 0000     		.space	2
 581              	.LC15:
 582 018c 4572726F 		.ascii	"Error Writing I2C BME\000"
 582      72205772 
 582      6974696E 
 582      67204932 
 582      4320424D 
 583 01a2 0000     		.space	2
 584              	.LC16:
 585 01a4 424D4536 		.ascii	"BME688 Init: Creating BME688 task\000"
 585      38382049 
 585      6E69743A 
 585      20437265 
 585      6174696E 
 586 01c6 0000     		.space	2
 587              	.LC17:
 588 01c8 424D4536 		.ascii	"BME688 Task\000"
 588      38382054 
 588      61736B00 
 589              	.LC18:
 590 01d4 424D4536 		.ascii	"BME688 Task created successfully\000"
 590      38382054 
 590      61736B20 
 590      63726561 
 590      74656420 
 591 01f5 000000   		.space	3
 592              	.LC19:
 593 01f8 4572726F 		.ascii	"Error: BME688 Task creation failed\000"
 593      723A2042 
 593      4D453638 
 593      38205461 
 593      736B2063 
 594              		.text
 595              	.Letext0:
 596              		.file 2 ".\\uC-CPU\\ARM-Cortex-M3\\GNU/cpu.h"
 597              		.file 3 "c:\\program files (x86)\\cypress\\psoc creator\\4.4\\psoc creator\\import\\gnu\\arm\\5.4.
 598              		.file 4 "c:\\program files (x86)\\cypress\\psoc creator\\4.4\\psoc creator\\import\\gnu\\arm\\5.4.
 599              		.file 5 "c:\\program files (x86)\\cypress\\psoc creator\\4.4\\psoc creator\\import\\gnu\\arm\\5.4.
 600              		.file 6 ".\\uC-CPU/cpu_core.h"
 601              		.file 7 ".\\uCOS-III\\Source/os_type.h"
 602              		.file 8 ".\\uCOS-III\\Source/os.h"
 603              		.file 9 ".\\SensorLib\\bme688/bme68x_defs.h"
 604              		.file 10 "Generated_Source\\PSoC5/core_cm3.h"
 605              		.file 11 ".\\SensorLib\\bme688/bme68x.h"
 606              		.file 12 "./log_task.h"
 607              		.file 13 "Generated_Source\\PSoC5/Clock_1.h"
 608              		.file 14 "c:\\program files (x86)\\cypress\\psoc creator\\4.4\\psoc creator\\import\\gnu\\arm\\5.4
 609              		.file 15 "./bsp_i2c.h"
 610              		.file 16 "Generated_Source\\PSoC5/CyLib.h"