ARM GAS  C:\Users\CHRONI~1\AppData\Local\Temp\ccZBJ7vF.s 			page 1


   1              		.syntax unified
   2              		.cpu cortex-m3
   3              		.fpu softvfp
   4              		.eabi_attribute 20, 1
   5              		.eabi_attribute 21, 1
   6              		.eabi_attribute 23, 3
   7              		.eabi_attribute 24, 1
   8              		.eabi_attribute 25, 1
   9              		.eabi_attribute 26, 1
  10              		.eabi_attribute 30, 1
  11              		.eabi_attribute 34, 1
  12              		.eabi_attribute 18, 4
  13              		.thumb
  14              		.syntax unified
  15              		.file	"gpio_tasks.c"
  16              		.text
  17              	.Ltext0:
  18              		.cfi_sections	.debug_frame
  19              		.section	.text.LedRB_Task,"ax",%progbits
  20              		.align	2
  21              		.thumb
  22              		.thumb_func
  23              		.type	LedRB_Task, %function
  24              	LedRB_Task:
  25              	.LFB66:
  26              		.file 1 "gpio_tasks.c"
   1:gpio_tasks.c  **** #include <gpio_tasks.h>
   2:gpio_tasks.c  **** 
   3:gpio_tasks.c  **** CPU_BOOLEAN toggle_state = 0; // Global toggle state controlled by the button
   4:gpio_tasks.c  **** 
   5:gpio_tasks.c  **** /**
   6:gpio_tasks.c  ****  * @brief Initialize GPIO, PWM, and tasks for LED control and button handling.
   7:gpio_tasks.c  ****  */
   8:gpio_tasks.c  **** void init_gpio() {
   9:gpio_tasks.c  ****     Log_Write(LOG_LEVEL_INFO, "We are in the init");
  10:gpio_tasks.c  ****     OS_ERR os_err;
  11:gpio_tasks.c  **** 
  12:gpio_tasks.c  ****     // Start PWM for SpO2 and Heartbeat control
  13:gpio_tasks.c  ****     PWM_SPO2_Start();
  14:gpio_tasks.c  ****     PWM_Heartbeat_Start();
  15:gpio_tasks.c  **** 
  16:gpio_tasks.c  ****     // Set drive modes for pins
  17:gpio_tasks.c  ****     Pin_1_SetDriveMode(Pin_1_DM_STRONG);
  18:gpio_tasks.c  ****     Pin_2_SetDriveMode(Pin_2_DM_STRONG);
  19:gpio_tasks.c  ****     push_button_SetDriveMode(push_button_DM_STRONG);
  20:gpio_tasks.c  ****     push_button_Write(1);
  21:gpio_tasks.c  **** 
  22:gpio_tasks.c  ****     // Create Button Task
  23:gpio_tasks.c  ****     OSTaskCreate((OS_TCB *)&BUT_Task_TCB,
  24:gpio_tasks.c  ****                  (CPU_CHAR *)"BUT Task",
  25:gpio_tasks.c  ****                  (OS_TASK_PTR)BUT_Task,
  26:gpio_tasks.c  ****                  (void *)0,
  27:gpio_tasks.c  ****                  (OS_PRIO)APP_CFG_TASK_BUTTON_PRIO,
  28:gpio_tasks.c  ****                  (CPU_STK *)&BUT_TaskStk[0],
  29:gpio_tasks.c  ****                  (CPU_STK_SIZE)APP_CFG_TASK_BUTTON_STK_SIZE_LIMIT,
  30:gpio_tasks.c  ****                  (CPU_STK_SIZE)APP_CFG_TASK_BUTTON_STK_SIZE,
  31:gpio_tasks.c  ****                  (OS_MSG_QTY)0u,
ARM GAS  C:\Users\CHRONI~1\AppData\Local\Temp\ccZBJ7vF.s 			page 2


  32:gpio_tasks.c  ****                  (OS_TICK)0u,
  33:gpio_tasks.c  ****                  (void *)0,
  34:gpio_tasks.c  ****                  (OS_OPT)(OS_OPT_TASK_STK_CHK | OS_OPT_TASK_STK_CLR),
  35:gpio_tasks.c  ****                  (OS_ERR *)&os_err);
  36:gpio_tasks.c  **** 
  37:gpio_tasks.c  ****     if (os_err == OS_ERR_NONE) {
  38:gpio_tasks.c  ****         UART_1_PutString("(init_gpio) But-Task created\n");
  39:gpio_tasks.c  ****     } else {
  40:gpio_tasks.c  ****         char error_msg[64];
  41:gpio_tasks.c  ****         snprintf(error_msg, sizeof(error_msg), "Knopf: (init_gpio) But-Task not created. Error Code
  42:gpio_tasks.c  ****         UART_1_PutString(error_msg);
  43:gpio_tasks.c  ****     }
  44:gpio_tasks.c  ****        
  45:gpio_tasks.c  ****     // Create Green LED Task
  46:gpio_tasks.c  ****     OSTaskCreate((OS_TCB *)&LedG_Task_TCB,
  47:gpio_tasks.c  ****                  (CPU_CHAR *)"LedG Task",
  48:gpio_tasks.c  ****                  (OS_TASK_PTR)LedG_Task,
  49:gpio_tasks.c  ****                  (void *)0,
  50:gpio_tasks.c  ****                  (OS_PRIO)APP_CFG_TASK_LED_PRIO,
  51:gpio_tasks.c  ****                  (CPU_STK *)&LedG_TaskStk[0],
  52:gpio_tasks.c  ****                  (CPU_STK_SIZE)APP_CFG_TASK_LED_STK_SIZE_LIMIT,
  53:gpio_tasks.c  ****                  (CPU_STK_SIZE)APP_CFG_TASK_LED_STK_SIZE,
  54:gpio_tasks.c  ****                  (OS_MSG_QTY)0u,
  55:gpio_tasks.c  ****                  (OS_TICK)0u,
  56:gpio_tasks.c  ****                  (void *)0,
  57:gpio_tasks.c  ****                  (OS_OPT)(OS_OPT_TASK_STK_CHK | OS_OPT_TASK_STK_CLR),
  58:gpio_tasks.c  ****                  (OS_ERR *)&os_err);
  59:gpio_tasks.c  **** 
  60:gpio_tasks.c  ****     if (os_err == OS_ERR_NONE) {
  61:gpio_tasks.c  ****         UART_1_PutString("(init_gpio) G-Task created\n");
  62:gpio_tasks.c  ****     } else {
  63:gpio_tasks.c  ****         char error_msg[64];
  64:gpio_tasks.c  ****         snprintf(error_msg, sizeof(error_msg), "Knopf: (init_gpio) G-Task not created. Error Code: 
  65:gpio_tasks.c  ****         UART_1_PutString(error_msg);
  66:gpio_tasks.c  ****     }
  67:gpio_tasks.c  **** 
  68:gpio_tasks.c  ****     // Create Red/Blue LED Task
  69:gpio_tasks.c  ****     OSTaskCreate((OS_TCB *)&LedRB_Task_TCB,
  70:gpio_tasks.c  ****                  (CPU_CHAR *)"LedRB Task",
  71:gpio_tasks.c  ****                  (OS_TASK_PTR)LedRB_Task,
  72:gpio_tasks.c  ****                  (void *)0,
  73:gpio_tasks.c  ****                  (OS_PRIO)APP_CFG_TASK_LED_PRIO,
  74:gpio_tasks.c  ****                  (CPU_STK *)&LedRB_TaskStk[0],
  75:gpio_tasks.c  ****                  (CPU_STK_SIZE)APP_CFG_TASK_LED_STK_SIZE_LIMIT,
  76:gpio_tasks.c  ****                  (CPU_STK_SIZE)APP_CFG_TASK_LED_STK_SIZE,
  77:gpio_tasks.c  ****                  (OS_MSG_QTY)0u,
  78:gpio_tasks.c  ****                  (OS_TICK)0u,
  79:gpio_tasks.c  ****                  (void *)0,
  80:gpio_tasks.c  ****                  (OS_OPT)(OS_OPT_TASK_STK_CHK | OS_OPT_TASK_STK_CLR),
  81:gpio_tasks.c  ****                  (OS_ERR *)&os_err);
  82:gpio_tasks.c  **** 
  83:gpio_tasks.c  ****     if (os_err == OS_ERR_NONE) {
  84:gpio_tasks.c  ****         UART_1_PutString("(init_gpio) RB-Task created\n");
  85:gpio_tasks.c  ****     } else {
  86:gpio_tasks.c  ****         char error_msg[64];
  87:gpio_tasks.c  ****         snprintf(error_msg, sizeof(error_msg), "Knopf: (init_gpio) RB-Task not created. Error Code:
  88:gpio_tasks.c  ****         UART_1_PutString(error_msg);
ARM GAS  C:\Users\CHRONI~1\AppData\Local\Temp\ccZBJ7vF.s 			page 3


  89:gpio_tasks.c  ****     }
  90:gpio_tasks.c  **** }
  91:gpio_tasks.c  **** 
  92:gpio_tasks.c  **** /**
  93:gpio_tasks.c  ****  * @brief Button Task to monitor button press events and toggle state accordingly.
  94:gpio_tasks.c  ****  *        Sets the global toggle_state variable based on button press.
  95:gpio_tasks.c  ****  */
  96:gpio_tasks.c  **** static void BUT_Task(void *p_arg) {
  97:gpio_tasks.c  ****     (void)p_arg; // Unused parameter
  98:gpio_tasks.c  ****     OS_ERR err;
  99:gpio_tasks.c  ****     Log_Write(LOG_LEVEL_INFO, "Button Task initialized.\n");
 100:gpio_tasks.c  **** 
 101:gpio_tasks.c  ****     CPU_BOOLEAN button_status = 0;
 102:gpio_tasks.c  ****     CPU_BOOLEAN last_button_status = 1; // Assume unpressed state initially
 103:gpio_tasks.c  **** 
 104:gpio_tasks.c  ****     while (DEF_TRUE) {
 105:gpio_tasks.c  ****         button_status = BSP_PB_StatusGet(P2_2); // Read button status
 106:gpio_tasks.c  **** 
 107:gpio_tasks.c  ****         if (button_status == 0 && last_button_status == 1) {
 108:gpio_tasks.c  ****             toggle_state = !toggle_state;  // Toggle the state
 109:gpio_tasks.c  **** 
 110:gpio_tasks.c  ****             if (toggle_state) {
 111:gpio_tasks.c  ****                 Log_Write(LOG_LEVEL_INFO, "Button pressed: Activating tasks.\n");
 112:gpio_tasks.c  ****             } else {
 113:gpio_tasks.c  ****                 Log_Write(LOG_LEVEL_INFO, "Button pressed: Deactivating tasks.\n");
 114:gpio_tasks.c  ****             }
 115:gpio_tasks.c  ****         }
 116:gpio_tasks.c  **** 
 117:gpio_tasks.c  ****         last_button_status = button_status;
 118:gpio_tasks.c  ****         OSTimeDlyHMSM(0, 0, 0, 50, OS_OPT_TIME_HMSM_STRICT, &err);
 119:gpio_tasks.c  ****         if (err != OS_ERR_NONE) {
 120:gpio_tasks.c  ****             Log_Write(LOG_LEVEL_ERROR, "Failed to delay in Button Task\n");
 121:gpio_tasks.c  ****         }
 122:gpio_tasks.c  ****     }
 123:gpio_tasks.c  **** }
 124:gpio_tasks.c  **** 
 125:gpio_tasks.c  **** /**
 126:gpio_tasks.c  ****  * @brief Red/Blue LED Task for controlling LEDs based on heart rate and SpO2 values.
 127:gpio_tasks.c  ****  *        Adjusts brightness of SpO2 LED and creates a heartbeat effect on Red LED.
 128:gpio_tasks.c  ****  */
 129:gpio_tasks.c  **** static void LedRB_Task(void *p_arg) {
  27              		.loc 1 129 0
  28              		.cfi_startproc
  29              		@ args = 0, pretend = 0, frame = 8
  30              		@ frame_needed = 0, uses_anonymous_args = 0
  31              	.LVL0:
  32 0000 70B5     		push	{r4, r5, r6, lr}
  33              		.cfi_def_cfa_offset 16
  34              		.cfi_offset 4, -16
  35              		.cfi_offset 5, -12
  36              		.cfi_offset 6, -8
  37              		.cfi_offset 14, -4
  38 0002 84B0     		sub	sp, sp, #16
  39              		.cfi_def_cfa_offset 32
  40              	.LVL1:
  41              	.L7:
  42              	.LBB2:
ARM GAS  C:\Users\CHRONI~1\AppData\Local\Temp\ccZBJ7vF.s 			page 4


 130:gpio_tasks.c  ****     (void)p_arg; // Unused parameter
 131:gpio_tasks.c  ****     OS_ERR os_err;
 132:gpio_tasks.c  **** 
 133:gpio_tasks.c  ****     while (DEF_TRUE) {
 134:gpio_tasks.c  ****         // Calculate PWM value for SpO2
 135:gpio_tasks.c  ****         CPU_INT08U pwm_spo2 = (CPU_INT08U)((Global_spO2 * 255) / 100);
  43              		.loc 1 135 0
  44 0004 244B     		ldr	r3, .L10
  45 0006 1A68     		ldr	r2, [r3]
  46 0008 C2EB0223 		rsb	r3, r2, r2, lsl #8
  47 000c 2348     		ldr	r0, .L10+4
  48 000e 80FB0310 		smull	r1, r0, r0, r3
  49 0012 DB17     		asrs	r3, r3, #31
  50 0014 C3EB6010 		rsb	r0, r3, r0, asr #5
  51              	.LVL2:
 136:gpio_tasks.c  ****         
 137:gpio_tasks.c  **** 
 138:gpio_tasks.c  ****         // Update the PWM compare value based on SpO2, ensuring proper scaling
 139:gpio_tasks.c  ****         if (Global_spO2 > 0) {
  52              		.loc 1 139 0
  53 0018 002A     		cmp	r2, #0
  54 001a 03DD     		ble	.L2
  55 001c C0B2     		uxtb	r0, r0
 140:gpio_tasks.c  ****             PWM_SPO2_WriteCompare(pwm_spo2);  // Set PWM for SpO2
  56              		.loc 1 140 0
  57 001e FFF7FEFF 		bl	PWM_SPO2_WriteCompare
  58              	.LVL3:
  59 0022 02E0     		b	.L3
  60              	.LVL4:
  61              	.L2:
 141:gpio_tasks.c  ****         } else {
 142:gpio_tasks.c  ****             PWM_SPO2_WriteCompare(0);  // Set PWM to 0 if SpO2 is zero
  62              		.loc 1 142 0
  63 0024 0020     		movs	r0, #0
  64              	.LVL5:
  65 0026 FFF7FEFF 		bl	PWM_SPO2_WriteCompare
  66              	.LVL6:
  67              	.L3:
 143:gpio_tasks.c  ****         }
 144:gpio_tasks.c  **** 
 145:gpio_tasks.c  ****         // Heartbeat effect for red LED
 146:gpio_tasks.c  ****         if (Global_heart_rate > 0) {
  68              		.loc 1 146 0
  69 002a 1D4B     		ldr	r3, .L10+8
  70 002c 1D68     		ldr	r5, [r3]
  71 002e 002D     		cmp	r5, #0
  72 0030 23DD     		ble	.L4
  73              	.LBB3:
 147:gpio_tasks.c  ****             CPU_INT16U half_beat_period_ms = (60000 / Global_heart_rate) / 2;
  74              		.loc 1 147 0
  75 0032 47F23053 		movw	r3, #30000
  76 0036 93FBF5F5 		sdiv	r5, r3, r5
  77 003a ADB2     		uxth	r5, r5
  78              	.LVL7:
 148:gpio_tasks.c  **** 
 149:gpio_tasks.c  ****             if (half_beat_period_ms > 500) {
  79              		.loc 1 149 0
ARM GAS  C:\Users\CHRONI~1\AppData\Local\Temp\ccZBJ7vF.s 			page 5


  80 003c B5F5FA7F 		cmp	r5, #500
  81 0040 01D9     		bls	.L5
 150:gpio_tasks.c  ****                 half_beat_period_ms = 500;  // Cap the delay to avoid excessive waits
  82              		.loc 1 150 0
  83 0042 4FF4FA75 		mov	r5, #500
  84              	.LVL8:
  85              	.L5:
 151:gpio_tasks.c  ****             }
 152:gpio_tasks.c  **** 
 153:gpio_tasks.c  ****             PWM_Heartbeat_WriteCompare(255);  // Full brightness
  86              		.loc 1 153 0
  87 0046 FF20     		movs	r0, #255
  88 0048 FFF7FEFF 		bl	PWM_Heartbeat_WriteCompare
  89              	.LVL9:
 154:gpio_tasks.c  ****             OSTimeDlyHMSM(0, 0, 0, half_beat_period_ms, OS_OPT_TIME_HMSM_STRICT, &os_err);
  90              		.loc 1 154 0
  91 004c 0DF10E06 		add	r6, sp, #14
  92 0050 0196     		str	r6, [sp, #4]
  93 0052 0024     		movs	r4, #0
  94 0054 0094     		str	r4, [sp]
  95 0056 2B46     		mov	r3, r5
  96 0058 2246     		mov	r2, r4
  97 005a 2146     		mov	r1, r4
  98 005c 2046     		mov	r0, r4
  99 005e FFF7FEFF 		bl	OSTimeDlyHMSM
 100              	.LVL10:
 155:gpio_tasks.c  **** 
 156:gpio_tasks.c  ****             PWM_Heartbeat_WriteCompare(0);  // Off
 101              		.loc 1 156 0
 102 0062 2046     		mov	r0, r4
 103 0064 FFF7FEFF 		bl	PWM_Heartbeat_WriteCompare
 104              	.LVL11:
 157:gpio_tasks.c  ****             OSTimeDlyHMSM(0, 0, 0, half_beat_period_ms, OS_OPT_TIME_HMSM_STRICT, &os_err);
 105              		.loc 1 157 0
 106 0068 0196     		str	r6, [sp, #4]
 107 006a 0094     		str	r4, [sp]
 108 006c 2B46     		mov	r3, r5
 109 006e 2246     		mov	r2, r4
 110 0070 2146     		mov	r1, r4
 111 0072 2046     		mov	r0, r4
 112 0074 FFF7FEFF 		bl	OSTimeDlyHMSM
 113              	.LVL12:
 114              	.LBE3:
 115 0078 02E0     		b	.L6
 116              	.LVL13:
 117              	.L4:
 158:gpio_tasks.c  **** 
 159:gpio_tasks.c  ****         } else {
 160:gpio_tasks.c  ****             PWM_Heartbeat_WriteCompare(0);  // Turn off if no heart rate
 118              		.loc 1 160 0
 119 007a 0020     		movs	r0, #0
 120 007c FFF7FEFF 		bl	PWM_Heartbeat_WriteCompare
 121              	.LVL14:
 122              	.L6:
 161:gpio_tasks.c  ****         }
 162:gpio_tasks.c  **** 
 163:gpio_tasks.c  ****         // Short delay to avoid excessive CPU usage
ARM GAS  C:\Users\CHRONI~1\AppData\Local\Temp\ccZBJ7vF.s 			page 6


 164:gpio_tasks.c  ****         OSTimeDlyHMSM(0, 0, 0, 10, OS_OPT_TIME_HMSM_NON_STRICT, &os_err);
 123              		.loc 1 164 0
 124 0080 0DF10E03 		add	r3, sp, #14
 125 0084 0193     		str	r3, [sp, #4]
 126 0086 1023     		movs	r3, #16
 127 0088 0093     		str	r3, [sp]
 128 008a 0A23     		movs	r3, #10
 129 008c 0022     		movs	r2, #0
 130 008e 1146     		mov	r1, r2
 131 0090 1046     		mov	r0, r2
 132 0092 FFF7FEFF 		bl	OSTimeDlyHMSM
 133              	.LVL15:
 134              	.LBE2:
 165:gpio_tasks.c  ****     }
 135              		.loc 1 165 0
 136 0096 B5E7     		b	.L7
 137              	.L11:
 138              		.align	2
 139              	.L10:
 140 0098 00000000 		.word	Global_spO2
 141 009c 1F85EB51 		.word	1374389535
 142 00a0 00000000 		.word	Global_heart_rate
 143              		.cfi_endproc
 144              	.LFE66:
 145              		.size	LedRB_Task, .-LedRB_Task
 146              		.section	.text.LedG_Task,"ax",%progbits
 147              		.align	2
 148              		.thumb
 149              		.thumb_func
 150              		.type	LedG_Task, %function
 151              	LedG_Task:
 152              	.LFB67:
 166:gpio_tasks.c  **** }
 167:gpio_tasks.c  **** 
 168:gpio_tasks.c  **** 
 169:gpio_tasks.c  **** 
 170:gpio_tasks.c  **** 
 171:gpio_tasks.c  **** /**
 172:gpio_tasks.c  ****  * @brief Green LED Task for controlling the green LED based on toggle state and blink mode.
 173:gpio_tasks.c  ****  *        Toggles or keeps the LED on based on GlobalGreen setting.
 174:gpio_tasks.c  ****  */
 175:gpio_tasks.c  **** static void LedG_Task(void *p_arg) {
 153              		.loc 1 175 0
 154              		.cfi_startproc
 155              		@ args = 0, pretend = 0, frame = 8
 156              		@ frame_needed = 0, uses_anonymous_args = 0
 157              	.LVL16:
 158 0000 00B5     		push	{lr}
 159              		.cfi_def_cfa_offset 4
 160              		.cfi_offset 14, -4
 161 0002 85B0     		sub	sp, sp, #20
 162              		.cfi_def_cfa_offset 24
 163              	.LVL17:
 164              	.L13:
 176:gpio_tasks.c  ****     (void)p_arg; // Unused parameter
 177:gpio_tasks.c  ****     OS_ERR os_err;
 178:gpio_tasks.c  **** 
ARM GAS  C:\Users\CHRONI~1\AppData\Local\Temp\ccZBJ7vF.s 			page 7


 179:gpio_tasks.c  ****     while (DEF_TRUE) {
 180:gpio_tasks.c  ****         // Check if we are in blink mode
 181:gpio_tasks.c  ****         if (GlobalGreen == GREEN_LED_BLINK) {
 165              		.loc 1 181 0
 166 0004 164B     		ldr	r3, .L19
 167 0006 1B78     		ldrb	r3, [r3]	@ zero_extendqisi2
 168 0008 022B     		cmp	r3, #2
 169 000a 19D1     		bne	.L14
 182:gpio_tasks.c  ****             // Toggle LED state
 183:gpio_tasks.c  ****             if (gpio_read(PORT1, P1_2) == 1) {
 170              		.loc 1 183 0
 171 000c 0421     		movs	r1, #4
 172 000e 0120     		movs	r0, #1
 173 0010 FFF7FEFF 		bl	gpio_read
 174              	.LVL18:
 175 0014 0128     		cmp	r0, #1
 176 0016 03D1     		bne	.L15
 184:gpio_tasks.c  ****                 gpio_low(PORT1, P1_2);  // Turn LED off
 177              		.loc 1 184 0
 178 0018 0421     		movs	r1, #4
 179 001a FFF7FEFF 		bl	gpio_low
 180              	.LVL19:
 181 001e 03E0     		b	.L16
 182              	.L15:
 185:gpio_tasks.c  ****             } else {
 186:gpio_tasks.c  ****                 gpio_high(PORT1, P1_2); // Turn LED on
 183              		.loc 1 186 0
 184 0020 0421     		movs	r1, #4
 185 0022 0120     		movs	r0, #1
 186 0024 FFF7FEFF 		bl	gpio_high
 187              	.LVL20:
 188              	.L16:
 187:gpio_tasks.c  ****             }
 188:gpio_tasks.c  ****             
 189:gpio_tasks.c  ****             // Delay to control blink rate
 190:gpio_tasks.c  ****             OSTimeDlyHMSM(0, 0, 0, 250, OS_OPT_TIME_HMSM_NON_STRICT, &os_err);
 189              		.loc 1 190 0
 190 0028 0DF10E03 		add	r3, sp, #14
 191 002c 0193     		str	r3, [sp, #4]
 192 002e 1023     		movs	r3, #16
 193 0030 0093     		str	r3, [sp]
 194 0032 FA23     		movs	r3, #250
 195 0034 0022     		movs	r2, #0
 196 0036 1146     		mov	r1, r2
 197 0038 1046     		mov	r0, r2
 198 003a FFF7FEFF 		bl	OSTimeDlyHMSM
 199              	.LVL21:
 200 003e E1E7     		b	.L13
 201              	.L14:
 191:gpio_tasks.c  ****         } else {
 192:gpio_tasks.c  ****             // Keep LED on in non-blink mode
 193:gpio_tasks.c  ****             gpio_high(PORT1, P1_2);
 202              		.loc 1 193 0
 203 0040 0421     		movs	r1, #4
 204 0042 0120     		movs	r0, #1
 205 0044 FFF7FEFF 		bl	gpio_high
 206              	.LVL22:
ARM GAS  C:\Users\CHRONI~1\AppData\Local\Temp\ccZBJ7vF.s 			page 8


 194:gpio_tasks.c  ****             
 195:gpio_tasks.c  ****             // Delay to avoid unnecessary CPU usage
 196:gpio_tasks.c  ****             OSTimeDlyHMSM(0, 0, 0, 100, OS_OPT_TIME_HMSM_NON_STRICT, &os_err);
 207              		.loc 1 196 0
 208 0048 0DF10E03 		add	r3, sp, #14
 209 004c 0193     		str	r3, [sp, #4]
 210 004e 1023     		movs	r3, #16
 211 0050 0093     		str	r3, [sp]
 212 0052 6423     		movs	r3, #100
 213 0054 0022     		movs	r2, #0
 214 0056 1146     		mov	r1, r2
 215 0058 1046     		mov	r0, r2
 216 005a FFF7FEFF 		bl	OSTimeDlyHMSM
 217              	.LVL23:
 218 005e D1E7     		b	.L13
 219              	.L20:
 220              		.align	2
 221              	.L19:
 222 0060 00000000 		.word	GlobalGreen
 223              		.cfi_endproc
 224              	.LFE67:
 225              		.size	LedG_Task, .-LedG_Task
 226              		.section	.text.BUT_Task,"ax",%progbits
 227              		.align	2
 228              		.thumb
 229              		.thumb_func
 230              		.type	BUT_Task, %function
 231              	BUT_Task:
 232              	.LFB65:
  96:gpio_tasks.c  ****     (void)p_arg; // Unused parameter
 233              		.loc 1 96 0
 234              		.cfi_startproc
 235              		@ args = 0, pretend = 0, frame = 8
 236              		@ frame_needed = 0, uses_anonymous_args = 0
 237              	.LVL24:
 238 0000 30B5     		push	{r4, r5, lr}
 239              		.cfi_def_cfa_offset 12
 240              		.cfi_offset 4, -12
 241              		.cfi_offset 5, -8
 242              		.cfi_offset 14, -4
 243 0002 85B0     		sub	sp, sp, #20
 244              		.cfi_def_cfa_offset 32
  99:gpio_tasks.c  **** 
 245              		.loc 1 99 0
 246 0004 1849     		ldr	r1, .L27
 247 0006 0120     		movs	r0, #1
 248              	.LVL25:
 249 0008 FFF7FEFF 		bl	Log_Write
 250              	.LVL26:
 102:gpio_tasks.c  **** 
 251              		.loc 1 102 0
 252 000c 0125     		movs	r5, #1
 253 000e 00E0     		b	.L22
 254              	.LVL27:
 255              	.L25:
  96:gpio_tasks.c  ****     (void)p_arg; // Unused parameter
 256              		.loc 1 96 0
ARM GAS  C:\Users\CHRONI~1\AppData\Local\Temp\ccZBJ7vF.s 			page 9


 257 0010 2546     		mov	r5, r4
 258              	.LVL28:
 259              	.L22:
 105:gpio_tasks.c  **** 
 260              		.loc 1 105 0
 261 0012 0420     		movs	r0, #4
 262 0014 FFF7FEFF 		bl	BSP_PB_StatusGet
 263              	.LVL29:
 264 0018 C4B2     		uxtb	r4, r0
 265              	.LVL30:
 107:gpio_tasks.c  ****             toggle_state = !toggle_state;  // Toggle the state
 266              		.loc 1 107 0
 267 001a 8CB9     		cbnz	r4, .L23
 107:gpio_tasks.c  ****             toggle_state = !toggle_state;  // Toggle the state
 268              		.loc 1 107 0 is_stmt 0 discriminator 1
 269 001c 012D     		cmp	r5, #1
 270 001e 0FD1     		bne	.L23
 108:gpio_tasks.c  **** 
 271              		.loc 1 108 0 is_stmt 1
 272 0020 124A     		ldr	r2, .L27+4
 273 0022 1378     		ldrb	r3, [r2]	@ zero_extendqisi2
 274 0024 B3FA83F3 		clz	r3, r3
 275 0028 5B09     		lsrs	r3, r3, #5
 276 002a 1370     		strb	r3, [r2]
 110:gpio_tasks.c  ****                 Log_Write(LOG_LEVEL_INFO, "Button pressed: Activating tasks.\n");
 277              		.loc 1 110 0
 278 002c 23B1     		cbz	r3, .L24
 111:gpio_tasks.c  ****             } else {
 279              		.loc 1 111 0
 280 002e 1049     		ldr	r1, .L27+8
 281 0030 0120     		movs	r0, #1
 282 0032 FFF7FEFF 		bl	Log_Write
 283              	.LVL31:
 284 0036 03E0     		b	.L23
 285              	.L24:
 113:gpio_tasks.c  ****             }
 286              		.loc 1 113 0
 287 0038 0E49     		ldr	r1, .L27+12
 288 003a 0120     		movs	r0, #1
 289 003c FFF7FEFF 		bl	Log_Write
 290              	.LVL32:
 291              	.L23:
 118:gpio_tasks.c  ****         if (err != OS_ERR_NONE) {
 292              		.loc 1 118 0
 293 0040 0DF10E03 		add	r3, sp, #14
 294 0044 0193     		str	r3, [sp, #4]
 295 0046 0020     		movs	r0, #0
 296 0048 0090     		str	r0, [sp]
 297 004a 3223     		movs	r3, #50
 298 004c 0246     		mov	r2, r0
 299 004e 0146     		mov	r1, r0
 300 0050 FFF7FEFF 		bl	OSTimeDlyHMSM
 301              	.LVL33:
 119:gpio_tasks.c  ****             Log_Write(LOG_LEVEL_ERROR, "Failed to delay in Button Task\n");
 302              		.loc 1 119 0
 303 0054 BDF80E30 		ldrh	r3, [sp, #14]
 304 0058 002B     		cmp	r3, #0
ARM GAS  C:\Users\CHRONI~1\AppData\Local\Temp\ccZBJ7vF.s 			page 10


 305 005a D9D0     		beq	.L25
 120:gpio_tasks.c  ****         }
 306              		.loc 1 120 0
 307 005c 0649     		ldr	r1, .L27+16
 308 005e 0420     		movs	r0, #4
 309 0060 FFF7FEFF 		bl	Log_Write
 310              	.LVL34:
 311 0064 D4E7     		b	.L25
 312              	.L28:
 313 0066 00BF     		.align	2
 314              	.L27:
 315 0068 00000000 		.word	.LC0
 316 006c 00000000 		.word	.LANCHOR0
 317 0070 1C000000 		.word	.LC1
 318 0074 40000000 		.word	.LC2
 319 0078 68000000 		.word	.LC3
 320              		.cfi_endproc
 321              	.LFE65:
 322              		.size	BUT_Task, .-BUT_Task
 323              		.section	.text.init_gpio,"ax",%progbits
 324              		.align	2
 325              		.global	init_gpio
 326              		.thumb
 327              		.thumb_func
 328              		.type	init_gpio, %function
 329              	init_gpio:
 330              	.LFB64:
   8:gpio_tasks.c  ****     Log_Write(LOG_LEVEL_INFO, "We are in the init");
 331              		.loc 1 8 0
 332              		.cfi_startproc
 333              		@ args = 0, pretend = 0, frame = 72
 334              		@ frame_needed = 0, uses_anonymous_args = 0
 335 0000 00B5     		push	{lr}
 336              		.cfi_def_cfa_offset 4
 337              		.cfi_offset 14, -4
 338 0002 9DB0     		sub	sp, sp, #116
 339              		.cfi_def_cfa_offset 120
   9:gpio_tasks.c  ****     OS_ERR os_err;
 340              		.loc 1 9 0
 341 0004 4349     		ldr	r1, .L37
 342 0006 0120     		movs	r0, #1
 343 0008 FFF7FEFF 		bl	Log_Write
 344              	.LVL35:
  13:gpio_tasks.c  ****     PWM_Heartbeat_Start();
 345              		.loc 1 13 0
 346 000c FFF7FEFF 		bl	PWM_SPO2_Start
 347              	.LVL36:
  14:gpio_tasks.c  **** 
 348              		.loc 1 14 0
 349 0010 FFF7FEFF 		bl	PWM_Heartbeat_Start
 350              	.LVL37:
  17:gpio_tasks.c  ****     Pin_2_SetDriveMode(Pin_2_DM_STRONG);
 351              		.loc 1 17 0
 352 0014 0C20     		movs	r0, #12
 353 0016 FFF7FEFF 		bl	Pin_1_SetDriveMode
 354              	.LVL38:
  18:gpio_tasks.c  ****     push_button_SetDriveMode(push_button_DM_STRONG);
ARM GAS  C:\Users\CHRONI~1\AppData\Local\Temp\ccZBJ7vF.s 			page 11


 355              		.loc 1 18 0
 356 001a 0C20     		movs	r0, #12
 357 001c FFF7FEFF 		bl	Pin_2_SetDriveMode
 358              	.LVL39:
  19:gpio_tasks.c  ****     push_button_Write(1);
 359              		.loc 1 19 0
 360 0020 0C20     		movs	r0, #12
 361 0022 FFF7FEFF 		bl	push_button_SetDriveMode
 362              	.LVL40:
  20:gpio_tasks.c  **** 
 363              		.loc 1 20 0
 364 0026 0120     		movs	r0, #1
 365 0028 FFF7FEFF 		bl	push_button_Write
 366              	.LVL41:
  23:gpio_tasks.c  ****                  (CPU_CHAR *)"BUT Task",
 367              		.loc 1 23 0
 368 002c 0DF16E03 		add	r3, sp, #110
 369 0030 0893     		str	r3, [sp, #32]
 370 0032 0323     		movs	r3, #3
 371 0034 0793     		str	r3, [sp, #28]
 372 0036 0023     		movs	r3, #0
 373 0038 0693     		str	r3, [sp, #24]
 374 003a 0593     		str	r3, [sp, #20]
 375 003c 0493     		str	r3, [sp, #16]
 376 003e 8022     		movs	r2, #128
 377 0040 0392     		str	r2, [sp, #12]
 378 0042 0C22     		movs	r2, #12
 379 0044 0292     		str	r2, [sp, #8]
 380 0046 344A     		ldr	r2, .L37+4
 381 0048 0192     		str	r2, [sp, #4]
 382 004a 0422     		movs	r2, #4
 383 004c 0092     		str	r2, [sp]
 384 004e 334A     		ldr	r2, .L37+8
 385 0050 3349     		ldr	r1, .L37+12
 386 0052 3448     		ldr	r0, .L37+16
 387 0054 FFF7FEFF 		bl	OSTaskCreate
 388              	.LVL42:
  37:gpio_tasks.c  ****         UART_1_PutString("(init_gpio) But-Task created\n");
 389              		.loc 1 37 0
 390 0058 BDF86E30 		ldrh	r3, [sp, #110]
 391 005c 1BB9     		cbnz	r3, .L30
  38:gpio_tasks.c  ****     } else {
 392              		.loc 1 38 0
 393 005e 3248     		ldr	r0, .L37+20
 394 0060 FFF7FEFF 		bl	UART_1_PutString
 395              	.LVL43:
 396 0064 07E0     		b	.L31
 397              	.L30:
 398              	.LBB4:
  41:gpio_tasks.c  ****         UART_1_PutString(error_msg);
 399              		.loc 1 41 0
 400 0066 314A     		ldr	r2, .L37+24
 401 0068 4021     		movs	r1, #64
 402 006a 0BA8     		add	r0, sp, #44
 403 006c FFF7FEFF 		bl	snprintf
 404              	.LVL44:
  42:gpio_tasks.c  ****     }
ARM GAS  C:\Users\CHRONI~1\AppData\Local\Temp\ccZBJ7vF.s 			page 12


 405              		.loc 1 42 0
 406 0070 0BA8     		add	r0, sp, #44
 407 0072 FFF7FEFF 		bl	UART_1_PutString
 408              	.LVL45:
 409              	.L31:
 410              	.LBE4:
  46:gpio_tasks.c  ****                  (CPU_CHAR *)"LedG Task",
 411              		.loc 1 46 0
 412 0076 0DF16E03 		add	r3, sp, #110
 413 007a 0893     		str	r3, [sp, #32]
 414 007c 0323     		movs	r3, #3
 415 007e 0793     		str	r3, [sp, #28]
 416 0080 0023     		movs	r3, #0
 417 0082 0693     		str	r3, [sp, #24]
 418 0084 0593     		str	r3, [sp, #20]
 419 0086 0493     		str	r3, [sp, #16]
 420 0088 4FF48072 		mov	r2, #256
 421 008c 0392     		str	r2, [sp, #12]
 422 008e 1922     		movs	r2, #25
 423 0090 0292     		str	r2, [sp, #8]
 424 0092 274A     		ldr	r2, .L37+28
 425 0094 0192     		str	r2, [sp, #4]
 426 0096 0622     		movs	r2, #6
 427 0098 0092     		str	r2, [sp]
 428 009a 264A     		ldr	r2, .L37+32
 429 009c 2649     		ldr	r1, .L37+36
 430 009e 2748     		ldr	r0, .L37+40
 431 00a0 FFF7FEFF 		bl	OSTaskCreate
 432              	.LVL46:
  60:gpio_tasks.c  ****         UART_1_PutString("(init_gpio) G-Task created\n");
 433              		.loc 1 60 0
 434 00a4 BDF86E30 		ldrh	r3, [sp, #110]
 435 00a8 1BB9     		cbnz	r3, .L32
  61:gpio_tasks.c  ****     } else {
 436              		.loc 1 61 0
 437 00aa 2548     		ldr	r0, .L37+44
 438 00ac FFF7FEFF 		bl	UART_1_PutString
 439              	.LVL47:
 440 00b0 07E0     		b	.L33
 441              	.L32:
 442              	.LBB5:
  64:gpio_tasks.c  ****         UART_1_PutString(error_msg);
 443              		.loc 1 64 0
 444 00b2 244A     		ldr	r2, .L37+48
 445 00b4 4021     		movs	r1, #64
 446 00b6 0BA8     		add	r0, sp, #44
 447 00b8 FFF7FEFF 		bl	snprintf
 448              	.LVL48:
  65:gpio_tasks.c  ****     }
 449              		.loc 1 65 0
 450 00bc 0BA8     		add	r0, sp, #44
 451 00be FFF7FEFF 		bl	UART_1_PutString
 452              	.LVL49:
 453              	.L33:
 454              	.LBE5:
  69:gpio_tasks.c  ****                  (CPU_CHAR *)"LedRB Task",
 455              		.loc 1 69 0
ARM GAS  C:\Users\CHRONI~1\AppData\Local\Temp\ccZBJ7vF.s 			page 13


 456 00c2 0DF16E03 		add	r3, sp, #110
 457 00c6 0893     		str	r3, [sp, #32]
 458 00c8 0323     		movs	r3, #3
 459 00ca 0793     		str	r3, [sp, #28]
 460 00cc 0023     		movs	r3, #0
 461 00ce 0693     		str	r3, [sp, #24]
 462 00d0 0593     		str	r3, [sp, #20]
 463 00d2 0493     		str	r3, [sp, #16]
 464 00d4 4FF48072 		mov	r2, #256
 465 00d8 0392     		str	r2, [sp, #12]
 466 00da 1922     		movs	r2, #25
 467 00dc 0292     		str	r2, [sp, #8]
 468 00de 1A4A     		ldr	r2, .L37+52
 469 00e0 0192     		str	r2, [sp, #4]
 470 00e2 0622     		movs	r2, #6
 471 00e4 0092     		str	r2, [sp]
 472 00e6 194A     		ldr	r2, .L37+56
 473 00e8 1949     		ldr	r1, .L37+60
 474 00ea 1A48     		ldr	r0, .L37+64
 475 00ec FFF7FEFF 		bl	OSTaskCreate
 476              	.LVL50:
  83:gpio_tasks.c  ****         UART_1_PutString("(init_gpio) RB-Task created\n");
 477              		.loc 1 83 0
 478 00f0 BDF86E30 		ldrh	r3, [sp, #110]
 479 00f4 1BB9     		cbnz	r3, .L34
  84:gpio_tasks.c  ****     } else {
 480              		.loc 1 84 0
 481 00f6 1848     		ldr	r0, .L37+68
 482 00f8 FFF7FEFF 		bl	UART_1_PutString
 483              	.LVL51:
 484 00fc 07E0     		b	.L29
 485              	.L34:
 486              	.LBB6:
  87:gpio_tasks.c  ****         UART_1_PutString(error_msg);
 487              		.loc 1 87 0
 488 00fe 174A     		ldr	r2, .L37+72
 489 0100 4021     		movs	r1, #64
 490 0102 0BA8     		add	r0, sp, #44
 491 0104 FFF7FEFF 		bl	snprintf
 492              	.LVL52:
  88:gpio_tasks.c  ****     }
 493              		.loc 1 88 0
 494 0108 0BA8     		add	r0, sp, #44
 495 010a FFF7FEFF 		bl	UART_1_PutString
 496              	.LVL53:
 497              	.L29:
 498              	.LBE6:
  90:gpio_tasks.c  **** 
 499              		.loc 1 90 0
 500 010e 1DB0     		add	sp, sp, #116
 501              		.cfi_def_cfa_offset 4
 502              		@ sp needed
 503 0110 5DF804FB 		ldr	pc, [sp], #4
 504              	.L38:
 505              		.align	2
 506              	.L37:
 507 0114 88000000 		.word	.LC4
ARM GAS  C:\Users\CHRONI~1\AppData\Local\Temp\ccZBJ7vF.s 			page 14


 508 0118 00000000 		.word	BUT_TaskStk
 509 011c 00000000 		.word	BUT_Task
 510 0120 9C000000 		.word	.LC5
 511 0124 00000000 		.word	BUT_Task_TCB
 512 0128 A8000000 		.word	.LC6
 513 012c C8000000 		.word	.LC7
 514 0130 00000000 		.word	LedG_TaskStk
 515 0134 00000000 		.word	LedG_Task
 516 0138 04010000 		.word	.LC8
 517 013c 00000000 		.word	LedG_Task_TCB
 518 0140 10010000 		.word	.LC9
 519 0144 2C010000 		.word	.LC10
 520 0148 00000000 		.word	LedRB_TaskStk
 521 014c 00000000 		.word	LedRB_Task
 522 0150 64010000 		.word	.LC11
 523 0154 00000000 		.word	LedRB_Task_TCB
 524 0158 70010000 		.word	.LC12
 525 015c 90010000 		.word	.LC13
 526              		.cfi_endproc
 527              	.LFE64:
 528              		.size	init_gpio, .-init_gpio
 529              		.global	toggle_state
 530              		.comm	LedG_TaskStk,1024,4
 531              		.comm	LedG_Task_TCB,192,4
 532              		.comm	LedRB_TaskStk,1024,4
 533              		.comm	LedRB_Task_TCB,192,4
 534              		.comm	BUT_TaskStk,512,4
 535              		.comm	BUT_Task_TCB,192,4
 536              		.section	.rodata.str1.4,"aMS",%progbits,1
 537              		.align	2
 538              	.LC0:
 539 0000 42757474 		.ascii	"Button Task initialized.\012\000"
 539      6F6E2054 
 539      61736B20 
 539      696E6974 
 539      69616C69 
 540 001a 0000     		.space	2
 541              	.LC1:
 542 001c 42757474 		.ascii	"Button pressed: Activating tasks.\012\000"
 542      6F6E2070 
 542      72657373 
 542      65643A20 
 542      41637469 
 543 003f 00       		.space	1
 544              	.LC2:
 545 0040 42757474 		.ascii	"Button pressed: Deactivating tasks.\012\000"
 545      6F6E2070 
 545      72657373 
 545      65643A20 
 545      44656163 
 546 0065 000000   		.space	3
 547              	.LC3:
 548 0068 4661696C 		.ascii	"Failed to delay in Button Task\012\000"
 548      65642074 
 548      6F206465 
 548      6C617920 
 548      696E2042 
ARM GAS  C:\Users\CHRONI~1\AppData\Local\Temp\ccZBJ7vF.s 			page 15


 549              	.LC4:
 550 0088 57652061 		.ascii	"We are in the init\000"
 550      72652069 
 550      6E207468 
 550      6520696E 
 550      697400
 551 009b 00       		.space	1
 552              	.LC5:
 553 009c 42555420 		.ascii	"BUT Task\000"
 553      5461736B 
 553      00
 554 00a5 000000   		.space	3
 555              	.LC6:
 556 00a8 28696E69 		.ascii	"(init_gpio) But-Task created\012\000"
 556      745F6770 
 556      696F2920 
 556      4275742D 
 556      5461736B 
 557 00c6 0000     		.space	2
 558              	.LC7:
 559 00c8 4B6E6F70 		.ascii	"Knopf: (init_gpio) But-Task not created. Error Code"
 559      663A2028 
 559      696E6974 
 559      5F677069 
 559      6F292042 
 560 00fb 3A202564 		.ascii	": %d\012\000"
 560      0A00
 561 0101 000000   		.space	3
 562              	.LC8:
 563 0104 4C656447 		.ascii	"LedG Task\000"
 563      20546173 
 563      6B00
 564 010e 0000     		.space	2
 565              	.LC9:
 566 0110 28696E69 		.ascii	"(init_gpio) G-Task created\012\000"
 566      745F6770 
 566      696F2920 
 566      472D5461 
 566      736B2063 
 567              	.LC10:
 568 012c 4B6E6F70 		.ascii	"Knopf: (init_gpio) G-Task not created. Error Code: "
 568      663A2028 
 568      696E6974 
 568      5F677069 
 568      6F292047 
 569 015f 25640A00 		.ascii	"%d\012\000"
 570 0163 00       		.space	1
 571              	.LC11:
 572 0164 4C656452 		.ascii	"LedRB Task\000"
 572      42205461 
 572      736B00
 573 016f 00       		.space	1
 574              	.LC12:
 575 0170 28696E69 		.ascii	"(init_gpio) RB-Task created\012\000"
 575      745F6770 
 575      696F2920 
 575      52422D54 
ARM GAS  C:\Users\CHRONI~1\AppData\Local\Temp\ccZBJ7vF.s 			page 16


 575      61736B20 
 576 018d 000000   		.space	3
 577              	.LC13:
 578 0190 4B6E6F70 		.ascii	"Knopf: (init_gpio) RB-Task not created. Error Code:"
 578      663A2028 
 578      696E6974 
 578      5F677069 
 578      6F292052 
 579 01c3 2025640A 		.ascii	" %d\012\000"
 579      00
 580              		.bss
 581              		.set	.LANCHOR0,. + 0
 582              		.type	toggle_state, %object
 583              		.size	toggle_state, 1
 584              	toggle_state:
 585 0000 00       		.space	1
 586              		.text
 587              	.Letext0:
 588              		.file 2 "c:\\program files (x86)\\cypress\\psoc creator\\4.4\\psoc creator\\import\\gnu\\arm\\5.4.
 589              		.file 3 "c:\\program files (x86)\\cypress\\psoc creator\\4.4\\psoc creator\\import\\gnu\\arm\\5.4.
 590              		.file 4 ".\\uC-CPU\\ARM-Cortex-M3\\GNU/cpu.h"
 591              		.file 5 ".\\uC-CPU/cpu_core.h"
 592              		.file 6 ".\\uCOS-III\\Source/os_type.h"
 593              		.file 7 ".\\uCOS-III\\Source/os.h"
 594              		.file 8 "Generated_Source\\PSoC5/cytypes.h"
 595              		.file 9 "./heartbeatSensor.h"
 596              		.file 10 "Generated_Source\\PSoC5/core_cm3.h"
 597              		.file 11 "./environmentSensor.h"
 598              		.file 12 "./gpio_tasks.h"
 599              		.file 13 "Generated_Source\\PSoC5/PWM_Heartbeat.h"
 600              		.file 14 "Generated_Source\\PSoC5/PWM_SPO2.h"
 601              		.file 15 "./bsp_gpio.h"
 602              		.file 16 "./log_task.h"
 603              		.file 17 ".\\BSP/bsp.h"
 604              		.file 18 "c:\\program files (x86)\\cypress\\psoc creator\\4.4\\psoc creator\\import\\gnu\\arm\\5.4
 605              		.file 19 "Generated_Source\\PSoC5/UART_1.h"
 606              		.file 20 "Generated_Source\\PSoC5/Pin_1.h"
 607              		.file 21 "Generated_Source\\PSoC5/Pin_2.h"
 608              		.file 22 "Generated_Source\\PSoC5/push_button.h"