ARM GAS  C:\Users\batuh\AppData\Local\Temp\ccS6OjKB.s 			page 1


   1              		.syntax unified
   2              		.cpu cortex-m3
   3              		.fpu softvfp
   4              		.eabi_attribute 20, 1
   5              		.eabi_attribute 21, 1
   6              		.eabi_attribute 23, 3
   7              		.eabi_attribute 24, 1
   8              		.eabi_attribute 25, 1
   9              		.eabi_attribute 26, 1
  10              		.eabi_attribute 30, 1
  11              		.eabi_attribute 34, 1
  12              		.eabi_attribute 18, 4
  13              		.thumb
  14              		.syntax unified
  15              		.file	"heartbeatSensor.c"
  16              		.text
  17              	.Ltext0:
  18              		.cfi_sections	.debug_frame
  19              		.section	.text.initMessageQueue,"ax",%progbits
  20              		.align	2
  21              		.global	initMessageQueue
  22              		.thumb
  23              		.thumb_func
  24              		.type	initMessageQueue, %function
  25              	initMessageQueue:
  26              	.LFB64:
  27              		.file 1 "heartbeatSensor.c"
   1:heartbeatSensor.c **** #include "heartbeatSensor.h"
   2:heartbeatSensor.c **** 
   3:heartbeatSensor.c **** /* Function Prototypes */
   4:heartbeatSensor.c **** void MAX30102_Init(void);
   5:heartbeatSensor.c **** static void max30102_Task(void *p_arg);
   6:heartbeatSensor.c **** void processSignals(CPU_INT32U raw_ir, CPU_INT32U raw_red);
   7:heartbeatSensor.c **** void updateHeartRate(void);
   8:heartbeatSensor.c **** void updateSpO2(void);
   9:heartbeatSensor.c **** void enqueueHeartRate(CPU_INT32S heart_rate);
  10:heartbeatSensor.c **** void enqueueSpO2(CPU_INT32S spO2);
  11:heartbeatSensor.c **** void initMessageQueue(void);
  12:heartbeatSensor.c **** CPU_INT32S calculateSpO2(CPU_INT32S ac_red, CPU_INT32S dc_red, CPU_INT32S ac_ir, CPU_INT32S dc_ir);
  13:heartbeatSensor.c **** CPU_INT16S averageDCEstimator(CPU_INT32S *p, CPU_INT32U x);
  14:heartbeatSensor.c **** CPU_INT16S lowPassFIRFilter(CPU_INT16S din);
  15:heartbeatSensor.c **** CPU_INT32S mul16(CPU_INT16S x, CPU_INT16S y);
  16:heartbeatSensor.c **** 
  17:heartbeatSensor.c **** /* I2C Buffer */
  18:heartbeatSensor.c **** CPU_INT08U i2c_rx_buffer[I2C_BUFFER_SIZE]; // Buffer for incoming I2C data
  19:heartbeatSensor.c **** 
  20:heartbeatSensor.c **** /* Heart Rate and SpO2 Variables */
  21:heartbeatSensor.c **** CPU_INT32U last_peak_timestamp = 0;                    // Timestamp of last detected positive cross
  22:heartbeatSensor.c **** CPU_INT32S IR_AC_Max = 0;                              // Maximum AC signal value for peak detectio
  23:heartbeatSensor.c **** CPU_INT32S IR_AC_Min = 0;                              // Minimum AC signal value for peak detectio
  24:heartbeatSensor.c **** CPU_INT32S IR_AC_Signal_Current = 0;                   // Current AC signal value
  25:heartbeatSensor.c **** CPU_INT32S IR_AC_Signal_Previous = 0;                  // Previous AC signal value
  26:heartbeatSensor.c **** CPU_INT32S IR_DC_Signal_Current = 0;                   // Current DC signal value
  27:heartbeatSensor.c **** CPU_INT32S RED_AC_Signal_Current = 0;                  // Current AC signal value for red channel
  28:heartbeatSensor.c **** CPU_INT32S RED_DC_Signal_Current = 0;                  // Current DC signal value for red channel
  29:heartbeatSensor.c **** CPU_INT32S ir_avg_reg = 0;                             // Average DC signal value for IR baseline
  30:heartbeatSensor.c **** CPU_INT32S red_avg_reg = 0;                            // Average DC signal value for red channel b
ARM GAS  C:\Users\batuh\AppData\Local\Temp\ccS6OjKB.s 			page 2


  31:heartbeatSensor.c **** CPU_INT32S spO2 = -1;                                  // SpO2 result
  32:heartbeatSensor.c **** CPU_BOOLEAN cycle_started = DEF_FALSE;                 // Track the start of a cycle
  33:heartbeatSensor.c **** 
  34:heartbeatSensor.c **** /* Heart rate history */
  35:heartbeatSensor.c **** #define MAX_HEART_RATE_HISTORY 15
  36:heartbeatSensor.c **** CPU_INT32S heart_rate_history[MAX_HEART_RATE_HISTORY] = {0};
  37:heartbeatSensor.c **** CPU_INT32U heart_rate_index = 0;
  38:heartbeatSensor.c **** CPU_INT32S heart_rate_sum = 0;
  39:heartbeatSensor.c **** 
  40:heartbeatSensor.c **** 
  41:heartbeatSensor.c **** 
  42:heartbeatSensor.c **** /* Task Control Block and Stack Declaration for MAX30102 Task */
  43:heartbeatSensor.c **** OS_TCB MAX30102_Task_TCB;                              // Task Control Block for MAX30102 task
  44:heartbeatSensor.c **** CPU_STK MAX30102_TaskStk[APP_CFG_TASK_MAX30102_STK_SIZE]; // Stack for MAX30102 task
  45:heartbeatSensor.c **** 
  46:heartbeatSensor.c **** /* Initialize the message queue to process send the heart rate & SpO2 values to*/
  47:heartbeatSensor.c **** void initMessageQueue(){
  28              		.loc 1 47 0
  29              		.cfi_startproc
  30              		@ args = 0, pretend = 0, frame = 8
  31              		@ frame_needed = 0, uses_anonymous_args = 0
  32 0000 00B5     		push	{lr}
  33              		.cfi_def_cfa_offset 4
  34              		.cfi_offset 14, -4
  35 0002 83B0     		sub	sp, sp, #12
  36              		.cfi_def_cfa_offset 16
  48:heartbeatSensor.c **** 
  49:heartbeatSensor.c ****   OS_ERR   os_err;
  50:heartbeatSensor.c ****   
  51:heartbeatSensor.c ****   OSQCreate(&CommQI2CHeartRate, "Message Queue to send heart rate from I2C as Message", MESSAGE_QUE
  37              		.loc 1 51 0
  38 0004 0DF10603 		add	r3, sp, #6
  39 0008 FA22     		movs	r2, #250
  40 000a 1349     		ldr	r1, .L7
  41 000c 1348     		ldr	r0, .L7+4
  42 000e FFF7FEFF 		bl	OSQCreate
  43              	.LVL0:
  52:heartbeatSensor.c ****   if (os_err == OS_ERR_NONE) {
  44              		.loc 1 52 0
  45 0012 BDF80620 		ldrh	r2, [sp, #6]
  46 0016 22B9     		cbnz	r2, .L2
  53:heartbeatSensor.c ****         Log_Write(LOG_LEVEL_I2C, "I2C Task: I2C Message queue created successfully", 0);
  47              		.loc 1 53 0
  48 0018 1149     		ldr	r1, .L7+8
  49 001a 2020     		movs	r0, #32
  50 001c FFF7FEFF 		bl	Log_Write
  51              	.LVL1:
  52 0020 03E0     		b	.L3
  53              	.L2:
  54:heartbeatSensor.c ****     } else {
  55:heartbeatSensor.c ****         Log_Write(LOG_LEVEL_ERROR, "Error: I2C Message Queue creation failed", os_err);
  54              		.loc 1 55 0
  55 0022 1049     		ldr	r1, .L7+12
  56 0024 0420     		movs	r0, #4
  57 0026 FFF7FEFF 		bl	Log_Write
  58              	.LVL2:
  59              	.L3:
ARM GAS  C:\Users\batuh\AppData\Local\Temp\ccS6OjKB.s 			page 3


  56:heartbeatSensor.c ****    }
  57:heartbeatSensor.c ****     
  58:heartbeatSensor.c ****   OSQCreate(&CommQI2CSPO2, "Message Queue to send SPO2 from I2C as Message", MESSAGE_QUEUE_SIZE, &o
  60              		.loc 1 58 0
  61 002a 0DF10603 		add	r3, sp, #6
  62 002e FA22     		movs	r2, #250
  63 0030 0D49     		ldr	r1, .L7+16
  64 0032 0E48     		ldr	r0, .L7+20
  65 0034 FFF7FEFF 		bl	OSQCreate
  66              	.LVL3:
  59:heartbeatSensor.c ****   if (os_err == OS_ERR_NONE) {
  67              		.loc 1 59 0
  68 0038 BDF80620 		ldrh	r2, [sp, #6]
  69 003c 22B9     		cbnz	r2, .L4
  60:heartbeatSensor.c ****         Log_Write(LOG_LEVEL_I2C, "I2C Task: I2C Message queue created successfully", 0);
  70              		.loc 1 60 0
  71 003e 0849     		ldr	r1, .L7+8
  72 0040 2020     		movs	r0, #32
  73 0042 FFF7FEFF 		bl	Log_Write
  74              	.LVL4:
  75 0046 03E0     		b	.L1
  76              	.L4:
  61:heartbeatSensor.c ****     } else {
  62:heartbeatSensor.c ****         Log_Write(LOG_LEVEL_ERROR, "Error: I2C Message Queue creation failed", os_err);
  77              		.loc 1 62 0
  78 0048 0649     		ldr	r1, .L7+12
  79 004a 0420     		movs	r0, #4
  80 004c FFF7FEFF 		bl	Log_Write
  81              	.LVL5:
  82              	.L1:
  63:heartbeatSensor.c ****    }
  64:heartbeatSensor.c **** }
  83              		.loc 1 64 0
  84 0050 03B0     		add	sp, sp, #12
  85              		.cfi_def_cfa_offset 4
  86              		@ sp needed
  87 0052 5DF804FB 		ldr	pc, [sp], #4
  88              	.L8:
  89 0056 00BF     		.align	2
  90              	.L7:
  91 0058 00000000 		.word	.LC0
  92 005c 00000000 		.word	CommQI2CHeartRate
  93 0060 38000000 		.word	.LC1
  94 0064 6C000000 		.word	.LC2
  95 0068 98000000 		.word	.LC3
  96 006c 00000000 		.word	CommQI2CSPO2
  97              		.cfi_endproc
  98              	.LFE64:
  99              		.size	initMessageQueue, .-initMessageQueue
 100              		.section	.text.MAX30102_Init,"ax",%progbits
 101              		.align	2
 102              		.global	MAX30102_Init
 103              		.thumb
 104              		.thumb_func
 105              		.type	MAX30102_Init, %function
 106              	MAX30102_Init:
 107              	.LFB65:
ARM GAS  C:\Users\batuh\AppData\Local\Temp\ccS6OjKB.s 			page 4


  65:heartbeatSensor.c **** 
  66:heartbeatSensor.c **** /**
  67:heartbeatSensor.c ****  * @brief Initializes the MAX30102 task and creates it in the RTOS.
  68:heartbeatSensor.c ****  */
  69:heartbeatSensor.c **** void MAX30102_Init(void) {
 108              		.loc 1 69 0
 109              		.cfi_startproc
 110              		@ args = 0, pretend = 0, frame = 8
 111              		@ frame_needed = 0, uses_anonymous_args = 0
 112 0000 00B5     		push	{lr}
 113              		.cfi_def_cfa_offset 4
 114              		.cfi_offset 14, -4
 115 0002 8DB0     		sub	sp, sp, #52
 116              		.cfi_def_cfa_offset 56
  70:heartbeatSensor.c ****     OS_ERR os_err;
  71:heartbeatSensor.c **** 
  72:heartbeatSensor.c ****     Log_Write(LOG_LEVEL_I2C, "MAX30102 Init: Creating MAX30102 task", 0);
 117              		.loc 1 72 0
 118 0004 0022     		movs	r2, #0
 119 0006 1549     		ldr	r1, .L13
 120 0008 2020     		movs	r0, #32
 121 000a FFF7FEFF 		bl	Log_Write
 122              	.LVL6:
  73:heartbeatSensor.c **** 
  74:heartbeatSensor.c ****     OSTaskCreate((OS_TCB *)&MAX30102_Task_TCB,           // Task Control Block
 123              		.loc 1 74 0
 124 000e 0DF12E03 		add	r3, sp, #46
 125 0012 0893     		str	r3, [sp, #32]
 126 0014 0323     		movs	r3, #3
 127 0016 0793     		str	r3, [sp, #28]
 128 0018 0023     		movs	r3, #0
 129 001a 0693     		str	r3, [sp, #24]
 130 001c 0593     		str	r3, [sp, #20]
 131 001e 0493     		str	r3, [sp, #16]
 132 0020 4FF40072 		mov	r2, #512
 133 0024 0392     		str	r2, [sp, #12]
 134 0026 3322     		movs	r2, #51
 135 0028 0292     		str	r2, [sp, #8]
 136 002a 0D4A     		ldr	r2, .L13+4
 137 002c 0192     		str	r2, [sp, #4]
 138 002e 0622     		movs	r2, #6
 139 0030 0092     		str	r2, [sp]
 140 0032 0C4A     		ldr	r2, .L13+8
 141 0034 0C49     		ldr	r1, .L13+12
 142 0036 0D48     		ldr	r0, .L13+16
 143 0038 FFF7FEFF 		bl	OSTaskCreate
 144              	.LVL7:
  75:heartbeatSensor.c ****                  (CPU_CHAR *)"MAX30102 Task",            // Task name for debugging
  76:heartbeatSensor.c ****                  (OS_TASK_PTR)max30102_Task,             // Pointer to task function
  77:heartbeatSensor.c ****                  (void *)0,                              // Task arguments (none)
  78:heartbeatSensor.c ****                  (OS_PRIO)APP_CFG_TASK_I2C_PRIO,         // Task priority
  79:heartbeatSensor.c ****                  (CPU_STK *)&MAX30102_TaskStk[0],        // Stack base
  80:heartbeatSensor.c ****                  (CPU_STK_SIZE)APP_CFG_TASK_MAX30102_STK_SIZE_LIMIT, // Minimum stack size
  81:heartbeatSensor.c ****                  (CPU_STK_SIZE)APP_CFG_TASK_MAX30102_STK_SIZE,        // Stack size
  82:heartbeatSensor.c ****                  (OS_MSG_QTY)0u,                         // No message queue required
  83:heartbeatSensor.c ****                  (OS_TICK)0u,                            // No time slice
  84:heartbeatSensor.c ****                  (void *)0,                              // No extra storage
ARM GAS  C:\Users\batuh\AppData\Local\Temp\ccS6OjKB.s 			page 5


  85:heartbeatSensor.c ****                  (OS_OPT)(OS_OPT_TASK_STK_CHK | OS_OPT_TASK_STK_CLR), // Stack options
  86:heartbeatSensor.c ****                  (OS_ERR *)&os_err);                     // Error code
  87:heartbeatSensor.c **** 
  88:heartbeatSensor.c ****     if (os_err == OS_ERR_NONE) {
 145              		.loc 1 88 0
 146 003c BDF82E20 		ldrh	r2, [sp, #46]
 147 0040 22B9     		cbnz	r2, .L10
  89:heartbeatSensor.c ****         Log_Write(LOG_LEVEL_I2C, "MAX30102 Task created successfully", 0);
 148              		.loc 1 89 0
 149 0042 0B49     		ldr	r1, .L13+20
 150 0044 2020     		movs	r0, #32
 151 0046 FFF7FEFF 		bl	Log_Write
 152              	.LVL8:
 153 004a 03E0     		b	.L9
 154              	.L10:
  90:heartbeatSensor.c ****     } else {
  91:heartbeatSensor.c ****         Log_Write(LOG_LEVEL_ERROR, "Error: MAX30102 Task creation failed", os_err);
 155              		.loc 1 91 0
 156 004c 0949     		ldr	r1, .L13+24
 157 004e 0420     		movs	r0, #4
 158 0050 FFF7FEFF 		bl	Log_Write
 159              	.LVL9:
 160              	.L9:
  92:heartbeatSensor.c ****     }
  93:heartbeatSensor.c **** }
 161              		.loc 1 93 0
 162 0054 0DB0     		add	sp, sp, #52
 163              		.cfi_def_cfa_offset 4
 164              		@ sp needed
 165 0056 5DF804FB 		ldr	pc, [sp], #4
 166              	.L14:
 167 005a 00BF     		.align	2
 168              	.L13:
 169 005c C8000000 		.word	.LC4
 170 0060 00000000 		.word	MAX30102_TaskStk
 171 0064 00000000 		.word	max30102_Task
 172 0068 F0000000 		.word	.LC5
 173 006c 00000000 		.word	MAX30102_Task_TCB
 174 0070 00010000 		.word	.LC6
 175 0074 24010000 		.word	.LC7
 176              		.cfi_endproc
 177              	.LFE65:
 178              		.size	MAX30102_Init, .-MAX30102_Init
 179              		.section	.text.enqueueHeartRate,"ax",%progbits
 180              		.align	2
 181              		.global	enqueueHeartRate
 182              		.thumb
 183              		.thumb_func
 184              		.type	enqueueHeartRate, %function
 185              	enqueueHeartRate:
 186              	.LFB70:
  94:heartbeatSensor.c **** 
  95:heartbeatSensor.c **** /**
  96:heartbeatSensor.c ****  * @brief Main task for handling MAX30102 sensor data acquisition and processing.
  97:heartbeatSensor.c ****  * 
  98:heartbeatSensor.c ****  * This function continuously reads raw data from the MAX30102 sensor, filters it,
  99:heartbeatSensor.c ****  * and processes the signal data if the values exceed a specified threshold.
ARM GAS  C:\Users\batuh\AppData\Local\Temp\ccS6OjKB.s 			page 6


 100:heartbeatSensor.c ****  * It also implements a delay to control the polling rate.
 101:heartbeatSensor.c ****  * 
 102:heartbeatSensor.c ****  * @param p_arg Pointer to task arguments (unused in this task).
 103:heartbeatSensor.c ****  */
 104:heartbeatSensor.c **** static void max30102_Task(void *p_arg) {
 105:heartbeatSensor.c ****     OS_ERR os_err; // Variable to store error status of OS operations
 106:heartbeatSensor.c ****     (void)p_arg;   // Suppress unused parameter warning
 107:heartbeatSensor.c **** 
 108:heartbeatSensor.c ****     max30102_handle_t max30102_handle; // Sensor handle for managing sensor operations
 109:heartbeatSensor.c ****     uint32_t raw_red = 0, raw_ir = 0;  // Variables to store raw red and IR readings
 110:heartbeatSensor.c ****     CPU_INT08U data_len = 2;           // Expected number of samples to read from the sensor
 111:heartbeatSensor.c **** 
 112:heartbeatSensor.c ****     // Initialize the MAX30102 sensor
 113:heartbeatSensor.c ****     // If initialization fails, log an error message and exit the task
 114:heartbeatSensor.c ****     if (max30102_sensor_init(&max30102_handle) != 0) {
 115:heartbeatSensor.c ****         Log_Write(LOG_LEVEL_ERROR, "Failed to initialize MAX30102 sensor", 0);
 116:heartbeatSensor.c ****         return;
 117:heartbeatSensor.c ****     }
 118:heartbeatSensor.c ****     
 119:heartbeatSensor.c ****     Log_Write(LOG_LEVEL_I2C, "Creating message queues...", 0);
 120:heartbeatSensor.c ****     initMessageQueue();
 121:heartbeatSensor.c **** 
 122:heartbeatSensor.c ****     // Infinite loop for continuous sensor data reading and processing
 123:heartbeatSensor.c ****     while (DEF_TRUE) {
 124:heartbeatSensor.c ****         //place button semaphore
 125:heartbeatSensor.c ****         // Attempt to read raw red and IR data from the MAX30102 sensor
 126:heartbeatSensor.c ****         // If the read fails, log an error and continue to the next iteration
 127:heartbeatSensor.c ****         if (max30102_read(&max30102_handle, &raw_red, &raw_ir, &data_len) != 0) {
 128:heartbeatSensor.c ****             Log_Write(LOG_LEVEL_ERROR, "Failed to read from MAX30102", 0);
 129:heartbeatSensor.c ****             continue;
 130:heartbeatSensor.c ****         }
 131:heartbeatSensor.c ****         //Log_Write(LOG_LEVEL_ERROR, "Red: %d, IR: %d",raw_red, raw_ir);
 132:heartbeatSensor.c **** 
 133:heartbeatSensor.c ****         // Check if the raw IR and red values exceed the threshold (100000)
 134:heartbeatSensor.c ****         // If they do, process the signals for further analysis
 135:heartbeatSensor.c ****         if (raw_ir > INITIAL_THRESHOLD && raw_red > INITIAL_THRESHOLD) {
 136:heartbeatSensor.c ****             processSignals(raw_ir, raw_red);
 137:heartbeatSensor.c ****         }
 138:heartbeatSensor.c **** 
 139:heartbeatSensor.c ****         // Introduce a delay to control the sensor polling rate
 140:heartbeatSensor.c ****         // POLLING_DELAY_MS defines the delay duration in milliseconds
 141:heartbeatSensor.c ****         OSTimeDlyHMSM(0, 0, 0, POLLING_DELAY_MS, OS_OPT_TIME_HMSM_STRICT, &os_err);
 142:heartbeatSensor.c ****     }
 143:heartbeatSensor.c **** }
 144:heartbeatSensor.c **** 
 145:heartbeatSensor.c **** /**
 146:heartbeatSensor.c ****  * @brief Processes raw IR and red signals to update DC and AC components.
 147:heartbeatSensor.c ****  * 
 148:heartbeatSensor.c ****  * This function estimates the DC (direct current or baseline) component for both IR and red signal
 149:heartbeatSensor.c ****  * using a DC estimator and removes it to isolate the AC (alternating current) component. The AC co
 150:heartbeatSensor.c ****  * represents pulsatile blood flow. The function then filters these AC signals to smooth them and c
 151:heartbeatSensor.c ****  * functions to calculate heart rate and SpO₂.
 152:heartbeatSensor.c ****  * 
 153:heartbeatSensor.c ****  * @param raw_ir Raw infrared signal value from the MAX30102 sensor
 154:heartbeatSensor.c ****  * @param raw_red Raw red signal value from the MAX30102 sensor
 155:heartbeatSensor.c ****  */
 156:heartbeatSensor.c **** void processSignals(CPU_INT32U raw_ir, CPU_INT32U raw_red) {
ARM GAS  C:\Users\batuh\AppData\Local\Temp\ccS6OjKB.s 			page 7


 157:heartbeatSensor.c ****     // Estimate the DC component for the IR signal and update the current IR DC signal
 158:heartbeatSensor.c ****     IR_DC_Signal_Current = averageDCEstimator(&ir_avg_reg, raw_ir);
 159:heartbeatSensor.c **** 
 160:heartbeatSensor.c ****     // Estimate the DC component for the red signal and update the current red DC signal
 161:heartbeatSensor.c ****     RED_DC_Signal_Current = averageDCEstimator(&red_avg_reg, raw_red);
 162:heartbeatSensor.c **** 
 163:heartbeatSensor.c ****     // Subtract the DC component from the raw IR signal to get the AC component
 164:heartbeatSensor.c ****     // Apply a low-pass filter to the resulting AC component for the IR channel
 165:heartbeatSensor.c ****     IR_AC_Signal_Current = lowPassFIRFilter(raw_ir - IR_DC_Signal_Current);
 166:heartbeatSensor.c **** 
 167:heartbeatSensor.c ****     // Subtract the DC component from the raw red signal to get the AC component
 168:heartbeatSensor.c ****     // Apply a low-pass filter to the resulting AC component for the red channel
 169:heartbeatSensor.c ****     RED_AC_Signal_Current = lowPassFIRFilter(raw_red - RED_DC_Signal_Current);
 170:heartbeatSensor.c ****     
 171:heartbeatSensor.c ****     
 172:heartbeatSensor.c ****     // Call function to analyze IR signal and detect heart rate
 173:heartbeatSensor.c ****     updateHeartRate();
 174:heartbeatSensor.c ****     
 175:heartbeatSensor.c ****     // Call function to calculate and update SpO₂ level based on the filtered AC and DC component
 176:heartbeatSensor.c ****     updateSpO2();
 177:heartbeatSensor.c **** }
 178:heartbeatSensor.c **** 
 179:heartbeatSensor.c **** 
 180:heartbeatSensor.c **** /**
 181:heartbeatSensor.c ****  * @brief Detects heart rate from IR signal and calculates average heart rate.
 182:heartbeatSensor.c ****  * 
 183:heartbeatSensor.c ****  * This function identifies heartbeats by detecting positive zero-crossings in the IR AC signal, wh
 184:heartbeatSensor.c ****  * It calculates the time between successive peaks to estimate the heart rate. Valid heart rate val
 185:heartbeatSensor.c ****  * are stored in a circular buffer for averaging. The averaged heart rate is logged and can be sent
 186:heartbeatSensor.c ****  */
 187:heartbeatSensor.c **** void updateHeartRate(void) {
 188:heartbeatSensor.c ****     char buffer[64];
 189:heartbeatSensor.c ****     // Uncomment the following line if you want to log raw values via UART.
 190:heartbeatSensor.c ****     // snprintf(buffer, sizeof(buffer), "%d,%d,%d\r\n", IR_AC_Signal_Current, RED_AC_Signal_Current
 191:heartbeatSensor.c ****     // UART_1_PutString(buffer);
 192:heartbeatSensor.c **** 
 193:heartbeatSensor.c ****     const CPU_INT32S PEAK_THRESHOLD = 10;  // Adjusted threshold based on graph observation
 194:heartbeatSensor.c **** 
 195:heartbeatSensor.c ****     // Check for a positive zero-crossing in the IR AC signal
 196:heartbeatSensor.c ****     if (IR_AC_Signal_Current > PEAK_THRESHOLD && IR_AC_Signal_Previous <= PEAK_THRESHOLD) {
 197:heartbeatSensor.c ****         CPU_INT32U time_since_last_peak = current_timestamp - last_peak_timestamp;
 198:heartbeatSensor.c **** 
 199:heartbeatSensor.c ****         // Check if the cycle started and meets the minimum interval condition
 200:heartbeatSensor.c ****         if (time_since_last_peak > MIN_PEAK_INTERVAL_MS) {
 201:heartbeatSensor.c ****             cycle_started = DEF_TRUE;
 202:heartbeatSensor.c ****             IR_AC_Min = IR_AC_Signal_Current;
 203:heartbeatSensor.c **** 
 204:heartbeatSensor.c ****             if (last_peak_timestamp != 0) {
 205:heartbeatSensor.c ****                 CPU_INT32U time_between_peaks = time_since_last_peak;
 206:heartbeatSensor.c ****                 CPU_INT32S heart_rate = (60 * 1000) / time_between_peaks;
 207:heartbeatSensor.c **** 
 208:heartbeatSensor.c ****                 // Process only valid heart rates in the 50-165 BPM range
 209:heartbeatSensor.c ****                 if (heart_rate >= 50 && heart_rate <= 165) {
 210:heartbeatSensor.c ****                     // Update history buffer for averaging heart rate
 211:heartbeatSensor.c ****                     heart_rate_sum -= heart_rate_history[heart_rate_index];
 212:heartbeatSensor.c ****                     heart_rate_history[heart_rate_index] = heart_rate;
 213:heartbeatSensor.c ****                     heart_rate_sum += heart_rate;
ARM GAS  C:\Users\batuh\AppData\Local\Temp\ccS6OjKB.s 			page 8


 214:heartbeatSensor.c **** 
 215:heartbeatSensor.c ****                     heart_rate_index = (heart_rate_index + 1) % MAX_HEART_RATE_HISTORY;
 216:heartbeatSensor.c **** 
 217:heartbeatSensor.c ****                     // Calculate the average heart rate from the buffer
 218:heartbeatSensor.c ****                     CPU_INT32S average_heart_rate = heart_rate_sum / MAX_HEART_RATE_HISTORY;
 219:heartbeatSensor.c **** 
 220:heartbeatSensor.c ****                     // Log the current and average heart rate to UART as CSV
 221:heartbeatSensor.c ****                     snprintf(buffer, sizeof(buffer), "Heart Rate: %d BPM, Average Heart Rate: %d BP
 222:heartbeatSensor.c ****                     UART_1_PutString(buffer);
 223:heartbeatSensor.c **** 
 224:heartbeatSensor.c ****                     // Send the average heart rate to a message queue for external handling
 225:heartbeatSensor.c ****                     enqueueHeartRate(average_heart_rate);
 226:heartbeatSensor.c ****                 }
 227:heartbeatSensor.c ****             }
 228:heartbeatSensor.c ****             last_peak_timestamp = current_timestamp;  // Update the timestamp of the last peak
 229:heartbeatSensor.c ****         }
 230:heartbeatSensor.c ****     }
 231:heartbeatSensor.c **** 
 232:heartbeatSensor.c ****     // Track the minimum value within the current cycle to refine heart rate detection
 233:heartbeatSensor.c ****     if (cycle_started) {
 234:heartbeatSensor.c ****         if (IR_AC_Signal_Current < IR_AC_Min) {
 235:heartbeatSensor.c ****             IR_AC_Min = IR_AC_Signal_Current;
 236:heartbeatSensor.c ****         }
 237:heartbeatSensor.c **** 
 238:heartbeatSensor.c ****         // Detect negative zero-crossing to mark the end of the cycle
 239:heartbeatSensor.c ****         if (IR_AC_Signal_Current < PEAK_THRESHOLD && IR_AC_Signal_Previous >= PEAK_THRESHOLD) {
 240:heartbeatSensor.c ****             cycle_started = DEF_FALSE;  // End the current cycle
 241:heartbeatSensor.c ****         }
 242:heartbeatSensor.c ****     }
 243:heartbeatSensor.c **** 
 244:heartbeatSensor.c ****     // Update the previous IR AC signal value for the next cycle comparison
 245:heartbeatSensor.c ****     IR_AC_Signal_Previous = IR_AC_Signal_Current;
 246:heartbeatSensor.c **** }
 247:heartbeatSensor.c **** 
 248:heartbeatSensor.c **** 
 249:heartbeatSensor.c **** /**
 250:heartbeatSensor.c ****  * @brief Calculates SpO₂ (oxygen saturation) and logs the result.
 251:heartbeatSensor.c ****  * 
 252:heartbeatSensor.c ****  * This function estimates the SpO₂ level by calculating the ratio of the AC and DC components of
 253:heartbeatSensor.c ****  * The SpO₂ value is computed through an empirical formula, and valid results are logged and sent
 254:heartbeatSensor.c ****  */
 255:heartbeatSensor.c **** void updateSpO2(void) {
 256:heartbeatSensor.c ****     // Calculate SpO₂ using the AC and DC components of red and IR signals
 257:heartbeatSensor.c ****     spO2 = calculateSpO2(RED_AC_Signal_Current, RED_DC_Signal_Current, IR_AC_Signal_Current, IR_DC_
 258:heartbeatSensor.c **** 
 259:heartbeatSensor.c ****     // Check for a valid SpO₂ calculation
 260:heartbeatSensor.c ****     if (spO2 != -1) {
 261:heartbeatSensor.c ****         // Log the calculated SpO₂ value
 262:heartbeatSensor.c ****         //Log_Write(LOG_LEVEL_I2C, "SpO₂: %d%%", spO2);
 263:heartbeatSensor.c **** 
 264:heartbeatSensor.c ****         // Enqueue the SpO₂ result to a message queue for external processing
 265:heartbeatSensor.c ****         enqueueSpO2(spO2);
 266:heartbeatSensor.c ****     }
 267:heartbeatSensor.c **** }
 268:heartbeatSensor.c **** 
 269:heartbeatSensor.c **** 
 270:heartbeatSensor.c **** /**
ARM GAS  C:\Users\batuh\AppData\Local\Temp\ccS6OjKB.s 			page 9


 271:heartbeatSensor.c ****  * @brief Enqueues heart rate data to the message queue.
 272:heartbeatSensor.c ****  * 
 273:heartbeatSensor.c ****  * @param heart_rate Average heart rate to be enqueued
 274:heartbeatSensor.c ****  */
 275:heartbeatSensor.c **** void enqueueHeartRate(CPU_INT32S heart_rate) {
 187              		.loc 1 275 0
 188              		.cfi_startproc
 189              		@ args = 0, pretend = 0, frame = 16
 190              		@ frame_needed = 0, uses_anonymous_args = 0
 191              	.LVL10:
 192 0000 00B5     		push	{lr}
 193              		.cfi_def_cfa_offset 4
 194              		.cfi_offset 14, -4
 195 0002 87B0     		sub	sp, sp, #28
 196              		.cfi_def_cfa_offset 32
 197 0004 0390     		str	r0, [sp, #12]
 276:heartbeatSensor.c ****   OS_ERR os_err;
 277:heartbeatSensor.c ****   OS_MSG_QTY entries;
 278:heartbeatSensor.c ****   
 279:heartbeatSensor.c ****   static CPU_INT32S previous_heart_rate;
 280:heartbeatSensor.c ****   
 281:heartbeatSensor.c ****   if (previous_heart_rate == heart_rate){
 198              		.loc 1 281 0
 199 0006 1F4B     		ldr	r3, .L22
 200 0008 1B68     		ldr	r3, [r3]
 201 000a 8342     		cmp	r3, r0
 202 000c 05D1     		bne	.L16
 282:heartbeatSensor.c ****     Log_Write(LOG_LEVEL_ERROR, "I2C Task: Value is same as previous value. Do not send it.", 0);
 203              		.loc 1 282 0
 204 000e 0022     		movs	r2, #0
 205 0010 1D49     		ldr	r1, .L22+4
 206 0012 0420     		movs	r0, #4
 207              	.LVL11:
 208 0014 FFF7FEFF 		bl	Log_Write
 209              	.LVL12:
 210 0018 30E0     		b	.L15
 211              	.LVL13:
 212              	.L16:
 283:heartbeatSensor.c ****     return;
 284:heartbeatSensor.c ****   }else{
 285:heartbeatSensor.c ****     // Try to post to the queue
 286:heartbeatSensor.c ****     OSQPost(&CommQI2CHeartRate, &heart_rate, sizeof(heart_rate), OS_OPT_POST_FIFO + OS_OPT_POST_ALL
 213              		.loc 1 286 0
 214 001a 0DF11603 		add	r3, sp, #22
 215 001e 0093     		str	r3, [sp]
 216 0020 4FF40073 		mov	r3, #512
 217 0024 0422     		movs	r2, #4
 218 0026 03A9     		add	r1, sp, #12
 219 0028 1848     		ldr	r0, .L22+8
 220              	.LVL14:
 221 002a FFF7FEFF 		bl	OSQPost
 222              	.LVL15:
 287:heartbeatSensor.c ****     if (os_err != OS_ERR_NONE) {
 223              		.loc 1 287 0
 224 002e BDF81630 		ldrh	r3, [sp, #22]
 225 0032 DBB1     		cbz	r3, .L18
 288:heartbeatSensor.c ****       if (os_err == OS_ERR_Q_MAX) {
ARM GAS  C:\Users\batuh\AppData\Local\Temp\ccS6OjKB.s 			page 10


 226              		.loc 1 288 0
 227 0034 46F29352 		movw	r2, #26003
 228 0038 9342     		cmp	r3, r2
 229 003a 11D1     		bne	.L19
 289:heartbeatSensor.c ****         // Log an error if the queue is full
 290:heartbeatSensor.c ****         Log_Write(LOG_LEVEL_ERROR, "I2C Task: queue is full, can't send heart rate value to process
 230              		.loc 1 290 0
 231 003c 0022     		movs	r2, #0
 232 003e 1449     		ldr	r1, .L22+12
 233 0040 0420     		movs	r0, #4
 234 0042 FFF7FEFF 		bl	Log_Write
 235              	.LVL16:
 291:heartbeatSensor.c ****         entries = OSQFlush(&CommQI2CHeartRate, &os_err);  // Flush queue if full
 236              		.loc 1 291 0
 237 0046 0DF11601 		add	r1, sp, #22
 238 004a 1048     		ldr	r0, .L22+8
 239 004c FFF7FEFF 		bl	OSQFlush
 240              	.LVL17:
 292:heartbeatSensor.c ****         if(os_err == OS_ERR_NONE){
 241              		.loc 1 292 0
 242 0050 BDF81630 		ldrh	r3, [sp, #22]
 243 0054 93B9     		cbnz	r3, .L15
 293:heartbeatSensor.c ****           Log_Write(LOG_LEVEL_DATA_PROCESSING, "Queue is flushed .. ");
 244              		.loc 1 293 0
 245 0056 0F49     		ldr	r1, .L22+16
 246 0058 3020     		movs	r0, #48
 247 005a FFF7FEFF 		bl	Log_Write
 248              	.LVL18:
 249 005e 0DE0     		b	.L15
 250              	.L19:
 294:heartbeatSensor.c ****         }
 295:heartbeatSensor.c ****       } else {
 296:heartbeatSensor.c ****         // Log any other errors that occur when posting to the queue
 297:heartbeatSensor.c ****         Log_Write(LOG_LEVEL_ERROR, "Error occurred at I2C Task, posting to queue failed...", 0);
 251              		.loc 1 297 0
 252 0060 0022     		movs	r2, #0
 253 0062 0D49     		ldr	r1, .L22+20
 254 0064 0420     		movs	r0, #4
 255 0066 FFF7FEFF 		bl	Log_Write
 256              	.LVL19:
 257 006a 07E0     		b	.L15
 258              	.L18:
 298:heartbeatSensor.c ****       }
 299:heartbeatSensor.c ****     } else {
 300:heartbeatSensor.c ****       // Log a message when the SPO2 value is successfully posted to the queue
 301:heartbeatSensor.c ****       Log_Write(LOG_LEVEL_I2C, "Sent heart rate value to processing task...", 0);
 259              		.loc 1 301 0
 260 006c 0022     		movs	r2, #0
 261 006e 0B49     		ldr	r1, .L22+24
 262 0070 2020     		movs	r0, #32
 263 0072 FFF7FEFF 		bl	Log_Write
 264              	.LVL20:
 302:heartbeatSensor.c ****       previous_heart_rate = heart_rate;
 265              		.loc 1 302 0
 266 0076 039A     		ldr	r2, [sp, #12]
 267 0078 024B     		ldr	r3, .L22
 268 007a 1A60     		str	r2, [r3]
ARM GAS  C:\Users\batuh\AppData\Local\Temp\ccS6OjKB.s 			page 11


 269              	.L15:
 303:heartbeatSensor.c ****     }
 304:heartbeatSensor.c ****   }
 305:heartbeatSensor.c **** }
 270              		.loc 1 305 0
 271 007c 07B0     		add	sp, sp, #28
 272              		.cfi_def_cfa_offset 4
 273              		@ sp needed
 274 007e 5DF804FB 		ldr	pc, [sp], #4
 275              	.LVL21:
 276              	.L23:
 277 0082 00BF     		.align	2
 278              	.L22:
 279 0084 00000000 		.word	.LANCHOR0
 280 0088 4C010000 		.word	.LC8
 281 008c 00000000 		.word	CommQI2CHeartRate
 282 0090 88010000 		.word	.LC9
 283 0094 D4010000 		.word	.LC10
 284 0098 EC010000 		.word	.LC11
 285 009c 24020000 		.word	.LC12
 286              		.cfi_endproc
 287              	.LFE70:
 288              		.size	enqueueHeartRate, .-enqueueHeartRate
 289              		.section	.text.updateHeartRate,"ax",%progbits
 290              		.align	2
 291              		.global	updateHeartRate
 292              		.thumb
 293              		.thumb_func
 294              		.type	updateHeartRate, %function
 295              	updateHeartRate:
 296              	.LFB68:
 187:heartbeatSensor.c ****     char buffer[64];
 297              		.loc 1 187 0
 298              		.cfi_startproc
 299              		@ args = 0, pretend = 0, frame = 64
 300              		@ frame_needed = 0, uses_anonymous_args = 0
 301 0000 30B5     		push	{r4, r5, lr}
 302              		.cfi_def_cfa_offset 12
 303              		.cfi_offset 4, -12
 304              		.cfi_offset 5, -8
 305              		.cfi_offset 14, -4
 306 0002 93B0     		sub	sp, sp, #76
 307              		.cfi_def_cfa_offset 88
 308              	.LVL22:
 196:heartbeatSensor.c ****         CPU_INT32U time_since_last_peak = current_timestamp - last_peak_timestamp;
 309              		.loc 1 196 0
 310 0004 2E4B     		ldr	r3, .L30
 311 0006 5A68     		ldr	r2, [r3, #4]
 312 0008 0A2A     		cmp	r2, #10
 313 000a 40DD     		ble	.L25
 196:heartbeatSensor.c ****         CPU_INT32U time_since_last_peak = current_timestamp - last_peak_timestamp;
 314              		.loc 1 196 0 is_stmt 0 discriminator 1
 315 000c 9B68     		ldr	r3, [r3, #8]
 316 000e 0A2B     		cmp	r3, #10
 317 0010 3DDC     		bgt	.L25
 318              	.LBB2:
 197:heartbeatSensor.c **** 
ARM GAS  C:\Users\batuh\AppData\Local\Temp\ccS6OjKB.s 			page 12


 319              		.loc 1 197 0 is_stmt 1
 320 0012 2C4B     		ldr	r3, .L30+4
 321 0014 1B68     		ldr	r3, [r3]
 322 0016 2A49     		ldr	r1, .L30
 323 0018 C968     		ldr	r1, [r1, #12]
 324 001a 5B1A     		subs	r3, r3, r1
 325              	.LVL23:
 200:heartbeatSensor.c ****             cycle_started = DEF_TRUE;
 326              		.loc 1 200 0
 327 001c B3F5967F 		cmp	r3, #300
 328 0020 35D9     		bls	.L25
 201:heartbeatSensor.c ****             IR_AC_Min = IR_AC_Signal_Current;
 329              		.loc 1 201 0
 330 0022 2748     		ldr	r0, .L30
 331 0024 0124     		movs	r4, #1
 332 0026 0474     		strb	r4, [r0, #16]
 202:heartbeatSensor.c **** 
 333              		.loc 1 202 0
 334 0028 4261     		str	r2, [r0, #20]
 204:heartbeatSensor.c ****                 CPU_INT32U time_between_peaks = time_since_last_peak;
 335              		.loc 1 204 0
 336 002a 61B3     		cbz	r1, .L26
 337              	.LVL24:
 338              	.LBB3:
 206:heartbeatSensor.c **** 
 339              		.loc 1 206 0
 340 002c 4EF66022 		movw	r2, #60000
 341 0030 B2FBF3F3 		udiv	r3, r2, r3
 342              	.LVL25:
 209:heartbeatSensor.c ****                     // Update history buffer for averaging heart rate
 343              		.loc 1 209 0
 344 0034 A3F13202 		sub	r2, r3, #50
 345 0038 732A     		cmp	r2, #115
 346 003a 24D8     		bhi	.L26
 347              	.LBB4:
 211:heartbeatSensor.c ****                     heart_rate_history[heart_rate_index] = heart_rate;
 348              		.loc 1 211 0
 349 003c 0446     		mov	r4, r0
 350 003e 8569     		ldr	r5, [r0, #24]
 351 0040 00EB8501 		add	r1, r0, r5, lsl #2
 352 0044 C869     		ldr	r0, [r1, #28]
 353 0046 A26D     		ldr	r2, [r4, #88]
 354 0048 121A     		subs	r2, r2, r0
 212:heartbeatSensor.c ****                     heart_rate_sum += heart_rate;
 355              		.loc 1 212 0
 356 004a CB61     		str	r3, [r1, #28]
 213:heartbeatSensor.c **** 
 357              		.loc 1 213 0
 358 004c 1A44     		add	r2, r2, r3
 359 004e A265     		str	r2, [r4, #88]
 215:heartbeatSensor.c **** 
 360              		.loc 1 215 0
 361 0050 0135     		adds	r5, r5, #1
 362 0052 1D48     		ldr	r0, .L30+8
 363 0054 A0FB05E1 		umull	lr, r1, r0, r5
 364 0058 C908     		lsrs	r1, r1, #3
 365 005a C1EB0111 		rsb	r1, r1, r1, lsl #4
ARM GAS  C:\Users\batuh\AppData\Local\Temp\ccS6OjKB.s 			page 13


 366 005e 691A     		subs	r1, r5, r1
 367 0060 A161     		str	r1, [r4, #24]
 218:heartbeatSensor.c **** 
 368              		.loc 1 218 0
 369 0062 80FB0214 		smull	r1, r4, r0, r2
 370 0066 1444     		add	r4, r4, r2
 371 0068 D217     		asrs	r2, r2, #31
 372 006a C2EBE404 		rsb	r4, r2, r4, asr #3
 373              	.LVL26:
 221:heartbeatSensor.c ****                     UART_1_PutString(buffer);
 374              		.loc 1 221 0
 375 006e 0094     		str	r4, [sp]
 376 0070 164A     		ldr	r2, .L30+12
 377 0072 4021     		movs	r1, #64
 378 0074 02A8     		add	r0, sp, #8
 379 0076 FFF7FEFF 		bl	snprintf
 380              	.LVL27:
 222:heartbeatSensor.c **** 
 381              		.loc 1 222 0
 382 007a 02A8     		add	r0, sp, #8
 383 007c FFF7FEFF 		bl	UART_1_PutString
 384              	.LVL28:
 225:heartbeatSensor.c ****                 }
 385              		.loc 1 225 0
 386 0080 2046     		mov	r0, r4
 387 0082 FFF7FEFF 		bl	enqueueHeartRate
 388              	.LVL29:
 389              	.L26:
 390              	.LBE4:
 391              	.LBE3:
 228:heartbeatSensor.c ****         }
 392              		.loc 1 228 0
 393 0086 0F4B     		ldr	r3, .L30+4
 394 0088 1A68     		ldr	r2, [r3]
 395 008a 0D4B     		ldr	r3, .L30
 396 008c DA60     		str	r2, [r3, #12]
 397              	.L25:
 398              	.LBE2:
 233:heartbeatSensor.c ****         if (IR_AC_Signal_Current < IR_AC_Min) {
 399              		.loc 1 233 0
 400 008e 0C4B     		ldr	r3, .L30
 401 0090 1B7C     		ldrb	r3, [r3, #16]	@ zero_extendqisi2
 402 0092 7BB1     		cbz	r3, .L27
 234:heartbeatSensor.c ****             IR_AC_Min = IR_AC_Signal_Current;
 403              		.loc 1 234 0
 404 0094 0A4A     		ldr	r2, .L30
 405 0096 5368     		ldr	r3, [r2, #4]
 406 0098 5269     		ldr	r2, [r2, #20]
 407 009a 9342     		cmp	r3, r2
 408 009c 01DA     		bge	.L28
 235:heartbeatSensor.c ****         }
 409              		.loc 1 235 0
 410 009e 084A     		ldr	r2, .L30
 411 00a0 5361     		str	r3, [r2, #20]
 412              	.L28:
 239:heartbeatSensor.c ****             cycle_started = DEF_FALSE;  // End the current cycle
 413              		.loc 1 239 0
ARM GAS  C:\Users\batuh\AppData\Local\Temp\ccS6OjKB.s 			page 14


 414 00a2 092B     		cmp	r3, #9
 415 00a4 06DC     		bgt	.L27
 239:heartbeatSensor.c ****             cycle_started = DEF_FALSE;  // End the current cycle
 416              		.loc 1 239 0 is_stmt 0 discriminator 1
 417 00a6 064B     		ldr	r3, .L30
 418 00a8 9B68     		ldr	r3, [r3, #8]
 419 00aa 092B     		cmp	r3, #9
 420 00ac 02DD     		ble	.L27
 240:heartbeatSensor.c ****         }
 421              		.loc 1 240 0 is_stmt 1
 422 00ae 0022     		movs	r2, #0
 423 00b0 034B     		ldr	r3, .L30
 424 00b2 1A74     		strb	r2, [r3, #16]
 425              	.L27:
 245:heartbeatSensor.c **** }
 426              		.loc 1 245 0
 427 00b4 024B     		ldr	r3, .L30
 428 00b6 5A68     		ldr	r2, [r3, #4]
 429 00b8 9A60     		str	r2, [r3, #8]
 246:heartbeatSensor.c **** 
 430              		.loc 1 246 0
 431 00ba 13B0     		add	sp, sp, #76
 432              		.cfi_def_cfa_offset 12
 433              		@ sp needed
 434 00bc 30BD     		pop	{r4, r5, pc}
 435              	.L31:
 436 00be 00BF     		.align	2
 437              	.L30:
 438 00c0 00000000 		.word	.LANCHOR0
 439 00c4 00000000 		.word	current_timestamp
 440 00c8 89888888 		.word	-2004318071
 441 00cc 50020000 		.word	.LC13
 442              		.cfi_endproc
 443              	.LFE68:
 444              		.size	updateHeartRate, .-updateHeartRate
 445              		.section	.text.enqueueSpO2,"ax",%progbits
 446              		.align	2
 447              		.global	enqueueSpO2
 448              		.thumb
 449              		.thumb_func
 450              		.type	enqueueSpO2, %function
 451              	enqueueSpO2:
 452              	.LFB71:
 306:heartbeatSensor.c **** 
 307:heartbeatSensor.c **** /**
 308:heartbeatSensor.c ****  * @brief Enqueues SpO2 data to the message queue.
 309:heartbeatSensor.c ****  * 
 310:heartbeatSensor.c ****  * @param spO2 SpO2 value to be enqueued
 311:heartbeatSensor.c ****  */
 312:heartbeatSensor.c **** void enqueueSpO2(CPU_INT32S spO2) {
 453              		.loc 1 312 0
 454              		.cfi_startproc
 455              		@ args = 0, pretend = 0, frame = 16
 456              		@ frame_needed = 0, uses_anonymous_args = 0
 457              	.LVL30:
 458 0000 00B5     		push	{lr}
 459              		.cfi_def_cfa_offset 4
ARM GAS  C:\Users\batuh\AppData\Local\Temp\ccS6OjKB.s 			page 15


 460              		.cfi_offset 14, -4
 461 0002 87B0     		sub	sp, sp, #28
 462              		.cfi_def_cfa_offset 32
 463 0004 0390     		str	r0, [sp, #12]
 313:heartbeatSensor.c ****   OS_ERR os_err;
 314:heartbeatSensor.c ****   static CPU_INT32S previous_spO2_rate = -1;
 315:heartbeatSensor.c ****   OS_MSG_QTY entries;
 316:heartbeatSensor.c **** 
 317:heartbeatSensor.c ****   if (previous_spO2_rate == spO2){
 464              		.loc 1 317 0
 465 0006 1F4B     		ldr	r3, .L39
 466 0008 1B68     		ldr	r3, [r3]
 467 000a 8342     		cmp	r3, r0
 468 000c 05D1     		bne	.L33
 318:heartbeatSensor.c ****     Log_Write(LOG_LEVEL_ERROR, "I2C Task: Value is same as previous value. Do not send it.", 0);
 469              		.loc 1 318 0
 470 000e 0022     		movs	r2, #0
 471 0010 1D49     		ldr	r1, .L39+4
 472 0012 0420     		movs	r0, #4
 473              	.LVL31:
 474 0014 FFF7FEFF 		bl	Log_Write
 475              	.LVL32:
 476 0018 30E0     		b	.L32
 477              	.LVL33:
 478              	.L33:
 319:heartbeatSensor.c ****     return;
 320:heartbeatSensor.c ****   }else{
 321:heartbeatSensor.c ****     // Try to post to the queue
 322:heartbeatSensor.c ****     OSQPost(&CommQI2CSPO2, &spO2, sizeof(spO2), OS_OPT_POST_FIFO + OS_OPT_POST_ALL, &os_err); 
 479              		.loc 1 322 0
 480 001a 0DF11603 		add	r3, sp, #22
 481 001e 0093     		str	r3, [sp]
 482 0020 4FF40073 		mov	r3, #512
 483 0024 0422     		movs	r2, #4
 484 0026 03A9     		add	r1, sp, #12
 485 0028 1848     		ldr	r0, .L39+8
 486              	.LVL34:
 487 002a FFF7FEFF 		bl	OSQPost
 488              	.LVL35:
 323:heartbeatSensor.c ****     if (os_err != OS_ERR_NONE) {
 489              		.loc 1 323 0
 490 002e BDF81630 		ldrh	r3, [sp, #22]
 491 0032 DBB1     		cbz	r3, .L35
 324:heartbeatSensor.c ****       if (os_err == OS_ERR_Q_MAX) {
 492              		.loc 1 324 0
 493 0034 46F29352 		movw	r2, #26003
 494 0038 9342     		cmp	r3, r2
 495 003a 11D1     		bne	.L36
 325:heartbeatSensor.c ****         // Log an error if the queue is full
 326:heartbeatSensor.c ****         Log_Write(LOG_LEVEL_ERROR, "I2C Task: queue is full, can't send SPO2 value to processing ta
 496              		.loc 1 326 0
 497 003c 0022     		movs	r2, #0
 498 003e 1449     		ldr	r1, .L39+12
 499 0040 0420     		movs	r0, #4
 500 0042 FFF7FEFF 		bl	Log_Write
 501              	.LVL36:
 327:heartbeatSensor.c ****         entries = OSQFlush(&CommQI2CSPO2, &os_err);  // Flush queue if full
ARM GAS  C:\Users\batuh\AppData\Local\Temp\ccS6OjKB.s 			page 16


 502              		.loc 1 327 0
 503 0046 0DF11601 		add	r1, sp, #22
 504 004a 1048     		ldr	r0, .L39+8
 505 004c FFF7FEFF 		bl	OSQFlush
 506              	.LVL37:
 328:heartbeatSensor.c ****         if(os_err == OS_ERR_NONE){
 507              		.loc 1 328 0
 508 0050 BDF81630 		ldrh	r3, [sp, #22]
 509 0054 93B9     		cbnz	r3, .L32
 329:heartbeatSensor.c ****           Log_Write(LOG_LEVEL_DATA_PROCESSING, "Queue is flushed .. ");
 510              		.loc 1 329 0
 511 0056 0F49     		ldr	r1, .L39+16
 512 0058 3020     		movs	r0, #48
 513 005a FFF7FEFF 		bl	Log_Write
 514              	.LVL38:
 515 005e 0DE0     		b	.L32
 516              	.L36:
 330:heartbeatSensor.c ****         }
 331:heartbeatSensor.c ****       } else {
 332:heartbeatSensor.c ****         // Log any other errors that occur when posting to the queue
 333:heartbeatSensor.c ****         Log_Write(LOG_LEVEL_ERROR, "Error occurred at I2C Task, posting to queue failed...", 0);
 517              		.loc 1 333 0
 518 0060 0022     		movs	r2, #0
 519 0062 0D49     		ldr	r1, .L39+20
 520 0064 0420     		movs	r0, #4
 521 0066 FFF7FEFF 		bl	Log_Write
 522              	.LVL39:
 523 006a 07E0     		b	.L32
 524              	.L35:
 334:heartbeatSensor.c ****       }
 335:heartbeatSensor.c ****     } else {
 336:heartbeatSensor.c ****       // Log a message when the SPO2 value is successfully posted to the queue
 337:heartbeatSensor.c ****       Log_Write(LOG_LEVEL_I2C, "Sent SPO2 value to processing task...", 0);
 525              		.loc 1 337 0
 526 006c 0022     		movs	r2, #0
 527 006e 0B49     		ldr	r1, .L39+24
 528 0070 2020     		movs	r0, #32
 529 0072 FFF7FEFF 		bl	Log_Write
 530              	.LVL40:
 338:heartbeatSensor.c ****       previous_spO2_rate = spO2;
 531              		.loc 1 338 0
 532 0076 039A     		ldr	r2, [sp, #12]
 533 0078 024B     		ldr	r3, .L39
 534 007a 1A60     		str	r2, [r3]
 535              	.L32:
 339:heartbeatSensor.c ****     }
 340:heartbeatSensor.c ****   }
 341:heartbeatSensor.c **** }
 536              		.loc 1 341 0
 537 007c 07B0     		add	sp, sp, #28
 538              		.cfi_def_cfa_offset 4
 539              		@ sp needed
 540 007e 5DF804FB 		ldr	pc, [sp], #4
 541              	.LVL41:
 542              	.L40:
 543 0082 00BF     		.align	2
 544              	.L39:
ARM GAS  C:\Users\batuh\AppData\Local\Temp\ccS6OjKB.s 			page 17


 545 0084 00000000 		.word	.LANCHOR1
 546 0088 4C010000 		.word	.LC8
 547 008c 00000000 		.word	CommQI2CSPO2
 548 0090 84020000 		.word	.LC14
 549 0094 D4010000 		.word	.LC10
 550 0098 EC010000 		.word	.LC11
 551 009c CC020000 		.word	.LC15
 552              		.cfi_endproc
 553              	.LFE71:
 554              		.size	enqueueSpO2, .-enqueueSpO2
 555              		.section	.text.calculateSpO2,"ax",%progbits
 556              		.align	2
 557              		.global	calculateSpO2
 558              		.thumb
 559              		.thumb_func
 560              		.type	calculateSpO2, %function
 561              	calculateSpO2:
 562              	.LFB72:
 342:heartbeatSensor.c **** 
 343:heartbeatSensor.c **** /**
 344:heartbeatSensor.c ****  * @brief Calculates oxygen saturation (SpO₂) based on AC and DC components of red and IR signals
 345:heartbeatSensor.c ****  * 
 346:heartbeatSensor.c ****  * This function estimates the SpO₂ percentage using the ratio of AC (pulsatile) and DC (steady) 
 347:heartbeatSensor.c ****  * A common empirical formula is applied to calculate SpO₂, providing an estimated percentage of 
 348:heartbeatSensor.c ****  * 
 349:heartbeatSensor.c ****  * @param ac_red AC component of the red light signal, indicating pulsatile blood flow
 350:heartbeatSensor.c ****  * @param dc_red DC component of the red light signal, representing steady background absorption
 351:heartbeatSensor.c ****  * @param ac_ir AC component of the IR signal, indicating pulsatile blood flow
 352:heartbeatSensor.c ****  * @param dc_ir DC component of the IR signal, representing steady background absorption
 353:heartbeatSensor.c ****  * 
 354:heartbeatSensor.c ****  * @return Estimated SpO₂ percentage as an integer between 0 and 100. Returns -1 if the calculati
 355:heartbeatSensor.c ****  */
 356:heartbeatSensor.c **** CPU_INT32S calculateSpO2(CPU_INT32S ac_red, CPU_INT32S dc_red, CPU_INT32S ac_ir, CPU_INT32S dc_ir) 
 563              		.loc 1 356 0
 564              		.cfi_startproc
 565              		@ args = 0, pretend = 0, frame = 0
 566              		@ frame_needed = 0, uses_anonymous_args = 0
 567              		@ link register save eliminated.
 568              	.LVL42:
 357:heartbeatSensor.c ****     // Return -1 if any DC component is zero, avoiding division by zero
 358:heartbeatSensor.c ****     if (dc_red == 0 || dc_ir == 0 || ac_ir == 0) {
 569              		.loc 1 358 0
 570 0000 F1B1     		cbz	r1, .L43
 356:heartbeatSensor.c ****     // Return -1 if any DC component is zero, avoiding division by zero
 571              		.loc 1 356 0 discriminator 1
 572 0002 10B4     		push	{r4}
 573              		.cfi_def_cfa_offset 4
 574              		.cfi_offset 4, -4
 575 0004 0C46     		mov	r4, r1
 576              		.loc 1 358 0 discriminator 1
 577 0006 F3B1     		cbz	r3, .L44
 578              		.loc 1 358 0 is_stmt 0 discriminator 2
 579 0008 02B3     		cbz	r2, .L45
 359:heartbeatSensor.c ****         return -1;
 360:heartbeatSensor.c ****     }
 361:heartbeatSensor.c **** 
 362:heartbeatSensor.c ****     // Scale AC red component by 1000 to maintain precision in the ratio calculation
ARM GAS  C:\Users\batuh\AppData\Local\Temp\ccS6OjKB.s 			page 18


 363:heartbeatSensor.c ****     CPU_INT32S scaled_ac_red = ac_red * 1000;
 580              		.loc 1 363 0 is_stmt 1
 581 000a 4FF47A71 		mov	r1, #1000
 582              	.LVL43:
 583 000e 01FB00F0 		mul	r0, r1, r0
 584              	.LVL44:
 364:heartbeatSensor.c **** 
 365:heartbeatSensor.c ****     // Calculate the ratio of AC and DC components for red and IR, a key metric for SpO₂ estimati
 366:heartbeatSensor.c ****     CPU_INT32S scaled_ratio = (scaled_ac_red * dc_ir) / (dc_red * ac_ir);
 585              		.loc 1 366 0
 586 0012 00FB03F0 		mul	r0, r0, r3
 587              	.LVL45:
 588 0016 02FB04F3 		mul	r3, r2, r4
 589              	.LVL46:
 590 001a 90FBF3F3 		sdiv	r3, r0, r3
 591              	.LVL47:
 367:heartbeatSensor.c **** 
 368:heartbeatSensor.c ****     // Calculate SpO₂ using an empirical formula. The constants 110 and 25 are derived from empir
 369:heartbeatSensor.c ****     CPU_INT32S spO2 = 110 - (25 * scaled_ratio / 1000);
 592              		.loc 1 369 0
 593 001e 03EB8303 		add	r3, r3, r3, lsl #2
 594              	.LVL48:
 595 0022 03EB8303 		add	r3, r3, r3, lsl #2
 596 0026 0B48     		ldr	r0, .L48
 597              	.LVL49:
 598 0028 80FB0320 		smull	r2, r0, r0, r3
 599              	.LVL50:
 600 002c DB17     		asrs	r3, r3, #31
 601 002e C3EBA010 		rsb	r0, r3, r0, asr #6
 602 0032 C0F16E00 		rsb	r0, r0, #110
 603              	.LVL51:
 370:heartbeatSensor.c **** 
 371:heartbeatSensor.c ****     // Return the calculated SpO₂ only if it's in the valid range (0-100%); otherwise, return -1
 372:heartbeatSensor.c ****     return (spO2 >= 0 && spO2 <= 100) ? spO2 : -1;
 604              		.loc 1 372 0
 605 0036 6428     		cmp	r0, #100
 606 0038 0AD9     		bls	.L42
 607 003a 4FF0FF30 		mov	r0, #-1
 608              	.LVL52:
 609 003e 07E0     		b	.L42
 610              	.LVL53:
 611              	.L43:
 612              		.cfi_def_cfa_offset 0
 613              		.cfi_restore 4
 359:heartbeatSensor.c ****     }
 614              		.loc 1 359 0
 615 0040 4FF0FF30 		mov	r0, #-1
 616              	.LVL54:
 373:heartbeatSensor.c **** }
 617              		.loc 1 373 0
 618 0044 7047     		bx	lr
 619              	.LVL55:
 620              	.L44:
 621              		.cfi_def_cfa_offset 4
 622              		.cfi_offset 4, -4
 359:heartbeatSensor.c ****     }
 623              		.loc 1 359 0
ARM GAS  C:\Users\batuh\AppData\Local\Temp\ccS6OjKB.s 			page 19


 624 0046 4FF0FF30 		mov	r0, #-1
 625              	.LVL56:
 626 004a 01E0     		b	.L42
 627              	.LVL57:
 628              	.L45:
 629 004c 4FF0FF30 		mov	r0, #-1
 630              	.LVL58:
 631              	.L42:
 632              		.loc 1 373 0
 633 0050 10BC     		pop	{r4}
 634              		.cfi_restore 4
 635              		.cfi_def_cfa_offset 0
 636              	.LVL59:
 637 0052 7047     		bx	lr
 638              	.L49:
 639              		.align	2
 640              	.L48:
 641 0054 D34D6210 		.word	274877907
 642              		.cfi_endproc
 643              	.LFE72:
 644              		.size	calculateSpO2, .-calculateSpO2
 645              		.section	.text.updateSpO2,"ax",%progbits
 646              		.align	2
 647              		.global	updateSpO2
 648              		.thumb
 649              		.thumb_func
 650              		.type	updateSpO2, %function
 651              	updateSpO2:
 652              	.LFB69:
 255:heartbeatSensor.c ****     // Calculate SpO₂ using the AC and DC components of red and IR signals
 653              		.loc 1 255 0
 654              		.cfi_startproc
 655              		@ args = 0, pretend = 0, frame = 0
 656              		@ frame_needed = 0, uses_anonymous_args = 0
 657 0000 08B5     		push	{r3, lr}
 658              		.cfi_def_cfa_offset 8
 659              		.cfi_offset 3, -8
 660              		.cfi_offset 14, -4
 257:heartbeatSensor.c **** 
 661              		.loc 1 257 0
 662 0002 0748     		ldr	r0, .L53
 663 0004 C36D     		ldr	r3, [r0, #92]
 664 0006 4268     		ldr	r2, [r0, #4]
 665 0008 016E     		ldr	r1, [r0, #96]
 666 000a 406E     		ldr	r0, [r0, #100]
 667 000c FFF7FEFF 		bl	calculateSpO2
 668              	.LVL60:
 669 0010 044B     		ldr	r3, .L53+4
 670 0012 5860     		str	r0, [r3, #4]
 260:heartbeatSensor.c ****         // Log the calculated SpO₂ value
 671              		.loc 1 260 0
 672 0014 B0F1FF3F 		cmp	r0, #-1
 673 0018 01D0     		beq	.L50
 265:heartbeatSensor.c ****     }
 674              		.loc 1 265 0
 675 001a FFF7FEFF 		bl	enqueueSpO2
 676              	.LVL61:
ARM GAS  C:\Users\batuh\AppData\Local\Temp\ccS6OjKB.s 			page 20


 677              	.L50:
 678 001e 08BD     		pop	{r3, pc}
 679              	.L54:
 680              		.align	2
 681              	.L53:
 682 0020 00000000 		.word	.LANCHOR0
 683 0024 00000000 		.word	.LANCHOR1
 684              		.cfi_endproc
 685              	.LFE69:
 686              		.size	updateSpO2, .-updateSpO2
 687              		.section	.text.averageDCEstimator,"ax",%progbits
 688              		.align	2
 689              		.global	averageDCEstimator
 690              		.thumb
 691              		.thumb_func
 692              		.type	averageDCEstimator, %function
 693              	averageDCEstimator:
 694              	.LFB73:
 374:heartbeatSensor.c **** 
 375:heartbeatSensor.c **** 
 376:heartbeatSensor.c **** /**
 377:heartbeatSensor.c ****  * @brief DC estimator to compute a smoothed or "average" DC component from incoming signal samples
 378:heartbeatSensor.c ****  * 
 379:heartbeatSensor.c ****  * This function gradually adjusts the DC (steady) component of the input signal, represented as a 
 380:heartbeatSensor.c ****  * towards the current sample value (x). By doing so, it acts as a low-pass filter, smoothing out a
 381:heartbeatSensor.c ****  * isolating the slowly varying or constant portion of the signal. This is particularly useful for 
 382:heartbeatSensor.c ****  * in the AC (pulsatile) component, leaving only the baseline DC level.
 383:heartbeatSensor.c ****  * 
 384:heartbeatSensor.c ****  * @param p Pointer to a running average for the DC component, which is updated with each new sampl
 385:heartbeatSensor.c ****  *          should ideally be set to the first sample value or an approximate baseline of the signa
 386:heartbeatSensor.c ****  * @param x The new sample value (e.g., a sensor reading), which will influence the running average
 387:heartbeatSensor.c ****  * 
 388:heartbeatSensor.c ****  * @return The estimated DC component after applying the filtering step, derived from the updated r
 389:heartbeatSensor.c ****  */
 390:heartbeatSensor.c **** CPU_INT16S averageDCEstimator(CPU_INT32S *p, CPU_INT32U x) {
 695              		.loc 1 390 0
 696              		.cfi_startproc
 697              		@ args = 0, pretend = 0, frame = 0
 698              		@ frame_needed = 0, uses_anonymous_args = 0
 699              		@ link register save eliminated.
 700              	.LVL62:
 391:heartbeatSensor.c ****     // 1. Scale up the input sample (x << 8), shifting its bit representation to the left by 8 bits
 392:heartbeatSensor.c ****     //    This amplifies the precision of the input sample by a factor of 256, preventing precision
 393:heartbeatSensor.c ****     //
 394:heartbeatSensor.c ****     // 2. Subtract the current running average (*p) from this scaled sample. The difference is an e
 395:heartbeatSensor.c ****     //    much the sample deviates from the running average. This deviation is essential in adjusti
 396:heartbeatSensor.c ****     //
 397:heartbeatSensor.c ****     // 3. Right-shift the difference by 1 (effectively dividing it by 2) to produce a weighted adju
 398:heartbeatSensor.c ****     //    we ensure a gradual adjustment to the running average. This makes the filter behave like 
 399:heartbeatSensor.c ****     //    any rapid changes, thus preserving only the slowly varying part of the signal.
 400:heartbeatSensor.c ****     //
 401:heartbeatSensor.c ****     // 4. Add the scaled, weighted adjustment to the running average (*p), bringing the average inc
 402:heartbeatSensor.c ****     *p += ((((CPU_INT32S)x << 8) - *p) >> 1);
 701              		.loc 1 402 0
 702 0000 0368     		ldr	r3, [r0]
 703 0002 C3EB0121 		rsb	r1, r3, r1, lsl #8
 704              	.LVL63:
ARM GAS  C:\Users\batuh\AppData\Local\Temp\ccS6OjKB.s 			page 21


 705 0006 03EB6103 		add	r3, r3, r1, asr #1
 706 000a 0360     		str	r3, [r0]
 403:heartbeatSensor.c **** 
 404:heartbeatSensor.c ****     // 5. Finally, return the current estimate of the DC component by scaling down the updated runn
 405:heartbeatSensor.c ****     //    This is achieved by right-shifting the running average by 8 bits, essentially reversing t
 406:heartbeatSensor.c ****     //    The resulting value represents the DC component of the input signal, smoothed and stabili
 407:heartbeatSensor.c ****     return (*p >> 8);
 408:heartbeatSensor.c **** }
 707              		.loc 1 408 0
 708 000c 43F30F20 		sbfx	r0, r3, #8, #16
 709              	.LVL64:
 710 0010 7047     		bx	lr
 711              		.cfi_endproc
 712              	.LFE73:
 713              		.size	averageDCEstimator, .-averageDCEstimator
 714 0012 00BF     		.section	.text.mul16,"ax",%progbits
 715              		.align	2
 716              		.global	mul16
 717              		.thumb
 718              		.thumb_func
 719              		.type	mul16, %function
 720              	mul16:
 721              	.LFB75:
 409:heartbeatSensor.c **** 
 410:heartbeatSensor.c **** 
 411:heartbeatSensor.c **** /**
 412:heartbeatSensor.c ****  * @brief Low-pass FIR filter for smoothing the AC component of the signal.
 413:heartbeatSensor.c ****  *
 414:heartbeatSensor.c ****  * This function implements a Finite Impulse Response (FIR) low-pass filter, which smooths out high
 415:heartbeatSensor.c ****  * in the AC component of a signal, preserving the low-frequency trends. The filter operates by app
 416:heartbeatSensor.c ****  * coefficients to a circular buffer of past signal samples, creating an output that reflects the o
 417:heartbeatSensor.c ****  *
 418:heartbeatSensor.c ****  * @param din Input AC signal sample, representing the latest value in the sequence to be filtered.
 419:heartbeatSensor.c ****  * @return Filtered AC component after applying the FIR filter.
 420:heartbeatSensor.c ****  */
 421:heartbeatSensor.c **** CPU_INT16S lowPassFIRFilter(CPU_INT16S din) {
 422:heartbeatSensor.c ****     static CPU_INT16S cbuf[CIRCULAR_BUFFER_SIZE]; // Circular buffer to store past samples
 423:heartbeatSensor.c ****     static CPU_INT08U offset = 0;                 // Tracks the current position in the circular bu
 424:heartbeatSensor.c ****     CPU_INT32S z = 0;                             // Accumulates the weighted sum of the filtered r
 425:heartbeatSensor.c **** 
 426:heartbeatSensor.c ****     // Store the latest input sample into the circular buffer at the current offset position
 427:heartbeatSensor.c ****     cbuf[offset] = din;
 428:heartbeatSensor.c **** 
 429:heartbeatSensor.c ****     // Apply FIR filter coefficients to the circular buffer to create a weighted sum
 430:heartbeatSensor.c ****     // The last coefficient is applied directly here to reduce loop iterations
 431:heartbeatSensor.c ****     z += mul16(FIRCoeffs[FIR_COEFF_SIZE - 1], cbuf[(offset - FIR_COEFF_SIZE + 1) & (CIRCULAR_BUFFER
 432:heartbeatSensor.c **** 
 433:heartbeatSensor.c ****     // For each FIR coefficient (except the last one applied above), calculate the product with cor
 434:heartbeatSensor.c ****     for (CPU_INT08U i = 0; i < FIR_COEFF_SIZE - 1; i++) {
 435:heartbeatSensor.c ****         // Multiply each coefficient by the corresponding sample in the circular buffer
 436:heartbeatSensor.c ****         z += mul16(FIRCoeffs[i], cbuf[(offset - i) & (CIRCULAR_BUFFER_SIZE - 1)]);
 437:heartbeatSensor.c ****     }
 438:heartbeatSensor.c **** 
 439:heartbeatSensor.c ****     // Move the offset to the next buffer position, wrapping around if necessary
 440:heartbeatSensor.c ****     offset = (offset + 1) % CIRCULAR_BUFFER_SIZE;
 441:heartbeatSensor.c **** 
 442:heartbeatSensor.c ****     // Return the final filtered output by scaling down to the original signal's range
ARM GAS  C:\Users\batuh\AppData\Local\Temp\ccS6OjKB.s 			page 22


 443:heartbeatSensor.c ****     // The shift operation (>> 15) compensates for the scaling effect of the FIR coefficients
 444:heartbeatSensor.c ****     return (z >> 15);
 445:heartbeatSensor.c **** }
 446:heartbeatSensor.c **** 
 447:heartbeatSensor.c **** 
 448:heartbeatSensor.c **** /**
 449:heartbeatSensor.c ****  * @brief Multiplies two 16-bit integers and returns a 32-bit result.
 450:heartbeatSensor.c ****  * 
 451:heartbeatSensor.c ****  * @param x First operand
 452:heartbeatSensor.c ****  * @param y Second operand
 453:heartbeatSensor.c ****  * @return Product of x and y
 454:heartbeatSensor.c ****  */
 455:heartbeatSensor.c **** CPU_INT32S mul16(CPU_INT16S x, CPU_INT16S y) {
 722              		.loc 1 455 0
 723              		.cfi_startproc
 724              		@ args = 0, pretend = 0, frame = 0
 725              		@ frame_needed = 0, uses_anonymous_args = 0
 726              		@ link register save eliminated.
 727              	.LVL65:
 456:heartbeatSensor.c ****     return ((CPU_INT32S)x * (CPU_INT32S)y);
 457:heartbeatSensor.c **** }...
 728              		.loc 1 457 0
 729 0000 01FB00F0 		mul	r0, r1, r0
 730              	.LVL66:
 731 0004 7047     		bx	lr
 732              		.cfi_endproc
 733              	.LFE75:
 734              		.size	mul16, .-mul16
 735 0006 00BF     		.section	.text.lowPassFIRFilter,"ax",%progbits
 736              		.align	2
 737              		.global	lowPassFIRFilter
 738              		.thumb
 739              		.thumb_func
 740              		.type	lowPassFIRFilter, %function
 741              	lowPassFIRFilter:
 742              	.LFB74:
 421:heartbeatSensor.c **** CPU_INT16S lowPassFIRFilter(CPU_INT16S din) {
 743              		.loc 1 421 0
 744              		.cfi_startproc
 745              		@ args = 0, pretend = 0, frame = 0
 746              		@ frame_needed = 0, uses_anonymous_args = 0
 747              	.LVL67:
 748 0000 70B5     		push	{r4, r5, r6, lr}
 749              		.cfi_def_cfa_offset 16
 750              		.cfi_offset 4, -16
 751              		.cfi_offset 5, -12
 752              		.cfi_offset 6, -8
 753              		.cfi_offset 14, -4
 754              	.LVL68:
 427:heartbeatSensor.c ****     cbuf[offset] = din;
 755              		.loc 1 427 0
 756 0002 1C4B     		ldr	r3, .L61
 757 0004 93F86860 		ldrb	r6, [r3, #104]	@ zero_extendqisi2
 758 0008 03EB4602 		add	r2, r3, r6, lsl #1
 759 000c A2F86C00 		strh	r0, [r2, #108]	@ movhi
 431:heartbeatSensor.c ****     z += mul16(FIRCoeffs[FIR_COEFF_SIZE - 1], cbuf[(offset - FIR_COEFF_SIZE + 1) & (CIRCULAR_BUFFER
 760              		.loc 1 431 0
ARM GAS  C:\Users\batuh\AppData\Local\Temp\ccS6OjKB.s 			page 23


 761 0010 A6F13102 		sub	r2, r6, #49
 762 0014 02F03102 		and	r2, r2, #49
 763 0018 03EB4203 		add	r3, r3, r2, lsl #1
 764 001c B3F96C10 		ldrsh	r1, [r3, #108]
 765 0020 40F2A920 		movw	r0, #681
 766              	.LVL69:
 767 0024 FFF7FEFF 		bl	mul16
 768              	.LVL70:
 769 0028 0546     		mov	r5, r0
 770              	.LVL71:
 771              	.LBB5:
 434:heartbeatSensor.c ****     for (CPU_INT08U i = 0; i < FIR_COEFF_SIZE - 1; i++) {
 772              		.loc 1 434 0
 773 002a 0024     		movs	r4, #0
 774 002c 0FE0     		b	.L58
 775              	.LVL72:
 776              	.L59:
 436:heartbeatSensor.c ****         z += mul16(FIRCoeffs[i], cbuf[(offset - i) & (CIRCULAR_BUFFER_SIZE - 1)]);
 777              		.loc 1 436 0 discriminator 3
 778 002e 331B     		subs	r3, r6, r4
 779 0030 03F03102 		and	r2, r3, #49
 780 0034 0F4B     		ldr	r3, .L61
 781 0036 03EB4203 		add	r3, r3, r2, lsl #1
 782 003a B3F96C10 		ldrsh	r1, [r3, #108]
 783 003e 0E4B     		ldr	r3, .L61+4
 784 0040 33F91400 		ldrsh	r0, [r3, r4, lsl #1]
 785 0044 FFF7FEFF 		bl	mul16
 786              	.LVL73:
 787 0048 0544     		add	r5, r5, r0
 788              	.LVL74:
 434:heartbeatSensor.c ****     for (CPU_INT08U i = 0; i < FIR_COEFF_SIZE - 1; i++) {
 789              		.loc 1 434 0 discriminator 3
 790 004a 0134     		adds	r4, r4, #1
 791              	.LVL75:
 792 004c E4B2     		uxtb	r4, r4
 793              	.LVL76:
 794              	.L58:
 434:heartbeatSensor.c ****     for (CPU_INT08U i = 0; i < FIR_COEFF_SIZE - 1; i++) {
 795              		.loc 1 434 0 is_stmt 0 discriminator 1
 796 004e 302C     		cmp	r4, #48
 797 0050 EDD9     		bls	.L59
 798              	.LBE5:
 440:heartbeatSensor.c ****     offset = (offset + 1) % CIRCULAR_BUFFER_SIZE;
 799              		.loc 1 440 0 is_stmt 1
 800 0052 0136     		adds	r6, r6, #1
 801 0054 094B     		ldr	r3, .L61+8
 802 0056 83FB0632 		smull	r3, r2, r3, r6
 803 005a F317     		asrs	r3, r6, #31
 804 005c C3EB2213 		rsb	r3, r3, r2, asr #4
 805 0060 3222     		movs	r2, #50
 806 0062 02FB1363 		mls	r3, r2, r3, r6
 807 0066 034A     		ldr	r2, .L61
 808 0068 82F86830 		strb	r3, [r2, #104]
 445:heartbeatSensor.c **** }
 809              		.loc 1 445 0
 810 006c 45F3CF30 		sbfx	r0, r5, #15, #16
 811 0070 70BD     		pop	{r4, r5, r6, pc}
ARM GAS  C:\Users\batuh\AppData\Local\Temp\ccS6OjKB.s 			page 24


 812              	.LVL77:
 813              	.L62:
 814 0072 00BF     		.align	2
 815              	.L61:
 816 0074 00000000 		.word	.LANCHOR0
 817 0078 00000000 		.word	.LANCHOR2
 818 007c 1F85EB51 		.word	1374389535
 819              		.cfi_endproc
 820              	.LFE74:
 821              		.size	lowPassFIRFilter, .-lowPassFIRFilter
 822              		.section	.text.processSignals,"ax",%progbits
 823              		.align	2
 824              		.global	processSignals
 825              		.thumb
 826              		.thumb_func
 827              		.type	processSignals, %function
 828              	processSignals:
 829              	.LFB67:
 156:heartbeatSensor.c **** void processSignals(CPU_INT32U raw_ir, CPU_INT32U raw_red) {
 830              		.loc 1 156 0
 831              		.cfi_startproc
 832              		@ args = 0, pretend = 0, frame = 0
 833              		@ frame_needed = 0, uses_anonymous_args = 0
 834              	.LVL78:
 835 0000 70B5     		push	{r4, r5, r6, lr}
 836              		.cfi_def_cfa_offset 16
 837              		.cfi_offset 4, -16
 838              		.cfi_offset 5, -12
 839              		.cfi_offset 6, -8
 840              		.cfi_offset 14, -4
 841 0002 0646     		mov	r6, r0
 842 0004 0D46     		mov	r5, r1
 158:heartbeatSensor.c ****     IR_DC_Signal_Current = averageDCEstimator(&ir_avg_reg, raw_ir);
 843              		.loc 1 158 0
 844 0006 0F4C     		ldr	r4, .L65
 845 0008 0146     		mov	r1, r0
 846              	.LVL79:
 847 000a 04F1D000 		add	r0, r4, #208
 848              	.LVL80:
 849 000e FFF7FEFF 		bl	averageDCEstimator
 850              	.LVL81:
 851 0012 E065     		str	r0, [r4, #92]
 161:heartbeatSensor.c ****     RED_DC_Signal_Current = averageDCEstimator(&red_avg_reg, raw_red);
 852              		.loc 1 161 0
 853 0014 2946     		mov	r1, r5
 854 0016 04F1D400 		add	r0, r4, #212
 855 001a FFF7FEFF 		bl	averageDCEstimator
 856              	.LVL82:
 857 001e 2066     		str	r0, [r4, #96]
 165:heartbeatSensor.c ****     IR_AC_Signal_Current = lowPassFIRFilter(raw_ir - IR_DC_Signal_Current);
 858              		.loc 1 165 0
 859 0020 E06D     		ldr	r0, [r4, #92]
 860 0022 301A     		subs	r0, r6, r0
 861 0024 00B2     		sxth	r0, r0
 862 0026 FFF7FEFF 		bl	lowPassFIRFilter
 863              	.LVL83:
 864 002a 6060     		str	r0, [r4, #4]
ARM GAS  C:\Users\batuh\AppData\Local\Temp\ccS6OjKB.s 			page 25


 169:heartbeatSensor.c ****     RED_AC_Signal_Current = lowPassFIRFilter(raw_red - RED_DC_Signal_Current);
 865              		.loc 1 169 0
 866 002c 206E     		ldr	r0, [r4, #96]
 867 002e 281A     		subs	r0, r5, r0
 868 0030 00B2     		sxth	r0, r0
 869 0032 FFF7FEFF 		bl	lowPassFIRFilter
 870              	.LVL84:
 871 0036 6066     		str	r0, [r4, #100]
 173:heartbeatSensor.c ****     updateHeartRate();
 872              		.loc 1 173 0
 873 0038 FFF7FEFF 		bl	updateHeartRate
 874              	.LVL85:
 176:heartbeatSensor.c ****     updateSpO2();
 875              		.loc 1 176 0
 876 003c FFF7FEFF 		bl	updateSpO2
 877              	.LVL86:
 878 0040 70BD     		pop	{r4, r5, r6, pc}
 879              	.LVL87:
 880              	.L66:
 881 0042 00BF     		.align	2
 882              	.L65:
 883 0044 00000000 		.word	.LANCHOR0
 884              		.cfi_endproc
 885              	.LFE67:
 886              		.size	processSignals, .-processSignals
 887              		.section	.text.max30102_Task,"ax",%progbits
 888              		.align	2
 889              		.thumb
 890              		.thumb_func
 891              		.type	max30102_Task, %function
 892              	max30102_Task:
 893              	.LFB66:
 104:heartbeatSensor.c **** static void max30102_Task(void *p_arg) {
 894              		.loc 1 104 0
 895              		.cfi_startproc
 896              		@ args = 0, pretend = 0, frame = 248
 897              		@ frame_needed = 0, uses_anonymous_args = 0
 898              	.LVL88:
 899 0000 00B5     		push	{lr}
 900              		.cfi_def_cfa_offset 4
 901              		.cfi_offset 14, -4
 902 0002 C1B0     		sub	sp, sp, #260
 903              		.cfi_def_cfa_offset 264
 109:heartbeatSensor.c ****     uint32_t raw_red = 0, raw_ir = 0;  // Variables to store raw red and IR readings
 904              		.loc 1 109 0
 905 0004 0023     		movs	r3, #0
 906 0006 0593     		str	r3, [sp, #20]
 907 0008 0493     		str	r3, [sp, #16]
 110:heartbeatSensor.c ****     CPU_INT08U data_len = 2;           // Expected number of samples to read from the sensor
 908              		.loc 1 110 0
 909 000a 0223     		movs	r3, #2
 910 000c 8DF80F30 		strb	r3, [sp, #15]
 114:heartbeatSensor.c ****     if (max30102_sensor_init(&max30102_handle) != 0) {
 911              		.loc 1 114 0
 912 0010 06A8     		add	r0, sp, #24
 913              	.LVL89:
 914 0012 FFF7FEFF 		bl	max30102_sensor_init
ARM GAS  C:\Users\batuh\AppData\Local\Temp\ccS6OjKB.s 			page 26


 915              	.LVL90:
 916 0016 28B1     		cbz	r0, .L68
 115:heartbeatSensor.c ****         Log_Write(LOG_LEVEL_ERROR, "Failed to initialize MAX30102 sensor", 0);
 917              		.loc 1 115 0
 918 0018 0022     		movs	r2, #0
 919 001a 1849     		ldr	r1, .L75
 920 001c 0420     		movs	r0, #4
 921 001e FFF7FEFF 		bl	Log_Write
 922              	.LVL91:
 116:heartbeatSensor.c ****         return;
 923              		.loc 1 116 0
 924 0022 28E0     		b	.L73
 925              	.L68:
 119:heartbeatSensor.c ****     Log_Write(LOG_LEVEL_I2C, "Creating message queues...", 0);
 926              		.loc 1 119 0
 927 0024 0022     		movs	r2, #0
 928 0026 1649     		ldr	r1, .L75+4
 929 0028 2020     		movs	r0, #32
 930 002a FFF7FEFF 		bl	Log_Write
 931              	.LVL92:
 120:heartbeatSensor.c ****     initMessageQueue();
 932              		.loc 1 120 0
 933 002e FFF7FEFF 		bl	initMessageQueue
 934              	.LVL93:
 935              	.L69:
 127:heartbeatSensor.c ****         if (max30102_read(&max30102_handle, &raw_red, &raw_ir, &data_len) != 0) {
 936              		.loc 1 127 0
 937 0032 0DF10F03 		add	r3, sp, #15
 938 0036 04AA     		add	r2, sp, #16
 939 0038 05A9     		add	r1, sp, #20
 940 003a 06A8     		add	r0, sp, #24
 941 003c FFF7FEFF 		bl	max30102_read
 942              	.LVL94:
 943 0040 28B1     		cbz	r0, .L70
 128:heartbeatSensor.c ****             Log_Write(LOG_LEVEL_ERROR, "Failed to read from MAX30102", 0);
 944              		.loc 1 128 0
 945 0042 0022     		movs	r2, #0
 946 0044 0F49     		ldr	r1, .L75+8
 947 0046 0420     		movs	r0, #4
 948 0048 FFF7FEFF 		bl	Log_Write
 949              	.LVL95:
 129:heartbeatSensor.c ****             continue;
 950              		.loc 1 129 0
 951 004c F1E7     		b	.L69
 952              	.L70:
 135:heartbeatSensor.c ****         if (raw_ir > INITIAL_THRESHOLD && raw_red > INITIAL_THRESHOLD) {
 953              		.loc 1 135 0
 954 004e 0498     		ldr	r0, [sp, #16]
 955 0050 0D4B     		ldr	r3, .L75+12
 956 0052 9842     		cmp	r0, r3
 957 0054 04D9     		bls	.L72
 135:heartbeatSensor.c ****         if (raw_ir > INITIAL_THRESHOLD && raw_red > INITIAL_THRESHOLD) {
 958              		.loc 1 135 0 is_stmt 0 discriminator 1
 959 0056 0599     		ldr	r1, [sp, #20]
 960 0058 9942     		cmp	r1, r3
 961 005a 01D9     		bls	.L72
 136:heartbeatSensor.c ****             processSignals(raw_ir, raw_red);
ARM GAS  C:\Users\batuh\AppData\Local\Temp\ccS6OjKB.s 			page 27


 962              		.loc 1 136 0 is_stmt 1
 963 005c FFF7FEFF 		bl	processSignals
 964              	.LVL96:
 965              	.L72:
 141:heartbeatSensor.c ****         OSTimeDlyHMSM(0, 0, 0, POLLING_DELAY_MS, OS_OPT_TIME_HMSM_STRICT, &os_err);
 966              		.loc 1 141 0
 967 0060 0DF1FE03 		add	r3, sp, #254
 968 0064 0193     		str	r3, [sp, #4]
 969 0066 0020     		movs	r0, #0
 970 0068 0090     		str	r0, [sp]
 971 006a 2623     		movs	r3, #38
 972 006c 0246     		mov	r2, r0
 973 006e 0146     		mov	r1, r0
 974 0070 FFF7FEFF 		bl	OSTimeDlyHMSM
 975              	.LVL97:
 976 0074 DDE7     		b	.L69
 977              	.L73:
 143:heartbeatSensor.c **** }
 978              		.loc 1 143 0
 979 0076 41B0     		add	sp, sp, #260
 980              		.cfi_def_cfa_offset 4
 981              		@ sp needed
 982 0078 5DF804FB 		ldr	pc, [sp], #4
 983              	.L76:
 984              		.align	2
 985              	.L75:
 986 007c F4020000 		.word	.LC16
 987 0080 1C030000 		.word	.LC17
 988 0084 38030000 		.word	.LC18
 989 0088 40420F00 		.word	1000000
 990              		.cfi_endproc
 991              	.LFE66:
 992              		.size	max30102_Task, .-max30102_Task
 993              		.comm	MAX30102_TaskStk,2048,4
 994              		.comm	MAX30102_Task_TCB,192,4
 995              		.global	heart_rate_sum
 996              		.global	heart_rate_index
 997              		.global	heart_rate_history
 998              		.global	cycle_started
 999              		.global	spO2
 1000              		.global	red_avg_reg
 1001              		.global	ir_avg_reg
 1002              		.global	RED_DC_Signal_Current
 1003              		.global	RED_AC_Signal_Current
 1004              		.global	IR_DC_Signal_Current
 1005              		.global	IR_AC_Signal_Previous
 1006              		.global	IR_AC_Signal_Current
 1007              		.global	IR_AC_Min
 1008              		.global	IR_AC_Max
 1009              		.global	last_peak_timestamp
 1010              		.comm	i2c_rx_buffer,64,4
 1011              		.comm	CommQProcessedEnvironmentData,48,4
 1012              		.comm	CommQProcessedOximeterData,48,4
 1013              		.comm	CommQSPIData,48,4
 1014              		.comm	CommQI2CHeartRate,48,4
 1015              		.comm	CommQI2CSPO2,48,4
 1016              		.comm	LedB_TaskStk,256,4
ARM GAS  C:\Users\batuh\AppData\Local\Temp\ccS6OjKB.s 			page 28


 1017              		.comm	LedB_Task_TCB,192,4
 1018              		.comm	LedG_TaskStk,256,4
 1019              		.comm	LedG_Task_TCB,192,4
 1020              		.comm	LedR_TaskStk,256,4
 1021              		.comm	LedR_Task_TCB,192,4
 1022              		.comm	BUT_Task_TCB,192,4
 1023              		.section	.rodata
 1024              		.align	2
 1025              		.set	.LANCHOR2,. + 0
 1026              		.type	FIRCoeffs, %object
 1027              		.size	FIRCoeffs, 100
 1028              	FIRCoeffs:
 1029 0000 CC00     		.short	204
 1030 0002 0501     		.short	261
 1031 0004 4001     		.short	320
 1032 0006 7B01     		.short	379
 1033 0008 B301     		.short	435
 1034 000a E601     		.short	486
 1035 000c 0F02     		.short	527
 1036 000e 2B02     		.short	555
 1037 0010 3602     		.short	566
 1038 0012 2D02     		.short	557
 1039 0014 0D02     		.short	525
 1040 0016 D601     		.short	470
 1041 0018 8701     		.short	391
 1042 001a 2101     		.short	289
 1043 001c A700     		.short	167
 1044 001e 1A00     		.short	26
 1045 0020 80FF     		.short	-128
 1046 0022 DEFE     		.short	-290
 1047 0024 38FE     		.short	-456
 1048 0026 93FD     		.short	-621
 1049 0028 F6FC     		.short	-778
 1050 002a 66FC     		.short	-922
 1051 002c EAFB     		.short	-1046
 1052 002e 87FB     		.short	-1145
 1053 0030 45FB     		.short	-1211
 1054 0032 29FB     		.short	-1239
 1055 0034 35FB     		.short	-1227
 1056 0036 6DFB     		.short	-1171
 1057 0038 D5FB     		.short	-1067
 1058 003a 6BFC     		.short	-917
 1059 003c 2FFD     		.short	-721
 1060 003e 1DFE     		.short	-483
 1061 0040 30FF     		.short	-208
 1062 0042 5800     		.short	88
 1063 0044 9101     		.short	401
 1064 0046 D102     		.short	721
 1065 0048 0F04     		.short	1039
 1066 004a 4105     		.short	1345
 1067 004c 5A06     		.short	1626
 1068 004e 4E07     		.short	1870
 1069 0050 1508     		.short	2069
 1070 0052 A308     		.short	2211
 1071 0054 F008     		.short	2288
 1072 0056 F708     		.short	2295
 1073 0058 B208     		.short	2226
ARM GAS  C:\Users\batuh\AppData\Local\Temp\ccS6OjKB.s 			page 29


 1074 005a 1D08     		.short	2077
 1075 005c 3707     		.short	1847
 1076 005e FF05     		.short	1535
 1077 0060 7804     		.short	1144
 1078 0062 A902     		.short	681
 1079              		.data
 1080              		.align	2
 1081              		.set	.LANCHOR1,. + 0
 1082              		.type	previous_spO2_rate.9717, %object
 1083              		.size	previous_spO2_rate.9717, 4
 1084              	previous_spO2_rate.9717:
 1085 0000 FFFFFFFF 		.word	-1
 1086              		.type	spO2, %object
 1087              		.size	spO2, 4
 1088              	spO2:
 1089 0004 FFFFFFFF 		.word	-1
 1090              		.section	.rodata.str1.4,"aMS",%progbits,1
 1091              		.align	2
 1092              	.LC0:
 1093 0000 4D657373 		.ascii	"Message Queue to send heart rate from I2C as Messag"
 1093      61676520 
 1093      51756575 
 1093      6520746F 
 1093      2073656E 
 1094 0033 6500     		.ascii	"e\000"
 1095 0035 000000   		.space	3
 1096              	.LC1:
 1097 0038 49324320 		.ascii	"I2C Task: I2C Message queue created successfully\000"
 1097      5461736B 
 1097      3A204932 
 1097      43204D65 
 1097      73736167 
 1098 0069 000000   		.space	3
 1099              	.LC2:
 1100 006c 4572726F 		.ascii	"Error: I2C Message Queue creation failed\000"
 1100      723A2049 
 1100      3243204D 
 1100      65737361 
 1100      67652051 
 1101 0095 000000   		.space	3
 1102              	.LC3:
 1103 0098 4D657373 		.ascii	"Message Queue to send SPO2 from I2C as Message\000"
 1103      61676520 
 1103      51756575 
 1103      6520746F 
 1103      2073656E 
 1104 00c7 00       		.space	1
 1105              	.LC4:
 1106 00c8 4D415833 		.ascii	"MAX30102 Init: Creating MAX30102 task\000"
 1106      30313032 
 1106      20496E69 
 1106      743A2043 
 1106      72656174 
 1107 00ee 0000     		.space	2
 1108              	.LC5:
 1109 00f0 4D415833 		.ascii	"MAX30102 Task\000"
 1109      30313032 
ARM GAS  C:\Users\batuh\AppData\Local\Temp\ccS6OjKB.s 			page 30


 1109      20546173 
 1109      6B00
 1110 00fe 0000     		.space	2
 1111              	.LC6:
 1112 0100 4D415833 		.ascii	"MAX30102 Task created successfully\000"
 1112      30313032 
 1112      20546173 
 1112      6B206372 
 1112      65617465 
 1113 0123 00       		.space	1
 1114              	.LC7:
 1115 0124 4572726F 		.ascii	"Error: MAX30102 Task creation failed\000"
 1115      723A204D 
 1115      41583330 
 1115      31303220 
 1115      5461736B 
 1116 0149 000000   		.space	3
 1117              	.LC8:
 1118 014c 49324320 		.ascii	"I2C Task: Value is same as previous value. Do not s"
 1118      5461736B 
 1118      3A205661 
 1118      6C756520 
 1118      69732073 
 1119 017f 656E6420 		.ascii	"end it.\000"
 1119      69742E00 
 1120 0187 00       		.space	1
 1121              	.LC9:
 1122 0188 49324320 		.ascii	"I2C Task: queue is full, can't send heart rate valu"
 1122      5461736B 
 1122      3A207175 
 1122      65756520 
 1122      69732066 
 1123 01bb 6520746F 		.ascii	"e to processing task...\000"
 1123      2070726F 
 1123      63657373 
 1123      696E6720 
 1123      7461736B 
 1124 01d3 00       		.space	1
 1125              	.LC10:
 1126 01d4 51756575 		.ascii	"Queue is flushed .. \000"
 1126      65206973 
 1126      20666C75 
 1126      73686564 
 1126      202E2E20 
 1127 01e9 000000   		.space	3
 1128              	.LC11:
 1129 01ec 4572726F 		.ascii	"Error occurred at I2C Task, posting to queue failed"
 1129      72206F63 
 1129      63757272 
 1129      65642061 
 1129      74204932 
 1130 021f 2E2E2E00 		.ascii	"...\000"
 1131 0223 00       		.space	1
 1132              	.LC12:
 1133 0224 53656E74 		.ascii	"Sent heart rate value to processing task...\000"
 1133      20686561 
 1133      72742072 
ARM GAS  C:\Users\batuh\AppData\Local\Temp\ccS6OjKB.s 			page 31


 1133      61746520 
 1133      76616C75 
 1134              	.LC13:
 1135 0250 48656172 		.ascii	"Heart Rate: %d BPM, Average Heart Rate: %d BPM\015\012"
 1135      74205261 
 1135      74653A20 
 1135      25642042 
 1135      504D2C20 
 1136 0280 00       		.ascii	"\000"
 1137 0281 000000   		.space	3
 1138              	.LC14:
 1139 0284 49324320 		.ascii	"I2C Task: queue is full, can't send SPO2 value to p"
 1139      5461736B 
 1139      3A207175 
 1139      65756520 
 1139      69732066 
 1140 02b7 726F6365 		.ascii	"rocessing task...\000"
 1140      7373696E 
 1140      67207461 
 1140      736B2E2E 
 1140      2E00
 1141 02c9 000000   		.space	3
 1142              	.LC15:
 1143 02cc 53656E74 		.ascii	"Sent SPO2 value to processing task...\000"
 1143      2053504F 
 1143      32207661 
 1143      6C756520 
 1143      746F2070 
 1144 02f2 0000     		.space	2
 1145              	.LC16:
 1146 02f4 4661696C 		.ascii	"Failed to initialize MAX30102 sensor\000"
 1146      65642074 
 1146      6F20696E 
 1146      69746961 
 1146      6C697A65 
 1147 0319 000000   		.space	3
 1148              	.LC17:
 1149 031c 43726561 		.ascii	"Creating message queues...\000"
 1149      74696E67 
 1149      206D6573 
 1149      73616765 
 1149      20717565 
 1150 0337 00       		.space	1
 1151              	.LC18:
 1152 0338 4661696C 		.ascii	"Failed to read from MAX30102\000"
 1152      65642074 
 1152      6F207265 
 1152      61642066 
 1152      726F6D20 
 1153              		.bss
 1154              		.align	2
 1155              		.set	.LANCHOR0,. + 0
 1156              		.type	previous_heart_rate.9712, %object
 1157              		.size	previous_heart_rate.9712, 4
 1158              	previous_heart_rate.9712:
 1159 0000 00000000 		.space	4
 1160              		.type	IR_AC_Signal_Current, %object
ARM GAS  C:\Users\batuh\AppData\Local\Temp\ccS6OjKB.s 			page 32


 1161              		.size	IR_AC_Signal_Current, 4
 1162              	IR_AC_Signal_Current:
 1163 0004 00000000 		.space	4
 1164              		.type	IR_AC_Signal_Previous, %object
 1165              		.size	IR_AC_Signal_Previous, 4
 1166              	IR_AC_Signal_Previous:
 1167 0008 00000000 		.space	4
 1168              		.type	last_peak_timestamp, %object
 1169              		.size	last_peak_timestamp, 4
 1170              	last_peak_timestamp:
 1171 000c 00000000 		.space	4
 1172              		.type	cycle_started, %object
 1173              		.size	cycle_started, 1
 1174              	cycle_started:
 1175 0010 00       		.space	1
 1176 0011 000000   		.space	3
 1177              		.type	IR_AC_Min, %object
 1178              		.size	IR_AC_Min, 4
 1179              	IR_AC_Min:
 1180 0014 00000000 		.space	4
 1181              		.type	heart_rate_index, %object
 1182              		.size	heart_rate_index, 4
 1183              	heart_rate_index:
 1184 0018 00000000 		.space	4
 1185              		.type	heart_rate_history, %object
 1186              		.size	heart_rate_history, 60
 1187              	heart_rate_history:
 1188 001c 00000000 		.space	60
 1188      00000000 
 1188      00000000 
 1188      00000000 
 1188      00000000 
 1189              		.type	heart_rate_sum, %object
 1190              		.size	heart_rate_sum, 4
 1191              	heart_rate_sum:
 1192 0058 00000000 		.space	4
 1193              		.type	IR_DC_Signal_Current, %object
 1194              		.size	IR_DC_Signal_Current, 4
 1195              	IR_DC_Signal_Current:
 1196 005c 00000000 		.space	4
 1197              		.type	RED_DC_Signal_Current, %object
 1198              		.size	RED_DC_Signal_Current, 4
 1199              	RED_DC_Signal_Current:
 1200 0060 00000000 		.space	4
 1201              		.type	RED_AC_Signal_Current, %object
 1202              		.size	RED_AC_Signal_Current, 4
 1203              	RED_AC_Signal_Current:
 1204 0064 00000000 		.space	4
 1205              		.type	offset.9736, %object
 1206              		.size	offset.9736, 1
 1207              	offset.9736:
 1208 0068 00       		.space	1
 1209 0069 000000   		.space	3
 1210              		.type	cbuf.9735, %object
 1211              		.size	cbuf.9735, 100
 1212              	cbuf.9735:
 1213 006c 00000000 		.space	100
ARM GAS  C:\Users\batuh\AppData\Local\Temp\ccS6OjKB.s 			page 33


 1213      00000000 
 1213      00000000 
 1213      00000000 
 1213      00000000 
 1214              		.type	ir_avg_reg, %object
 1215              		.size	ir_avg_reg, 4
 1216              	ir_avg_reg:
 1217 00d0 00000000 		.space	4
 1218              		.type	red_avg_reg, %object
 1219              		.size	red_avg_reg, 4
 1220              	red_avg_reg:
 1221 00d4 00000000 		.space	4
 1222              		.type	IR_AC_Max, %object
 1223              		.size	IR_AC_Max, 4
 1224              	IR_AC_Max:
 1225 00d8 00000000 		.space	4
 1226              		.text
 1227              	.Letext0:
 1228              		.file 2 ".\\uC-CPU\\ARM-Cortex-M3\\GNU/cpu.h"
 1229              		.file 3 "c:\\program files (x86)\\cypress\\psoc creator\\4.4\\psoc creator\\import\\gnu\\arm\\5.4.
 1230              		.file 4 "c:\\program files (x86)\\cypress\\psoc creator\\4.4\\psoc creator\\import\\gnu\\arm\\5.4.
 1231              		.file 5 ".\\uC-CPU/cpu_core.h"
 1232              		.file 6 ".\\uCOS-III\\Source/os_type.h"
 1233              		.file 7 ".\\uCOS-III\\Source/os.h"
 1234              		.file 8 ".\\SensorLib\\max30102/driver_max30102.h"
 1235              		.file 9 "heartbeatSensor.h"
 1236              		.file 10 "Generated_Source\\PSoC5/core_cm3.h"
 1237              		.file 11 "./bsp_gpio.h"
 1238              		.file 12 "bsp_i2c.h"
 1239              		.file 13 "data_processing_task.h"
 1240              		.file 14 "./log_task.h"
 1241              		.file 15 "c:\\program files (x86)\\cypress\\psoc creator\\4.4\\psoc creator\\import\\gnu\\arm\\5.4
 1242              		.file 16 "Generated_Source\\PSoC5/UART_1.h"
 1243              		.file 17 "max30102_interface.h"