ARM GAS  C:\Users\CHRONI~1\AppData\Local\Temp\ccEPIdpa.s 			page 1


   1              		.syntax unified
   2              		.cpu cortex-m3
   3              		.fpu softvfp
   4              		.eabi_attribute 20, 1
   5              		.eabi_attribute 21, 1
   6              		.eabi_attribute 23, 3
   7              		.eabi_attribute 24, 1
   8              		.eabi_attribute 25, 1
   9              		.eabi_attribute 26, 1
  10              		.eabi_attribute 30, 1
  11              		.eabi_attribute 34, 1
  12              		.eabi_attribute 18, 4
  13              		.thumb
  14              		.syntax unified
  15              		.file	"log_task.c"
  16              		.text
  17              	.Ltext0:
  18              		.cfi_sections	.debug_frame
  19              		.section	.text.Log_LevelToString,"ax",%progbits
  20              		.align	2
  21              		.thumb
  22              		.thumb_func
  23              		.type	Log_LevelToString, %function
  24              	Log_LevelToString:
  25              	.LFB65:
  26              		.file 1 "log_task.c"
   1:log_task.c    **** #include "log_task.h"
   2:log_task.c    **** #include <app_cfg.h>
   3:log_task.c    **** #include <stdio.h>  /* For snprintf */
   4:log_task.c    **** 
   5:log_task.c    **** /* Global variables */
   6:log_task.c    **** CPU_INT08U allowed_log_types = LOG_ALLOWED_LEVELS;  /* Bitmask for allowed log types */
   7:log_task.c    **** 
   8:log_task.c    **** /* Task Control Block and Stack */
   9:log_task.c    **** OS_TCB Log_Task_TCB;
  10:log_task.c    **** CPU_STK Log_TaskStk[APP_CFG_TASK_LOG_STK_SIZE];
  11:log_task.c    **** 
  12:log_task.c    **** /* Message queue for logs */
  13:log_task.c    **** OS_Q Log_Queue;
  14:log_task.c    **** OS_SEM LogTaskSem;
  15:log_task.c    **** 
  16:log_task.c    **** /* Message memory pool for logs */
  17:log_task.c    **** OS_MEM MsgMemPool;
  18:log_task.c    **** CPU_CHAR MsgMemPoolStorage[MESSAGE_POOL_SIZE][MESSAGE_SIZE];
  19:log_task.c    **** 
  20:log_task.c    **** /* Log task that handles UART output - forward declaration */
  21:log_task.c    **** static void Log_Task(void *p_arg);
  22:log_task.c    **** 
  23:log_task.c    **** /* Helper function to print error messages directly via UART */
  24:log_task.c    **** static void Log_PrintErrorWithCode(const char *msg, OS_ERR err_code)
  25:log_task.c    **** {
  26:log_task.c    ****     char buffer[LOG_MSG_SIZE];
  27:log_task.c    ****     snprintf(buffer, sizeof(buffer), "%s (Error Code: %u)", msg, err_code);  // Print error code as
  28:log_task.c    ****     UART_1_PutString(buffer);
  29:log_task.c    ****     UART_1_PutString("\r\n");
  30:log_task.c    **** }
  31:log_task.c    **** 
ARM GAS  C:\Users\CHRONI~1\AppData\Local\Temp\ccEPIdpa.s 			page 2


  32:log_task.c    **** /* Helper function to convert log level to string */
  33:log_task.c    **** static const char* Log_LevelToString(CPU_INT08U level)
  34:log_task.c    **** {
  27              		.loc 1 34 0
  28              		.cfi_startproc
  29              		@ args = 0, pretend = 0, frame = 0
  30              		@ frame_needed = 0, uses_anonymous_args = 0
  31              		@ link register save eliminated.
  32              	.LVL0:
  35:log_task.c    ****     switch (level) {
  33              		.loc 1 35 0
  34 0000 0828     		cmp	r0, #8
  35 0002 1BD0     		beq	.L3
  36 0004 07D8     		bhi	.L4
  37 0006 0128     		cmp	r0, #1
  38 0008 26D0     		beq	.L15
  39 000a 88B1     		cbz	r0, .L6
  40 000c 0228     		cmp	r0, #2
  41 000e 11D0     		beq	.L7
  42 0010 0428     		cmp	r0, #4
  43 0012 11D0     		beq	.L8
  44 0014 1EE0     		b	.L2
  45              	.L4:
  46 0016 3028     		cmp	r0, #48
  47 0018 1AD0     		beq	.L9
  48 001a 04D8     		bhi	.L10
  49 001c 1028     		cmp	r0, #16
  50 001e 0FD0     		beq	.L11
  51 0020 2028     		cmp	r0, #32
  52 0022 0FD0     		beq	.L12
  53 0024 16E0     		b	.L2
  54              	.L10:
  55 0026 4028     		cmp	r0, #64
  56 0028 0ED0     		beq	.L13
  57 002a 8028     		cmp	r0, #128
  58 002c 0ED0     		beq	.L14
  59 002e 11E0     		b	.L2
  60              	.L6:
  36:log_task.c    ****         case LOG_LEVEL_NONE:              return "NONE";
  61              		.loc 1 36 0
  62 0030 0A48     		ldr	r0, .L16
  63              	.LVL1:
  64 0032 7047     		bx	lr
  65              	.LVL2:
  66              	.L7:
  37:log_task.c    ****         case LOG_LEVEL_INFO:              return "INFO";
  38:log_task.c    ****         case LOG_LEVEL_WARNING:           return "WARNING";
  67              		.loc 1 38 0
  68 0034 0A48     		ldr	r0, .L16+4
  69              	.LVL3:
  70 0036 7047     		bx	lr
  71              	.LVL4:
  72              	.L8:
  39:log_task.c    ****         case LOG_LEVEL_ERROR:             return "ERROR";
  73              		.loc 1 39 0
  74 0038 0A48     		ldr	r0, .L16+8
  75              	.LVL5:
ARM GAS  C:\Users\CHRONI~1\AppData\Local\Temp\ccEPIdpa.s 			page 3


  76 003a 7047     		bx	lr
  77              	.LVL6:
  78              	.L3:
  40:log_task.c    ****         case LOG_LEVEL_DEBUG:             return "DEBUG";
  79              		.loc 1 40 0
  80 003c 0A48     		ldr	r0, .L16+12
  81              	.LVL7:
  82 003e 7047     		bx	lr
  83              	.LVL8:
  84              	.L11:
  41:log_task.c    ****         case LOG_LEVEL_SPI:               return "SPI LOGGING";
  85              		.loc 1 41 0
  86 0040 0A48     		ldr	r0, .L16+16
  87              	.LVL9:
  88 0042 7047     		bx	lr
  89              	.LVL10:
  90              	.L12:
  42:log_task.c    ****         case LOG_LEVEL_I2C:               return "I2C LOGGING";
  91              		.loc 1 42 0
  92 0044 0A48     		ldr	r0, .L16+20
  93              	.LVL11:
  94 0046 7047     		bx	lr
  95              	.LVL12:
  96              	.L13:
  43:log_task.c    ****         case LOG_LEVEL_MAX30102:          return "MAX30102 LOGGING";
  97              		.loc 1 43 0
  98 0048 0A48     		ldr	r0, .L16+24
  99              	.LVL13:
 100 004a 7047     		bx	lr
 101              	.LVL14:
 102              	.L14:
  44:log_task.c    ****         case LOG_LEVEL_BME688:            return "BME688 LOGGING";
 103              		.loc 1 44 0
 104 004c 0A48     		ldr	r0, .L16+28
 105              	.LVL15:
 106 004e 7047     		bx	lr
 107              	.LVL16:
 108              	.L9:
  45:log_task.c    ****         case LOG_LEVEL_DATA_PROCESSING:   return "DATA PROCESSING LOGGING";
 109              		.loc 1 45 0
 110 0050 0A48     		ldr	r0, .L16+32
 111              	.LVL17:
 112 0052 7047     		bx	lr
 113              	.LVL18:
 114              	.L2:
  46:log_task.c    ****         default:                          return "UNKNOWN";
 115              		.loc 1 46 0
 116 0054 0A48     		ldr	r0, .L16+36
 117              	.LVL19:
 118 0056 7047     		bx	lr
 119              	.LVL20:
 120              	.L15:
  37:log_task.c    ****         case LOG_LEVEL_WARNING:           return "WARNING";
 121              		.loc 1 37 0
 122 0058 0A48     		ldr	r0, .L16+40
 123              	.LVL21:
  47:log_task.c    ****     }
ARM GAS  C:\Users\CHRONI~1\AppData\Local\Temp\ccEPIdpa.s 			page 4


  48:log_task.c    **** }
 124              		.loc 1 48 0
 125 005a 7047     		bx	lr
 126              	.L17:
 127              		.align	2
 128              	.L16:
 129 005c 00000000 		.word	.LC0
 130 0060 10000000 		.word	.LC2
 131 0064 18000000 		.word	.LC3
 132 0068 20000000 		.word	.LC4
 133 006c 28000000 		.word	.LC5
 134 0070 34000000 		.word	.LC6
 135 0074 40000000 		.word	.LC7
 136 0078 54000000 		.word	.LC8
 137 007c 64000000 		.word	.LC9
 138 0080 7C000000 		.word	.LC10
 139 0084 08000000 		.word	.LC1
 140              		.cfi_endproc
 141              	.LFE65:
 142              		.size	Log_LevelToString, .-Log_LevelToString
 143              		.section	.text.Log_PrintErrorWithCode,"ax",%progbits
 144              		.align	2
 145              		.thumb
 146              		.thumb_func
 147              		.type	Log_PrintErrorWithCode, %function
 148              	Log_PrintErrorWithCode:
 149              	.LFB64:
  25:log_task.c    ****     char buffer[LOG_MSG_SIZE];
 150              		.loc 1 25 0
 151              		.cfi_startproc
 152              		@ args = 0, pretend = 0, frame = 80
 153              		@ frame_needed = 0, uses_anonymous_args = 0
 154              	.LVL22:
 155 0000 00B5     		push	{lr}
 156              		.cfi_def_cfa_offset 4
 157              		.cfi_offset 14, -4
 158 0002 97B0     		sub	sp, sp, #92
 159              		.cfi_def_cfa_offset 96
  27:log_task.c    ****     UART_1_PutString(buffer);
 160              		.loc 1 27 0
 161 0004 0091     		str	r1, [sp]
 162 0006 0346     		mov	r3, r0
 163 0008 064A     		ldr	r2, .L20
 164 000a 5021     		movs	r1, #80
 165              	.LVL23:
 166 000c 02A8     		add	r0, sp, #8
 167              	.LVL24:
 168 000e FFF7FEFF 		bl	snprintf
 169              	.LVL25:
  28:log_task.c    ****     UART_1_PutString("\r\n");
 170              		.loc 1 28 0
 171 0012 02A8     		add	r0, sp, #8
 172 0014 FFF7FEFF 		bl	UART_1_PutString
 173              	.LVL26:
  29:log_task.c    **** }
 174              		.loc 1 29 0
 175 0018 0348     		ldr	r0, .L20+4
ARM GAS  C:\Users\CHRONI~1\AppData\Local\Temp\ccEPIdpa.s 			page 5


 176 001a FFF7FEFF 		bl	UART_1_PutString
 177              	.LVL27:
  30:log_task.c    **** 
 178              		.loc 1 30 0
 179 001e 17B0     		add	sp, sp, #92
 180              		.cfi_def_cfa_offset 4
 181              		@ sp needed
 182 0020 5DF804FB 		ldr	pc, [sp], #4
 183              	.L21:
 184              		.align	2
 185              	.L20:
 186 0024 84000000 		.word	.LC11
 187 0028 98000000 		.word	.LC12
 188              		.cfi_endproc
 189              	.LFE64:
 190              		.size	Log_PrintErrorWithCode, .-Log_PrintErrorWithCode
 191              		.section	.text.Log_Task,"ax",%progbits
 192              		.align	2
 193              		.thumb
 194              		.thumb_func
 195              		.type	Log_Task, %function
 196              	Log_Task:
 197              	.LFB67:
  49:log_task.c    **** 
  50:log_task.c    **** /* Function to create the Log Task */
  51:log_task.c    **** void Log_Init(void) {
  52:log_task.c    ****     OS_ERR os_err;
  53:log_task.c    **** 
  54:log_task.c    ****     /* Create the log task, but leave the initialization to the task itself */
  55:log_task.c    ****     OSTaskCreate((OS_TCB     *)&Log_Task_TCB,
  56:log_task.c    ****                  (CPU_CHAR   *)"Log Task",
  57:log_task.c    ****                  (OS_TASK_PTR )Log_Task,  
  58:log_task.c    ****                  (void       *)0,
  59:log_task.c    ****                  (OS_PRIO     )APP_CFG_TASK_LOG_PRIO,
  60:log_task.c    ****                  (CPU_STK    *)&Log_TaskStk[0],
  61:log_task.c    ****                  (CPU_STK_SIZE)APP_CFG_TASK_LOG_STK_SIZE_LIMIT,
  62:log_task.c    ****                  (CPU_STK_SIZE)APP_CFG_TASK_LOG_STK_SIZE,
  63:log_task.c    ****                  (OS_MSG_QTY  )0u,
  64:log_task.c    ****                  (OS_TICK     )0u,
  65:log_task.c    ****                  (void       *)0,
  66:log_task.c    ****                  (OS_OPT      )(OS_OPT_TASK_STK_CHK | OS_OPT_TASK_STK_CLR),
  67:log_task.c    ****                  (OS_ERR     *)&os_err);
  68:log_task.c    **** 
  69:log_task.c    **** 
  70:log_task.c    ****     if (os_err != OS_ERR_NONE) { Log_PrintErrorWithCode("Error: Failed to create log task", os_err)
  71:log_task.c    ****     }
  72:log_task.c    **** }
  73:log_task.c    **** 
  74:log_task.c    **** /* Log task that handles memory allocation and message processing */
  75:log_task.c    **** static void Log_Task(void *p_arg)
  76:log_task.c    **** {
 198              		.loc 1 76 0
 199              		.cfi_startproc
 200              		@ args = 0, pretend = 0, frame = 8
 201              		@ frame_needed = 0, uses_anonymous_args = 0
 202              	.LVL28:
 203 0000 10B5     		push	{r4, lr}
ARM GAS  C:\Users\CHRONI~1\AppData\Local\Temp\ccEPIdpa.s 			page 6


 204              		.cfi_def_cfa_offset 8
 205              		.cfi_offset 4, -8
 206              		.cfi_offset 14, -4
 207 0002 84B0     		sub	sp, sp, #16
 208              		.cfi_def_cfa_offset 24
  77:log_task.c    ****     OS_ERR os_err;
  78:log_task.c    ****     OS_MSG_SIZE msg_size;
  79:log_task.c    ****     CPU_TS ts;
  80:log_task.c    ****     LOG_MSG *p_msg;
  81:log_task.c    **** 
  82:log_task.c    ****     (void)p_arg;
  83:log_task.c    **** 
  84:log_task.c    ****     /* Memory pool creation in the task */
  85:log_task.c    ****     OSMemCreate(&MsgMemPool, "Log Message Pool", (void *)MsgMemPoolStorage, MESSAGE_POOL_SIZE, MESS
 209              		.loc 1 85 0
 210 0004 0DF10E03 		add	r3, sp, #14
 211 0008 0193     		str	r3, [sp, #4]
 212 000a 5423     		movs	r3, #84
 213 000c 0093     		str	r3, [sp]
 214 000e 294A     		ldr	r2, .L30
 215 0010 2949     		ldr	r1, .L30+4
 216 0012 2A48     		ldr	r0, .L30+8
 217              	.LVL29:
 218 0014 FFF7FEFF 		bl	OSMemCreate
 219              	.LVL30:
  86:log_task.c    ****     if (os_err != OS_ERR_NONE) {
 220              		.loc 1 86 0
 221 0018 BDF80E10 		ldrh	r1, [sp, #14]
 222 001c 19B1     		cbz	r1, .L23
  87:log_task.c    ****         Log_PrintErrorWithCode("Error: Failed to create log message pool", os_err);
 223              		.loc 1 87 0
 224 001e 2848     		ldr	r0, .L30+12
 225 0020 FFF7FEFF 		bl	Log_PrintErrorWithCode
 226              	.LVL31:
  88:log_task.c    ****         return;
 227              		.loc 1 88 0
 228 0024 44E0     		b	.L22
 229              	.L23:
  89:log_task.c    ****     }
  90:log_task.c    ****     
  91:log_task.c    ****     /* Queue creation in the task */
  92:log_task.c    ****     OSQCreate(&Log_Queue, "Log Queue", LOG_QUEUE_SIZE, &os_err);
 230              		.loc 1 92 0
 231 0026 0DF10E03 		add	r3, sp, #14
 232 002a 6422     		movs	r2, #100
 233 002c 2549     		ldr	r1, .L30+16
 234 002e 2648     		ldr	r0, .L30+20
 235 0030 FFF7FEFF 		bl	OSQCreate
 236              	.LVL32:
  93:log_task.c    ****     if (os_err != OS_ERR_NONE) {
 237              		.loc 1 93 0
 238 0034 BDF80E10 		ldrh	r1, [sp, #14]
 239 0038 19B1     		cbz	r1, .L25
  94:log_task.c    ****         Log_PrintErrorWithCode("Error: Failed to create log queue", os_err);
 240              		.loc 1 94 0
 241 003a 2448     		ldr	r0, .L30+24
 242 003c FFF7FEFF 		bl	Log_PrintErrorWithCode
ARM GAS  C:\Users\CHRONI~1\AppData\Local\Temp\ccEPIdpa.s 			page 7


 243              	.LVL33:
  95:log_task.c    ****         return;
 244              		.loc 1 95 0
 245 0040 36E0     		b	.L22
 246              	.L25:
  96:log_task.c    ****     }
  97:log_task.c    ****     OSSemPost(&LogTaskSem, OS_OPT_POST_1, &os_err);
 247              		.loc 1 97 0
 248 0042 0DF10E02 		add	r2, sp, #14
 249 0046 0021     		movs	r1, #0
 250 0048 2148     		ldr	r0, .L30+28
 251 004a FFF7FEFF 		bl	OSSemPost
 252              	.LVL34:
 253              	.L26:
  98:log_task.c    ****     
  99:log_task.c    ****     /* Log task loop */
 100:log_task.c    ****     while (DEF_TRUE) {
 101:log_task.c    **** 
 102:log_task.c    ****         /* Wait for messages in the queue with infinite timeout */
 103:log_task.c    ****         p_msg = (LOG_MSG *)OSQPend(&Log_Queue, 0, OS_OPT_PEND_BLOCKING, &msg_size, &ts, &os_err);
 254              		.loc 1 103 0
 255 004e 0DF10E03 		add	r3, sp, #14
 256 0052 0193     		str	r3, [sp, #4]
 257 0054 02AB     		add	r3, sp, #8
 258 0056 0093     		str	r3, [sp]
 259 0058 03AB     		add	r3, sp, #12
 260 005a 0022     		movs	r2, #0
 261 005c 1146     		mov	r1, r2
 262 005e 1A48     		ldr	r0, .L30+20
 263 0060 FFF7FEFF 		bl	OSQPend
 264              	.LVL35:
 265 0064 0446     		mov	r4, r0
 266              	.LVL36:
 104:log_task.c    **** 
 105:log_task.c    ****         if (os_err == OS_ERR_NONE) {
 267              		.loc 1 105 0
 268 0066 BDF80E10 		ldrh	r1, [sp, #14]
 269 006a E9B9     		cbnz	r1, .L27
 106:log_task.c    ****             /* Output the message if its type is allowed */
 107:log_task.c    ****             if (p_msg->level & LOG_ALLOWED_LEVELS) {
 270              		.loc 1 107 0
 271 006c 0078     		ldrb	r0, [r0]	@ zero_extendqisi2
 272              	.LVL37:
 273 006e 0028     		cmp	r0, #0
 274 0070 EDD0     		beq	.L26
 108:log_task.c    ****                 /* Print the log level followed by the message */
 109:log_task.c    ****                 UART_1_PutString(Log_LevelToString(p_msg->level));
 275              		.loc 1 109 0
 276 0072 FFF7FEFF 		bl	Log_LevelToString
 277              	.LVL38:
 278 0076 FFF7FEFF 		bl	UART_1_PutString
 279              	.LVL39:
 110:log_task.c    ****                 UART_1_PutString(": ");
 280              		.loc 1 110 0
 281 007a 1648     		ldr	r0, .L30+32
 282 007c FFF7FEFF 		bl	UART_1_PutString
 283              	.LVL40:
ARM GAS  C:\Users\CHRONI~1\AppData\Local\Temp\ccEPIdpa.s 			page 8


 111:log_task.c    ****                 UART_1_PutString(p_msg->msg);
 284              		.loc 1 111 0
 285 0080 601C     		adds	r0, r4, #1
 286 0082 FFF7FEFF 		bl	UART_1_PutString
 287              	.LVL41:
 112:log_task.c    ****                 UART_1_PutString("\r\n");
 288              		.loc 1 112 0
 289 0086 1448     		ldr	r0, .L30+36
 290 0088 FFF7FEFF 		bl	UART_1_PutString
 291              	.LVL42:
 113:log_task.c    **** 
 114:log_task.c    ****                 /* Release the memory for the message after printing */
 115:log_task.c    ****                 OSMemPut(&MsgMemPool, (void *)p_msg, &os_err);
 292              		.loc 1 115 0
 293 008c 0DF10E02 		add	r2, sp, #14
 294 0090 2146     		mov	r1, r4
 295 0092 0A48     		ldr	r0, .L30+8
 296 0094 FFF7FEFF 		bl	OSMemPut
 297              	.LVL43:
 116:log_task.c    ****                 if (os_err != OS_ERR_NONE) {
 298              		.loc 1 116 0
 299 0098 BDF80E10 		ldrh	r1, [sp, #14]
 300 009c 0029     		cmp	r1, #0
 301 009e D6D0     		beq	.L26
 117:log_task.c    ****                     Log_PrintErrorWithCode("Error: Failed to release memory for log message", os_er
 302              		.loc 1 117 0
 303 00a0 0E48     		ldr	r0, .L30+40
 304 00a2 FFF7FEFF 		bl	Log_PrintErrorWithCode
 305              	.LVL44:
 306 00a6 D2E7     		b	.L26
 307              	.LVL45:
 308              	.L27:
 118:log_task.c    ****                 }
 119:log_task.c    ****             }
 120:log_task.c    ****         } else {
 121:log_task.c    ****             Log_PrintErrorWithCode("Error: Failed to retrieve message from log queue", os_err);
 309              		.loc 1 121 0
 310 00a8 0D48     		ldr	r0, .L30+44
 311              	.LVL46:
 312 00aa FFF7FEFF 		bl	Log_PrintErrorWithCode
 313              	.LVL47:
 314 00ae CEE7     		b	.L26
 315              	.LVL48:
 316              	.L22:
 122:log_task.c    ****         }
 123:log_task.c    ****     }
 124:log_task.c    **** }
 317              		.loc 1 124 0
 318 00b0 04B0     		add	sp, sp, #16
 319              		.cfi_def_cfa_offset 8
 320              		@ sp needed
 321 00b2 10BD     		pop	{r4, pc}
 322              	.L31:
 323              		.align	2
 324              	.L30:
 325 00b4 00000000 		.word	MsgMemPoolStorage
 326 00b8 9C000000 		.word	.LC13
ARM GAS  C:\Users\CHRONI~1\AppData\Local\Temp\ccEPIdpa.s 			page 9


 327 00bc 00000000 		.word	MsgMemPool
 328 00c0 B0000000 		.word	.LC14
 329 00c4 DC000000 		.word	.LC15
 330 00c8 00000000 		.word	Log_Queue
 331 00cc E8000000 		.word	.LC16
 332 00d0 00000000 		.word	LogTaskSem
 333 00d4 0C010000 		.word	.LC17
 334 00d8 98000000 		.word	.LC12
 335 00dc 10010000 		.word	.LC18
 336 00e0 40010000 		.word	.LC19
 337              		.cfi_endproc
 338              	.LFE67:
 339              		.size	Log_Task, .-Log_Task
 340              		.section	.text.Log_Init,"ax",%progbits
 341              		.align	2
 342              		.global	Log_Init
 343              		.thumb
 344              		.thumb_func
 345              		.type	Log_Init, %function
 346              	Log_Init:
 347              	.LFB66:
  51:log_task.c    ****     OS_ERR os_err;
 348              		.loc 1 51 0
 349              		.cfi_startproc
 350              		@ args = 0, pretend = 0, frame = 8
 351              		@ frame_needed = 0, uses_anonymous_args = 0
 352 0000 00B5     		push	{lr}
 353              		.cfi_def_cfa_offset 4
 354              		.cfi_offset 14, -4
 355 0002 8DB0     		sub	sp, sp, #52
 356              		.cfi_def_cfa_offset 56
  55:log_task.c    ****                  (CPU_CHAR   *)"Log Task",
 357              		.loc 1 55 0
 358 0004 0DF12E03 		add	r3, sp, #46
 359 0008 0893     		str	r3, [sp, #32]
 360 000a 0323     		movs	r3, #3
 361 000c 0793     		str	r3, [sp, #28]
 362 000e 0023     		movs	r3, #0
 363 0010 0693     		str	r3, [sp, #24]
 364 0012 0593     		str	r3, [sp, #20]
 365 0014 0493     		str	r3, [sp, #16]
 366 0016 4FF40072 		mov	r2, #512
 367 001a 0392     		str	r2, [sp, #12]
 368 001c 3322     		movs	r2, #51
 369 001e 0292     		str	r2, [sp, #8]
 370 0020 084A     		ldr	r2, .L35
 371 0022 0192     		str	r2, [sp, #4]
 372 0024 0822     		movs	r2, #8
 373 0026 0092     		str	r2, [sp]
 374 0028 074A     		ldr	r2, .L35+4
 375 002a 0849     		ldr	r1, .L35+8
 376 002c 0848     		ldr	r0, .L35+12
 377 002e FFF7FEFF 		bl	OSTaskCreate
 378              	.LVL49:
  70:log_task.c    ****     }
 379              		.loc 1 70 0
 380 0032 BDF82E10 		ldrh	r1, [sp, #46]
ARM GAS  C:\Users\CHRONI~1\AppData\Local\Temp\ccEPIdpa.s 			page 10


 381 0036 11B1     		cbz	r1, .L32
  70:log_task.c    ****     }
 382              		.loc 1 70 0 is_stmt 0 discriminator 1
 383 0038 0648     		ldr	r0, .L35+16
 384 003a FFF7FEFF 		bl	Log_PrintErrorWithCode
 385              	.LVL50:
 386              	.L32:
  72:log_task.c    **** 
 387              		.loc 1 72 0 is_stmt 1
 388 003e 0DB0     		add	sp, sp, #52
 389              		.cfi_def_cfa_offset 4
 390              		@ sp needed
 391 0040 5DF804FB 		ldr	pc, [sp], #4
 392              	.L36:
 393              		.align	2
 394              	.L35:
 395 0044 00000000 		.word	Log_TaskStk
 396 0048 00000000 		.word	Log_Task
 397 004c 74010000 		.word	.LC20
 398 0050 00000000 		.word	Log_Task_TCB
 399 0054 80010000 		.word	.LC21
 400              		.cfi_endproc
 401              	.LFE66:
 402              		.size	Log_Init, .-Log_Init
 403              		.section	.text.Log_Write,"ax",%progbits
 404              		.align	2
 405              		.global	Log_Write
 406              		.thumb
 407              		.thumb_func
 408              		.type	Log_Write, %function
 409              	Log_Write:
 410              	.LFB68:
 125:log_task.c    **** 
 126:log_task.c    **** /* Write a message to the log queue with a given severity level and optional error code */
 127:log_task.c    **** void Log_Write(CPU_INT16U level, const CPU_CHAR *msg, ...) {
 411              		.loc 1 127 0
 412              		.cfi_startproc
 413              		@ args = 4, pretend = 12, frame = 88
 414              		@ frame_needed = 0, uses_anonymous_args = 1
 415              	.LVL51:
 416 0000 0EB4     		push	{r1, r2, r3}
 417              		.cfi_def_cfa_offset 12
 418              		.cfi_offset 1, -12
 419              		.cfi_offset 2, -8
 420              		.cfi_offset 3, -4
 421 0002 F0B5     		push	{r4, r5, r6, r7, lr}
 422              		.cfi_def_cfa_offset 32
 423              		.cfi_offset 4, -32
 424              		.cfi_offset 5, -28
 425              		.cfi_offset 6, -24
 426              		.cfi_offset 7, -20
 427              		.cfi_offset 14, -16
 428 0004 98B0     		sub	sp, sp, #96
 429              		.cfi_def_cfa_offset 128
 128:log_task.c    ****     // Check if the log level is valid and allowed
 129:log_task.c    ****     if (!(level & LOG_ALLOWED_LEVELS) || (level == LOG_LEVEL_NONE)) {
 430              		.loc 1 129 0
ARM GAS  C:\Users\CHRONI~1\AppData\Local\Temp\ccEPIdpa.s 			page 11


 431 0006 10F0FF05 		ands	r5, r0, #255
 432 000a 49D0     		beq	.L37
 433              		.loc 1 129 0 is_stmt 0 discriminator 1
 434 000c 0028     		cmp	r0, #0
 435 000e 47D0     		beq	.L37
 436 0010 0446     		mov	r4, r0
 130:log_task.c    ****         return;  // Skip logging if the message type is not allowed or is NONE
 131:log_task.c    ****     }
 132:log_task.c    **** 
 133:log_task.c    ****     OS_ERR os_err;
 134:log_task.c    ****     LOG_MSG *log_msg;
 135:log_task.c    ****     CPU_CHAR formatted_msg[LOG_MSG_SIZE];
 136:log_task.c    ****        
 137:log_task.c    ****     /* Allocate memory for the log message */
 138:log_task.c    ****     log_msg = (LOG_MSG *)OSMemGet(&MsgMemPool, &os_err);
 437              		.loc 1 138 0 is_stmt 1
 438 0012 0DF15E01 		add	r1, sp, #94
 439 0016 2548     		ldr	r0, .L44
 440              	.LVL52:
 441 0018 FFF7FEFF 		bl	OSMemGet
 442              	.LVL53:
 443 001c 0646     		mov	r6, r0
 444              	.LVL54:
 139:log_task.c    ****     if (os_err != OS_ERR_NONE) {
 445              		.loc 1 139 0
 446 001e BDF85E10 		ldrh	r1, [sp, #94]
 447 0022 19B1     		cbz	r1, .L39
 140:log_task.c    ****         Log_PrintErrorWithCode("Error: Failed to allocate memory for log message", os_err);
 448              		.loc 1 140 0
 449 0024 2248     		ldr	r0, .L44+4
 450              	.LVL55:
 451 0026 FFF7FEFF 		bl	Log_PrintErrorWithCode
 452              	.LVL56:
 141:log_task.c    ****         return;
 453              		.loc 1 141 0
 454 002a 39E0     		b	.L37
 455              	.LVL57:
 456              	.L39:
 142:log_task.c    ****     }
 143:log_task.c    **** 
 144:log_task.c    ****     /* Set the log message level */
 145:log_task.c    ****     log_msg->level = level;
 457              		.loc 1 145 0
 458 002c E7B2     		uxtb	r7, r4
 459 002e 0770     		strb	r7, [r0]
 146:log_task.c    ****     if (!(level & LOG_ALLOWED_LEVELS) || level == LOG_LEVEL_NONE) {
 460              		.loc 1 146 0
 461 0030 002D     		cmp	r5, #0
 462 0032 35D0     		beq	.L37
 463              		.loc 1 146 0 is_stmt 0 discriminator 1
 464 0034 A4B3     		cbz	r4, .L37
 147:log_task.c    ****     return;  // Skip logging if the message type is not allowed
 148:log_task.c    ****     }
 149:log_task.c    ****     /* Format the message with variable arguments */
 150:log_task.c    ****     va_list args;
 151:log_task.c    ****     va_start(args, msg);
 465              		.loc 1 151 0 is_stmt 1
ARM GAS  C:\Users\CHRONI~1\AppData\Local\Temp\ccEPIdpa.s 			page 12


 466 0036 1EAB     		add	r3, sp, #120
 467 0038 0293     		str	r3, [sp, #8]
 152:log_task.c    ****     vsnprintf(formatted_msg, LOG_MSG_SIZE, msg, args);  // Use vsnprintf for variable argument form
 468              		.loc 1 152 0
 469 003a 1D9A     		ldr	r2, [sp, #116]
 470 003c 5021     		movs	r1, #80
 471 003e 03A8     		add	r0, sp, #12
 472              	.LVL58:
 473 0040 FFF7FEFF 		bl	vsnprintf
 474              	.LVL59:
 153:log_task.c    ****     va_end(args);
 154:log_task.c    **** 
 155:log_task.c    ****     strncpy(log_msg->msg, formatted_msg, LOG_MSG_SIZE - 1);
 475              		.loc 1 155 0
 476 0044 4F22     		movs	r2, #79
 477 0046 03A9     		add	r1, sp, #12
 478 0048 701C     		adds	r0, r6, #1
 479 004a FFF7FEFF 		bl	strncpy
 480              	.LVL60:
 156:log_task.c    ****     log_msg->msg[LOG_MSG_SIZE - 1] = '\0';  /* Ensure null termination */
 481              		.loc 1 156 0
 482 004e 0023     		movs	r3, #0
 483 0050 86F85030 		strb	r3, [r6, #80]
 157:log_task.c    ****     log_msg->level = level;
 484              		.loc 1 157 0
 485 0054 3770     		strb	r7, [r6]
 158:log_task.c    ****     if (!(level & LOG_ALLOWED_LEVELS) || level == LOG_LEVEL_NONE) {
 486              		.loc 1 158 0
 487 0056 1DB3     		cbz	r5, .L37
 488              		.loc 1 158 0 is_stmt 0 discriminator 1
 489 0058 14B3     		cbz	r4, .L37
 159:log_task.c    ****     return;  // Skip logging if the message type is not allowed
 160:log_task.c    ****     }
 161:log_task.c    ****     /* Post the message to the queue */
 162:log_task.c    ****     OSQPost(&Log_Queue, (void *)log_msg, sizeof(LOG_MSG), OS_OPT_POST_FIFO, &os_err);
 490              		.loc 1 162 0 is_stmt 1
 491 005a 0DF15E03 		add	r3, sp, #94
 492 005e 0093     		str	r3, [sp]
 493 0060 0023     		movs	r3, #0
 494 0062 5122     		movs	r2, #81
 495 0064 3146     		mov	r1, r6
 496 0066 1348     		ldr	r0, .L44+8
 497 0068 FFF7FEFF 		bl	OSQPost
 498              	.LVL61:
 163:log_task.c    **** 
 164:log_task.c    ****     /* Handle errors in queue posting */
 165:log_task.c    ****     if (os_err == OS_ERR_Q_FULL) {
 499              		.loc 1 165 0
 500 006c BDF85E10 		ldrh	r1, [sp, #94]
 501 0070 46F29153 		movw	r3, #26001
 502 0074 9942     		cmp	r1, r3
 503 0076 09D1     		bne	.L40
 166:log_task.c    ****         Log_PrintErrorWithCode("Error: Log queue is full", os_err);
 504              		.loc 1 166 0
 505 0078 0F48     		ldr	r0, .L44+12
 506 007a FFF7FEFF 		bl	Log_PrintErrorWithCode
 507              	.LVL62:
ARM GAS  C:\Users\CHRONI~1\AppData\Local\Temp\ccEPIdpa.s 			page 13


 167:log_task.c    ****         OSMemPut(&MsgMemPool, (void *)log_msg, &os_err);  /* Release memory on failure */
 508              		.loc 1 167 0
 509 007e 0DF15E02 		add	r2, sp, #94
 510 0082 3146     		mov	r1, r6
 511 0084 0948     		ldr	r0, .L44
 512 0086 FFF7FEFF 		bl	OSMemPut
 513              	.LVL63:
 514 008a 09E0     		b	.L37
 515              	.L40:
 168:log_task.c    ****     } else if (os_err != OS_ERR_NONE) {
 516              		.loc 1 168 0
 517 008c 41B1     		cbz	r1, .L37
 169:log_task.c    ****         Log_PrintErrorWithCode("Error: Failed to post message to log queue", os_err);
 518              		.loc 1 169 0
 519 008e 0B48     		ldr	r0, .L44+16
 520 0090 FFF7FEFF 		bl	Log_PrintErrorWithCode
 521              	.LVL64:
 170:log_task.c    ****         OSMemPut(&MsgMemPool, (void *)log_msg, &os_err);  /* Release memory on failure */
 522              		.loc 1 170 0
 523 0094 0DF15E02 		add	r2, sp, #94
 524 0098 3146     		mov	r1, r6
 525 009a 0448     		ldr	r0, .L44
 526 009c FFF7FEFF 		bl	OSMemPut
 527              	.LVL65:
 528              	.L37:
 171:log_task.c    ****     }
 172:log_task.c    **** }...
 529              		.loc 1 172 0
 530 00a0 18B0     		add	sp, sp, #96
 531              		.cfi_def_cfa_offset 32
 532              		@ sp needed
 533 00a2 BDE8F040 		pop	{r4, r5, r6, r7, lr}
 534              		.cfi_restore 14
 535              		.cfi_restore 7
 536              		.cfi_restore 6
 537              		.cfi_restore 5
 538              		.cfi_restore 4
 539              		.cfi_def_cfa_offset 12
 540 00a6 03B0     		add	sp, sp, #12
 541              		.cfi_restore 3
 542              		.cfi_restore 2
 543              		.cfi_restore 1
 544              		.cfi_def_cfa_offset 0
 545 00a8 7047     		bx	lr
 546              	.L45:
 547 00aa 00BF     		.align	2
 548              	.L44:
 549 00ac 00000000 		.word	MsgMemPool
 550 00b0 A4010000 		.word	.LC22
 551 00b4 00000000 		.word	Log_Queue
 552 00b8 D8010000 		.word	.LC23
 553 00bc F4010000 		.word	.LC24
 554              		.cfi_endproc
 555              	.LFE68:
 556              		.size	Log_Write, .-Log_Write
 557              		.comm	MsgMemPoolStorage,7056,4
 558              		.comm	MsgMemPool,32,4
ARM GAS  C:\Users\CHRONI~1\AppData\Local\Temp\ccEPIdpa.s 			page 14


 559              		.comm	LogTaskSem,40,4
 560              		.comm	Log_Queue,48,4
 561              		.comm	Log_TaskStk,2048,4
 562              		.comm	Log_Task_TCB,192,4
 563              		.global	allowed_log_types
 564              		.comm	LedG_TaskStk,256,4
 565              		.comm	LedG_Task_TCB,192,4
 566              		.comm	LedRB_TaskStk,256,4
 567              		.comm	LedRB_Task_TCB,192,4
 568              		.comm	BUT_TaskStk,256,4
 569              		.comm	BUT_Task_TCB,192,4
 570              		.comm	CommQProcessedEnvironmentData,48,4
 571              		.comm	CommQProcessedOximeterData,48,4
 572              		.comm	CommQSPIData,48,4
 573              		.comm	CommQI2CHeartRate,48,4
 574              		.comm	CommQI2CSPO2,48,4
 575              		.data
 576              		.type	allowed_log_types, %object
 577              		.size	allowed_log_types, 1
 578              	allowed_log_types:
 579 0000 FF       		.byte	-1
 580              		.section	.rodata.str1.4,"aMS",%progbits,1
 581              		.align	2
 582              	.LC0:
 583 0000 4E4F4E45 		.ascii	"NONE\000"
 583      00
 584 0005 000000   		.space	3
 585              	.LC1:
 586 0008 494E464F 		.ascii	"INFO\000"
 586      00
 587 000d 000000   		.space	3
 588              	.LC2:
 589 0010 5741524E 		.ascii	"WARNING\000"
 589      494E4700 
 590              	.LC3:
 591 0018 4552524F 		.ascii	"ERROR\000"
 591      5200
 592 001e 0000     		.space	2
 593              	.LC4:
 594 0020 44454255 		.ascii	"DEBUG\000"
 594      4700
 595 0026 0000     		.space	2
 596              	.LC5:
 597 0028 53504920 		.ascii	"SPI LOGGING\000"
 597      4C4F4747 
 597      494E4700 
 598              	.LC6:
 599 0034 49324320 		.ascii	"I2C LOGGING\000"
 599      4C4F4747 
 599      494E4700 
 600              	.LC7:
 601 0040 4D415833 		.ascii	"MAX30102 LOGGING\000"
 601      30313032 
 601      204C4F47 
 601      47494E47 
 601      00
 602 0051 000000   		.space	3
ARM GAS  C:\Users\CHRONI~1\AppData\Local\Temp\ccEPIdpa.s 			page 15


 603              	.LC8:
 604 0054 424D4536 		.ascii	"BME688 LOGGING\000"
 604      3838204C 
 604      4F474749 
 604      4E4700
 605 0063 00       		.space	1
 606              	.LC9:
 607 0064 44415441 		.ascii	"DATA PROCESSING LOGGING\000"
 607      2050524F 
 607      43455353 
 607      494E4720 
 607      4C4F4747 
 608              	.LC10:
 609 007c 554E4B4E 		.ascii	"UNKNOWN\000"
 609      4F574E00 
 610              	.LC11:
 611 0084 25732028 		.ascii	"%s (Error Code: %u)\000"
 611      4572726F 
 611      7220436F 
 611      64653A20 
 611      25752900 
 612              	.LC12:
 613 0098 0D0A00   		.ascii	"\015\012\000"
 614 009b 00       		.space	1
 615              	.LC13:
 616 009c 4C6F6720 		.ascii	"Log Message Pool\000"
 616      4D657373 
 616      61676520 
 616      506F6F6C 
 616      00
 617 00ad 000000   		.space	3
 618              	.LC14:
 619 00b0 4572726F 		.ascii	"Error: Failed to create log message pool\000"
 619      723A2046 
 619      61696C65 
 619      6420746F 
 619      20637265 
 620 00d9 000000   		.space	3
 621              	.LC15:
 622 00dc 4C6F6720 		.ascii	"Log Queue\000"
 622      51756575 
 622      6500
 623 00e6 0000     		.space	2
 624              	.LC16:
 625 00e8 4572726F 		.ascii	"Error: Failed to create log queue\000"
 625      723A2046 
 625      61696C65 
 625      6420746F 
 625      20637265 
 626 010a 0000     		.space	2
 627              	.LC17:
 628 010c 3A2000   		.ascii	": \000"
 629 010f 00       		.space	1
 630              	.LC18:
 631 0110 4572726F 		.ascii	"Error: Failed to release memory for log message\000"
 631      723A2046 
 631      61696C65 
ARM GAS  C:\Users\CHRONI~1\AppData\Local\Temp\ccEPIdpa.s 			page 16


 631      6420746F 
 631      2072656C 
 632              	.LC19:
 633 0140 4572726F 		.ascii	"Error: Failed to retrieve message from log queue\000"
 633      723A2046 
 633      61696C65 
 633      6420746F 
 633      20726574 
 634 0171 000000   		.space	3
 635              	.LC20:
 636 0174 4C6F6720 		.ascii	"Log Task\000"
 636      5461736B 
 636      00
 637 017d 000000   		.space	3
 638              	.LC21:
 639 0180 4572726F 		.ascii	"Error: Failed to create log task\000"
 639      723A2046 
 639      61696C65 
 639      6420746F 
 639      20637265 
 640 01a1 000000   		.space	3
 641              	.LC22:
 642 01a4 4572726F 		.ascii	"Error: Failed to allocate memory for log message\000"
 642      723A2046 
 642      61696C65 
 642      6420746F 
 642      20616C6C 
 643 01d5 000000   		.space	3
 644              	.LC23:
 645 01d8 4572726F 		.ascii	"Error: Log queue is full\000"
 645      723A204C 
 645      6F672071 
 645      75657565 
 645      20697320 
 646 01f1 000000   		.space	3
 647              	.LC24:
 648 01f4 4572726F 		.ascii	"Error: Failed to post message to log queue\000"
 648      723A2046 
 648      61696C65 
 648      6420746F 
 648      20706F73 
 649              		.text
 650              	.Letext0:
 651              		.file 2 "c:\\program files (x86)\\cypress\\psoc creator\\4.4\\psoc creator\\import\\gnu\\arm\\5.4.
 652              		.file 3 "c:\\program files (x86)\\cypress\\psoc creator\\4.4\\psoc creator\\import\\gnu\\arm\\5.4.
 653              		.file 4 "c:\\program files (x86)\\cypress\\psoc creator\\4.4\\psoc creator\\import\\gnu\\arm\\5.4.
 654              		.file 5 ".\\uC-CPU\\ARM-Cortex-M3\\GNU/cpu.h"
 655              		.file 6 ".\\uC-CPU/cpu_core.h"
 656              		.file 7 ".\\uCOS-III\\Source/os_type.h"
 657              		.file 8 ".\\uCOS-III\\Source/os.h"
 658              		.file 9 "<built-in>"
 659              		.file 10 "log_task.h"
 660              		.file 11 "./heartbeatSensor.h"
 661              		.file 12 "./data_processing_task.h"
 662              		.file 13 "Generated_Source\\PSoC5/core_cm3.h"
 663              		.file 14 "./gpio_tasks.h"
 664              		.file 15 "c:\\program files (x86)\\cypress\\psoc creator\\4.4\\psoc creator\\import\\gnu\\arm\\5.4
ARM GAS  C:\Users\CHRONI~1\AppData\Local\Temp\ccEPIdpa.s 			page 17


 665              		.file 16 "Generated_Source\\PSoC5/UART_1.h"
 666              		.file 17 "c:\\program files (x86)\\cypress\\psoc creator\\4.4\\psoc creator\\import\\gnu\\arm\\5.4