ARM GAS  C:\Users\CHRONI~1\AppData\Local\Temp\ccI8PN8M.s 			page 1


   1              		.syntax unified
   2              		.cpu cortex-m3
   3              		.fpu softvfp
   4              		.eabi_attribute 20, 1
   5              		.eabi_attribute 21, 1
   6              		.eabi_attribute 23, 3
   7              		.eabi_attribute 24, 1
   8              		.eabi_attribute 25, 1
   9              		.eabi_attribute 26, 1
  10              		.eabi_attribute 30, 1
  11              		.eabi_attribute 34, 1
  12              		.eabi_attribute 18, 4
  13              		.thumb
  14              		.syntax unified
  15              		.file	"max30102_interface.c"
  16              		.text
  17              	.Ltext0:
  18              		.cfi_sections	.debug_frame
  19              		.section	.text.bsp_delay_ms,"ax",%progbits
  20              		.align	2
  21              		.global	bsp_delay_ms
  22              		.thumb
  23              		.thumb_func
  24              		.type	bsp_delay_ms, %function
  25              	bsp_delay_ms:
  26              	.LFB66:
  27              		.file 1 "max30102_interface.c"
   1:max30102_interface.c **** #include "max30102_interface.h"
   2:max30102_interface.c **** #include "bsp_i2c.h"
   3:max30102_interface.c **** #include "log_task.h"
   4:max30102_interface.c **** #include "project.h"
   5:max30102_interface.c **** #include <stdarg.h>
   6:max30102_interface.c **** #define MAX30102_REG_INTERRUPT_ENABLE_1          0x02        /**< interrupt enable 1 register */
   7:max30102_interface.c **** #define MAX30102_REG_INTERRUPT_ENABLE_2          0x03        /**< interrupt enable 2 register */
   8:max30102_interface.c **** 
   9:max30102_interface.c **** /* Dummy I2C init and deinit */
  10:max30102_interface.c **** static uint8_t bsp_i2c_init(void) { 
  11:max30102_interface.c ****     Log_Write(LOG_LEVEL_I2C, "I2C init", 0);
  12:max30102_interface.c ****     return 0;  /* Return success */
  13:max30102_interface.c **** }
  14:max30102_interface.c **** 
  15:max30102_interface.c **** static uint8_t bsp_i2c_deinit(void) { 
  16:max30102_interface.c ****     Log_Write(LOG_LEVEL_I2C, "I2C deinit", 0);
  17:max30102_interface.c ****     return 0;  /* Return success */
  18:max30102_interface.c **** }
  19:max30102_interface.c **** 
  20:max30102_interface.c **** void bsp_delay_ms(uint32_t ms) {
  28              		.loc 1 20 0
  29              		.cfi_startproc
  30              		@ args = 0, pretend = 0, frame = 8
  31              		@ frame_needed = 0, uses_anonymous_args = 0
  32              	.LVL0:
  33 0000 10B5     		push	{r4, lr}
  34              		.cfi_def_cfa_offset 8
  35              		.cfi_offset 4, -8
  36              		.cfi_offset 14, -4
  37 0002 84B0     		sub	sp, sp, #16
ARM GAS  C:\Users\CHRONI~1\AppData\Local\Temp\ccI8PN8M.s 			page 2


  38              		.cfi_def_cfa_offset 24
  39 0004 0146     		mov	r1, r0
  21:max30102_interface.c ****     OS_ERR err;
  22:max30102_interface.c ****     
  23:max30102_interface.c ****     /* Convert ms to hours, minutes, seconds, and milliseconds */
  24:max30102_interface.c ****     uint32_t hours = ms / 3600000;
  40              		.loc 1 24 0
  41 0006 144B     		ldr	r3, .L4
  42 0008 A3FB0023 		umull	r2, r3, r3, r0
  43 000c 580D     		lsrs	r0, r3, #21
  44              	.LVL1:
  25:max30102_interface.c ****     ms %= 3600000;
  45              		.loc 1 25 0
  46 000e 134A     		ldr	r2, .L4+4
  47 0010 02FB1012 		mls	r2, r2, r0, r1
  48              	.LVL2:
  26:max30102_interface.c ****     uint32_t minutes = ms / 60000;
  49              		.loc 1 26 0
  50 0014 1249     		ldr	r1, .L4+8
  51 0016 A1FB0231 		umull	r3, r1, r1, r2
  52 001a 890B     		lsrs	r1, r1, #14
  53              	.LVL3:
  27:max30102_interface.c ****     ms %= 60000;
  54              		.loc 1 27 0
  55 001c 4EF66023 		movw	r3, #60000
  56 0020 03FB1123 		mls	r3, r3, r1, r2
  57              	.LVL4:
  28:max30102_interface.c ****     uint32_t seconds = ms / 1000;
  58              		.loc 1 28 0
  59 0024 0F4A     		ldr	r2, .L4+12
  60 0026 A2FB0342 		umull	r4, r2, r2, r3
  61 002a 9209     		lsrs	r2, r2, #6
  62              	.LVL5:
  29:max30102_interface.c ****     ms %= 1000;
  30:max30102_interface.c **** 
  31:max30102_interface.c ****     OSTimeDlyHMSM(hours, minutes, seconds, ms, OS_OPT_TIME_HMSM_STRICT, &err);
  63              		.loc 1 31 0
  64 002c 0DF10E04 		add	r4, sp, #14
  65 0030 0194     		str	r4, [sp, #4]
  66 0032 0024     		movs	r4, #0
  67 0034 0094     		str	r4, [sp]
  68 0036 4FF47A74 		mov	r4, #1000
  69 003a 04FB1233 		mls	r3, r4, r2, r3
  70              	.LVL6:
  71 003e 92B2     		uxth	r2, r2
  72              	.LVL7:
  73 0040 89B2     		uxth	r1, r1
  74              	.LVL8:
  75 0042 FFF7FEFF 		bl	OSTimeDlyHMSM
  76              	.LVL9:
  32:max30102_interface.c ****     
  33:max30102_interface.c ****     if (err != OS_ERR_NONE) {
  77              		.loc 1 33 0
  78 0046 BDF80E20 		ldrh	r2, [sp, #14]
  79 004a 1AB1     		cbz	r2, .L1
  34:max30102_interface.c ****         Log_Write(LOG_LEVEL_ERROR, "Error in delay function", err);
  80              		.loc 1 34 0
ARM GAS  C:\Users\CHRONI~1\AppData\Local\Temp\ccI8PN8M.s 			page 3


  81 004c 0649     		ldr	r1, .L4+16
  82 004e 0420     		movs	r0, #4
  83 0050 FFF7FEFF 		bl	Log_Write
  84              	.LVL10:
  85              	.L1:
  35:max30102_interface.c ****     }
  36:max30102_interface.c **** }
  86              		.loc 1 36 0
  87 0054 04B0     		add	sp, sp, #16
  88              		.cfi_def_cfa_offset 8
  89              		@ sp needed
  90 0056 10BD     		pop	{r4, pc}
  91              	.L5:
  92              		.align	2
  93              	.L4:
  94 0058 B17C2195 		.word	-1792967503
  95 005c 80EE3600 		.word	3600000
  96 0060 73B2E745 		.word	1172812403
  97 0064 D34D6210 		.word	274877907
  98 0068 00000000 		.word	.LC0
  99              		.cfi_endproc
 100              	.LFE66:
 101              		.size	bsp_delay_ms, .-bsp_delay_ms
 102              		.section	.text.bsp_i2c_deinit,"ax",%progbits
 103              		.align	2
 104              		.thumb
 105              		.thumb_func
 106              		.type	bsp_i2c_deinit, %function
 107              	bsp_i2c_deinit:
 108              	.LFB65:
  15:max30102_interface.c ****     Log_Write(LOG_LEVEL_I2C, "I2C deinit", 0);
 109              		.loc 1 15 0
 110              		.cfi_startproc
 111              		@ args = 0, pretend = 0, frame = 0
 112              		@ frame_needed = 0, uses_anonymous_args = 0
 113 0000 08B5     		push	{r3, lr}
 114              		.cfi_def_cfa_offset 8
 115              		.cfi_offset 3, -8
 116              		.cfi_offset 14, -4
  16:max30102_interface.c ****     return 0;  /* Return success */
 117              		.loc 1 16 0
 118 0002 0022     		movs	r2, #0
 119 0004 0249     		ldr	r1, .L8
 120 0006 2020     		movs	r0, #32
 121 0008 FFF7FEFF 		bl	Log_Write
 122              	.LVL11:
  18:max30102_interface.c **** 
 123              		.loc 1 18 0
 124 000c 0020     		movs	r0, #0
 125 000e 08BD     		pop	{r3, pc}
 126              	.L9:
 127              		.align	2
 128              	.L8:
 129 0010 18000000 		.word	.LC1
 130              		.cfi_endproc
 131              	.LFE65:
 132              		.size	bsp_i2c_deinit, .-bsp_i2c_deinit
ARM GAS  C:\Users\CHRONI~1\AppData\Local\Temp\ccI8PN8M.s 			page 4


 133              		.section	.text.bsp_i2c_init,"ax",%progbits
 134              		.align	2
 135              		.thumb
 136              		.thumb_func
 137              		.type	bsp_i2c_init, %function
 138              	bsp_i2c_init:
 139              	.LFB64:
  10:max30102_interface.c ****     Log_Write(LOG_LEVEL_I2C, "I2C init", 0);
 140              		.loc 1 10 0
 141              		.cfi_startproc
 142              		@ args = 0, pretend = 0, frame = 0
 143              		@ frame_needed = 0, uses_anonymous_args = 0
 144 0000 08B5     		push	{r3, lr}
 145              		.cfi_def_cfa_offset 8
 146              		.cfi_offset 3, -8
 147              		.cfi_offset 14, -4
  11:max30102_interface.c ****     return 0;  /* Return success */
 148              		.loc 1 11 0
 149 0002 0022     		movs	r2, #0
 150 0004 0249     		ldr	r1, .L12
 151 0006 2020     		movs	r0, #32
 152 0008 FFF7FEFF 		bl	Log_Write
 153              	.LVL12:
  13:max30102_interface.c **** 
 154              		.loc 1 13 0
 155 000c 0020     		movs	r0, #0
 156 000e 08BD     		pop	{r3, pc}
 157              	.L13:
 158              		.align	2
 159              	.L12:
 160 0010 24000000 		.word	.LC2
 161              		.cfi_endproc
 162              	.LFE64:
 163              		.size	bsp_i2c_init, .-bsp_i2c_init
 164              		.section	.text.bsp_debug_print,"ax",%progbits
 165              		.align	2
 166              		.global	bsp_debug_print
 167              		.thumb
 168              		.thumb_func
 169              		.type	bsp_debug_print, %function
 170              	bsp_debug_print:
 171              	.LFB67:
  37:max30102_interface.c **** 
  38:max30102_interface.c **** /* Debug print function compatible with driver */
  39:max30102_interface.c **** void bsp_debug_print(const char *format, ...) {
 172              		.loc 1 39 0
 173              		.cfi_startproc
 174              		@ args = 4, pretend = 16, frame = 88
 175              		@ frame_needed = 0, uses_anonymous_args = 1
 176              	.LVL13:
 177 0000 0FB4     		push	{r0, r1, r2, r3}
 178              		.cfi_def_cfa_offset 16
 179              		.cfi_offset 0, -16
 180              		.cfi_offset 1, -12
 181              		.cfi_offset 2, -8
 182              		.cfi_offset 3, -4
 183 0002 00B5     		push	{lr}
ARM GAS  C:\Users\CHRONI~1\AppData\Local\Temp\ccI8PN8M.s 			page 5


 184              		.cfi_def_cfa_offset 20
 185              		.cfi_offset 14, -20
 186 0004 97B0     		sub	sp, sp, #92
 187              		.cfi_def_cfa_offset 112
 188 0006 18AB     		add	r3, sp, #96
 189 0008 53F8042B 		ldr	r2, [r3], #4
  40:max30102_interface.c ****     char buffer[LOG_MSG_SIZE];
  41:max30102_interface.c ****     va_list args;
  42:max30102_interface.c **** 
  43:max30102_interface.c ****     va_start(args, format);
 190              		.loc 1 43 0
 191 000c 0193     		str	r3, [sp, #4]
  44:max30102_interface.c ****     vsnprintf(buffer, sizeof(buffer), format, args);
 192              		.loc 1 44 0
 193 000e 5021     		movs	r1, #80
 194 0010 02A8     		add	r0, sp, #8
 195 0012 FFF7FEFF 		bl	vsnprintf
 196              	.LVL14:
  45:max30102_interface.c ****     va_end(args);
  46:max30102_interface.c **** 
  47:max30102_interface.c ****     UART_1_PutString(buffer);  /* Output the formatted message */
 197              		.loc 1 47 0
 198 0016 02A8     		add	r0, sp, #8
 199 0018 FFF7FEFF 		bl	UART_1_PutString
 200              	.LVL15:
  48:max30102_interface.c **** }
 201              		.loc 1 48 0
 202 001c 17B0     		add	sp, sp, #92
 203              		.cfi_def_cfa_offset 20
 204              		@ sp needed
 205 001e 5DF804EB 		ldr	lr, [sp], #4
 206              		.cfi_restore 14
 207              		.cfi_def_cfa_offset 16
 208 0022 04B0     		add	sp, sp, #16
 209              		.cfi_restore 3
 210              		.cfi_restore 2
 211              		.cfi_restore 1
 212              		.cfi_restore 0
 213              		.cfi_def_cfa_offset 0
 214 0024 7047     		bx	lr
 215              		.cfi_endproc
 216              	.LFE67:
 217              		.size	bsp_debug_print, .-bsp_debug_print
 218 0026 00BF     		.section	.text.max30102_receive_callback,"ax",%progbits
 219              		.align	2
 220              		.global	max30102_receive_callback
 221              		.thumb
 222              		.thumb_func
 223              		.type	max30102_receive_callback, %function
 224              	max30102_receive_callback:
 225              	.LFB68:
  49:max30102_interface.c **** 
  50:max30102_interface.c **** void max30102_receive_callback(uint8_t type) {
 226              		.loc 1 50 0
 227              		.cfi_startproc
 228              		@ args = 0, pretend = 0, frame = 0
 229              		@ frame_needed = 0, uses_anonymous_args = 0
ARM GAS  C:\Users\CHRONI~1\AppData\Local\Temp\ccI8PN8M.s 			page 6


 230              	.LVL16:
 231 0000 08B5     		push	{r3, lr}
 232              		.cfi_def_cfa_offset 8
 233              		.cfi_offset 3, -8
 234              		.cfi_offset 14, -4
  51:max30102_interface.c ****     switch (type) {
 235              		.loc 1 51 0
 236 0002 0228     		cmp	r0, #2
 237 0004 07D0     		beq	.L18
 238 0006 0328     		cmp	r0, #3
 239 0008 09D0     		beq	.L19
 240 000a 0128     		cmp	r0, #1
 241 000c 0BD1     		bne	.L22
  52:max30102_interface.c ****         case 1:
  53:max30102_interface.c ****             UART_1_PutString("Temperature data received.\r\n");
 242              		.loc 1 53 0
 243 000e 0848     		ldr	r0, .L24
 244              	.LVL17:
 245 0010 FFF7FEFF 		bl	UART_1_PutString
 246              	.LVL18:
  54:max30102_interface.c ****             break;
 247              		.loc 1 54 0
 248 0014 08BD     		pop	{r3, pc}
 249              	.LVL19:
 250              	.L18:
  55:max30102_interface.c ****         case 2:
  56:max30102_interface.c ****             UART_1_PutString("Heart rate data received.\r\n");
 251              		.loc 1 56 0
 252 0016 0748     		ldr	r0, .L24+4
 253              	.LVL20:
 254 0018 FFF7FEFF 		bl	UART_1_PutString
 255              	.LVL21:
  57:max30102_interface.c ****             break;
 256              		.loc 1 57 0
 257 001c 08BD     		pop	{r3, pc}
 258              	.LVL22:
 259              	.L19:
  58:max30102_interface.c ****         case 3:
  59:max30102_interface.c ****             UART_1_PutString("SpO2 data received.\r\n");
 260              		.loc 1 59 0
 261 001e 0648     		ldr	r0, .L24+8
 262              	.LVL23:
 263 0020 FFF7FEFF 		bl	UART_1_PutString
 264              	.LVL24:
  60:max30102_interface.c ****             break;
 265              		.loc 1 60 0
 266 0024 08BD     		pop	{r3, pc}
 267              	.LVL25:
 268              	.L22:
  61:max30102_interface.c ****         default:
  62:max30102_interface.c ****             UART_1_PutString("Unknown data type received.\r\n");
 269              		.loc 1 62 0
 270 0026 0548     		ldr	r0, .L24+12
 271              	.LVL26:
 272 0028 FFF7FEFF 		bl	UART_1_PutString
 273              	.LVL27:
 274 002c 08BD     		pop	{r3, pc}
ARM GAS  C:\Users\CHRONI~1\AppData\Local\Temp\ccI8PN8M.s 			page 7


 275              	.L25:
 276 002e 00BF     		.align	2
 277              	.L24:
 278 0030 30000000 		.word	.LC3
 279 0034 50000000 		.word	.LC4
 280 0038 6C000000 		.word	.LC5
 281 003c 84000000 		.word	.LC6
 282              		.cfi_endproc
 283              	.LFE68:
 284              		.size	max30102_receive_callback, .-max30102_receive_callback
 285              		.section	.text.max30102_sensor_init,"ax",%progbits
 286              		.align	2
 287              		.global	max30102_sensor_init
 288              		.thumb
 289              		.thumb_func
 290              		.type	max30102_sensor_init, %function
 291              	max30102_sensor_init:
 292              	.LFB69:
  63:max30102_interface.c ****             break;
  64:max30102_interface.c ****     }
  65:max30102_interface.c **** }
  66:max30102_interface.c **** 
  67:max30102_interface.c **** 
  68:max30102_interface.c **** uint8_t max30102_sensor_init(max30102_handle_t* max30102_handle) {
 293              		.loc 1 68 0
 294              		.cfi_startproc
 295              		@ args = 0, pretend = 0, frame = 0
 296              		@ frame_needed = 0, uses_anonymous_args = 0
 297              	.LVL28:
 298 0000 38B5     		push	{r3, r4, r5, lr}
 299              		.cfi_def_cfa_offset 16
 300              		.cfi_offset 3, -16
 301              		.cfi_offset 4, -12
 302              		.cfi_offset 5, -8
 303              		.cfi_offset 14, -4
 304 0002 0446     		mov	r4, r0
  69:max30102_interface.c ****     uint8_t res;
  70:max30102_interface.c ****     
  71:max30102_interface.c ****     // Link I2C functions
  72:max30102_interface.c ****     DRIVER_MAX30102_LINK_IIC_INIT(max30102_handle, bsp_i2c_init);
 305              		.loc 1 72 0
 306 0004 5E4B     		ldr	r3, .L41
 307 0006 0360     		str	r3, [r0]
  73:max30102_interface.c ****     DRIVER_MAX30102_LINK_IIC_DEINIT(max30102_handle, bsp_i2c_deinit);
 308              		.loc 1 73 0
 309 0008 5E4B     		ldr	r3, .L41+4
 310 000a 4360     		str	r3, [r0, #4]
  74:max30102_interface.c ****     DRIVER_MAX30102_LINK_IIC_READ(max30102_handle, bsp_i2c_read);
 311              		.loc 1 74 0
 312 000c 5E4B     		ldr	r3, .L41+8
 313 000e 8360     		str	r3, [r0, #8]
  75:max30102_interface.c ****     DRIVER_MAX30102_LINK_IIC_WRITE(max30102_handle, bsp_i2c_write);
 314              		.loc 1 75 0
 315 0010 5E4B     		ldr	r3, .L41+12
 316 0012 C360     		str	r3, [r0, #12]
  76:max30102_interface.c ****     DRIVER_MAX30102_LINK_DELAY_MS(max30102_handle, bsp_delay_ms);
 317              		.loc 1 76 0
ARM GAS  C:\Users\CHRONI~1\AppData\Local\Temp\ccI8PN8M.s 			page 8


 318 0014 5E4B     		ldr	r3, .L41+16
 319 0016 4361     		str	r3, [r0, #20]
  77:max30102_interface.c ****     DRIVER_MAX30102_LINK_DEBUG_PRINT(max30102_handle, bsp_debug_print);
 320              		.loc 1 77 0
 321 0018 5E4B     		ldr	r3, .L41+20
 322 001a 8361     		str	r3, [r0, #24]
  78:max30102_interface.c ****     DRIVER_MAX30102_LINK_RECEIVE_CALLBACK(max30102_handle, max30102_receive_callback);
 323              		.loc 1 78 0
 324 001c 5E4B     		ldr	r3, .L41+24
 325 001e 0361     		str	r3, [r0, #16]
  79:max30102_interface.c ****     
  80:max30102_interface.c ****     Log_Write(LOG_LEVEL_INFO, "Initializing MAX30102 sensor...", 0);
 326              		.loc 1 80 0
 327 0020 0022     		movs	r2, #0
 328 0022 5E49     		ldr	r1, .L41+28
 329 0024 0120     		movs	r0, #1
 330              	.LVL29:
 331 0026 FFF7FEFF 		bl	Log_Write
 332              	.LVL30:
  81:max30102_interface.c ****     res = max30102_init(max30102_handle);
 333              		.loc 1 81 0
 334 002a 2046     		mov	r0, r4
 335 002c FFF7FEFF 		bl	max30102_init
 336              	.LVL31:
  82:max30102_interface.c ****     if (res != 0) {
 337              		.loc 1 82 0
 338 0030 38B1     		cbz	r0, .L27
 339 0032 0546     		mov	r5, r0
  83:max30102_interface.c ****         Log_Write(LOG_LEVEL_ERROR, "Failed to initialize MAX30102 sensor (Error Code: %d)", res);
 340              		.loc 1 83 0
 341 0034 0246     		mov	r2, r0
 342 0036 5A49     		ldr	r1, .L41+32
 343 0038 0420     		movs	r0, #4
 344              	.LVL32:
 345 003a FFF7FEFF 		bl	Log_Write
 346              	.LVL33:
  84:max30102_interface.c ****         return res;
 347              		.loc 1 84 0
 348 003e 2846     		mov	r0, r5
 349 0040 38BD     		pop	{r3, r4, r5, pc}
 350              	.LVL34:
 351              	.L27:
  85:max30102_interface.c ****     }
  86:max30102_interface.c ****     
  87:max30102_interface.c **** 
  88:max30102_interface.c **** 
  89:max30102_interface.c ****     Log_Write(LOG_LEVEL_MAX30102, "Configuring FIFO sample averaging...\r\n", 0);
 352              		.loc 1 89 0
 353 0042 0022     		movs	r2, #0
 354 0044 5749     		ldr	r1, .L41+36
 355 0046 4020     		movs	r0, #64
 356              	.LVL35:
 357 0048 FFF7FEFF 		bl	Log_Write
 358              	.LVL36:
  90:max30102_interface.c ****     res = max30102_set_fifo_sample_averaging(max30102_handle, MAX30102_SAMPLE_AVERAGING_16); // Cha
 359              		.loc 1 90 0
 360 004c 0421     		movs	r1, #4
ARM GAS  C:\Users\CHRONI~1\AppData\Local\Temp\ccI8PN8M.s 			page 9


 361 004e 2046     		mov	r0, r4
 362 0050 FFF7FEFF 		bl	max30102_set_fifo_sample_averaging
 363              	.LVL37:
  91:max30102_interface.c ****     if (res != 0) {
 364              		.loc 1 91 0
 365 0054 0546     		mov	r5, r0
 366 0056 30B1     		cbz	r0, .L29
  92:max30102_interface.c ****         Log_Write(LOG_LEVEL_ERROR, "Failed to configure FIFO sample averaging", res);
 367              		.loc 1 92 0
 368 0058 0246     		mov	r2, r0
 369 005a 5349     		ldr	r1, .L41+40
 370 005c 0420     		movs	r0, #4
 371              	.LVL38:
 372 005e FFF7FEFF 		bl	Log_Write
 373              	.LVL39:
  93:max30102_interface.c ****         return res;
 374              		.loc 1 93 0
 375 0062 2846     		mov	r0, r5
 376 0064 38BD     		pop	{r3, r4, r5, pc}
 377              	.LVL40:
 378              	.L29:
  94:max30102_interface.c ****     }
  95:max30102_interface.c ****     
  96:max30102_interface.c ****     // Set sensor mode to Multi-LED mode
  97:max30102_interface.c ****     res = max30102_set_mode(max30102_handle, MAX30102_MODE_MULTI_LED);
 379              		.loc 1 97 0
 380 0066 0721     		movs	r1, #7
 381 0068 2046     		mov	r0, r4
 382              	.LVL41:
 383 006a FFF7FEFF 		bl	max30102_set_mode
 384              	.LVL42:
  98:max30102_interface.c ****     if (res != 0) {
 385              		.loc 1 98 0
 386 006e 0546     		mov	r5, r0
 387 0070 30B1     		cbz	r0, .L30
  99:max30102_interface.c ****         Log_Write(LOG_LEVEL_ERROR, "Failed to set sensor mode (Error Code: %d)", res);
 388              		.loc 1 99 0
 389 0072 0246     		mov	r2, r0
 390 0074 4D49     		ldr	r1, .L41+44
 391 0076 0420     		movs	r0, #4
 392              	.LVL43:
 393 0078 FFF7FEFF 		bl	Log_Write
 394              	.LVL44:
 100:max30102_interface.c ****         return res;
 395              		.loc 1 100 0
 396 007c 2846     		mov	r0, r5
 397 007e 38BD     		pop	{r3, r4, r5, pc}
 398              	.LVL45:
 399              	.L30:
 101:max30102_interface.c ****     }
 102:max30102_interface.c **** 
 103:max30102_interface.c ****     // Configure SpO2 settings
 104:max30102_interface.c ****     res = max30102_set_spo2_adc_range(max30102_handle, MAX30102_SPO2_ADC_RANGE_16384);
 400              		.loc 1 104 0
 401 0080 0321     		movs	r1, #3
 402 0082 2046     		mov	r0, r4
 403              	.LVL46:
ARM GAS  C:\Users\CHRONI~1\AppData\Local\Temp\ccI8PN8M.s 			page 10


 404 0084 FFF7FEFF 		bl	max30102_set_spo2_adc_range
 405              	.LVL47:
 105:max30102_interface.c ****     if (res != 0) {
 406              		.loc 1 105 0
 407 0088 0546     		mov	r5, r0
 408 008a 30B1     		cbz	r0, .L31
 106:max30102_interface.c ****         Log_Write(LOG_LEVEL_ERROR, "Failed to configure SPO2 ADC range (Error Code: %d)", res);
 409              		.loc 1 106 0
 410 008c 0246     		mov	r2, r0
 411 008e 4849     		ldr	r1, .L41+48
 412 0090 0420     		movs	r0, #4
 413              	.LVL48:
 414 0092 FFF7FEFF 		bl	Log_Write
 415              	.LVL49:
 107:max30102_interface.c ****         return res;
 416              		.loc 1 107 0
 417 0096 2846     		mov	r0, r5
 418 0098 38BD     		pop	{r3, r4, r5, pc}
 419              	.LVL50:
 420              	.L31:
 108:max30102_interface.c ****     }
 109:max30102_interface.c **** 
 110:max30102_interface.c ****     res = max30102_set_spo2_sample_rate(max30102_handle, MAX30102_SPO2_SAMPLE_RATE_3200_HZ);
 421              		.loc 1 110 0
 422 009a 0721     		movs	r1, #7
 423 009c 2046     		mov	r0, r4
 424              	.LVL51:
 425 009e FFF7FEFF 		bl	max30102_set_spo2_sample_rate
 426              	.LVL52:
 111:max30102_interface.c ****     if (res != 0) {
 427              		.loc 1 111 0
 428 00a2 0546     		mov	r5, r0
 429 00a4 30B1     		cbz	r0, .L32
 112:max30102_interface.c ****         Log_Write(LOG_LEVEL_ERROR, "Failed to configure SPO2 sample rate (Error Code: %d)", res);
 430              		.loc 1 112 0
 431 00a6 0246     		mov	r2, r0
 432 00a8 4249     		ldr	r1, .L41+52
 433 00aa 0420     		movs	r0, #4
 434              	.LVL53:
 435 00ac FFF7FEFF 		bl	Log_Write
 436              	.LVL54:
 113:max30102_interface.c ****         return res;
 437              		.loc 1 113 0
 438 00b0 2846     		mov	r0, r5
 439 00b2 38BD     		pop	{r3, r4, r5, pc}
 440              	.LVL55:
 441              	.L32:
 114:max30102_interface.c ****     }
 115:max30102_interface.c **** 
 116:max30102_interface.c ****     res = max30102_set_adc_resolution(max30102_handle, MAX30102_ADC_RESOLUTION_18_BIT);
 442              		.loc 1 116 0
 443 00b4 0321     		movs	r1, #3
 444 00b6 2046     		mov	r0, r4
 445              	.LVL56:
 446 00b8 FFF7FEFF 		bl	max30102_set_adc_resolution
 447              	.LVL57:
 117:max30102_interface.c ****     if (res != 0) {
ARM GAS  C:\Users\CHRONI~1\AppData\Local\Temp\ccI8PN8M.s 			page 11


 448              		.loc 1 117 0
 449 00bc 0546     		mov	r5, r0
 450 00be 30B1     		cbz	r0, .L33
 118:max30102_interface.c ****         Log_Write(LOG_LEVEL_ERROR, "Failed to configure ADC resolution (Error Code: %d)", res);
 451              		.loc 1 118 0
 452 00c0 0246     		mov	r2, r0
 453 00c2 3D49     		ldr	r1, .L41+56
 454 00c4 0420     		movs	r0, #4
 455              	.LVL58:
 456 00c6 FFF7FEFF 		bl	Log_Write
 457              	.LVL59:
 119:max30102_interface.c ****         return res;
 458              		.loc 1 119 0
 459 00ca 2846     		mov	r0, r5
 460 00cc 38BD     		pop	{r3, r4, r5, pc}
 461              	.LVL60:
 462              	.L33:
 120:max30102_interface.c ****     }
 121:max30102_interface.c **** 
 122:max30102_interface.c ****     // Set LED pulse amplitudes
 123:max30102_interface.c ****     res = max30102_set_led_red_pulse_amplitude(max30102_handle, 0x7F);
 463              		.loc 1 123 0
 464 00ce 7F21     		movs	r1, #127
 465 00d0 2046     		mov	r0, r4
 466              	.LVL61:
 467 00d2 FFF7FEFF 		bl	max30102_set_led_red_pulse_amplitude
 468              	.LVL62:
 124:max30102_interface.c ****     if (res != 0) {
 469              		.loc 1 124 0
 470 00d6 0546     		mov	r5, r0
 471 00d8 30B1     		cbz	r0, .L34
 125:max30102_interface.c ****         Log_Write(LOG_LEVEL_ERROR, "Failed to set Red LED pulse amplitude (Error Code: %d)", res);
 472              		.loc 1 125 0
 473 00da 0246     		mov	r2, r0
 474 00dc 3749     		ldr	r1, .L41+60
 475 00de 0420     		movs	r0, #4
 476              	.LVL63:
 477 00e0 FFF7FEFF 		bl	Log_Write
 478              	.LVL64:
 126:max30102_interface.c ****         return res;
 479              		.loc 1 126 0
 480 00e4 2846     		mov	r0, r5
 481 00e6 38BD     		pop	{r3, r4, r5, pc}
 482              	.LVL65:
 483              	.L34:
 127:max30102_interface.c ****     }
 128:max30102_interface.c **** 
 129:max30102_interface.c ****     res = max30102_set_led_ir_pulse_amplitude(max30102_handle, 0x7F);
 484              		.loc 1 129 0
 485 00e8 7F21     		movs	r1, #127
 486 00ea 2046     		mov	r0, r4
 487              	.LVL66:
 488 00ec FFF7FEFF 		bl	max30102_set_led_ir_pulse_amplitude
 489              	.LVL67:
 130:max30102_interface.c ****     if (res != 0) {
 490              		.loc 1 130 0
 491 00f0 0546     		mov	r5, r0
ARM GAS  C:\Users\CHRONI~1\AppData\Local\Temp\ccI8PN8M.s 			page 12


 492 00f2 30B1     		cbz	r0, .L35
 131:max30102_interface.c ****         Log_Write(LOG_LEVEL_ERROR, "Failed to set IR LED pulse amplitude (Error Code: %d)", res);
 493              		.loc 1 131 0
 494 00f4 0246     		mov	r2, r0
 495 00f6 3249     		ldr	r1, .L41+64
 496 00f8 0420     		movs	r0, #4
 497              	.LVL68:
 498 00fa FFF7FEFF 		bl	Log_Write
 499              	.LVL69:
 132:max30102_interface.c ****         return res;
 500              		.loc 1 132 0
 501 00fe 2846     		mov	r0, r5
 502 0100 38BD     		pop	{r3, r4, r5, pc}
 503              	.LVL70:
 504              	.L35:
 133:max30102_interface.c ****     }
 134:max30102_interface.c **** 
 135:max30102_interface.c ****     // Configure Multi-LED slots
 136:max30102_interface.c ****     res = max30102_set_slot(max30102_handle, MAX30102_SLOT_1, MAX30102_LED_RED);
 505              		.loc 1 136 0
 506 0102 0122     		movs	r2, #1
 507 0104 0021     		movs	r1, #0
 508 0106 2046     		mov	r0, r4
 509              	.LVL71:
 510 0108 FFF7FEFF 		bl	max30102_set_slot
 511              	.LVL72:
 137:max30102_interface.c ****     if (res != 0) {
 512              		.loc 1 137 0
 513 010c 0546     		mov	r5, r0
 514 010e 30B1     		cbz	r0, .L36
 138:max30102_interface.c ****         Log_Write(LOG_LEVEL_ERROR, "Failed to set Slot 1 for Red LED (Error Code: %d)", res);
 515              		.loc 1 138 0
 516 0110 0246     		mov	r2, r0
 517 0112 2C49     		ldr	r1, .L41+68
 518 0114 0420     		movs	r0, #4
 519              	.LVL73:
 520 0116 FFF7FEFF 		bl	Log_Write
 521              	.LVL74:
 139:max30102_interface.c ****         return res;
 522              		.loc 1 139 0
 523 011a 2846     		mov	r0, r5
 524 011c 38BD     		pop	{r3, r4, r5, pc}
 525              	.LVL75:
 526              	.L36:
 140:max30102_interface.c ****     }
 141:max30102_interface.c **** 
 142:max30102_interface.c ****     res = max30102_set_slot(max30102_handle, MAX30102_SLOT_2, MAX30102_LED_IR);
 527              		.loc 1 142 0
 528 011e 0222     		movs	r2, #2
 529 0120 0121     		movs	r1, #1
 530 0122 2046     		mov	r0, r4
 531              	.LVL76:
 532 0124 FFF7FEFF 		bl	max30102_set_slot
 533              	.LVL77:
 143:max30102_interface.c ****     if (res != 0) {
 534              		.loc 1 143 0
 535 0128 0546     		mov	r5, r0
ARM GAS  C:\Users\CHRONI~1\AppData\Local\Temp\ccI8PN8M.s 			page 13


 536 012a 30B1     		cbz	r0, .L37
 144:max30102_interface.c ****         Log_Write(LOG_LEVEL_ERROR, "Failed to set Slot 2 for IR LED (Error Code: %d)", res);
 537              		.loc 1 144 0
 538 012c 0246     		mov	r2, r0
 539 012e 2649     		ldr	r1, .L41+72
 540 0130 0420     		movs	r0, #4
 541              	.LVL78:
 542 0132 FFF7FEFF 		bl	Log_Write
 543              	.LVL79:
 145:max30102_interface.c ****         return res;
 544              		.loc 1 145 0
 545 0136 2846     		mov	r0, r5
 546 0138 38BD     		pop	{r3, r4, r5, pc}
 547              	.LVL80:
 548              	.L37:
 146:max30102_interface.c ****     }
 147:max30102_interface.c ****     res = max30102_set_fifo_roll(max30102_handle, MAX30102_BOOL_TRUE);
 549              		.loc 1 147 0
 550 013a 0121     		movs	r1, #1
 551 013c 2046     		mov	r0, r4
 552              	.LVL81:
 553 013e FFF7FEFF 		bl	max30102_set_fifo_roll
 554              	.LVL82:
 148:max30102_interface.c ****     if (res != 0) {
 555              		.loc 1 148 0
 556 0142 0546     		mov	r5, r0
 557 0144 30B1     		cbz	r0, .L38
 149:max30102_interface.c ****         Log_Write(LOG_LEVEL_ERROR, "Failed to enable FIFO roll (Error Code: %d)", res);
 558              		.loc 1 149 0
 559 0146 0246     		mov	r2, r0
 560 0148 2049     		ldr	r1, .L41+76
 561 014a 0420     		movs	r0, #4
 562              	.LVL83:
 563 014c FFF7FEFF 		bl	Log_Write
 564              	.LVL84:
 150:max30102_interface.c ****         return res;
 565              		.loc 1 150 0
 566 0150 2846     		mov	r0, r5
 567 0152 38BD     		pop	{r3, r4, r5, pc}
 568              	.LVL85:
 569              	.L38:
 151:max30102_interface.c ****     }
 152:max30102_interface.c ****     // Enable interrupts
 153:max30102_interface.c ****     res = max30102_set_interrupt(max30102_handle, MAX30102_INTERRUPT_PPG_RDY_EN, MAX30102_BOOL_TRUE
 570              		.loc 1 153 0
 571 0154 0122     		movs	r2, #1
 572 0156 0621     		movs	r1, #6
 573 0158 2046     		mov	r0, r4
 574              	.LVL86:
 575 015a FFF7FEFF 		bl	max30102_set_interrupt
 576              	.LVL87:
 154:max30102_interface.c ****     if (res != 0) {
 577              		.loc 1 154 0
 578 015e 0446     		mov	r4, r0
 579              	.LVL88:
 580 0160 30B1     		cbz	r0, .L39
 155:max30102_interface.c ****         Log_Write(LOG_LEVEL_ERROR, "Failed to enable FIFO Data Ready interrupt (Error Code: %d)", r
ARM GAS  C:\Users\CHRONI~1\AppData\Local\Temp\ccI8PN8M.s 			page 14


 581              		.loc 1 155 0
 582 0162 0246     		mov	r2, r0
 583 0164 1A49     		ldr	r1, .L41+80
 584 0166 0420     		movs	r0, #4
 585              	.LVL89:
 586 0168 FFF7FEFF 		bl	Log_Write
 587              	.LVL90:
 156:max30102_interface.c ****         return res;
 588              		.loc 1 156 0
 589 016c 2046     		mov	r0, r4
 590 016e 38BD     		pop	{r3, r4, r5, pc}
 591              	.LVL91:
 592              	.L39:
 157:max30102_interface.c ****     }
 158:max30102_interface.c **** 
 159:max30102_interface.c ****     Log_Write(LOG_LEVEL_INFO, "MAX30102 sensor initialized and configured successfully", 0);
 593              		.loc 1 159 0
 594 0170 0022     		movs	r2, #0
 595 0172 1849     		ldr	r1, .L41+84
 596 0174 0120     		movs	r0, #1
 597              	.LVL92:
 598 0176 FFF7FEFF 		bl	Log_Write
 599              	.LVL93:
 160:max30102_interface.c ****     return 0;  // Successful initialization
 600              		.loc 1 160 0
 601 017a 0020     		movs	r0, #0
 161:max30102_interface.c **** }
 602              		.loc 1 161 0
 603 017c 38BD     		pop	{r3, r4, r5, pc}
 604              	.L42:
 605 017e 00BF     		.align	2
 606              	.L41:
 607 0180 00000000 		.word	bsp_i2c_init
 608 0184 00000000 		.word	bsp_i2c_deinit
 609 0188 00000000 		.word	bsp_i2c_read
 610 018c 00000000 		.word	bsp_i2c_write
 611 0190 00000000 		.word	bsp_delay_ms
 612 0194 00000000 		.word	bsp_debug_print
 613 0198 00000000 		.word	max30102_receive_callback
 614 019c A4000000 		.word	.LC7
 615 01a0 C4000000 		.word	.LC8
 616 01a4 FC000000 		.word	.LC9
 617 01a8 24010000 		.word	.LC10
 618 01ac 50010000 		.word	.LC11
 619 01b0 7C010000 		.word	.LC12
 620 01b4 B0010000 		.word	.LC13
 621 01b8 E8010000 		.word	.LC14
 622 01bc 1C020000 		.word	.LC15
 623 01c0 54020000 		.word	.LC16
 624 01c4 8C020000 		.word	.LC17
 625 01c8 C0020000 		.word	.LC18
 626 01cc F4020000 		.word	.LC19
 627 01d0 20030000 		.word	.LC20
 628 01d4 5C030000 		.word	.LC21
 629              		.cfi_endproc
 630              	.LFE69:
 631              		.size	max30102_sensor_init, .-max30102_sensor_init
ARM GAS  C:\Users\CHRONI~1\AppData\Local\Temp\ccI8PN8M.s 			page 15


 632              		.comm	LedG_TaskStk,1024,4
 633              		.comm	LedG_Task_TCB,192,4
 634              		.comm	LedRB_TaskStk,1024,4
 635              		.comm	LedRB_Task_TCB,192,4
 636              		.comm	BUT_TaskStk,512,4
 637              		.comm	BUT_Task_TCB,192,4
 638              		.section	.rodata.str1.4,"aMS",%progbits,1
 639              		.align	2
 640              	.LC0:
 641 0000 4572726F 		.ascii	"Error in delay function\000"
 641      7220696E 
 641      2064656C 
 641      61792066 
 641      756E6374 
 642              	.LC1:
 643 0018 49324320 		.ascii	"I2C deinit\000"
 643      6465696E 
 643      697400
 644 0023 00       		.space	1
 645              	.LC2:
 646 0024 49324320 		.ascii	"I2C init\000"
 646      696E6974 
 646      00
 647 002d 000000   		.space	3
 648              	.LC3:
 649 0030 54656D70 		.ascii	"Temperature data received.\015\012\000"
 649      65726174 
 649      75726520 
 649      64617461 
 649      20726563 
 650 004d 000000   		.space	3
 651              	.LC4:
 652 0050 48656172 		.ascii	"Heart rate data received.\015\012\000"
 652      74207261 
 652      74652064 
 652      61746120 
 652      72656365 
 653              	.LC5:
 654 006c 53704F32 		.ascii	"SpO2 data received.\015\012\000"
 654      20646174 
 654      61207265 
 654      63656976 
 654      65642E0D 
 655 0082 0000     		.space	2
 656              	.LC6:
 657 0084 556E6B6E 		.ascii	"Unknown data type received.\015\012\000"
 657      6F776E20 
 657      64617461 
 657      20747970 
 657      65207265 
 658 00a2 0000     		.space	2
 659              	.LC7:
 660 00a4 496E6974 		.ascii	"Initializing MAX30102 sensor...\000"
 660      69616C69 
 660      7A696E67 
 660      204D4158 
 660      33303130 
ARM GAS  C:\Users\CHRONI~1\AppData\Local\Temp\ccI8PN8M.s 			page 16


 661              	.LC8:
 662 00c4 4661696C 		.ascii	"Failed to initialize MAX30102 sensor (Error Code: %"
 662      65642074 
 662      6F20696E 
 662      69746961 
 662      6C697A65 
 663 00f7 642900   		.ascii	"d)\000"
 664 00fa 0000     		.space	2
 665              	.LC9:
 666 00fc 436F6E66 		.ascii	"Configuring FIFO sample averaging...\015\012\000"
 666      69677572 
 666      696E6720 
 666      4649464F 
 666      2073616D 
 667 0123 00       		.space	1
 668              	.LC10:
 669 0124 4661696C 		.ascii	"Failed to configure FIFO sample averaging\000"
 669      65642074 
 669      6F20636F 
 669      6E666967 
 669      75726520 
 670 014e 0000     		.space	2
 671              	.LC11:
 672 0150 4661696C 		.ascii	"Failed to set sensor mode (Error Code: %d)\000"
 672      65642074 
 672      6F207365 
 672      74207365 
 672      6E736F72 
 673 017b 00       		.space	1
 674              	.LC12:
 675 017c 4661696C 		.ascii	"Failed to configure SPO2 ADC range (Error Code: %d)"
 675      65642074 
 675      6F20636F 
 675      6E666967 
 675      75726520 
 676 01af 00       		.ascii	"\000"
 677              	.LC13:
 678 01b0 4661696C 		.ascii	"Failed to configure SPO2 sample rate (Error Code: %"
 678      65642074 
 678      6F20636F 
 678      6E666967 
 678      75726520 
 679 01e3 642900   		.ascii	"d)\000"
 680 01e6 0000     		.space	2
 681              	.LC14:
 682 01e8 4661696C 		.ascii	"Failed to configure ADC resolution (Error Code: %d)"
 682      65642074 
 682      6F20636F 
 682      6E666967 
 682      75726520 
 683 021b 00       		.ascii	"\000"
 684              	.LC15:
 685 021c 4661696C 		.ascii	"Failed to set Red LED pulse amplitude (Error Code: "
 685      65642074 
 685      6F207365 
 685      74205265 
 685      64204C45 
ARM GAS  C:\Users\CHRONI~1\AppData\Local\Temp\ccI8PN8M.s 			page 17


 686 024f 25642900 		.ascii	"%d)\000"
 687 0253 00       		.space	1
 688              	.LC16:
 689 0254 4661696C 		.ascii	"Failed to set IR LED pulse amplitude (Error Code: %"
 689      65642074 
 689      6F207365 
 689      74204952 
 689      204C4544 
 690 0287 642900   		.ascii	"d)\000"
 691 028a 0000     		.space	2
 692              	.LC17:
 693 028c 4661696C 		.ascii	"Failed to set Slot 1 for Red LED (Error Code: %d)\000"
 693      65642074 
 693      6F207365 
 693      7420536C 
 693      6F742031 
 694 02be 0000     		.space	2
 695              	.LC18:
 696 02c0 4661696C 		.ascii	"Failed to set Slot 2 for IR LED (Error Code: %d)\000"
 696      65642074 
 696      6F207365 
 696      7420536C 
 696      6F742032 
 697 02f1 000000   		.space	3
 698              	.LC19:
 699 02f4 4661696C 		.ascii	"Failed to enable FIFO roll (Error Code: %d)\000"
 699      65642074 
 699      6F20656E 
 699      61626C65 
 699      20464946 
 700              	.LC20:
 701 0320 4661696C 		.ascii	"Failed to enable FIFO Data Ready interrupt (Error C"
 701      65642074 
 701      6F20656E 
 701      61626C65 
 701      20464946 
 702 0353 6F64653A 		.ascii	"ode: %d)\000"
 702      20256429 
 702      00
 703              	.LC21:
 704 035c 4D415833 		.ascii	"MAX30102 sensor initialized and configured successf"
 704      30313032 
 704      2073656E 
 704      736F7220 
 704      696E6974 
 705 038f 756C6C79 		.ascii	"ully\000"
 705      00
 706              		.text
 707              	.Letext0:
 708              		.file 2 "c:\\program files (x86)\\cypress\\psoc creator\\4.4\\psoc creator\\import\\gnu\\arm\\5.4.
 709              		.file 3 "c:\\program files (x86)\\cypress\\psoc creator\\4.4\\psoc creator\\import\\gnu\\arm\\5.4.
 710              		.file 4 "c:\\program files (x86)\\cypress\\psoc creator\\4.4\\psoc creator\\import\\gnu\\arm\\5.4.
 711              		.file 5 ".\\SensorLib\\max30102/driver_max30102.h"
 712              		.file 6 "<built-in>"
 713              		.file 7 ".\\uC-CPU\\ARM-Cortex-M3\\GNU/cpu.h"
 714              		.file 8 ".\\uC-CPU/cpu_core.h"
 715              		.file 9 ".\\uCOS-III\\Source/os_type.h"
ARM GAS  C:\Users\CHRONI~1\AppData\Local\Temp\ccI8PN8M.s 			page 18


 716              		.file 10 ".\\uCOS-III\\Source/os.h"
 717              		.file 11 "./heartbeatSensor.h"
 718              		.file 12 "Generated_Source\\PSoC5/core_cm3.h"
 719              		.file 13 "./gpio_tasks.h"
 720              		.file 14 "./log_task.h"
 721              		.file 15 "c:\\program files (x86)\\cypress\\psoc creator\\4.4\\psoc creator\\import\\gnu\\arm\\5.4
 722              		.file 16 "Generated_Source\\PSoC5/UART_1.h"